
StepMeas_BTL.elf:     file format elf32-littlearm

Sections:
Idx Name          Size      VMA       LMA       File off  Algn
  0 .isr_vector   00000220  08000000  08000000  00001000  2**2
                  CONTENTS, ALLOC, LOAD, READONLY, DATA
  1 .text         00003194  08000220  08000220  00001220  2**2
                  CONTENTS, ALLOC, LOAD, READONLY, CODE
  2 .rodata       00000040  080033b4  080033b4  000043b4  2**2
                  CONTENTS, ALLOC, LOAD, READONLY, DATA
  3 .ARM.extab    00000000  080033f4  080033f4  000050cc  2**0
                  CONTENTS
  4 .ARM          00000008  080033f4  080033f4  000043f4  2**2
                  CONTENTS, ALLOC, LOAD, READONLY, DATA
  5 .preinit_array 00000000  080033fc  080033fc  000050cc  2**0
                  CONTENTS, ALLOC, LOAD, DATA
  6 .init_array   00000004  080033fc  080033fc  000043fc  2**2
                  CONTENTS, ALLOC, LOAD, READONLY, DATA
  7 .fini_array   00000004  08003400  08003400  00004400  2**2
                  CONTENTS, ALLOC, LOAD, READONLY, DATA
  8 .data         0000000c  200000c0  08003404  000050c0  2**2
                  CONTENTS, ALLOC, LOAD, DATA
  9 .bss          000002c4  200000cc  08003410  000050cc  2**2
                  ALLOC
 10 ._user_heap_stack 00000600  20000390  08003410  00005390  2**0
                  ALLOC
 11 .ARM.attributes 00000030  00000000  00000000  000050cc  2**0
                  CONTENTS, READONLY
 12 .debug_info   0001d457  00000000  00000000  000050fc  2**0
                  CONTENTS, READONLY, DEBUGGING, OCTETS
 13 .debug_abbrev 000042d9  00000000  00000000  00022553  2**0
                  CONTENTS, READONLY, DEBUGGING, OCTETS
 14 .debug_loclists 0000e285  00000000  00000000  0002682c  2**0
                  CONTENTS, READONLY, DEBUGGING, OCTETS
 15 .debug_aranges 00001600  00000000  00000000  00034ab8  2**3
                  CONTENTS, READONLY, DEBUGGING, OCTETS
 16 .debug_rnglists 000010cb  00000000  00000000  000360b8  2**0
                  CONTENTS, READONLY, DEBUGGING, OCTETS
 17 .debug_macro  00026720  00000000  00000000  00037183  2**0
                  CONTENTS, READONLY, DEBUGGING, OCTETS
 18 .debug_line   000288b1  00000000  00000000  0005d8a3  2**0
                  CONTENTS, READONLY, DEBUGGING, OCTETS
 19 .debug_str    000e288c  00000000  00000000  00086154  2**0
                  CONTENTS, READONLY, DEBUGGING, OCTETS
 20 .comment      00000043  00000000  00000000  001689e0  2**0
                  CONTENTS, READONLY
 21 .debug_frame  00003c58  00000000  00000000  00168a24  2**2
                  CONTENTS, READONLY, DEBUGGING, OCTETS
 22 .debug_line_str 0000007f  00000000  00000000  0016c67c  2**0
                  CONTENTS, READONLY, DEBUGGING, OCTETS

Disassembly of section .text:

08000220 <__do_global_dtors_aux>:
 8000220:	b510      	push	{r4, lr}
 8000222:	4c05      	ldr	r4, [pc, #20]	@ (8000238 <__do_global_dtors_aux+0x18>)
 8000224:	7823      	ldrb	r3, [r4, #0]
 8000226:	b933      	cbnz	r3, 8000236 <__do_global_dtors_aux+0x16>
 8000228:	4b04      	ldr	r3, [pc, #16]	@ (800023c <__do_global_dtors_aux+0x1c>)
 800022a:	b113      	cbz	r3, 8000232 <__do_global_dtors_aux+0x12>
 800022c:	4804      	ldr	r0, [pc, #16]	@ (8000240 <__do_global_dtors_aux+0x20>)
 800022e:	f3af 8000 	nop.w
 8000232:	2301      	movs	r3, #1
 8000234:	7023      	strb	r3, [r4, #0]
 8000236:	bd10      	pop	{r4, pc}
 8000238:	200000cc 	.word	0x200000cc
 800023c:	00000000 	.word	0x00000000
 8000240:	0800339c 	.word	0x0800339c

08000244 <frame_dummy>:
 8000244:	b508      	push	{r3, lr}
 8000246:	4b03      	ldr	r3, [pc, #12]	@ (8000254 <frame_dummy+0x10>)
 8000248:	b11b      	cbz	r3, 8000252 <frame_dummy+0xe>
 800024a:	4903      	ldr	r1, [pc, #12]	@ (8000258 <frame_dummy+0x14>)
 800024c:	4803      	ldr	r0, [pc, #12]	@ (800025c <frame_dummy+0x18>)
 800024e:	f3af 8000 	nop.w
 8000252:	bd08      	pop	{r3, pc}
 8000254:	00000000 	.word	0x00000000
 8000258:	200000d0 	.word	0x200000d0
 800025c:	0800339c 	.word	0x0800339c

08000260 <__aeabi_uldivmod>:
 8000260:	b953      	cbnz	r3, 8000278 <__aeabi_uldivmod+0x18>
 8000262:	b94a      	cbnz	r2, 8000278 <__aeabi_uldivmod+0x18>
 8000264:	2900      	cmp	r1, #0
 8000266:	bf08      	it	eq
 8000268:	2800      	cmpeq	r0, #0
 800026a:	bf1c      	itt	ne
 800026c:	f04f 31ff 	movne.w	r1, #4294967295
 8000270:	f04f 30ff 	movne.w	r0, #4294967295
 8000274:	f000 b96a 	b.w	800054c <__aeabi_idiv0>
 8000278:	f1ad 0c08 	sub.w	ip, sp, #8
 800027c:	e96d ce04 	strd	ip, lr, [sp, #-16]!
 8000280:	f000 f806 	bl	8000290 <__udivmoddi4>
 8000284:	f8dd e004 	ldr.w	lr, [sp, #4]
 8000288:	e9dd 2302 	ldrd	r2, r3, [sp, #8]
 800028c:	b004      	add	sp, #16
 800028e:	4770      	bx	lr

08000290 <__udivmoddi4>:
 8000290:	e92d 47f0 	stmdb	sp!, {r4, r5, r6, r7, r8, r9, sl, lr}
 8000294:	9d08      	ldr	r5, [sp, #32]
 8000296:	460c      	mov	r4, r1
 8000298:	2b00      	cmp	r3, #0
 800029a:	d14e      	bne.n	800033a <__udivmoddi4+0xaa>
 800029c:	4694      	mov	ip, r2
 800029e:	458c      	cmp	ip, r1
 80002a0:	4686      	mov	lr, r0
 80002a2:	fab2 f282 	clz	r2, r2
 80002a6:	d962      	bls.n	800036e <__udivmoddi4+0xde>
 80002a8:	b14a      	cbz	r2, 80002be <__udivmoddi4+0x2e>
 80002aa:	f1c2 0320 	rsb	r3, r2, #32
 80002ae:	4091      	lsls	r1, r2
 80002b0:	fa20 f303 	lsr.w	r3, r0, r3
 80002b4:	fa0c fc02 	lsl.w	ip, ip, r2
 80002b8:	4319      	orrs	r1, r3
 80002ba:	fa00 fe02 	lsl.w	lr, r0, r2
 80002be:	ea4f 471c 	mov.w	r7, ip, lsr #16
 80002c2:	fa1f f68c 	uxth.w	r6, ip
 80002c6:	fbb1 f4f7 	udiv	r4, r1, r7
 80002ca:	ea4f 431e 	mov.w	r3, lr, lsr #16
 80002ce:	fb07 1114 	mls	r1, r7, r4, r1
 80002d2:	ea43 4301 	orr.w	r3, r3, r1, lsl #16
 80002d6:	fb04 f106 	mul.w	r1, r4, r6
 80002da:	4299      	cmp	r1, r3
 80002dc:	d90a      	bls.n	80002f4 <__udivmoddi4+0x64>
 80002de:	eb1c 0303 	adds.w	r3, ip, r3
 80002e2:	f104 30ff 	add.w	r0, r4, #4294967295
 80002e6:	f080 8112 	bcs.w	800050e <__udivmoddi4+0x27e>
 80002ea:	4299      	cmp	r1, r3
 80002ec:	f240 810f 	bls.w	800050e <__udivmoddi4+0x27e>
 80002f0:	3c02      	subs	r4, #2
 80002f2:	4463      	add	r3, ip
 80002f4:	1a59      	subs	r1, r3, r1
 80002f6:	fa1f f38e 	uxth.w	r3, lr
 80002fa:	fbb1 f0f7 	udiv	r0, r1, r7
 80002fe:	fb07 1110 	mls	r1, r7, r0, r1
 8000302:	ea43 4301 	orr.w	r3, r3, r1, lsl #16
 8000306:	fb00 f606 	mul.w	r6, r0, r6
 800030a:	429e      	cmp	r6, r3
 800030c:	d90a      	bls.n	8000324 <__udivmoddi4+0x94>
 800030e:	eb1c 0303 	adds.w	r3, ip, r3
 8000312:	f100 31ff 	add.w	r1, r0, #4294967295
 8000316:	f080 80fc 	bcs.w	8000512 <__udivmoddi4+0x282>
 800031a:	429e      	cmp	r6, r3
 800031c:	f240 80f9 	bls.w	8000512 <__udivmoddi4+0x282>
 8000320:	4463      	add	r3, ip
 8000322:	3802      	subs	r0, #2
 8000324:	1b9b      	subs	r3, r3, r6
 8000326:	ea40 4004 	orr.w	r0, r0, r4, lsl #16
 800032a:	2100      	movs	r1, #0
 800032c:	b11d      	cbz	r5, 8000336 <__udivmoddi4+0xa6>
 800032e:	40d3      	lsrs	r3, r2
 8000330:	2200      	movs	r2, #0
 8000332:	e9c5 3200 	strd	r3, r2, [r5]
 8000336:	e8bd 87f0 	ldmia.w	sp!, {r4, r5, r6, r7, r8, r9, sl, pc}
 800033a:	428b      	cmp	r3, r1
 800033c:	d905      	bls.n	800034a <__udivmoddi4+0xba>
 800033e:	b10d      	cbz	r5, 8000344 <__udivmoddi4+0xb4>
 8000340:	e9c5 0100 	strd	r0, r1, [r5]
 8000344:	2100      	movs	r1, #0
 8000346:	4608      	mov	r0, r1
 8000348:	e7f5      	b.n	8000336 <__udivmoddi4+0xa6>
 800034a:	fab3 f183 	clz	r1, r3
 800034e:	2900      	cmp	r1, #0
 8000350:	d146      	bne.n	80003e0 <__udivmoddi4+0x150>
 8000352:	42a3      	cmp	r3, r4
 8000354:	d302      	bcc.n	800035c <__udivmoddi4+0xcc>
 8000356:	4290      	cmp	r0, r2
 8000358:	f0c0 80f0 	bcc.w	800053c <__udivmoddi4+0x2ac>
 800035c:	1a86      	subs	r6, r0, r2
 800035e:	eb64 0303 	sbc.w	r3, r4, r3
 8000362:	2001      	movs	r0, #1
 8000364:	2d00      	cmp	r5, #0
 8000366:	d0e6      	beq.n	8000336 <__udivmoddi4+0xa6>
 8000368:	e9c5 6300 	strd	r6, r3, [r5]
 800036c:	e7e3      	b.n	8000336 <__udivmoddi4+0xa6>
 800036e:	2a00      	cmp	r2, #0
 8000370:	f040 8090 	bne.w	8000494 <__udivmoddi4+0x204>
 8000374:	eba1 040c 	sub.w	r4, r1, ip
 8000378:	ea4f 481c 	mov.w	r8, ip, lsr #16
 800037c:	fa1f f78c 	uxth.w	r7, ip
 8000380:	2101      	movs	r1, #1
 8000382:	fbb4 f6f8 	udiv	r6, r4, r8
 8000386:	ea4f 431e 	mov.w	r3, lr, lsr #16
 800038a:	fb08 4416 	mls	r4, r8, r6, r4
 800038e:	ea43 4304 	orr.w	r3, r3, r4, lsl #16
 8000392:	fb07 f006 	mul.w	r0, r7, r6
 8000396:	4298      	cmp	r0, r3
 8000398:	d908      	bls.n	80003ac <__udivmoddi4+0x11c>
 800039a:	eb1c 0303 	adds.w	r3, ip, r3
 800039e:	f106 34ff 	add.w	r4, r6, #4294967295
 80003a2:	d202      	bcs.n	80003aa <__udivmoddi4+0x11a>
 80003a4:	4298      	cmp	r0, r3
 80003a6:	f200 80cd 	bhi.w	8000544 <__udivmoddi4+0x2b4>
 80003aa:	4626      	mov	r6, r4
 80003ac:	1a1c      	subs	r4, r3, r0
 80003ae:	fa1f f38e 	uxth.w	r3, lr
 80003b2:	fbb4 f0f8 	udiv	r0, r4, r8
 80003b6:	fb08 4410 	mls	r4, r8, r0, r4
 80003ba:	ea43 4304 	orr.w	r3, r3, r4, lsl #16
 80003be:	fb00 f707 	mul.w	r7, r0, r7
 80003c2:	429f      	cmp	r7, r3
 80003c4:	d908      	bls.n	80003d8 <__udivmoddi4+0x148>
 80003c6:	eb1c 0303 	adds.w	r3, ip, r3
 80003ca:	f100 34ff 	add.w	r4, r0, #4294967295
 80003ce:	d202      	bcs.n	80003d6 <__udivmoddi4+0x146>
 80003d0:	429f      	cmp	r7, r3
 80003d2:	f200 80b0 	bhi.w	8000536 <__udivmoddi4+0x2a6>
 80003d6:	4620      	mov	r0, r4
 80003d8:	1bdb      	subs	r3, r3, r7
 80003da:	ea40 4006 	orr.w	r0, r0, r6, lsl #16
 80003de:	e7a5      	b.n	800032c <__udivmoddi4+0x9c>
 80003e0:	f1c1 0620 	rsb	r6, r1, #32
 80003e4:	408b      	lsls	r3, r1
 80003e6:	fa22 f706 	lsr.w	r7, r2, r6
 80003ea:	431f      	orrs	r7, r3
 80003ec:	fa20 fc06 	lsr.w	ip, r0, r6
 80003f0:	fa04 f301 	lsl.w	r3, r4, r1
 80003f4:	ea43 030c 	orr.w	r3, r3, ip
 80003f8:	40f4      	lsrs	r4, r6
 80003fa:	fa00 f801 	lsl.w	r8, r0, r1
 80003fe:	0c38      	lsrs	r0, r7, #16
 8000400:	ea4f 4913 	mov.w	r9, r3, lsr #16
 8000404:	fbb4 fef0 	udiv	lr, r4, r0
 8000408:	fa1f fc87 	uxth.w	ip, r7
 800040c:	fb00 441e 	mls	r4, r0, lr, r4
 8000410:	ea49 4404 	orr.w	r4, r9, r4, lsl #16
 8000414:	fb0e f90c 	mul.w	r9, lr, ip
 8000418:	45a1      	cmp	r9, r4
 800041a:	fa02 f201 	lsl.w	r2, r2, r1
 800041e:	d90a      	bls.n	8000436 <__udivmoddi4+0x1a6>
 8000420:	193c      	adds	r4, r7, r4
 8000422:	f10e 3aff 	add.w	sl, lr, #4294967295
 8000426:	f080 8084 	bcs.w	8000532 <__udivmoddi4+0x2a2>
 800042a:	45a1      	cmp	r9, r4
 800042c:	f240 8081 	bls.w	8000532 <__udivmoddi4+0x2a2>
 8000430:	f1ae 0e02 	sub.w	lr, lr, #2
 8000434:	443c      	add	r4, r7
 8000436:	eba4 0409 	sub.w	r4, r4, r9
 800043a:	fa1f f983 	uxth.w	r9, r3
 800043e:	fbb4 f3f0 	udiv	r3, r4, r0
 8000442:	fb00 4413 	mls	r4, r0, r3, r4
 8000446:	ea49 4404 	orr.w	r4, r9, r4, lsl #16
 800044a:	fb03 fc0c 	mul.w	ip, r3, ip
 800044e:	45a4      	cmp	ip, r4
 8000450:	d907      	bls.n	8000462 <__udivmoddi4+0x1d2>
 8000452:	193c      	adds	r4, r7, r4
 8000454:	f103 30ff 	add.w	r0, r3, #4294967295
 8000458:	d267      	bcs.n	800052a <__udivmoddi4+0x29a>
 800045a:	45a4      	cmp	ip, r4
 800045c:	d965      	bls.n	800052a <__udivmoddi4+0x29a>
 800045e:	3b02      	subs	r3, #2
 8000460:	443c      	add	r4, r7
 8000462:	ea43 400e 	orr.w	r0, r3, lr, lsl #16
 8000466:	fba0 9302 	umull	r9, r3, r0, r2
 800046a:	eba4 040c 	sub.w	r4, r4, ip
 800046e:	429c      	cmp	r4, r3
 8000470:	46ce      	mov	lr, r9
 8000472:	469c      	mov	ip, r3
 8000474:	d351      	bcc.n	800051a <__udivmoddi4+0x28a>
 8000476:	d04e      	beq.n	8000516 <__udivmoddi4+0x286>
 8000478:	b155      	cbz	r5, 8000490 <__udivmoddi4+0x200>
 800047a:	ebb8 030e 	subs.w	r3, r8, lr
 800047e:	eb64 040c 	sbc.w	r4, r4, ip
 8000482:	fa04 f606 	lsl.w	r6, r4, r6
 8000486:	40cb      	lsrs	r3, r1
 8000488:	431e      	orrs	r6, r3
 800048a:	40cc      	lsrs	r4, r1
 800048c:	e9c5 6400 	strd	r6, r4, [r5]
 8000490:	2100      	movs	r1, #0
 8000492:	e750      	b.n	8000336 <__udivmoddi4+0xa6>
 8000494:	f1c2 0320 	rsb	r3, r2, #32
 8000498:	fa20 f103 	lsr.w	r1, r0, r3
 800049c:	fa0c fc02 	lsl.w	ip, ip, r2
 80004a0:	fa24 f303 	lsr.w	r3, r4, r3
 80004a4:	4094      	lsls	r4, r2
 80004a6:	430c      	orrs	r4, r1
 80004a8:	ea4f 481c 	mov.w	r8, ip, lsr #16
 80004ac:	fa00 fe02 	lsl.w	lr, r0, r2
 80004b0:	fa1f f78c 	uxth.w	r7, ip
 80004b4:	fbb3 f0f8 	udiv	r0, r3, r8
 80004b8:	fb08 3110 	mls	r1, r8, r0, r3
 80004bc:	0c23      	lsrs	r3, r4, #16
 80004be:	ea43 4301 	orr.w	r3, r3, r1, lsl #16
 80004c2:	fb00 f107 	mul.w	r1, r0, r7
 80004c6:	4299      	cmp	r1, r3
 80004c8:	d908      	bls.n	80004dc <__udivmoddi4+0x24c>
 80004ca:	eb1c 0303 	adds.w	r3, ip, r3
 80004ce:	f100 36ff 	add.w	r6, r0, #4294967295
 80004d2:	d22c      	bcs.n	800052e <__udivmoddi4+0x29e>
 80004d4:	4299      	cmp	r1, r3
 80004d6:	d92a      	bls.n	800052e <__udivmoddi4+0x29e>
 80004d8:	3802      	subs	r0, #2
 80004da:	4463      	add	r3, ip
 80004dc:	1a5b      	subs	r3, r3, r1
 80004de:	b2a4      	uxth	r4, r4
 80004e0:	fbb3 f1f8 	udiv	r1, r3, r8
 80004e4:	fb08 3311 	mls	r3, r8, r1, r3
 80004e8:	ea44 4403 	orr.w	r4, r4, r3, lsl #16
 80004ec:	fb01 f307 	mul.w	r3, r1, r7
 80004f0:	42a3      	cmp	r3, r4
 80004f2:	d908      	bls.n	8000506 <__udivmoddi4+0x276>
 80004f4:	eb1c 0404 	adds.w	r4, ip, r4
 80004f8:	f101 36ff 	add.w	r6, r1, #4294967295
 80004fc:	d213      	bcs.n	8000526 <__udivmoddi4+0x296>
 80004fe:	42a3      	cmp	r3, r4
 8000500:	d911      	bls.n	8000526 <__udivmoddi4+0x296>
 8000502:	3902      	subs	r1, #2
 8000504:	4464      	add	r4, ip
 8000506:	1ae4      	subs	r4, r4, r3
 8000508:	ea41 4100 	orr.w	r1, r1, r0, lsl #16
 800050c:	e739      	b.n	8000382 <__udivmoddi4+0xf2>
 800050e:	4604      	mov	r4, r0
 8000510:	e6f0      	b.n	80002f4 <__udivmoddi4+0x64>
 8000512:	4608      	mov	r0, r1
 8000514:	e706      	b.n	8000324 <__udivmoddi4+0x94>
 8000516:	45c8      	cmp	r8, r9
 8000518:	d2ae      	bcs.n	8000478 <__udivmoddi4+0x1e8>
 800051a:	ebb9 0e02 	subs.w	lr, r9, r2
 800051e:	eb63 0c07 	sbc.w	ip, r3, r7
 8000522:	3801      	subs	r0, #1
 8000524:	e7a8      	b.n	8000478 <__udivmoddi4+0x1e8>
 8000526:	4631      	mov	r1, r6
 8000528:	e7ed      	b.n	8000506 <__udivmoddi4+0x276>
 800052a:	4603      	mov	r3, r0
 800052c:	e799      	b.n	8000462 <__udivmoddi4+0x1d2>
 800052e:	4630      	mov	r0, r6
 8000530:	e7d4      	b.n	80004dc <__udivmoddi4+0x24c>
 8000532:	46d6      	mov	lr, sl
 8000534:	e77f      	b.n	8000436 <__udivmoddi4+0x1a6>
 8000536:	4463      	add	r3, ip
 8000538:	3802      	subs	r0, #2
 800053a:	e74d      	b.n	80003d8 <__udivmoddi4+0x148>
 800053c:	4606      	mov	r6, r0
 800053e:	4623      	mov	r3, r4
 8000540:	4608      	mov	r0, r1
 8000542:	e70f      	b.n	8000364 <__udivmoddi4+0xd4>
 8000544:	3e02      	subs	r6, #2
 8000546:	4463      	add	r3, ip
 8000548:	e730      	b.n	80003ac <__udivmoddi4+0x11c>
 800054a:	bf00      	nop

0800054c <__aeabi_idiv0>:
 800054c:	4770      	bx	lr
 800054e:	bf00      	nop

08000550 <Btl_Init>:
Status_t Btl_VerifyImage(uint32_t *address);

/* Functions -----------------------------------------------------------------*/

Status_t Btl_Init(void)
{
 8000550:	b508      	push	{r3, lr}
  Status_t ret = STATUS_OK;

  /* Initialize CRC peripheral */
  System_CrcInit();
 8000552:	f000 f8d5 	bl	8000700 <System_CrcInit>

  return ret;
}
 8000556:	2000      	movs	r0, #0
 8000558:	bd08      	pop	{r3, pc}
	...

0800055c <Btl_StartAppAnyway>:

  return ret;
}

Status_t Btl_StartAppAnyway(void)
{
 800055c:	b508      	push	{r3, lr}
  Status_t ret = STATUS_OK;
  HAL_DeInit();
 800055e:	f000 fe77 	bl	8001250 <HAL_DeInit>
  HAL_RCC_DeInit();
 8000562:	f002 f86b 	bl	800263c <HAL_RCC_DeInit>

  System_StartApplication((uint32_t)CONF_C_APPLICATION_OFFSET);
 8000566:	4802      	ldr	r0, [pc, #8]	@ (8000570 <Btl_StartAppAnyway+0x14>)
 8000568:	f000 f906 	bl	8000778 <System_StartApplication>

  return ret;
}
 800056c:	2000      	movs	r0, #0
 800056e:	bd08      	pop	{r3, pc}
 8000570:	0800c000 	.word	0x0800c000

08000574 <Btl_VerifyImage>:

/* Private Functions ---------------------------------------------------------*/


Status_t Btl_VerifyImage(uint32_t *address)
{
 8000574:	e92d 4ff8 	stmdb	sp!, {r3, r4, r5, r6, r7, r8, r9, sl, fp, lr}
  Status_t ret = STATUS_OK;
  uint32_t checksum = *(address + (uint32_t)CONF_FW_INFO_OFFSET / 4 + 2);
 8000578:	4d1c      	ldr	r5, [pc, #112]	@ (80005ec <Btl_VerifyImage+0x78>)
 800057a:	f025 0303 	bic.w	r3, r5, #3
 800057e:	f103 0208 	add.w	r2, r3, #8
 8000582:	f850 9002 	ldr.w	r9, [r0, r2]
  uint32_t calcChecksum;
  uint32_t size = *(address + (uint32_t)CONF_FW_INFO_OFFSET / 4 + 3);
 8000586:	f103 020c 	add.w	r2, r3, #12
 800058a:	5886      	ldr	r6, [r0, r2]
  uint32_t devId = *(uint32_t*)((uint32_t)CONF_C_BOOTLOADER_OFFSET + (uint32_t)CONF_FW_INFO_OFFSET + 4);
 800058c:	4a18      	ldr	r2, [pc, #96]	@ (80005f0 <Btl_VerifyImage+0x7c>)
 800058e:	f852 8005 	ldr.w	r8, [r2, r5]
  uint32_t targetDev = *(address + (uint32_t)CONF_FW_INFO_OFFSET / 4 + 8);
 8000592:	3320      	adds	r3, #32
 8000594:	eb00 0a03 	add.w	sl, r0, r3
 8000598:	f850 b003 	ldr.w	fp, [r0, r3]

  /* If size is greater than MAX value */
  if (size > (uint32_t)CONF_C_APPLICATION_MAX_SIZE)
 800059c:	4b15      	ldr	r3, [pc, #84]	@ (80005f4 <Btl_VerifyImage+0x80>)
 800059e:	42b3      	cmp	r3, r6
 80005a0:	d203      	bcs.n	80005aa <Btl_VerifyImage+0x36>
  {
    ret = STATUS_ERROR;
 80005a2:	2701      	movs	r7, #1
      ret = STATUS_ERROR;
    }
  }

  return ret;
}
 80005a4:	4638      	mov	r0, r7
 80005a6:	e8bd 8ff8 	ldmia.w	sp!, {r3, r4, r5, r6, r7, r8, r9, sl, fp, pc}
 80005aa:	4604      	mov	r4, r0
    ret = System_IsFlashNotEmpty(address, (uint32_t)size);
 80005ac:	4631      	mov	r1, r6
 80005ae:	f000 f969 	bl	8000884 <System_IsFlashNotEmpty>
  if (ret == STATUS_OK)
 80005b2:	4607      	mov	r7, r0
 80005b4:	2800      	cmp	r0, #0
 80005b6:	d1f5      	bne.n	80005a4 <Btl_VerifyImage+0x30>
    System_CrcClear();
 80005b8:	f000 f8c2 	bl	8000740 <System_CrcClear>
    System_CrcAccumulate(address, (uint32_t)CONF_FW_INFO_OFFSET / 4);
 80005bc:	08a9      	lsrs	r1, r5, #2
 80005be:	4620      	mov	r0, r4
 80005c0:	f000 f8c8 	bl	8000754 <System_CrcAccumulate>
    System_CrcAccumulate((uint32_t*)CONF_FIRMWARE_INFO, 8);
 80005c4:	2108      	movs	r1, #8
 80005c6:	480c      	ldr	r0, [pc, #48]	@ (80005f8 <Btl_VerifyImage+0x84>)
 80005c8:	f000 f8c4 	bl	8000754 <System_CrcAccumulate>
    calcChecksum = System_CrcAccumulate(address + (uint32_t)CONF_FW_INFO_OFFSET / 4 + 8, (size - (uint32_t)CONF_FW_INFO_OFFSET - 32) / 4);
 80005cc:	f06f 011f 	mvn.w	r1, #31
 80005d0:	1b49      	subs	r1, r1, r5
 80005d2:	4431      	add	r1, r6
 80005d4:	0889      	lsrs	r1, r1, #2
 80005d6:	4650      	mov	r0, sl
 80005d8:	f000 f8bc 	bl	8000754 <System_CrcAccumulate>
    if (calcChecksum != checksum)
 80005dc:	4581      	cmp	r9, r0
 80005de:	d000      	beq.n	80005e2 <Btl_VerifyImage+0x6e>
      ret = STATUS_ERROR;
 80005e0:	2701      	movs	r7, #1
    if (targetDev != devId)
 80005e2:	45d8      	cmp	r8, fp
 80005e4:	d0de      	beq.n	80005a4 <Btl_VerifyImage+0x30>
      ret = STATUS_ERROR;
 80005e6:	2701      	movs	r7, #1
 80005e8:	e7dc      	b.n	80005a4 <Btl_VerifyImage+0x30>
 80005ea:	bf00      	nop
 80005ec:	00000200 	.word	0x00000200
 80005f0:	08000004 	.word	0x08000004
 80005f4:	00034000 	.word	0x00034000
 80005f8:	080033b4 	.word	0x080033b4

080005fc <Btl_CopyImage>:

Status_t Btl_CopyImage(uint32_t *source, uint32_t *dest)
{
 80005fc:	b508      	push	{r3, lr}
 80005fe:	4684      	mov	ip, r0
 8000600:	4608      	mov	r0, r1
  Status_t ret = STATUS_OK;
  /* Take size of source application */
  uint32_t size = *(source + (uint32_t)CONF_FW_INFO_OFFSET / 4 + 3);
 8000602:	4b05      	ldr	r3, [pc, #20]	@ (8000618 <Btl_CopyImage+0x1c>)
 8000604:	f023 0303 	bic.w	r3, r3, #3
 8000608:	330c      	adds	r3, #12

  /* Write source app into destination */
  ret = System_FlashProgram((uint32_t) dest, (uint8_t *)source, size);
 800060a:	f85c 2003 	ldr.w	r2, [ip, r3]
 800060e:	4661      	mov	r1, ip
 8000610:	f000 f8e6 	bl	80007e0 <System_FlashProgram>

  return ret;
}
 8000614:	bd08      	pop	{r3, pc}
 8000616:	bf00      	nop
 8000618:	00000200 	.word	0x00000200

0800061c <Btl_Handle>:
{
 800061c:	b538      	push	{r3, r4, r5, lr}
  ret = Btl_VerifyImage((uint32_t *)CONF_C_APP_BUFFER_OFFSET);
 800061e:	4819      	ldr	r0, [pc, #100]	@ (8000684 <Btl_Handle+0x68>)
 8000620:	f7ff ffa8 	bl	8000574 <Btl_VerifyImage>
  if (ret == STATUS_OK)
 8000624:	b150      	cbz	r0, 800063c <Btl_Handle+0x20>
  System_ReloadWdg();
 8000626:	f000 f89f 	bl	8000768 <System_ReloadWdg>
  MX_TIM14_Start();
 800062a:	f000 fd73 	bl	8001114 <MX_TIM14_Start>
  ret = Btl_VerifyImage((uint32_t*)CONF_C_APPLICATION_OFFSET);
 800062e:	4816      	ldr	r0, [pc, #88]	@ (8000688 <Btl_Handle+0x6c>)
 8000630:	f7ff ffa0 	bl	8000574 <Btl_VerifyImage>
  if (ret == STATUS_OK)
 8000634:	4604      	mov	r4, r0
 8000636:	b1d8      	cbz	r0, 8000670 <Btl_Handle+0x54>
}
 8000638:	4620      	mov	r0, r4
 800063a:	bd38      	pop	{r3, r4, r5, pc}
    size = *((uint32_t*)CONF_C_APP_BUFFER_OFFSET + (uint32_t)CONF_FW_INFO_OFFSET / 4 + 3);
 800063c:	4b13      	ldr	r3, [pc, #76]	@ (800068c <Btl_Handle+0x70>)
 800063e:	f023 0303 	bic.w	r3, r3, #3
 8000642:	330c      	adds	r3, #12
 8000644:	4d0f      	ldr	r5, [pc, #60]	@ (8000684 <Btl_Handle+0x68>)
 8000646:	58e9      	ldr	r1, [r5, r3]
    ret += System_FlashErase((uint32_t)CONF_C_APPLICATION_OFFSET, (uint32_t)CONF_C_APPLICATION_OFFSET + size);
 8000648:	4c0f      	ldr	r4, [pc, #60]	@ (8000688 <Btl_Handle+0x6c>)
 800064a:	4421      	add	r1, r4
 800064c:	4620      	mov	r0, r4
 800064e:	f000 f8f5 	bl	800083c <System_FlashErase>
    ret += Btl_CopyImage((uint32_t*)CONF_C_APP_BUFFER_OFFSET, (uint32_t*)CONF_C_APPLICATION_OFFSET);
 8000652:	4621      	mov	r1, r4
 8000654:	4628      	mov	r0, r5
 8000656:	f7ff ffd1 	bl	80005fc <Btl_CopyImage>
    if (Btl_VerifyImage((uint32_t*)CONF_C_APPLICATION_OFFSET) == STATUS_OK)
 800065a:	4620      	mov	r0, r4
 800065c:	f7ff ff8a 	bl	8000574 <Btl_VerifyImage>
 8000660:	2800      	cmp	r0, #0
 8000662:	d1e0      	bne.n	8000626 <Btl_Handle+0xa>
      ret += System_FlashErase((uint32_t)CONF_C_APP_BUFFER_OFFSET, (uint32_t)CONF_C_APP_BUFFER_OFFSET + (uint32_t)CONF_C_APP_BUFFER_MAX_SIZE);
 8000664:	4628      	mov	r0, r5
 8000666:	490a      	ldr	r1, [pc, #40]	@ (8000690 <Btl_Handle+0x74>)
 8000668:	4429      	add	r1, r5
 800066a:	f000 f8e7 	bl	800083c <System_FlashErase>
 800066e:	e7da      	b.n	8000626 <Btl_Handle+0xa>
    System_Delay(500);
 8000670:	f44f 70fa 	mov.w	r0, #500	@ 0x1f4
 8000674:	f000 f918 	bl	80008a8 <System_Delay>
    System_ReloadWdg();
 8000678:	f000 f876 	bl	8000768 <System_ReloadWdg>
    System_StartApplication((uint32_t)CONF_C_APPLICATION_OFFSET);
 800067c:	4802      	ldr	r0, [pc, #8]	@ (8000688 <Btl_Handle+0x6c>)
 800067e:	f000 f87b 	bl	8000778 <System_StartApplication>
 8000682:	e7d9      	b.n	8000638 <Btl_Handle+0x1c>
 8000684:	08040000 	.word	0x08040000
 8000688:	0800c000 	.word	0x0800c000
 800068c:	00000200 	.word	0x00000200
 8000690:	00040000 	.word	0x00040000

08000694 <System_GetSector>:
 * @param  None
 * @retval The sector of a given address
 */
static uint32_t System_GetSector(uint32_t address)
{
  if (address < 0x08004000)
 8000694:	4b18      	ldr	r3, [pc, #96]	@ (80006f8 <System_GetSector+0x64>)
 8000696:	4298      	cmp	r0, r3
 8000698:	d31c      	bcc.n	80006d4 <System_GetSector+0x40>
    return FLASH_SECTOR_0;
  else if (address < 0x08008000)
 800069a:	f503 4380 	add.w	r3, r3, #16384	@ 0x4000
 800069e:	4298      	cmp	r0, r3
 80006a0:	d31a      	bcc.n	80006d8 <System_GetSector+0x44>
    return FLASH_SECTOR_1;
  else if (address < 0x0800C000)
 80006a2:	f503 4380 	add.w	r3, r3, #16384	@ 0x4000
 80006a6:	4298      	cmp	r0, r3
 80006a8:	d318      	bcc.n	80006dc <System_GetSector+0x48>
    return FLASH_SECTOR_2;
  else if (address < 0x08010000)
 80006aa:	4b14      	ldr	r3, [pc, #80]	@ (80006fc <System_GetSector+0x68>)
 80006ac:	4298      	cmp	r0, r3
 80006ae:	d917      	bls.n	80006e0 <System_GetSector+0x4c>
    return FLASH_SECTOR_3;
  else if (address < 0x08020000)
 80006b0:	f503 3380 	add.w	r3, r3, #65536	@ 0x10000
 80006b4:	4298      	cmp	r0, r3
 80006b6:	d915      	bls.n	80006e4 <System_GetSector+0x50>
    return FLASH_SECTOR_4;
  else if (address < 0x08040000)
 80006b8:	f503 3300 	add.w	r3, r3, #131072	@ 0x20000
 80006bc:	4298      	cmp	r0, r3
 80006be:	d913      	bls.n	80006e8 <System_GetSector+0x54>
    return FLASH_SECTOR_5;
  else if (address < 0x08060000)
 80006c0:	f503 3300 	add.w	r3, r3, #131072	@ 0x20000
 80006c4:	4298      	cmp	r0, r3
 80006c6:	d911      	bls.n	80006ec <System_GetSector+0x58>
    return FLASH_SECTOR_6;
  else if (address < 0x08080000)
 80006c8:	f503 3300 	add.w	r3, r3, #131072	@ 0x20000
 80006cc:	4298      	cmp	r0, r3
 80006ce:	d80f      	bhi.n	80006f0 <System_GetSector+0x5c>
    return FLASH_SECTOR_7;
 80006d0:	2007      	movs	r0, #7
 80006d2:	4770      	bx	lr
    return FLASH_SECTOR_0;
 80006d4:	2000      	movs	r0, #0
 80006d6:	4770      	bx	lr
    return FLASH_SECTOR_1;
 80006d8:	2001      	movs	r0, #1
 80006da:	4770      	bx	lr
    return FLASH_SECTOR_2;
 80006dc:	2002      	movs	r0, #2
 80006de:	4770      	bx	lr
    return FLASH_SECTOR_3;
 80006e0:	2003      	movs	r0, #3
 80006e2:	4770      	bx	lr
    return FLASH_SECTOR_4;
 80006e4:	2004      	movs	r0, #4
 80006e6:	4770      	bx	lr
    return FLASH_SECTOR_5;
 80006e8:	2005      	movs	r0, #5
 80006ea:	4770      	bx	lr
    return FLASH_SECTOR_6;
 80006ec:	2006      	movs	r0, #6
 80006ee:	4770      	bx	lr
  else
    return UINT32_MAX;
 80006f0:	f04f 30ff 	mov.w	r0, #4294967295
}
 80006f4:	4770      	bx	lr
 80006f6:	bf00      	nop
 80006f8:	08004000 	.word	0x08004000
 80006fc:	0800ffff 	.word	0x0800ffff

08000700 <System_CrcInit>:
{
 8000700:	b500      	push	{lr}
 8000702:	b083      	sub	sp, #12
  hcrc.Instance = CRC;
 8000704:	480b      	ldr	r0, [pc, #44]	@ (8000734 <System_CrcInit+0x34>)
 8000706:	4b0c      	ldr	r3, [pc, #48]	@ (8000738 <System_CrcInit+0x38>)
 8000708:	6003      	str	r3, [r0, #0]
  __HAL_RCC_CRC_CLK_ENABLE();
 800070a:	2300      	movs	r3, #0
 800070c:	9301      	str	r3, [sp, #4]
 800070e:	4b0b      	ldr	r3, [pc, #44]	@ (800073c <System_CrcInit+0x3c>)
 8000710:	6b1a      	ldr	r2, [r3, #48]	@ 0x30
 8000712:	f442 5280 	orr.w	r2, r2, #4096	@ 0x1000
 8000716:	631a      	str	r2, [r3, #48]	@ 0x30
 8000718:	6b1b      	ldr	r3, [r3, #48]	@ 0x30
 800071a:	f403 5380 	and.w	r3, r3, #4096	@ 0x1000
 800071e:	9301      	str	r3, [sp, #4]
 8000720:	9b01      	ldr	r3, [sp, #4]
  if (HAL_CRC_Init(&hcrc) != HAL_OK)
 8000722:	f001 f831 	bl	8001788 <HAL_CRC_Init>
 8000726:	b910      	cbnz	r0, 800072e <System_CrcInit+0x2e>
}
 8000728:	b003      	add	sp, #12
 800072a:	f85d fb04 	ldr.w	pc, [sp], #4
    Error_Handler();
 800072e:	f000 fb0a 	bl	8000d46 <Error_Handler>
}
 8000732:	e7f9      	b.n	8000728 <System_CrcInit+0x28>
 8000734:	200000e8 	.word	0x200000e8
 8000738:	40023000 	.word	0x40023000
 800073c:	40023800 	.word	0x40023800

08000740 <System_CrcClear>:
  __HAL_CRC_DR_RESET(&hcrc);
 8000740:	4b03      	ldr	r3, [pc, #12]	@ (8000750 <System_CrcClear+0x10>)
 8000742:	681a      	ldr	r2, [r3, #0]
 8000744:	6893      	ldr	r3, [r2, #8]
 8000746:	f043 0301 	orr.w	r3, r3, #1
 800074a:	6093      	str	r3, [r2, #8]
}
 800074c:	4770      	bx	lr
 800074e:	bf00      	nop
 8000750:	200000e8 	.word	0x200000e8

08000754 <System_CrcAccumulate>:
{
 8000754:	b508      	push	{r3, lr}
 8000756:	460a      	mov	r2, r1
  return HAL_CRC_Accumulate(&hcrc, data, length);
 8000758:	4601      	mov	r1, r0
 800075a:	4802      	ldr	r0, [pc, #8]	@ (8000764 <System_CrcAccumulate+0x10>)
 800075c:	f001 f823 	bl	80017a6 <HAL_CRC_Accumulate>
}
 8000760:	bd08      	pop	{r3, pc}
 8000762:	bf00      	nop
 8000764:	200000e8 	.word	0x200000e8

08000768 <System_ReloadWdg>:
  IWDG->KR = IWDG_KEY_RELOAD;
 8000768:	4b02      	ldr	r3, [pc, #8]	@ (8000774 <System_ReloadWdg+0xc>)
 800076a:	f64a 22aa 	movw	r2, #43690	@ 0xaaaa
 800076e:	601a      	str	r2, [r3, #0]
}
 8000770:	2000      	movs	r0, #0
 8000772:	4770      	bx	lr
 8000774:	40003000 	.word	0x40003000

08000778 <System_StartApplication>:
{
 8000778:	b508      	push	{r3, lr}
  JumpAddress = *(uint32_t*) (address + 4);
 800077a:	6842      	ldr	r2, [r0, #4]
  NVIC->ICER[0] = NVIC->ICER[0] + 0;
 800077c:	4b10      	ldr	r3, [pc, #64]	@ (80007c0 <System_StartApplication+0x48>)
 800077e:	f8d3 1080 	ldr.w	r1, [r3, #128]	@ 0x80
 8000782:	f8c3 1080 	str.w	r1, [r3, #128]	@ 0x80
  NVIC->ICER[1] = NVIC->ICER[1] + 0;
 8000786:	f8d3 1084 	ldr.w	r1, [r3, #132]	@ 0x84
 800078a:	f8c3 1084 	str.w	r1, [r3, #132]	@ 0x84
  NVIC->ICER[2] = NVIC->ICER[2] + 0;
 800078e:	f8d3 1088 	ldr.w	r1, [r3, #136]	@ 0x88
 8000792:	f8c3 1088 	str.w	r1, [r3, #136]	@ 0x88
  NVIC->ICPR[0] = NVIC->ICPR[0] + 0;
 8000796:	f8d3 1180 	ldr.w	r1, [r3, #384]	@ 0x180
 800079a:	f8c3 1180 	str.w	r1, [r3, #384]	@ 0x180
  NVIC->ICPR[1] = NVIC->ICPR[1] + 0;
 800079e:	f8d3 1184 	ldr.w	r1, [r3, #388]	@ 0x184
 80007a2:	f8c3 1184 	str.w	r1, [r3, #388]	@ 0x184
  NVIC->ICPR[2] = NVIC->ICPR[2] + 0;
 80007a6:	f8d3 1188 	ldr.w	r1, [r3, #392]	@ 0x188
 80007aa:	f8c3 1188 	str.w	r1, [r3, #392]	@ 0x188
  SCB->VTOR = address;
 80007ae:	f503 6340 	add.w	r3, r3, #3072	@ 0xc00
 80007b2:	6098      	str	r0, [r3, #8]
  __set_MSP(*(uint32_t*) address);
 80007b4:	6803      	ldr	r3, [r0, #0]
  \details Assigns the given value to the Main Stack Pointer (MSP).
  \param [in]    topOfMainStack  Main Stack Pointer value to set
 */
__STATIC_FORCEINLINE void __set_MSP(uint32_t topOfMainStack)
{
  __ASM volatile ("MSR msp, %0" : : "r" (topOfMainStack) : );
 80007b6:	f383 8808 	msr	MSP, r3
  jump_to_application();
 80007ba:	4790      	blx	r2
}
 80007bc:	bd08      	pop	{r3, pc}
 80007be:	bf00      	nop
 80007c0:	e000e100 	.word	0xe000e100

080007c4 <System_FlashEnable>:
{
 80007c4:	b508      	push	{r3, lr}
  HAL_FLASH_Unlock();
 80007c6:	f001 fa6b 	bl	8001ca0 <HAL_FLASH_Unlock>
  __HAL_FLASH_CLEAR_FLAG(FLASH_FLAG_EOP | FLASH_FLAG_WRPERR | FLASH_FLAG_PGAERR | FLASH_FLAG_PGPERR | FLASH_FLAG_PGSERR);
 80007ca:	4b02      	ldr	r3, [pc, #8]	@ (80007d4 <System_FlashEnable+0x10>)
 80007cc:	22f1      	movs	r2, #241	@ 0xf1
 80007ce:	60da      	str	r2, [r3, #12]
}
 80007d0:	bd08      	pop	{r3, pc}
 80007d2:	bf00      	nop
 80007d4:	40023c00 	.word	0x40023c00

080007d8 <System_FlashDisable>:
{
 80007d8:	b508      	push	{r3, lr}
  HAL_FLASH_Lock();
 80007da:	f001 fa79 	bl	8001cd0 <HAL_FLASH_Lock>
}
 80007de:	bd08      	pop	{r3, pc}

080007e0 <System_FlashProgram>:
{
 80007e0:	e92d 41f0 	stmdb	sp!, {r4, r5, r6, r7, r8, lr}
 80007e4:	4606      	mov	r6, r0
 80007e6:	460c      	mov	r4, r1
 80007e8:	4690      	mov	r8, r2
  ret = HAL_FLASH_Unlock();
 80007ea:	f001 fa59 	bl	8001ca0 <HAL_FLASH_Unlock>
  if (((uint32_t)address % 4) || (dataLength % 4))
 80007ee:	f016 0f03 	tst.w	r6, #3
 80007f2:	d105      	bne.n	8000800 <System_FlashProgram+0x20>
 80007f4:	b205      	sxth	r5, r0
 80007f6:	f018 0f03 	tst.w	r8, #3
 80007fa:	d002      	beq.n	8000802 <System_FlashProgram+0x22>
    ret = STATUS_ERROR;
 80007fc:	2501      	movs	r5, #1
 80007fe:	e000      	b.n	8000802 <System_FlashProgram+0x22>
 8000800:	2501      	movs	r5, #1
 8000802:	2700      	movs	r7, #0
 8000804:	e012      	b.n	800082c <System_FlashProgram+0x4c>
    value = data[0] + ((uint32_t)data[1]<<8) + ((uint32_t)data[2]<<16) + ((uint32_t)data[3]<<24);
 8000806:	7823      	ldrb	r3, [r4, #0]
 8000808:	7862      	ldrb	r2, [r4, #1]
 800080a:	eb03 2302 	add.w	r3, r3, r2, lsl #8
 800080e:	78a2      	ldrb	r2, [r4, #2]
 8000810:	eb03 4302 	add.w	r3, r3, r2, lsl #16
 8000814:	78e2      	ldrb	r2, [r4, #3]
    ret = HAL_FLASH_Program(FLASH_TYPEPROGRAM_WORD, (uint32_t)address, value);
 8000816:	eb03 6202 	add.w	r2, r3, r2, lsl #24
 800081a:	2300      	movs	r3, #0
 800081c:	4631      	mov	r1, r6
 800081e:	2002      	movs	r0, #2
 8000820:	f001 fa90 	bl	8001d44 <HAL_FLASH_Program>
 8000824:	b205      	sxth	r5, r0
    bytesWritten += 4;
 8000826:	3704      	adds	r7, #4
    address += 4;
 8000828:	3604      	adds	r6, #4
    data += 4;
 800082a:	3404      	adds	r4, #4
  while(ret == STATUS_OK && bytesWritten < dataLength)
 800082c:	b90d      	cbnz	r5, 8000832 <System_FlashProgram+0x52>
 800082e:	4547      	cmp	r7, r8
 8000830:	d3e9      	bcc.n	8000806 <System_FlashProgram+0x26>
  HAL_FLASH_Lock();
 8000832:	f001 fa4d 	bl	8001cd0 <HAL_FLASH_Lock>
}
 8000836:	4628      	mov	r0, r5
 8000838:	e8bd 81f0 	ldmia.w	sp!, {r4, r5, r6, r7, r8, pc}

0800083c <System_FlashErase>:
{
 800083c:	b570      	push	{r4, r5, r6, lr}
 800083e:	b086      	sub	sp, #24
 8000840:	460d      	mov	r5, r1
  uint32_t SectorError = 0;
 8000842:	2600      	movs	r6, #0
 8000844:	9600      	str	r6, [sp, #0]
  FirstSector = System_GetSector(startAddr);
 8000846:	f7ff ff25 	bl	8000694 <System_GetSector>
 800084a:	4604      	mov	r4, r0
  NbOfSectors = System_GetSector(endAddr) - FirstSector + 1;
 800084c:	4628      	mov	r0, r5
 800084e:	f7ff ff21 	bl	8000694 <System_GetSector>
 8000852:	1b03      	subs	r3, r0, r4
 8000854:	3301      	adds	r3, #1
  EraseInitStruct.TypeErase = FLASH_TYPEERASE_SECTORS;
 8000856:	9601      	str	r6, [sp, #4]
  EraseInitStruct.VoltageRange = FLASH_VOLTAGE_RANGE_3;
 8000858:	2202      	movs	r2, #2
 800085a:	9205      	str	r2, [sp, #20]
  EraseInitStruct.Sector = FirstSector;
 800085c:	9403      	str	r4, [sp, #12]
  EraseInitStruct.NbSectors = NbOfSectors;
 800085e:	9304      	str	r3, [sp, #16]
  __HAL_FLASH_CLEAR_FLAG(FLASH_FLAG_OPERR | FLASH_FLAG_WRPERR | FLASH_FLAG_PGAERR | FLASH_FLAG_PGPERR | FLASH_FLAG_PGSERR);
 8000860:	4b07      	ldr	r3, [pc, #28]	@ (8000880 <System_FlashErase+0x44>)
 8000862:	22f2      	movs	r2, #242	@ 0xf2
 8000864:	60da      	str	r2, [r3, #12]
  System_FlashEnable();
 8000866:	f7ff ffad 	bl	80007c4 <System_FlashEnable>
  ret = HAL_FLASHEx_Erase(&EraseInitStruct, &SectorError);
 800086a:	4669      	mov	r1, sp
 800086c:	a801      	add	r0, sp, #4
 800086e:	f001 fb0f 	bl	8001e90 <HAL_FLASHEx_Erase>
 8000872:	4604      	mov	r4, r0
  System_FlashDisable();
 8000874:	f7ff ffb0 	bl	80007d8 <System_FlashDisable>
}
 8000878:	b220      	sxth	r0, r4
 800087a:	b006      	add	sp, #24
 800087c:	bd70      	pop	{r4, r5, r6, pc}
 800087e:	bf00      	nop
 8000880:	40023c00 	.word	0x40023c00

08000884 <System_IsFlashNotEmpty>:
{
 8000884:	4684      	mov	ip, r0
  uint32_t i = 0;
 8000886:	2300      	movs	r3, #0
  Status_t ret = STATUS_ERROR;
 8000888:	2001      	movs	r0, #1
  while (i < size && ret == STATUS_ERROR)
 800088a:	e000      	b.n	800088e <System_IsFlashNotEmpty+0xa>
    i += 0x10;
 800088c:	3310      	adds	r3, #16
  while (i < size && ret == STATUS_ERROR)
 800088e:	428b      	cmp	r3, r1
 8000890:	d209      	bcs.n	80008a6 <System_IsFlashNotEmpty+0x22>
 8000892:	b140      	cbz	r0, 80008a6 <System_IsFlashNotEmpty+0x22>
    if (address[i/4] != 0xFFFFFFFF)
 8000894:	f023 0203 	bic.w	r2, r3, #3
 8000898:	f85c 2002 	ldr.w	r2, [ip, r2]
 800089c:	f1b2 3fff 	cmp.w	r2, #4294967295
 80008a0:	d0f4      	beq.n	800088c <System_IsFlashNotEmpty+0x8>
      ret = STATUS_OK;
 80008a2:	2000      	movs	r0, #0
 80008a4:	e7f2      	b.n	800088c <System_IsFlashNotEmpty+0x8>
}
 80008a6:	4770      	bx	lr

080008a8 <System_Delay>:
{
 80008a8:	b508      	push	{r3, lr}
  HAL_Delay(milliseconds);
 80008aa:	f000 fd41 	bl	8001330 <HAL_Delay>
}
 80008ae:	bd08      	pop	{r3, pc}

080008b0 <MX_ADC1_Init>:
ADC_HandleTypeDef hadc3;
DMA_HandleTypeDef hdma_adc1;

/* ADC1 init function */
void MX_ADC1_Init(void)
{
 80008b0:	b500      	push	{lr}
 80008b2:	b085      	sub	sp, #20

  /* USER CODE BEGIN ADC1_Init 0 */

  /* USER CODE END ADC1_Init 0 */

  ADC_ChannelConfTypeDef sConfig = {0};
 80008b4:	2300      	movs	r3, #0
 80008b6:	9300      	str	r3, [sp, #0]
 80008b8:	9301      	str	r3, [sp, #4]
 80008ba:	9302      	str	r3, [sp, #8]
 80008bc:	9303      	str	r3, [sp, #12]

  /* USER CODE END ADC1_Init 1 */

  /** Configure the global features of the ADC (Clock, Resolution, Data Alignment and number of conversion)
  */
  hadc1.Instance = ADC1;
 80008be:	4828      	ldr	r0, [pc, #160]	@ (8000960 <MX_ADC1_Init+0xb0>)
 80008c0:	4a28      	ldr	r2, [pc, #160]	@ (8000964 <MX_ADC1_Init+0xb4>)
 80008c2:	6002      	str	r2, [r0, #0]
  hadc1.Init.ClockPrescaler = ADC_CLOCK_SYNC_PCLK_DIV6;
 80008c4:	f44f 3200 	mov.w	r2, #131072	@ 0x20000
 80008c8:	6042      	str	r2, [r0, #4]
  hadc1.Init.Resolution = ADC_RESOLUTION_12B;
 80008ca:	6083      	str	r3, [r0, #8]
  hadc1.Init.ScanConvMode = ENABLE;
 80008cc:	2201      	movs	r2, #1
 80008ce:	6102      	str	r2, [r0, #16]
  hadc1.Init.ContinuousConvMode = DISABLE;
 80008d0:	7603      	strb	r3, [r0, #24]
  hadc1.Init.DiscontinuousConvMode = DISABLE;
 80008d2:	f880 3020 	strb.w	r3, [r0, #32]
  hadc1.Init.ExternalTrigConvEdge = ADC_EXTERNALTRIGCONVEDGE_NONE;
 80008d6:	62c3      	str	r3, [r0, #44]	@ 0x2c
  hadc1.Init.ExternalTrigConv = ADC_SOFTWARE_START;
 80008d8:	4923      	ldr	r1, [pc, #140]	@ (8000968 <MX_ADC1_Init+0xb8>)
 80008da:	6281      	str	r1, [r0, #40]	@ 0x28
  hadc1.Init.DataAlign = ADC_DATAALIGN_RIGHT;
 80008dc:	60c3      	str	r3, [r0, #12]
  hadc1.Init.NbrOfConversion = 4;
 80008de:	2104      	movs	r1, #4
 80008e0:	61c1      	str	r1, [r0, #28]
  hadc1.Init.DMAContinuousRequests = DISABLE;
 80008e2:	f880 3030 	strb.w	r3, [r0, #48]	@ 0x30
  hadc1.Init.EOCSelection = ADC_EOC_SINGLE_CONV;
 80008e6:	6142      	str	r2, [r0, #20]
  if (HAL_ADC_Init(&hadc1) != HAL_OK)
 80008e8:	f000 fdd0 	bl	800148c <HAL_ADC_Init>
 80008ec:	bb40      	cbnz	r0, 8000940 <MX_ADC1_Init+0x90>
    Error_Handler();
  }

  /** Configure for the selected ADC regular channel its corresponding rank in the sequencer and its sample time.
  */
  sConfig.Channel = ADC_CHANNEL_7;
 80008ee:	2307      	movs	r3, #7
 80008f0:	9300      	str	r3, [sp, #0]
  sConfig.Rank = 1;
 80008f2:	2301      	movs	r3, #1
 80008f4:	9301      	str	r3, [sp, #4]
  sConfig.SamplingTime = ADC_SAMPLETIME_3CYCLES;
 80008f6:	2300      	movs	r3, #0
 80008f8:	9302      	str	r3, [sp, #8]
  if (HAL_ADC_ConfigChannel(&hadc1, &sConfig) != HAL_OK)
 80008fa:	4669      	mov	r1, sp
 80008fc:	4818      	ldr	r0, [pc, #96]	@ (8000960 <MX_ADC1_Init+0xb0>)
 80008fe:	f000 fdf1 	bl	80014e4 <HAL_ADC_ConfigChannel>
 8000902:	bb00      	cbnz	r0, 8000946 <MX_ADC1_Init+0x96>
    Error_Handler();
  }

  /** Configure for the selected ADC regular channel its corresponding rank in the sequencer and its sample time.
  */
  sConfig.Channel = ADC_CHANNEL_8;
 8000904:	2308      	movs	r3, #8
 8000906:	9300      	str	r3, [sp, #0]
  sConfig.Rank = 2;
 8000908:	2302      	movs	r3, #2
 800090a:	9301      	str	r3, [sp, #4]
  if (HAL_ADC_ConfigChannel(&hadc1, &sConfig) != HAL_OK)
 800090c:	4669      	mov	r1, sp
 800090e:	4814      	ldr	r0, [pc, #80]	@ (8000960 <MX_ADC1_Init+0xb0>)
 8000910:	f000 fde8 	bl	80014e4 <HAL_ADC_ConfigChannel>
 8000914:	b9d0      	cbnz	r0, 800094c <MX_ADC1_Init+0x9c>
    Error_Handler();
  }

  /** Configure for the selected ADC regular channel its corresponding rank in the sequencer and its sample time.
  */
  sConfig.Channel = ADC_CHANNEL_1;
 8000916:	2301      	movs	r3, #1
 8000918:	9300      	str	r3, [sp, #0]
  sConfig.Rank = 3;
 800091a:	2303      	movs	r3, #3
 800091c:	9301      	str	r3, [sp, #4]
  if (HAL_ADC_ConfigChannel(&hadc1, &sConfig) != HAL_OK)
 800091e:	4669      	mov	r1, sp
 8000920:	480f      	ldr	r0, [pc, #60]	@ (8000960 <MX_ADC1_Init+0xb0>)
 8000922:	f000 fddf 	bl	80014e4 <HAL_ADC_ConfigChannel>
 8000926:	b9a0      	cbnz	r0, 8000952 <MX_ADC1_Init+0xa2>
    Error_Handler();
  }

  /** Configure for the selected ADC regular channel its corresponding rank in the sequencer and its sample time.
  */
  sConfig.Channel = ADC_CHANNEL_2;
 8000928:	2302      	movs	r3, #2
 800092a:	9300      	str	r3, [sp, #0]
  sConfig.Rank = 4;
 800092c:	2304      	movs	r3, #4
 800092e:	9301      	str	r3, [sp, #4]
  if (HAL_ADC_ConfigChannel(&hadc1, &sConfig) != HAL_OK)
 8000930:	4669      	mov	r1, sp
 8000932:	480b      	ldr	r0, [pc, #44]	@ (8000960 <MX_ADC1_Init+0xb0>)
 8000934:	f000 fdd6 	bl	80014e4 <HAL_ADC_ConfigChannel>
 8000938:	b970      	cbnz	r0, 8000958 <MX_ADC1_Init+0xa8>
  }
  /* USER CODE BEGIN ADC1_Init 2 */

  /* USER CODE END ADC1_Init 2 */

}
 800093a:	b005      	add	sp, #20
 800093c:	f85d fb04 	ldr.w	pc, [sp], #4
    Error_Handler();
 8000940:	f000 fa01 	bl	8000d46 <Error_Handler>
 8000944:	e7d3      	b.n	80008ee <MX_ADC1_Init+0x3e>
    Error_Handler();
 8000946:	f000 f9fe 	bl	8000d46 <Error_Handler>
 800094a:	e7db      	b.n	8000904 <MX_ADC1_Init+0x54>
    Error_Handler();
 800094c:	f000 f9fb 	bl	8000d46 <Error_Handler>
 8000950:	e7e1      	b.n	8000916 <MX_ADC1_Init+0x66>
    Error_Handler();
 8000952:	f000 f9f8 	bl	8000d46 <Error_Handler>
 8000956:	e7e7      	b.n	8000928 <MX_ADC1_Init+0x78>
    Error_Handler();
 8000958:	f000 f9f5 	bl	8000d46 <Error_Handler>
}
 800095c:	e7ed      	b.n	800093a <MX_ADC1_Init+0x8a>
 800095e:	bf00      	nop
 8000960:	20000198 	.word	0x20000198
 8000964:	40012000 	.word	0x40012000
 8000968:	0f000001 	.word	0x0f000001

0800096c <MX_ADC3_Init>:
/* ADC3 init function */
void MX_ADC3_Init(void)
{
 800096c:	b500      	push	{lr}
 800096e:	b085      	sub	sp, #20

  /* USER CODE BEGIN ADC3_Init 0 */

  /* USER CODE END ADC3_Init 0 */

  ADC_ChannelConfTypeDef sConfig = {0};
 8000970:	2300      	movs	r3, #0
 8000972:	9300      	str	r3, [sp, #0]
 8000974:	9301      	str	r3, [sp, #4]
 8000976:	9302      	str	r3, [sp, #8]
 8000978:	9303      	str	r3, [sp, #12]

  /* USER CODE END ADC3_Init 1 */

  /** Configure the global features of the ADC (Clock, Resolution, Data Alignment and number of conversion)
  */
  hadc3.Instance = ADC3;
 800097a:	4815      	ldr	r0, [pc, #84]	@ (80009d0 <MX_ADC3_Init+0x64>)
 800097c:	4a15      	ldr	r2, [pc, #84]	@ (80009d4 <MX_ADC3_Init+0x68>)
 800097e:	6002      	str	r2, [r0, #0]
  hadc3.Init.ClockPrescaler = ADC_CLOCK_SYNC_PCLK_DIV6;
 8000980:	f44f 3200 	mov.w	r2, #131072	@ 0x20000
 8000984:	6042      	str	r2, [r0, #4]
  hadc3.Init.Resolution = ADC_RESOLUTION_12B;
 8000986:	6083      	str	r3, [r0, #8]
  hadc3.Init.ScanConvMode = DISABLE;
 8000988:	6103      	str	r3, [r0, #16]
  hadc3.Init.ContinuousConvMode = DISABLE;
 800098a:	7603      	strb	r3, [r0, #24]
  hadc3.Init.DiscontinuousConvMode = DISABLE;
 800098c:	f880 3020 	strb.w	r3, [r0, #32]
  hadc3.Init.ExternalTrigConvEdge = ADC_EXTERNALTRIGCONVEDGE_NONE;
 8000990:	62c3      	str	r3, [r0, #44]	@ 0x2c
  hadc3.Init.ExternalTrigConv = ADC_SOFTWARE_START;
 8000992:	4a11      	ldr	r2, [pc, #68]	@ (80009d8 <MX_ADC3_Init+0x6c>)
 8000994:	6282      	str	r2, [r0, #40]	@ 0x28
  hadc3.Init.DataAlign = ADC_DATAALIGN_RIGHT;
 8000996:	60c3      	str	r3, [r0, #12]
  hadc3.Init.NbrOfConversion = 1;
 8000998:	2201      	movs	r2, #1
 800099a:	61c2      	str	r2, [r0, #28]
  hadc3.Init.DMAContinuousRequests = DISABLE;
 800099c:	f880 3030 	strb.w	r3, [r0, #48]	@ 0x30
  hadc3.Init.EOCSelection = ADC_EOC_SINGLE_CONV;
 80009a0:	6142      	str	r2, [r0, #20]
  if (HAL_ADC_Init(&hadc3) != HAL_OK)
 80009a2:	f000 fd73 	bl	800148c <HAL_ADC_Init>
 80009a6:	b968      	cbnz	r0, 80009c4 <MX_ADC3_Init+0x58>
    Error_Handler();
  }

  /** Configure for the selected ADC regular channel its corresponding rank in the sequencer and its sample time.
  */
  sConfig.Channel = ADC_CHANNEL_3;
 80009a8:	2303      	movs	r3, #3
 80009aa:	9300      	str	r3, [sp, #0]
  sConfig.Rank = 1;
 80009ac:	2301      	movs	r3, #1
 80009ae:	9301      	str	r3, [sp, #4]
  sConfig.SamplingTime = ADC_SAMPLETIME_3CYCLES;
 80009b0:	2300      	movs	r3, #0
 80009b2:	9302      	str	r3, [sp, #8]
  if (HAL_ADC_ConfigChannel(&hadc3, &sConfig) != HAL_OK)
 80009b4:	4669      	mov	r1, sp
 80009b6:	4806      	ldr	r0, [pc, #24]	@ (80009d0 <MX_ADC3_Init+0x64>)
 80009b8:	f000 fd94 	bl	80014e4 <HAL_ADC_ConfigChannel>
 80009bc:	b928      	cbnz	r0, 80009ca <MX_ADC3_Init+0x5e>
  }
  /* USER CODE BEGIN ADC3_Init 2 */

  /* USER CODE END ADC3_Init 2 */

}
 80009be:	b005      	add	sp, #20
 80009c0:	f85d fb04 	ldr.w	pc, [sp], #4
    Error_Handler();
 80009c4:	f000 f9bf 	bl	8000d46 <Error_Handler>
 80009c8:	e7ee      	b.n	80009a8 <MX_ADC3_Init+0x3c>
    Error_Handler();
 80009ca:	f000 f9bc 	bl	8000d46 <Error_Handler>
}
 80009ce:	e7f6      	b.n	80009be <MX_ADC3_Init+0x52>
 80009d0:	20000150 	.word	0x20000150
 80009d4:	40012200 	.word	0x40012200
 80009d8:	0f000001 	.word	0x0f000001

080009dc <HAL_ADC_MspInit>:

void HAL_ADC_MspInit(ADC_HandleTypeDef* adcHandle)
{
 80009dc:	b570      	push	{r4, r5, r6, lr}
 80009de:	b08a      	sub	sp, #40	@ 0x28

  GPIO_InitTypeDef GPIO_InitStruct = {0};
 80009e0:	2300      	movs	r3, #0
 80009e2:	9305      	str	r3, [sp, #20]
 80009e4:	9306      	str	r3, [sp, #24]
 80009e6:	9307      	str	r3, [sp, #28]
 80009e8:	9308      	str	r3, [sp, #32]
 80009ea:	9309      	str	r3, [sp, #36]	@ 0x24
  if(adcHandle->Instance==ADC1)
 80009ec:	6803      	ldr	r3, [r0, #0]
 80009ee:	4a3a      	ldr	r2, [pc, #232]	@ (8000ad8 <HAL_ADC_MspInit+0xfc>)
 80009f0:	4293      	cmp	r3, r2
 80009f2:	d004      	beq.n	80009fe <HAL_ADC_MspInit+0x22>

  /* USER CODE BEGIN ADC1_MspInit 1 */

  /* USER CODE END ADC1_MspInit 1 */
  }
  else if(adcHandle->Instance==ADC3)
 80009f4:	4a39      	ldr	r2, [pc, #228]	@ (8000adc <HAL_ADC_MspInit+0x100>)
 80009f6:	4293      	cmp	r3, r2
 80009f8:	d04e      	beq.n	8000a98 <HAL_ADC_MspInit+0xbc>

  /* USER CODE BEGIN ADC3_MspInit 1 */

  /* USER CODE END ADC3_MspInit 1 */
  }
}
 80009fa:	b00a      	add	sp, #40	@ 0x28
 80009fc:	bd70      	pop	{r4, r5, r6, pc}
 80009fe:	4604      	mov	r4, r0
    __HAL_RCC_ADC1_CLK_ENABLE();
 8000a00:	2500      	movs	r5, #0
 8000a02:	9500      	str	r5, [sp, #0]
 8000a04:	4b36      	ldr	r3, [pc, #216]	@ (8000ae0 <HAL_ADC_MspInit+0x104>)
 8000a06:	6c5a      	ldr	r2, [r3, #68]	@ 0x44
 8000a08:	f442 7280 	orr.w	r2, r2, #256	@ 0x100
 8000a0c:	645a      	str	r2, [r3, #68]	@ 0x44
 8000a0e:	6c5a      	ldr	r2, [r3, #68]	@ 0x44
 8000a10:	f402 7280 	and.w	r2, r2, #256	@ 0x100
 8000a14:	9200      	str	r2, [sp, #0]
 8000a16:	9a00      	ldr	r2, [sp, #0]
    __HAL_RCC_GPIOA_CLK_ENABLE();
 8000a18:	9501      	str	r5, [sp, #4]
 8000a1a:	6b1a      	ldr	r2, [r3, #48]	@ 0x30
 8000a1c:	f042 0201 	orr.w	r2, r2, #1
 8000a20:	631a      	str	r2, [r3, #48]	@ 0x30
 8000a22:	6b1a      	ldr	r2, [r3, #48]	@ 0x30
 8000a24:	f002 0201 	and.w	r2, r2, #1
 8000a28:	9201      	str	r2, [sp, #4]
 8000a2a:	9a01      	ldr	r2, [sp, #4]
    __HAL_RCC_GPIOB_CLK_ENABLE();
 8000a2c:	9502      	str	r5, [sp, #8]
 8000a2e:	6b1a      	ldr	r2, [r3, #48]	@ 0x30
 8000a30:	f042 0202 	orr.w	r2, r2, #2
 8000a34:	631a      	str	r2, [r3, #48]	@ 0x30
 8000a36:	6b1b      	ldr	r3, [r3, #48]	@ 0x30
 8000a38:	f003 0302 	and.w	r3, r3, #2
 8000a3c:	9302      	str	r3, [sp, #8]
 8000a3e:	9b02      	ldr	r3, [sp, #8]
    GPIO_InitStruct.Pin = GPIO_PIN_1|GPIO_PIN_2|GPIO_PIN_3|GPIO_PIN_4
 8000a40:	23fe      	movs	r3, #254	@ 0xfe
 8000a42:	9305      	str	r3, [sp, #20]
    GPIO_InitStruct.Mode = GPIO_MODE_ANALOG;
 8000a44:	2603      	movs	r6, #3
 8000a46:	9606      	str	r6, [sp, #24]
    HAL_GPIO_Init(GPIOA, &GPIO_InitStruct);
 8000a48:	a905      	add	r1, sp, #20
 8000a4a:	4826      	ldr	r0, [pc, #152]	@ (8000ae4 <HAL_ADC_MspInit+0x108>)
 8000a4c:	f001 fa6a 	bl	8001f24 <HAL_GPIO_Init>
    GPIO_InitStruct.Pin = GPIO_PIN_0;
 8000a50:	2301      	movs	r3, #1
 8000a52:	9305      	str	r3, [sp, #20]
    GPIO_InitStruct.Mode = GPIO_MODE_ANALOG;
 8000a54:	9606      	str	r6, [sp, #24]
    GPIO_InitStruct.Pull = GPIO_NOPULL;
 8000a56:	9507      	str	r5, [sp, #28]
    HAL_GPIO_Init(GPIOB, &GPIO_InitStruct);
 8000a58:	a905      	add	r1, sp, #20
 8000a5a:	4823      	ldr	r0, [pc, #140]	@ (8000ae8 <HAL_ADC_MspInit+0x10c>)
 8000a5c:	f001 fa62 	bl	8001f24 <HAL_GPIO_Init>
    hdma_adc1.Instance = DMA2_Stream0;
 8000a60:	4822      	ldr	r0, [pc, #136]	@ (8000aec <HAL_ADC_MspInit+0x110>)
 8000a62:	4b23      	ldr	r3, [pc, #140]	@ (8000af0 <HAL_ADC_MspInit+0x114>)
 8000a64:	6003      	str	r3, [r0, #0]
    hdma_adc1.Init.Channel = DMA_CHANNEL_0;
 8000a66:	6045      	str	r5, [r0, #4]
    hdma_adc1.Init.Direction = DMA_PERIPH_TO_MEMORY;
 8000a68:	6085      	str	r5, [r0, #8]
    hdma_adc1.Init.PeriphInc = DMA_PINC_DISABLE;
 8000a6a:	60c5      	str	r5, [r0, #12]
    hdma_adc1.Init.MemInc = DMA_MINC_ENABLE;
 8000a6c:	f44f 6380 	mov.w	r3, #1024	@ 0x400
 8000a70:	6103      	str	r3, [r0, #16]
    hdma_adc1.Init.PeriphDataAlignment = DMA_PDATAALIGN_HALFWORD;
 8000a72:	f44f 6300 	mov.w	r3, #2048	@ 0x800
 8000a76:	6143      	str	r3, [r0, #20]
    hdma_adc1.Init.MemDataAlignment = DMA_MDATAALIGN_HALFWORD;
 8000a78:	f44f 5300 	mov.w	r3, #8192	@ 0x2000
 8000a7c:	6183      	str	r3, [r0, #24]
    hdma_adc1.Init.Mode = DMA_NORMAL;
 8000a7e:	61c5      	str	r5, [r0, #28]
    hdma_adc1.Init.Priority = DMA_PRIORITY_LOW;
 8000a80:	6205      	str	r5, [r0, #32]
    hdma_adc1.Init.FIFOMode = DMA_FIFOMODE_DISABLE;
 8000a82:	6245      	str	r5, [r0, #36]	@ 0x24
    if (HAL_DMA_Init(&hdma_adc1) != HAL_OK)
 8000a84:	f000 ff18 	bl	80018b8 <HAL_DMA_Init>
 8000a88:	b918      	cbnz	r0, 8000a92 <HAL_ADC_MspInit+0xb6>
    __HAL_LINKDMA(adcHandle,DMA_Handle,hdma_adc1);
 8000a8a:	4b18      	ldr	r3, [pc, #96]	@ (8000aec <HAL_ADC_MspInit+0x110>)
 8000a8c:	63a3      	str	r3, [r4, #56]	@ 0x38
 8000a8e:	639c      	str	r4, [r3, #56]	@ 0x38
 8000a90:	e7b3      	b.n	80009fa <HAL_ADC_MspInit+0x1e>
      Error_Handler();
 8000a92:	f000 f958 	bl	8000d46 <Error_Handler>
 8000a96:	e7f8      	b.n	8000a8a <HAL_ADC_MspInit+0xae>
    __HAL_RCC_ADC3_CLK_ENABLE();
 8000a98:	2100      	movs	r1, #0
 8000a9a:	9103      	str	r1, [sp, #12]
 8000a9c:	4b10      	ldr	r3, [pc, #64]	@ (8000ae0 <HAL_ADC_MspInit+0x104>)
 8000a9e:	6c5a      	ldr	r2, [r3, #68]	@ 0x44
 8000aa0:	f442 6280 	orr.w	r2, r2, #1024	@ 0x400
 8000aa4:	645a      	str	r2, [r3, #68]	@ 0x44
 8000aa6:	6c5a      	ldr	r2, [r3, #68]	@ 0x44
 8000aa8:	f402 6280 	and.w	r2, r2, #1024	@ 0x400
 8000aac:	9203      	str	r2, [sp, #12]
 8000aae:	9a03      	ldr	r2, [sp, #12]
    __HAL_RCC_GPIOA_CLK_ENABLE();
 8000ab0:	9104      	str	r1, [sp, #16]
 8000ab2:	6b1a      	ldr	r2, [r3, #48]	@ 0x30
 8000ab4:	f042 0201 	orr.w	r2, r2, #1
 8000ab8:	631a      	str	r2, [r3, #48]	@ 0x30
 8000aba:	6b1b      	ldr	r3, [r3, #48]	@ 0x30
 8000abc:	f003 0301 	and.w	r3, r3, #1
 8000ac0:	9304      	str	r3, [sp, #16]
 8000ac2:	9b04      	ldr	r3, [sp, #16]
    GPIO_InitStruct.Pin = GPIO_PIN_3;
 8000ac4:	2308      	movs	r3, #8
 8000ac6:	9305      	str	r3, [sp, #20]
    GPIO_InitStruct.Mode = GPIO_MODE_ANALOG;
 8000ac8:	2303      	movs	r3, #3
 8000aca:	9306      	str	r3, [sp, #24]
    HAL_GPIO_Init(GPIOA, &GPIO_InitStruct);
 8000acc:	a905      	add	r1, sp, #20
 8000ace:	4805      	ldr	r0, [pc, #20]	@ (8000ae4 <HAL_ADC_MspInit+0x108>)
 8000ad0:	f001 fa28 	bl	8001f24 <HAL_GPIO_Init>
}
 8000ad4:	e791      	b.n	80009fa <HAL_ADC_MspInit+0x1e>
 8000ad6:	bf00      	nop
 8000ad8:	40012000 	.word	0x40012000
 8000adc:	40012200 	.word	0x40012200
 8000ae0:	40023800 	.word	0x40023800
 8000ae4:	40020000 	.word	0x40020000
 8000ae8:	40020400 	.word	0x40020400
 8000aec:	200000f0 	.word	0x200000f0
 8000af0:	40026410 	.word	0x40026410

08000af4 <MX_CRC_Init>:

CRC_HandleTypeDef hcrc;

/* CRC init function */
void MX_CRC_Init(void)
{
 8000af4:	b508      	push	{r3, lr}
  /* USER CODE END CRC_Init 0 */

  /* USER CODE BEGIN CRC_Init 1 */

  /* USER CODE END CRC_Init 1 */
  hcrc.Instance = CRC;
 8000af6:	4805      	ldr	r0, [pc, #20]	@ (8000b0c <MX_CRC_Init+0x18>)
 8000af8:	4b05      	ldr	r3, [pc, #20]	@ (8000b10 <MX_CRC_Init+0x1c>)
 8000afa:	6003      	str	r3, [r0, #0]
  if (HAL_CRC_Init(&hcrc) != HAL_OK)
 8000afc:	f000 fe44 	bl	8001788 <HAL_CRC_Init>
 8000b00:	b900      	cbnz	r0, 8000b04 <MX_CRC_Init+0x10>
  }
  /* USER CODE BEGIN CRC_Init 2 */

  /* USER CODE END CRC_Init 2 */

}
 8000b02:	bd08      	pop	{r3, pc}
    Error_Handler();
 8000b04:	f000 f91f 	bl	8000d46 <Error_Handler>
}
 8000b08:	e7fb      	b.n	8000b02 <MX_CRC_Init+0xe>
 8000b0a:	bf00      	nop
 8000b0c:	200001e0 	.word	0x200001e0
 8000b10:	40023000 	.word	0x40023000

08000b14 <HAL_CRC_MspInit>:

void HAL_CRC_MspInit(CRC_HandleTypeDef* crcHandle)
{

  if(crcHandle->Instance==CRC)
 8000b14:	6802      	ldr	r2, [r0, #0]
 8000b16:	4b09      	ldr	r3, [pc, #36]	@ (8000b3c <HAL_CRC_MspInit+0x28>)
 8000b18:	429a      	cmp	r2, r3
 8000b1a:	d000      	beq.n	8000b1e <HAL_CRC_MspInit+0xa>
 8000b1c:	4770      	bx	lr
{
 8000b1e:	b082      	sub	sp, #8
  {
  /* USER CODE BEGIN CRC_MspInit 0 */

  /* USER CODE END CRC_MspInit 0 */
    /* CRC clock enable */
    __HAL_RCC_CRC_CLK_ENABLE();
 8000b20:	2300      	movs	r3, #0
 8000b22:	9301      	str	r3, [sp, #4]
 8000b24:	4b06      	ldr	r3, [pc, #24]	@ (8000b40 <HAL_CRC_MspInit+0x2c>)
 8000b26:	6b1a      	ldr	r2, [r3, #48]	@ 0x30
 8000b28:	f442 5280 	orr.w	r2, r2, #4096	@ 0x1000
 8000b2c:	631a      	str	r2, [r3, #48]	@ 0x30
 8000b2e:	6b1b      	ldr	r3, [r3, #48]	@ 0x30
 8000b30:	f403 5380 	and.w	r3, r3, #4096	@ 0x1000
 8000b34:	9301      	str	r3, [sp, #4]
 8000b36:	9b01      	ldr	r3, [sp, #4]
  /* USER CODE BEGIN CRC_MspInit 1 */

  /* USER CODE END CRC_MspInit 1 */
  }
}
 8000b38:	b002      	add	sp, #8
 8000b3a:	4770      	bx	lr
 8000b3c:	40023000 	.word	0x40023000
 8000b40:	40023800 	.word	0x40023800

08000b44 <MX_DMA_Init>:

/**
  * Enable DMA controller clock
  */
void MX_DMA_Init(void)
{
 8000b44:	b500      	push	{lr}
 8000b46:	b083      	sub	sp, #12

  /* DMA controller clock enable */
  __HAL_RCC_DMA2_CLK_ENABLE();
 8000b48:	2100      	movs	r1, #0
 8000b4a:	9101      	str	r1, [sp, #4]
 8000b4c:	4b09      	ldr	r3, [pc, #36]	@ (8000b74 <MX_DMA_Init+0x30>)
 8000b4e:	6b1a      	ldr	r2, [r3, #48]	@ 0x30
 8000b50:	f442 0280 	orr.w	r2, r2, #4194304	@ 0x400000
 8000b54:	631a      	str	r2, [r3, #48]	@ 0x30
 8000b56:	6b1b      	ldr	r3, [r3, #48]	@ 0x30
 8000b58:	f403 0380 	and.w	r3, r3, #4194304	@ 0x400000
 8000b5c:	9301      	str	r3, [sp, #4]
 8000b5e:	9b01      	ldr	r3, [sp, #4]

  /* DMA interrupt init */
  /* DMA2_Stream0_IRQn interrupt configuration */
  HAL_NVIC_SetPriority(DMA2_Stream0_IRQn, 0, 0);
 8000b60:	460a      	mov	r2, r1
 8000b62:	2038      	movs	r0, #56	@ 0x38
 8000b64:	f000 fde8 	bl	8001738 <HAL_NVIC_SetPriority>
  HAL_NVIC_EnableIRQ(DMA2_Stream0_IRQn);
 8000b68:	2038      	movs	r0, #56	@ 0x38
 8000b6a:	f000 fdf5 	bl	8001758 <HAL_NVIC_EnableIRQ>

}
 8000b6e:	b003      	add	sp, #12
 8000b70:	f85d fb04 	ldr.w	pc, [sp], #4
 8000b74:	40023800 	.word	0x40023800

08000b78 <MX_GPIO_Init>:
        * Output
        * EVENT_OUT
        * EXTI
*/
void MX_GPIO_Init(void)
{
 8000b78:	e92d 41f0 	stmdb	sp!, {r4, r5, r6, r7, r8, lr}
 8000b7c:	b08a      	sub	sp, #40	@ 0x28

  GPIO_InitTypeDef GPIO_InitStruct = {0};
 8000b7e:	2400      	movs	r4, #0
 8000b80:	9405      	str	r4, [sp, #20]
 8000b82:	9406      	str	r4, [sp, #24]
 8000b84:	9407      	str	r4, [sp, #28]
 8000b86:	9408      	str	r4, [sp, #32]
 8000b88:	9409      	str	r4, [sp, #36]	@ 0x24

  /* GPIO Ports Clock Enable */
  __HAL_RCC_GPIOC_CLK_ENABLE();
 8000b8a:	9400      	str	r4, [sp, #0]
 8000b8c:	4b3e      	ldr	r3, [pc, #248]	@ (8000c88 <MX_GPIO_Init+0x110>)
 8000b8e:	6b1a      	ldr	r2, [r3, #48]	@ 0x30
 8000b90:	f042 0204 	orr.w	r2, r2, #4
 8000b94:	631a      	str	r2, [r3, #48]	@ 0x30
 8000b96:	6b1a      	ldr	r2, [r3, #48]	@ 0x30
 8000b98:	f002 0204 	and.w	r2, r2, #4
 8000b9c:	9200      	str	r2, [sp, #0]
 8000b9e:	9a00      	ldr	r2, [sp, #0]
  __HAL_RCC_GPIOH_CLK_ENABLE();
 8000ba0:	9401      	str	r4, [sp, #4]
 8000ba2:	6b1a      	ldr	r2, [r3, #48]	@ 0x30
 8000ba4:	f042 0280 	orr.w	r2, r2, #128	@ 0x80
 8000ba8:	631a      	str	r2, [r3, #48]	@ 0x30
 8000baa:	6b1a      	ldr	r2, [r3, #48]	@ 0x30
 8000bac:	f002 0280 	and.w	r2, r2, #128	@ 0x80
 8000bb0:	9201      	str	r2, [sp, #4]
 8000bb2:	9a01      	ldr	r2, [sp, #4]
  __HAL_RCC_GPIOA_CLK_ENABLE();
 8000bb4:	9402      	str	r4, [sp, #8]
 8000bb6:	6b1a      	ldr	r2, [r3, #48]	@ 0x30
 8000bb8:	f042 0201 	orr.w	r2, r2, #1
 8000bbc:	631a      	str	r2, [r3, #48]	@ 0x30
 8000bbe:	6b1a      	ldr	r2, [r3, #48]	@ 0x30
 8000bc0:	f002 0201 	and.w	r2, r2, #1
 8000bc4:	9202      	str	r2, [sp, #8]
 8000bc6:	9a02      	ldr	r2, [sp, #8]
  __HAL_RCC_GPIOB_CLK_ENABLE();
 8000bc8:	9403      	str	r4, [sp, #12]
 8000bca:	6b1a      	ldr	r2, [r3, #48]	@ 0x30
 8000bcc:	f042 0202 	orr.w	r2, r2, #2
 8000bd0:	631a      	str	r2, [r3, #48]	@ 0x30
 8000bd2:	6b1a      	ldr	r2, [r3, #48]	@ 0x30
 8000bd4:	f002 0202 	and.w	r2, r2, #2
 8000bd8:	9203      	str	r2, [sp, #12]
 8000bda:	9a03      	ldr	r2, [sp, #12]
  __HAL_RCC_GPIOD_CLK_ENABLE();
 8000bdc:	9404      	str	r4, [sp, #16]
 8000bde:	6b1a      	ldr	r2, [r3, #48]	@ 0x30
 8000be0:	f042 0208 	orr.w	r2, r2, #8
 8000be4:	631a      	str	r2, [r3, #48]	@ 0x30
 8000be6:	6b1b      	ldr	r3, [r3, #48]	@ 0x30
 8000be8:	f003 0308 	and.w	r3, r3, #8
 8000bec:	9304      	str	r3, [sp, #16]
 8000bee:	9b04      	ldr	r3, [sp, #16]

  /*Configure GPIO pin Output Level */
  HAL_GPIO_WritePin(GPIOC, GPIO_PIN_13|GPIO_PIN_14|GPIO_PIN_15, GPIO_PIN_RESET);
 8000bf0:	f8df 80a0 	ldr.w	r8, [pc, #160]	@ 8000c94 <MX_GPIO_Init+0x11c>
 8000bf4:	4622      	mov	r2, r4
 8000bf6:	f44f 4160 	mov.w	r1, #57344	@ 0xe000
 8000bfa:	4640      	mov	r0, r8
 8000bfc:	f001 fa82 	bl	8002104 <HAL_GPIO_WritePin>

  /*Configure GPIO pin Output Level */
  HAL_GPIO_WritePin(GPIOB, GPIO_PIN_12, GPIO_PIN_RESET);
 8000c00:	4e22      	ldr	r6, [pc, #136]	@ (8000c8c <MX_GPIO_Init+0x114>)
 8000c02:	4622      	mov	r2, r4
 8000c04:	f44f 5180 	mov.w	r1, #4096	@ 0x1000
 8000c08:	4630      	mov	r0, r6
 8000c0a:	f001 fa7b 	bl	8002104 <HAL_GPIO_WritePin>

  /*Configure GPIO pin Output Level */
  HAL_GPIO_WritePin(GPIOA, GPIO_PIN_12, GPIO_PIN_RESET);
 8000c0e:	4f20      	ldr	r7, [pc, #128]	@ (8000c90 <MX_GPIO_Init+0x118>)
 8000c10:	4622      	mov	r2, r4
 8000c12:	f44f 5180 	mov.w	r1, #4096	@ 0x1000
 8000c16:	4638      	mov	r0, r7
 8000c18:	f001 fa74 	bl	8002104 <HAL_GPIO_WritePin>

  /*Configure GPIO pins : PC13 PC14 PC15 */
  GPIO_InitStruct.Pin = GPIO_PIN_13|GPIO_PIN_14|GPIO_PIN_15;
 8000c1c:	f44f 4360 	mov.w	r3, #57344	@ 0xe000
 8000c20:	9305      	str	r3, [sp, #20]
  GPIO_InitStruct.Mode = GPIO_MODE_OUTPUT_PP;
 8000c22:	2501      	movs	r5, #1
 8000c24:	9506      	str	r5, [sp, #24]
  GPIO_InitStruct.Pull = GPIO_NOPULL;
 8000c26:	9407      	str	r4, [sp, #28]
  GPIO_InitStruct.Speed = GPIO_SPEED_FREQ_LOW;
 8000c28:	9408      	str	r4, [sp, #32]
  HAL_GPIO_Init(GPIOC, &GPIO_InitStruct);
 8000c2a:	a905      	add	r1, sp, #20
 8000c2c:	4640      	mov	r0, r8
 8000c2e:	f001 f979 	bl	8001f24 <HAL_GPIO_Init>

  /*Configure GPIO pin : PB12 */
  GPIO_InitStruct.Pin = GPIO_PIN_12;
 8000c32:	f44f 5880 	mov.w	r8, #4096	@ 0x1000
 8000c36:	f8cd 8014 	str.w	r8, [sp, #20]
  GPIO_InitStruct.Mode = GPIO_MODE_OUTPUT_PP;
 8000c3a:	9506      	str	r5, [sp, #24]
  GPIO_InitStruct.Pull = GPIO_NOPULL;
 8000c3c:	9407      	str	r4, [sp, #28]
  GPIO_InitStruct.Speed = GPIO_SPEED_FREQ_LOW;
 8000c3e:	9408      	str	r4, [sp, #32]
  HAL_GPIO_Init(GPIOB, &GPIO_InitStruct);
 8000c40:	a905      	add	r1, sp, #20
 8000c42:	4630      	mov	r0, r6
 8000c44:	f001 f96e 	bl	8001f24 <HAL_GPIO_Init>

  /*Configure GPIO pin : PB13 */
  GPIO_InitStruct.Pin = GPIO_PIN_13;
 8000c48:	f44f 5300 	mov.w	r3, #8192	@ 0x2000
 8000c4c:	9305      	str	r3, [sp, #20]
  GPIO_InitStruct.Mode = GPIO_MODE_IT_RISING;
 8000c4e:	f44f 1388 	mov.w	r3, #1114112	@ 0x110000
 8000c52:	9306      	str	r3, [sp, #24]
  GPIO_InitStruct.Pull = GPIO_NOPULL;
 8000c54:	9407      	str	r4, [sp, #28]
  HAL_GPIO_Init(GPIOB, &GPIO_InitStruct);
 8000c56:	a905      	add	r1, sp, #20
 8000c58:	4630      	mov	r0, r6
 8000c5a:	f001 f963 	bl	8001f24 <HAL_GPIO_Init>

  /*Configure GPIO pin : PA12 */
  GPIO_InitStruct.Pin = GPIO_PIN_12;
 8000c5e:	f8cd 8014 	str.w	r8, [sp, #20]
  GPIO_InitStruct.Mode = GPIO_MODE_OUTPUT_PP;
 8000c62:	9506      	str	r5, [sp, #24]
  GPIO_InitStruct.Pull = GPIO_PULLUP;
 8000c64:	9507      	str	r5, [sp, #28]
  GPIO_InitStruct.Speed = GPIO_SPEED_FREQ_LOW;
 8000c66:	9408      	str	r4, [sp, #32]
  HAL_GPIO_Init(GPIOA, &GPIO_InitStruct);
 8000c68:	a905      	add	r1, sp, #20
 8000c6a:	4638      	mov	r0, r7
 8000c6c:	f001 f95a 	bl	8001f24 <HAL_GPIO_Init>

  /* EXTI interrupt init*/
  HAL_NVIC_SetPriority(EXTI15_10_IRQn, 0, 0);
 8000c70:	4622      	mov	r2, r4
 8000c72:	4621      	mov	r1, r4
 8000c74:	2028      	movs	r0, #40	@ 0x28
 8000c76:	f000 fd5f 	bl	8001738 <HAL_NVIC_SetPriority>
  HAL_NVIC_EnableIRQ(EXTI15_10_IRQn);
 8000c7a:	2028      	movs	r0, #40	@ 0x28
 8000c7c:	f000 fd6c 	bl	8001758 <HAL_NVIC_EnableIRQ>

}
 8000c80:	b00a      	add	sp, #40	@ 0x28
 8000c82:	e8bd 81f0 	ldmia.w	sp!, {r4, r5, r6, r7, r8, pc}
 8000c86:	bf00      	nop
 8000c88:	40023800 	.word	0x40023800
 8000c8c:	40020400 	.word	0x40020400
 8000c90:	40020000 	.word	0x40020000
 8000c94:	40020800 	.word	0x40020800

08000c98 <MX_I2C1_Init>:

I2C_HandleTypeDef hi2c1;

/* I2C1 init function */
void MX_I2C1_Init(void)
{
 8000c98:	b508      	push	{r3, lr}
  /* USER CODE END I2C1_Init 0 */

  /* USER CODE BEGIN I2C1_Init 1 */

  /* USER CODE END I2C1_Init 1 */
  hi2c1.Instance = I2C1;
 8000c9a:	480b      	ldr	r0, [pc, #44]	@ (8000cc8 <MX_I2C1_Init+0x30>)
 8000c9c:	4b0b      	ldr	r3, [pc, #44]	@ (8000ccc <MX_I2C1_Init+0x34>)
 8000c9e:	6003      	str	r3, [r0, #0]
  hi2c1.Init.ClockSpeed = 100000;
 8000ca0:	4b0b      	ldr	r3, [pc, #44]	@ (8000cd0 <MX_I2C1_Init+0x38>)
 8000ca2:	6043      	str	r3, [r0, #4]
  hi2c1.Init.DutyCycle = I2C_DUTYCYCLE_2;
 8000ca4:	2300      	movs	r3, #0
 8000ca6:	6083      	str	r3, [r0, #8]
  hi2c1.Init.OwnAddress1 = 0;
 8000ca8:	60c3      	str	r3, [r0, #12]
  hi2c1.Init.AddressingMode = I2C_ADDRESSINGMODE_7BIT;
 8000caa:	f44f 4280 	mov.w	r2, #16384	@ 0x4000
 8000cae:	6102      	str	r2, [r0, #16]
  hi2c1.Init.DualAddressMode = I2C_DUALADDRESS_DISABLE;
 8000cb0:	6143      	str	r3, [r0, #20]
  hi2c1.Init.OwnAddress2 = 0;
 8000cb2:	6183      	str	r3, [r0, #24]
  hi2c1.Init.GeneralCallMode = I2C_GENERALCALL_DISABLE;
 8000cb4:	61c3      	str	r3, [r0, #28]
  hi2c1.Init.NoStretchMode = I2C_NOSTRETCH_DISABLE;
 8000cb6:	6203      	str	r3, [r0, #32]
  if (HAL_I2C_Init(&hi2c1) != HAL_OK)
 8000cb8:	f001 fa3a 	bl	8002130 <HAL_I2C_Init>
 8000cbc:	b900      	cbnz	r0, 8000cc0 <MX_I2C1_Init+0x28>
  }
  /* USER CODE BEGIN I2C1_Init 2 */

  /* USER CODE END I2C1_Init 2 */

}
 8000cbe:	bd08      	pop	{r3, pc}
    Error_Handler();
 8000cc0:	f000 f841 	bl	8000d46 <Error_Handler>
}
 8000cc4:	e7fb      	b.n	8000cbe <MX_I2C1_Init+0x26>
 8000cc6:	bf00      	nop
 8000cc8:	200001e8 	.word	0x200001e8
 8000ccc:	40005400 	.word	0x40005400
 8000cd0:	000186a0 	.word	0x000186a0

08000cd4 <HAL_I2C_MspInit>:

void HAL_I2C_MspInit(I2C_HandleTypeDef* i2cHandle)
{
 8000cd4:	b530      	push	{r4, r5, lr}
 8000cd6:	b089      	sub	sp, #36	@ 0x24

  GPIO_InitTypeDef GPIO_InitStruct = {0};
 8000cd8:	2300      	movs	r3, #0
 8000cda:	9303      	str	r3, [sp, #12]
 8000cdc:	9304      	str	r3, [sp, #16]
 8000cde:	9305      	str	r3, [sp, #20]
 8000ce0:	9306      	str	r3, [sp, #24]
 8000ce2:	9307      	str	r3, [sp, #28]
  if(i2cHandle->Instance==I2C1)
 8000ce4:	6802      	ldr	r2, [r0, #0]
 8000ce6:	4b14      	ldr	r3, [pc, #80]	@ (8000d38 <HAL_I2C_MspInit+0x64>)
 8000ce8:	429a      	cmp	r2, r3
 8000cea:	d001      	beq.n	8000cf0 <HAL_I2C_MspInit+0x1c>
    __HAL_RCC_I2C1_CLK_ENABLE();
  /* USER CODE BEGIN I2C1_MspInit 1 */

  /* USER CODE END I2C1_MspInit 1 */
  }
}
 8000cec:	b009      	add	sp, #36	@ 0x24
 8000cee:	bd30      	pop	{r4, r5, pc}
    __HAL_RCC_GPIOB_CLK_ENABLE();
 8000cf0:	2500      	movs	r5, #0
 8000cf2:	9501      	str	r5, [sp, #4]
 8000cf4:	4c11      	ldr	r4, [pc, #68]	@ (8000d3c <HAL_I2C_MspInit+0x68>)
 8000cf6:	6b23      	ldr	r3, [r4, #48]	@ 0x30
 8000cf8:	f043 0302 	orr.w	r3, r3, #2
 8000cfc:	6323      	str	r3, [r4, #48]	@ 0x30
 8000cfe:	6b23      	ldr	r3, [r4, #48]	@ 0x30
 8000d00:	f003 0302 	and.w	r3, r3, #2
 8000d04:	9301      	str	r3, [sp, #4]
 8000d06:	9b01      	ldr	r3, [sp, #4]
    GPIO_InitStruct.Pin = GPIO_PIN_6|GPIO_PIN_7;
 8000d08:	23c0      	movs	r3, #192	@ 0xc0
 8000d0a:	9303      	str	r3, [sp, #12]
    GPIO_InitStruct.Mode = GPIO_MODE_AF_OD;
 8000d0c:	2312      	movs	r3, #18
 8000d0e:	9304      	str	r3, [sp, #16]
    GPIO_InitStruct.Speed = GPIO_SPEED_FREQ_VERY_HIGH;
 8000d10:	2303      	movs	r3, #3
 8000d12:	9306      	str	r3, [sp, #24]
    GPIO_InitStruct.Alternate = GPIO_AF4_I2C1;
 8000d14:	2304      	movs	r3, #4
 8000d16:	9307      	str	r3, [sp, #28]
    HAL_GPIO_Init(GPIOB, &GPIO_InitStruct);
 8000d18:	a903      	add	r1, sp, #12
 8000d1a:	4809      	ldr	r0, [pc, #36]	@ (8000d40 <HAL_I2C_MspInit+0x6c>)
 8000d1c:	f001 f902 	bl	8001f24 <HAL_GPIO_Init>
    __HAL_RCC_I2C1_CLK_ENABLE();
 8000d20:	9502      	str	r5, [sp, #8]
 8000d22:	6c23      	ldr	r3, [r4, #64]	@ 0x40
 8000d24:	f443 1300 	orr.w	r3, r3, #2097152	@ 0x200000
 8000d28:	6423      	str	r3, [r4, #64]	@ 0x40
 8000d2a:	6c23      	ldr	r3, [r4, #64]	@ 0x40
 8000d2c:	f403 1300 	and.w	r3, r3, #2097152	@ 0x200000
 8000d30:	9302      	str	r3, [sp, #8]
 8000d32:	9b02      	ldr	r3, [sp, #8]
}
 8000d34:	e7da      	b.n	8000cec <HAL_I2C_MspInit+0x18>
 8000d36:	bf00      	nop
 8000d38:	40005400 	.word	0x40005400
 8000d3c:	40023800 	.word	0x40023800
 8000d40:	40020400 	.word	0x40020400

08000d44 <HAL_TIM_PeriodElapsedCallback>:
{
  if (htim->Instance == TIM14)
  {
    //HAL_GPIO_TogglePin(GPIOD, LED_R_1_Pin|LED_R_2_Pin|LED_G_1_Pin|LED_G_2_Pin);
  }
}
 8000d44:	4770      	bx	lr

08000d46 <Error_Handler>:
  __ASM volatile ("cpsid i" : : : "memory");
 8000d46:	b672      	cpsid	i
void Error_Handler(void)
{
  /* USER CODE BEGIN Error_Handler_Debug */
  /* User can add his own implementation to report the HAL error return state */
  __disable_irq();
  while (1)
 8000d48:	e7fe      	b.n	8000d48 <Error_Handler+0x2>
	...

08000d4c <SystemClock_Config>:
{
 8000d4c:	b500      	push	{lr}
 8000d4e:	b095      	sub	sp, #84	@ 0x54
  RCC_OscInitTypeDef RCC_OscInitStruct = {0};
 8000d50:	2234      	movs	r2, #52	@ 0x34
 8000d52:	2100      	movs	r1, #0
 8000d54:	a807      	add	r0, sp, #28
 8000d56:	f002 faf5 	bl	8003344 <memset>
  RCC_ClkInitTypeDef RCC_ClkInitStruct = {0};
 8000d5a:	2300      	movs	r3, #0
 8000d5c:	9302      	str	r3, [sp, #8]
 8000d5e:	9303      	str	r3, [sp, #12]
 8000d60:	9304      	str	r3, [sp, #16]
 8000d62:	9305      	str	r3, [sp, #20]
 8000d64:	9306      	str	r3, [sp, #24]
  __HAL_RCC_PWR_CLK_ENABLE();
 8000d66:	9300      	str	r3, [sp, #0]
 8000d68:	4a23      	ldr	r2, [pc, #140]	@ (8000df8 <SystemClock_Config+0xac>)
 8000d6a:	6c11      	ldr	r1, [r2, #64]	@ 0x40
 8000d6c:	f041 5180 	orr.w	r1, r1, #268435456	@ 0x10000000
 8000d70:	6411      	str	r1, [r2, #64]	@ 0x40
 8000d72:	6c12      	ldr	r2, [r2, #64]	@ 0x40
 8000d74:	f002 5280 	and.w	r2, r2, #268435456	@ 0x10000000
 8000d78:	9200      	str	r2, [sp, #0]
 8000d7a:	9a00      	ldr	r2, [sp, #0]
  __HAL_PWR_VOLTAGESCALING_CONFIG(PWR_REGULATOR_VOLTAGE_SCALE1);
 8000d7c:	9301      	str	r3, [sp, #4]
 8000d7e:	4a1f      	ldr	r2, [pc, #124]	@ (8000dfc <SystemClock_Config+0xb0>)
 8000d80:	6811      	ldr	r1, [r2, #0]
 8000d82:	f441 4140 	orr.w	r1, r1, #49152	@ 0xc000
 8000d86:	6011      	str	r1, [r2, #0]
 8000d88:	6812      	ldr	r2, [r2, #0]
 8000d8a:	f402 4240 	and.w	r2, r2, #49152	@ 0xc000
 8000d8e:	9201      	str	r2, [sp, #4]
 8000d90:	9a01      	ldr	r2, [sp, #4]
  RCC_OscInitStruct.OscillatorType = RCC_OSCILLATORTYPE_HSI|RCC_OSCILLATORTYPE_LSI;
 8000d92:	220a      	movs	r2, #10
 8000d94:	9207      	str	r2, [sp, #28]
  RCC_OscInitStruct.HSIState = RCC_HSI_ON;
 8000d96:	2201      	movs	r2, #1
 8000d98:	920a      	str	r2, [sp, #40]	@ 0x28
  RCC_OscInitStruct.HSICalibrationValue = RCC_HSICALIBRATION_DEFAULT;
 8000d9a:	2110      	movs	r1, #16
 8000d9c:	910b      	str	r1, [sp, #44]	@ 0x2c
  RCC_OscInitStruct.LSIState = RCC_LSI_ON;
 8000d9e:	920c      	str	r2, [sp, #48]	@ 0x30
  RCC_OscInitStruct.PLL.PLLState = RCC_PLL_ON;
 8000da0:	2202      	movs	r2, #2
 8000da2:	920d      	str	r2, [sp, #52]	@ 0x34
  RCC_OscInitStruct.PLL.PLLSource = RCC_PLLSOURCE_HSI;
 8000da4:	930e      	str	r3, [sp, #56]	@ 0x38
  RCC_OscInitStruct.PLL.PLLM = 8;
 8000da6:	2308      	movs	r3, #8
 8000da8:	930f      	str	r3, [sp, #60]	@ 0x3c
  RCC_OscInitStruct.PLL.PLLN = 180;
 8000daa:	23b4      	movs	r3, #180	@ 0xb4
 8000dac:	9310      	str	r3, [sp, #64]	@ 0x40
  RCC_OscInitStruct.PLL.PLLP = RCC_PLLP_DIV2;
 8000dae:	9211      	str	r2, [sp, #68]	@ 0x44
  RCC_OscInitStruct.PLL.PLLQ = 7;
 8000db0:	2307      	movs	r3, #7
 8000db2:	9312      	str	r3, [sp, #72]	@ 0x48
  RCC_OscInitStruct.PLL.PLLR = 2;
 8000db4:	9213      	str	r2, [sp, #76]	@ 0x4c
  if (HAL_RCC_OscConfig(&RCC_OscInitStruct) != HAL_OK)
 8000db6:	a807      	add	r0, sp, #28
 8000db8:	f001 fcfc 	bl	80027b4 <HAL_RCC_OscConfig>
 8000dbc:	b9b0      	cbnz	r0, 8000dec <SystemClock_Config+0xa0>
  if (HAL_PWREx_EnableOverDrive() != HAL_OK)
 8000dbe:	f001 fa95 	bl	80022ec <HAL_PWREx_EnableOverDrive>
 8000dc2:	b9a8      	cbnz	r0, 8000df0 <SystemClock_Config+0xa4>
  RCC_ClkInitStruct.ClockType = RCC_CLOCKTYPE_HCLK|RCC_CLOCKTYPE_SYSCLK
 8000dc4:	230f      	movs	r3, #15
 8000dc6:	9302      	str	r3, [sp, #8]
  RCC_ClkInitStruct.SYSCLKSource = RCC_SYSCLKSOURCE_PLLCLK;
 8000dc8:	2302      	movs	r3, #2
 8000dca:	9303      	str	r3, [sp, #12]
  RCC_ClkInitStruct.AHBCLKDivider = RCC_SYSCLK_DIV1;
 8000dcc:	2300      	movs	r3, #0
 8000dce:	9304      	str	r3, [sp, #16]
  RCC_ClkInitStruct.APB1CLKDivider = RCC_HCLK_DIV4;
 8000dd0:	f44f 53a0 	mov.w	r3, #5120	@ 0x1400
 8000dd4:	9305      	str	r3, [sp, #20]
  RCC_ClkInitStruct.APB2CLKDivider = RCC_HCLK_DIV2;
 8000dd6:	f44f 5380 	mov.w	r3, #4096	@ 0x1000
 8000dda:	9306      	str	r3, [sp, #24]
  if (HAL_RCC_ClockConfig(&RCC_ClkInitStruct, FLASH_LATENCY_5) != HAL_OK)
 8000ddc:	2105      	movs	r1, #5
 8000dde:	a802      	add	r0, sp, #8
 8000de0:	f001 fac2 	bl	8002368 <HAL_RCC_ClockConfig>
 8000de4:	b930      	cbnz	r0, 8000df4 <SystemClock_Config+0xa8>
}
 8000de6:	b015      	add	sp, #84	@ 0x54
 8000de8:	f85d fb04 	ldr.w	pc, [sp], #4
    Error_Handler();
 8000dec:	f7ff ffab 	bl	8000d46 <Error_Handler>
    Error_Handler();
 8000df0:	f7ff ffa9 	bl	8000d46 <Error_Handler>
    Error_Handler();
 8000df4:	f7ff ffa7 	bl	8000d46 <Error_Handler>
 8000df8:	40023800 	.word	0x40023800
 8000dfc:	40007000 	.word	0x40007000

08000e00 <main>:
{
 8000e00:	b508      	push	{r3, lr}
  HAL_Init();
 8000e02:	f000 fa69 	bl	80012d8 <HAL_Init>
  __ASM volatile ("cpsie i" : : : "memory");
 8000e06:	b662      	cpsie	i
  SystemClock_Config();
 8000e08:	f7ff ffa0 	bl	8000d4c <SystemClock_Config>
  MX_GPIO_Init();
 8000e0c:	f7ff feb4 	bl	8000b78 <MX_GPIO_Init>
  MX_DMA_Init();
 8000e10:	f7ff fe98 	bl	8000b44 <MX_DMA_Init>
  MX_CRC_Init();
 8000e14:	f7ff fe6e 	bl	8000af4 <MX_CRC_Init>
  MX_TIM14_Init();
 8000e18:	f000 f928 	bl	800106c <MX_TIM14_Init>
  MX_ADC1_Init();
 8000e1c:	f7ff fd48 	bl	80008b0 <MX_ADC1_Init>
  MX_ADC3_Init();
 8000e20:	f7ff fda4 	bl	800096c <MX_ADC3_Init>
  MX_SPI2_Init();
 8000e24:	f000 f81c 	bl	8000e60 <MX_SPI2_Init>
  MX_I2C1_Init();
 8000e28:	f7ff ff36 	bl	8000c98 <MX_I2C1_Init>
  MX_UART5_Init();
 8000e2c:	f000 f97e 	bl	800112c <MX_UART5_Init>
  MX_TIM2_Init();
 8000e30:	f000 f8e6 	bl	8001000 <MX_TIM2_Init>
  Btl_Init();
 8000e34:	f7ff fb8c 	bl	8000550 <Btl_Init>
  System_Delay(500);
 8000e38:	f44f 70fa 	mov.w	r0, #500	@ 0x1f4
 8000e3c:	f7ff fd34 	bl	80008a8 <System_Delay>
  System_ReloadWdg();
 8000e40:	f7ff fc92 	bl	8000768 <System_ReloadWdg>
  Btl_Handle();
 8000e44:	f7ff fbea 	bl	800061c <Btl_Handle>
  System_ReloadWdg();
 8000e48:	f7ff fc8e 	bl	8000768 <System_ReloadWdg>
  HAL_Delay(2000);
 8000e4c:	f44f 60fa 	mov.w	r0, #2000	@ 0x7d0
 8000e50:	f000 fa6e 	bl	8001330 <HAL_Delay>
  System_ReloadWdg();
 8000e54:	f7ff fc88 	bl	8000768 <System_ReloadWdg>
  Btl_StartAppAnyway();
 8000e58:	f7ff fb80 	bl	800055c <Btl_StartAppAnyway>
  while (1)
 8000e5c:	e7fe      	b.n	8000e5c <main+0x5c>
	...

08000e60 <MX_SPI2_Init>:

SPI_HandleTypeDef hspi2;

/* SPI2 init function */
void MX_SPI2_Init(void)
{
 8000e60:	b508      	push	{r3, lr}
  /* USER CODE END SPI2_Init 0 */

  /* USER CODE BEGIN SPI2_Init 1 */

  /* USER CODE END SPI2_Init 1 */
  hspi2.Instance = SPI2;
 8000e62:	480d      	ldr	r0, [pc, #52]	@ (8000e98 <MX_SPI2_Init+0x38>)
 8000e64:	4b0d      	ldr	r3, [pc, #52]	@ (8000e9c <MX_SPI2_Init+0x3c>)
 8000e66:	6003      	str	r3, [r0, #0]
  hspi2.Init.Mode = SPI_MODE_MASTER;
 8000e68:	f44f 7382 	mov.w	r3, #260	@ 0x104
 8000e6c:	6043      	str	r3, [r0, #4]
  hspi2.Init.Direction = SPI_DIRECTION_2LINES;
 8000e6e:	2300      	movs	r3, #0
 8000e70:	6083      	str	r3, [r0, #8]
  hspi2.Init.DataSize = SPI_DATASIZE_8BIT;
 8000e72:	60c3      	str	r3, [r0, #12]
  hspi2.Init.CLKPolarity = SPI_POLARITY_LOW;
 8000e74:	6103      	str	r3, [r0, #16]
  hspi2.Init.CLKPhase = SPI_PHASE_1EDGE;
 8000e76:	6143      	str	r3, [r0, #20]
  hspi2.Init.NSS = SPI_NSS_SOFT;
 8000e78:	f44f 7200 	mov.w	r2, #512	@ 0x200
 8000e7c:	6182      	str	r2, [r0, #24]
  hspi2.Init.BaudRatePrescaler = SPI_BAUDRATEPRESCALER_2;
 8000e7e:	61c3      	str	r3, [r0, #28]
  hspi2.Init.FirstBit = SPI_FIRSTBIT_MSB;
 8000e80:	6203      	str	r3, [r0, #32]
  hspi2.Init.TIMode = SPI_TIMODE_DISABLE;
 8000e82:	6243      	str	r3, [r0, #36]	@ 0x24
  hspi2.Init.CRCCalculation = SPI_CRCCALCULATION_DISABLE;
 8000e84:	6283      	str	r3, [r0, #40]	@ 0x28
  hspi2.Init.CRCPolynomial = 10;
 8000e86:	230a      	movs	r3, #10
 8000e88:	62c3      	str	r3, [r0, #44]	@ 0x2c
  if (HAL_SPI_Init(&hspi2) != HAL_OK)
 8000e8a:	f001 feb5 	bl	8002bf8 <HAL_SPI_Init>
 8000e8e:	b900      	cbnz	r0, 8000e92 <MX_SPI2_Init+0x32>
  }
  /* USER CODE BEGIN SPI2_Init 2 */

  /* USER CODE END SPI2_Init 2 */

}
 8000e90:	bd08      	pop	{r3, pc}
    Error_Handler();
 8000e92:	f7ff ff58 	bl	8000d46 <Error_Handler>
}
 8000e96:	e7fb      	b.n	8000e90 <MX_SPI2_Init+0x30>
 8000e98:	2000023c 	.word	0x2000023c
 8000e9c:	40003800 	.word	0x40003800

08000ea0 <HAL_SPI_MspInit>:

void HAL_SPI_MspInit(SPI_HandleTypeDef* spiHandle)
{
 8000ea0:	e92d 41f0 	stmdb	sp!, {r4, r5, r6, r7, r8, lr}
 8000ea4:	b088      	sub	sp, #32

  GPIO_InitTypeDef GPIO_InitStruct = {0};
 8000ea6:	2300      	movs	r3, #0
 8000ea8:	9303      	str	r3, [sp, #12]
 8000eaa:	9304      	str	r3, [sp, #16]
 8000eac:	9305      	str	r3, [sp, #20]
 8000eae:	9306      	str	r3, [sp, #24]
 8000eb0:	9307      	str	r3, [sp, #28]
  if(spiHandle->Instance==SPI2)
 8000eb2:	6802      	ldr	r2, [r0, #0]
 8000eb4:	4b25      	ldr	r3, [pc, #148]	@ (8000f4c <HAL_SPI_MspInit+0xac>)
 8000eb6:	429a      	cmp	r2, r3
 8000eb8:	d002      	beq.n	8000ec0 <HAL_SPI_MspInit+0x20>

  /* USER CODE BEGIN SPI2_MspInit 1 */

  /* USER CODE END SPI2_MspInit 1 */
  }
}
 8000eba:	b008      	add	sp, #32
 8000ebc:	e8bd 81f0 	ldmia.w	sp!, {r4, r5, r6, r7, r8, pc}
    __HAL_RCC_SPI2_CLK_ENABLE();
 8000ec0:	2400      	movs	r4, #0
 8000ec2:	9400      	str	r4, [sp, #0]
 8000ec4:	f503 3300 	add.w	r3, r3, #131072	@ 0x20000
 8000ec8:	6c1a      	ldr	r2, [r3, #64]	@ 0x40
 8000eca:	f442 4280 	orr.w	r2, r2, #16384	@ 0x4000
 8000ece:	641a      	str	r2, [r3, #64]	@ 0x40
 8000ed0:	6c1a      	ldr	r2, [r3, #64]	@ 0x40
 8000ed2:	f402 4280 	and.w	r2, r2, #16384	@ 0x4000
 8000ed6:	9200      	str	r2, [sp, #0]
 8000ed8:	9a00      	ldr	r2, [sp, #0]
    __HAL_RCC_GPIOC_CLK_ENABLE();
 8000eda:	9401      	str	r4, [sp, #4]
 8000edc:	6b1a      	ldr	r2, [r3, #48]	@ 0x30
 8000ede:	f042 0204 	orr.w	r2, r2, #4
 8000ee2:	631a      	str	r2, [r3, #48]	@ 0x30
 8000ee4:	6b1a      	ldr	r2, [r3, #48]	@ 0x30
 8000ee6:	f002 0204 	and.w	r2, r2, #4
 8000eea:	9201      	str	r2, [sp, #4]
 8000eec:	9a01      	ldr	r2, [sp, #4]
    __HAL_RCC_GPIOB_CLK_ENABLE();
 8000eee:	9402      	str	r4, [sp, #8]
 8000ef0:	6b1a      	ldr	r2, [r3, #48]	@ 0x30
 8000ef2:	f042 0202 	orr.w	r2, r2, #2
 8000ef6:	631a      	str	r2, [r3, #48]	@ 0x30
 8000ef8:	6b1b      	ldr	r3, [r3, #48]	@ 0x30
 8000efa:	f003 0302 	and.w	r3, r3, #2
 8000efe:	9302      	str	r3, [sp, #8]
 8000f00:	9b02      	ldr	r3, [sp, #8]
    GPIO_InitStruct.Pin = GPIO_PIN_1;
 8000f02:	2502      	movs	r5, #2
 8000f04:	9503      	str	r5, [sp, #12]
    GPIO_InitStruct.Mode = GPIO_MODE_AF_PP;
 8000f06:	9504      	str	r5, [sp, #16]
    GPIO_InitStruct.Speed = GPIO_SPEED_FREQ_VERY_HIGH;
 8000f08:	2603      	movs	r6, #3
 8000f0a:	9606      	str	r6, [sp, #24]
    GPIO_InitStruct.Alternate = GPIO_AF7_SPI2;
 8000f0c:	2307      	movs	r3, #7
 8000f0e:	9307      	str	r3, [sp, #28]
    HAL_GPIO_Init(GPIOC, &GPIO_InitStruct);
 8000f10:	f8df 8040 	ldr.w	r8, [pc, #64]	@ 8000f54 <HAL_SPI_MspInit+0xb4>
 8000f14:	a903      	add	r1, sp, #12
 8000f16:	4640      	mov	r0, r8
 8000f18:	f001 f804 	bl	8001f24 <HAL_GPIO_Init>
    GPIO_InitStruct.Pin = GPIO_PIN_2;
 8000f1c:	2304      	movs	r3, #4
 8000f1e:	9303      	str	r3, [sp, #12]
    GPIO_InitStruct.Mode = GPIO_MODE_AF_PP;
 8000f20:	9504      	str	r5, [sp, #16]
    GPIO_InitStruct.Pull = GPIO_NOPULL;
 8000f22:	9405      	str	r4, [sp, #20]
    GPIO_InitStruct.Speed = GPIO_SPEED_FREQ_VERY_HIGH;
 8000f24:	9606      	str	r6, [sp, #24]
    GPIO_InitStruct.Alternate = GPIO_AF5_SPI2;
 8000f26:	2705      	movs	r7, #5
 8000f28:	9707      	str	r7, [sp, #28]
    HAL_GPIO_Init(GPIOC, &GPIO_InitStruct);
 8000f2a:	a903      	add	r1, sp, #12
 8000f2c:	4640      	mov	r0, r8
 8000f2e:	f000 fff9 	bl	8001f24 <HAL_GPIO_Init>
    GPIO_InitStruct.Pin = GPIO_PIN_10;
 8000f32:	f44f 6380 	mov.w	r3, #1024	@ 0x400
 8000f36:	9303      	str	r3, [sp, #12]
    GPIO_InitStruct.Mode = GPIO_MODE_AF_PP;
 8000f38:	9504      	str	r5, [sp, #16]
    GPIO_InitStruct.Pull = GPIO_NOPULL;
 8000f3a:	9405      	str	r4, [sp, #20]
    GPIO_InitStruct.Speed = GPIO_SPEED_FREQ_VERY_HIGH;
 8000f3c:	9606      	str	r6, [sp, #24]
    GPIO_InitStruct.Alternate = GPIO_AF5_SPI2;
 8000f3e:	9707      	str	r7, [sp, #28]
    HAL_GPIO_Init(GPIOB, &GPIO_InitStruct);
 8000f40:	a903      	add	r1, sp, #12
 8000f42:	4803      	ldr	r0, [pc, #12]	@ (8000f50 <HAL_SPI_MspInit+0xb0>)
 8000f44:	f000 ffee 	bl	8001f24 <HAL_GPIO_Init>
}
 8000f48:	e7b7      	b.n	8000eba <HAL_SPI_MspInit+0x1a>
 8000f4a:	bf00      	nop
 8000f4c:	40003800 	.word	0x40003800
 8000f50:	40020400 	.word	0x40020400
 8000f54:	40020800 	.word	0x40020800

08000f58 <HAL_MspInit>:
/* USER CODE END 0 */
/**
  * Initializes the Global MSP.
  */
void HAL_MspInit(void)
{
 8000f58:	b082      	sub	sp, #8

  /* USER CODE BEGIN MspInit 0 */

  /* USER CODE END MspInit 0 */

  __HAL_RCC_SYSCFG_CLK_ENABLE();
 8000f5a:	2100      	movs	r1, #0
 8000f5c:	9100      	str	r1, [sp, #0]
 8000f5e:	4b0b      	ldr	r3, [pc, #44]	@ (8000f8c <HAL_MspInit+0x34>)
 8000f60:	6c5a      	ldr	r2, [r3, #68]	@ 0x44
 8000f62:	f442 4280 	orr.w	r2, r2, #16384	@ 0x4000
 8000f66:	645a      	str	r2, [r3, #68]	@ 0x44
 8000f68:	6c5a      	ldr	r2, [r3, #68]	@ 0x44
 8000f6a:	f402 4280 	and.w	r2, r2, #16384	@ 0x4000
 8000f6e:	9200      	str	r2, [sp, #0]
 8000f70:	9a00      	ldr	r2, [sp, #0]
  __HAL_RCC_PWR_CLK_ENABLE();
 8000f72:	9101      	str	r1, [sp, #4]
 8000f74:	6c1a      	ldr	r2, [r3, #64]	@ 0x40
 8000f76:	f042 5280 	orr.w	r2, r2, #268435456	@ 0x10000000
 8000f7a:	641a      	str	r2, [r3, #64]	@ 0x40
 8000f7c:	6c1b      	ldr	r3, [r3, #64]	@ 0x40
 8000f7e:	f003 5380 	and.w	r3, r3, #268435456	@ 0x10000000
 8000f82:	9301      	str	r3, [sp, #4]
 8000f84:	9b01      	ldr	r3, [sp, #4]
  /* System interrupt init*/

  /* USER CODE BEGIN MspInit 1 */

  /* USER CODE END MspInit 1 */
}
 8000f86:	b002      	add	sp, #8
 8000f88:	4770      	bx	lr
 8000f8a:	bf00      	nop
 8000f8c:	40023800 	.word	0x40023800

08000f90 <NMI_Handler>:
{
  /* USER CODE BEGIN NonMaskableInt_IRQn 0 */

  /* USER CODE END NonMaskableInt_IRQn 0 */
  /* USER CODE BEGIN NonMaskableInt_IRQn 1 */
  while (1)
 8000f90:	e7fe      	b.n	8000f90 <NMI_Handler>

08000f92 <HardFault_Handler>:
void HardFault_Handler(void)
{
  /* USER CODE BEGIN HardFault_IRQn 0 */

  /* USER CODE END HardFault_IRQn 0 */
  while (1)
 8000f92:	e7fe      	b.n	8000f92 <HardFault_Handler>

08000f94 <MemManage_Handler>:
void MemManage_Handler(void)
{
  /* USER CODE BEGIN MemoryManagement_IRQn 0 */

  /* USER CODE END MemoryManagement_IRQn 0 */
  while (1)
 8000f94:	e7fe      	b.n	8000f94 <MemManage_Handler>

08000f96 <BusFault_Handler>:
void BusFault_Handler(void)
{
  /* USER CODE BEGIN BusFault_IRQn 0 */

  /* USER CODE END BusFault_IRQn 0 */
  while (1)
 8000f96:	e7fe      	b.n	8000f96 <BusFault_Handler>

08000f98 <UsageFault_Handler>:
void UsageFault_Handler(void)
{
  /* USER CODE BEGIN UsageFault_IRQn 0 */

  /* USER CODE END UsageFault_IRQn 0 */
  while (1)
 8000f98:	e7fe      	b.n	8000f98 <UsageFault_Handler>

08000f9a <SVC_Handler>:

  /* USER CODE END SVCall_IRQn 0 */
  /* USER CODE BEGIN SVCall_IRQn 1 */

  /* USER CODE END SVCall_IRQn 1 */
}
 8000f9a:	4770      	bx	lr

08000f9c <DebugMon_Handler>:

  /* USER CODE END DebugMonitor_IRQn 0 */
  /* USER CODE BEGIN DebugMonitor_IRQn 1 */

  /* USER CODE END DebugMonitor_IRQn 1 */
}
 8000f9c:	4770      	bx	lr

08000f9e <PendSV_Handler>:

  /* USER CODE END PendSV_IRQn 0 */
  /* USER CODE BEGIN PendSV_IRQn 1 */

  /* USER CODE END PendSV_IRQn 1 */
}
 8000f9e:	4770      	bx	lr

08000fa0 <SysTick_Handler>:

/**
  * @brief This function handles System tick timer.
  */
void SysTick_Handler(void)
{
 8000fa0:	b508      	push	{r3, lr}
  /* USER CODE BEGIN SysTick_IRQn 0 */

  /* USER CODE END SysTick_IRQn 0 */
  HAL_IncTick();
 8000fa2:	f000 f9b3 	bl	800130c <HAL_IncTick>
  /* USER CODE BEGIN SysTick_IRQn 1 */

  /* USER CODE END SysTick_IRQn 1 */
}
 8000fa6:	bd08      	pop	{r3, pc}

08000fa8 <TIM2_IRQHandler>:

/**
  * @brief This function handles TIM2 global interrupt.
  */
void TIM2_IRQHandler(void)
{
 8000fa8:	b508      	push	{r3, lr}
  /* USER CODE BEGIN TIM2_IRQn 0 */

  /* USER CODE END TIM2_IRQn 0 */
  HAL_TIM_IRQHandler(&htim2);
 8000faa:	4802      	ldr	r0, [pc, #8]	@ (8000fb4 <TIM2_IRQHandler+0xc>)
 8000fac:	f001 fefa 	bl	8002da4 <HAL_TIM_IRQHandler>
  /* USER CODE BEGIN TIM2_IRQn 1 */

  /* USER CODE END TIM2_IRQn 1 */
}
 8000fb0:	bd08      	pop	{r3, pc}
 8000fb2:	bf00      	nop
 8000fb4:	200002dc 	.word	0x200002dc

08000fb8 <EXTI15_10_IRQHandler>:

/**
  * @brief This function handles EXTI line[15:10] interrupts.
  */
void EXTI15_10_IRQHandler(void)
{
 8000fb8:	b508      	push	{r3, lr}
  /* USER CODE BEGIN EXTI15_10_IRQn 0 */

  /* USER CODE END EXTI15_10_IRQn 0 */
  HAL_GPIO_EXTI_IRQHandler(GPIO_PIN_13);
 8000fba:	f44f 5000 	mov.w	r0, #8192	@ 0x2000
 8000fbe:	f001 f8a9 	bl	8002114 <HAL_GPIO_EXTI_IRQHandler>
  /* USER CODE BEGIN EXTI15_10_IRQn 1 */

  /* USER CODE END EXTI15_10_IRQn 1 */
}
 8000fc2:	bd08      	pop	{r3, pc}

08000fc4 <TIM8_TRG_COM_TIM14_IRQHandler>:

/**
  * @brief This function handles TIM8 trigger and commutation interrupts and TIM14 global interrupt.
  */
void TIM8_TRG_COM_TIM14_IRQHandler(void)
{
 8000fc4:	b508      	push	{r3, lr}
  /* USER CODE BEGIN TIM8_TRG_COM_TIM14_IRQn 0 */

  /* USER CODE END TIM8_TRG_COM_TIM14_IRQn 0 */
  HAL_TIM_IRQHandler(&htim14);
 8000fc6:	4802      	ldr	r0, [pc, #8]	@ (8000fd0 <TIM8_TRG_COM_TIM14_IRQHandler+0xc>)
 8000fc8:	f001 feec 	bl	8002da4 <HAL_TIM_IRQHandler>
  /* USER CODE BEGIN TIM8_TRG_COM_TIM14_IRQn 1 */

  /* USER CODE END TIM8_TRG_COM_TIM14_IRQn 1 */
}
 8000fcc:	bd08      	pop	{r3, pc}
 8000fce:	bf00      	nop
 8000fd0:	20000294 	.word	0x20000294

08000fd4 <DMA2_Stream0_IRQHandler>:

/**
  * @brief This function handles DMA2 stream0 global interrupt.
  */
void DMA2_Stream0_IRQHandler(void)
{
 8000fd4:	b508      	push	{r3, lr}
  /* USER CODE BEGIN DMA2_Stream0_IRQn 0 */

  /* USER CODE END DMA2_Stream0_IRQn 0 */
  HAL_DMA_IRQHandler(&hdma_adc1);
 8000fd6:	4802      	ldr	r0, [pc, #8]	@ (8000fe0 <DMA2_Stream0_IRQHandler+0xc>)
 8000fd8:	f000 fcd4 	bl	8001984 <HAL_DMA_IRQHandler>
  /* USER CODE BEGIN DMA2_Stream0_IRQn 1 */

  /* USER CODE END DMA2_Stream0_IRQn 1 */
}
 8000fdc:	bd08      	pop	{r3, pc}
 8000fde:	bf00      	nop
 8000fe0:	200000f0 	.word	0x200000f0

08000fe4 <SystemInit>:
  */
void SystemInit(void)
{
  /* FPU settings ------------------------------------------------------------*/
  #if (__FPU_PRESENT == 1) && (__FPU_USED == 1)
    SCB->CPACR |= ((3UL << 10*2)|(3UL << 11*2));  /* set CP10 and CP11 Full Access */
 8000fe4:	4b05      	ldr	r3, [pc, #20]	@ (8000ffc <SystemInit+0x18>)
 8000fe6:	f8d3 2088 	ldr.w	r2, [r3, #136]	@ 0x88
 8000fea:	f442 0270 	orr.w	r2, r2, #15728640	@ 0xf00000
 8000fee:	f8c3 2088 	str.w	r2, [r3, #136]	@ 0x88

  /* Configure the Vector Table location add offset address ------------------*/
#ifdef VECT_TAB_SRAM
  SCB->VTOR = SRAM_BASE | VECT_TAB_OFFSET; /* Vector Table Relocation in Internal SRAM */
#else
  SCB->VTOR = FLASH_BASE | VECT_TAB_OFFSET; /* Vector Table Relocation in Internal FLASH */
 8000ff2:	f04f 6200 	mov.w	r2, #134217728	@ 0x8000000
 8000ff6:	609a      	str	r2, [r3, #8]
#endif
}
 8000ff8:	4770      	bx	lr
 8000ffa:	bf00      	nop
 8000ffc:	e000ed00 	.word	0xe000ed00

08001000 <MX_TIM2_Init>:
TIM_HandleTypeDef htim2;
TIM_HandleTypeDef htim14;

/* TIM2 init function */
void MX_TIM2_Init(void)
{
 8001000:	b500      	push	{lr}
 8001002:	b087      	sub	sp, #28

  /* USER CODE BEGIN TIM2_Init 0 */

  /* USER CODE END TIM2_Init 0 */

  TIM_ClockConfigTypeDef sClockSourceConfig = {0};
 8001004:	2300      	movs	r3, #0
 8001006:	9302      	str	r3, [sp, #8]
 8001008:	9303      	str	r3, [sp, #12]
 800100a:	9304      	str	r3, [sp, #16]
 800100c:	9305      	str	r3, [sp, #20]
  TIM_MasterConfigTypeDef sMasterConfig = {0};
 800100e:	9300      	str	r3, [sp, #0]
 8001010:	9301      	str	r3, [sp, #4]

  /* USER CODE BEGIN TIM2_Init 1 */

  /* USER CODE END TIM2_Init 1 */
  htim2.Instance = TIM2;
 8001012:	4815      	ldr	r0, [pc, #84]	@ (8001068 <MX_TIM2_Init+0x68>)
 8001014:	f04f 4280 	mov.w	r2, #1073741824	@ 0x40000000
 8001018:	6002      	str	r2, [r0, #0]
  htim2.Init.Prescaler = 45;
 800101a:	222d      	movs	r2, #45	@ 0x2d
 800101c:	6042      	str	r2, [r0, #4]
  htim2.Init.CounterMode = TIM_COUNTERMODE_UP;
 800101e:	6083      	str	r3, [r0, #8]
  htim2.Init.Period = 55-1;
 8001020:	2236      	movs	r2, #54	@ 0x36
 8001022:	60c2      	str	r2, [r0, #12]
  htim2.Init.ClockDivision = TIM_CLOCKDIVISION_DIV1;
 8001024:	6103      	str	r3, [r0, #16]
  htim2.Init.AutoReloadPreload = TIM_AUTORELOAD_PRELOAD_DISABLE;
 8001026:	6183      	str	r3, [r0, #24]
  if (HAL_TIM_Base_Init(&htim2) != HAL_OK)
 8001028:	f001 ffd4 	bl	8002fd4 <HAL_TIM_Base_Init>
 800102c:	b990      	cbnz	r0, 8001054 <MX_TIM2_Init+0x54>
  {
    Error_Handler();
  }
  sClockSourceConfig.ClockSource = TIM_CLOCKSOURCE_INTERNAL;
 800102e:	f44f 5380 	mov.w	r3, #4096	@ 0x1000
 8001032:	9302      	str	r3, [sp, #8]
  if (HAL_TIM_ConfigClockSource(&htim2, &sClockSourceConfig) != HAL_OK)
 8001034:	a902      	add	r1, sp, #8
 8001036:	480c      	ldr	r0, [pc, #48]	@ (8001068 <MX_TIM2_Init+0x68>)
 8001038:	f002 f805 	bl	8003046 <HAL_TIM_ConfigClockSource>
 800103c:	b968      	cbnz	r0, 800105a <MX_TIM2_Init+0x5a>
  {
    Error_Handler();
  }
  sMasterConfig.MasterOutputTrigger = TIM_TRGO_RESET;
 800103e:	2300      	movs	r3, #0
 8001040:	9300      	str	r3, [sp, #0]
  sMasterConfig.MasterSlaveMode = TIM_MASTERSLAVEMODE_DISABLE;
 8001042:	9301      	str	r3, [sp, #4]
  if (HAL_TIMEx_MasterConfigSynchronization(&htim2, &sMasterConfig) != HAL_OK)
 8001044:	4669      	mov	r1, sp
 8001046:	4808      	ldr	r0, [pc, #32]	@ (8001068 <MX_TIM2_Init+0x68>)
 8001048:	f002 f87c 	bl	8003144 <HAL_TIMEx_MasterConfigSynchronization>
 800104c:	b940      	cbnz	r0, 8001060 <MX_TIM2_Init+0x60>
  }
  /* USER CODE BEGIN TIM2_Init 2 */

  /* USER CODE END TIM2_Init 2 */

}
 800104e:	b007      	add	sp, #28
 8001050:	f85d fb04 	ldr.w	pc, [sp], #4
    Error_Handler();
 8001054:	f7ff fe77 	bl	8000d46 <Error_Handler>
 8001058:	e7e9      	b.n	800102e <MX_TIM2_Init+0x2e>
    Error_Handler();
 800105a:	f7ff fe74 	bl	8000d46 <Error_Handler>
 800105e:	e7ee      	b.n	800103e <MX_TIM2_Init+0x3e>
    Error_Handler();
 8001060:	f7ff fe71 	bl	8000d46 <Error_Handler>
}
 8001064:	e7f3      	b.n	800104e <MX_TIM2_Init+0x4e>
 8001066:	bf00      	nop
 8001068:	200002dc 	.word	0x200002dc

0800106c <MX_TIM14_Init>:
/* TIM14 init function */
void MX_TIM14_Init(void)
{
 800106c:	b508      	push	{r3, lr}
  /* USER CODE END TIM14_Init 0 */

  /* USER CODE BEGIN TIM14_Init 1 */

  /* USER CODE END TIM14_Init 1 */
  htim14.Instance = TIM14;
 800106e:	480a      	ldr	r0, [pc, #40]	@ (8001098 <MX_TIM14_Init+0x2c>)
 8001070:	4b0a      	ldr	r3, [pc, #40]	@ (800109c <MX_TIM14_Init+0x30>)
 8001072:	6003      	str	r3, [r0, #0]
  htim14.Init.Prescaler = 8399;
 8001074:	f242 03cf 	movw	r3, #8399	@ 0x20cf
 8001078:	6043      	str	r3, [r0, #4]
  htim14.Init.CounterMode = TIM_COUNTERMODE_UP;
 800107a:	2300      	movs	r3, #0
 800107c:	6083      	str	r3, [r0, #8]
  htim14.Init.Period = 1000;
 800107e:	f44f 727a 	mov.w	r2, #1000	@ 0x3e8
 8001082:	60c2      	str	r2, [r0, #12]
  htim14.Init.ClockDivision = TIM_CLOCKDIVISION_DIV1;
 8001084:	6103      	str	r3, [r0, #16]
  htim14.Init.AutoReloadPreload = TIM_AUTORELOAD_PRELOAD_DISABLE;
 8001086:	6183      	str	r3, [r0, #24]
  if (HAL_TIM_Base_Init(&htim14) != HAL_OK)
 8001088:	f001 ffa4 	bl	8002fd4 <HAL_TIM_Base_Init>
 800108c:	b900      	cbnz	r0, 8001090 <MX_TIM14_Init+0x24>
  }
  /* USER CODE BEGIN TIM14_Init 2 */

  /* USER CODE END TIM14_Init 2 */

}
 800108e:	bd08      	pop	{r3, pc}
    Error_Handler();
 8001090:	f7ff fe59 	bl	8000d46 <Error_Handler>
}
 8001094:	e7fb      	b.n	800108e <MX_TIM14_Init+0x22>
 8001096:	bf00      	nop
 8001098:	20000294 	.word	0x20000294
 800109c:	40002000 	.word	0x40002000

080010a0 <HAL_TIM_Base_MspInit>:

void HAL_TIM_Base_MspInit(TIM_HandleTypeDef* tim_baseHandle)
{
 80010a0:	b500      	push	{lr}
 80010a2:	b083      	sub	sp, #12

  if(tim_baseHandle->Instance==TIM2)
 80010a4:	6803      	ldr	r3, [r0, #0]
 80010a6:	f1b3 4f80 	cmp.w	r3, #1073741824	@ 0x40000000
 80010aa:	d005      	beq.n	80010b8 <HAL_TIM_Base_MspInit+0x18>
    HAL_NVIC_EnableIRQ(TIM2_IRQn);
  /* USER CODE BEGIN TIM2_MspInit 1 */

  /* USER CODE END TIM2_MspInit 1 */
  }
  else if(tim_baseHandle->Instance==TIM14)
 80010ac:	4a17      	ldr	r2, [pc, #92]	@ (800110c <HAL_TIM_Base_MspInit+0x6c>)
 80010ae:	4293      	cmp	r3, r2
 80010b0:	d017      	beq.n	80010e2 <HAL_TIM_Base_MspInit+0x42>
    HAL_NVIC_EnableIRQ(TIM8_TRG_COM_TIM14_IRQn);
  /* USER CODE BEGIN TIM14_MspInit 1 */

  /* USER CODE END TIM14_MspInit 1 */
  }
}
 80010b2:	b003      	add	sp, #12
 80010b4:	f85d fb04 	ldr.w	pc, [sp], #4
    __HAL_RCC_TIM2_CLK_ENABLE();
 80010b8:	2100      	movs	r1, #0
 80010ba:	9100      	str	r1, [sp, #0]
 80010bc:	f503 330e 	add.w	r3, r3, #145408	@ 0x23800
 80010c0:	6c1a      	ldr	r2, [r3, #64]	@ 0x40
 80010c2:	f042 0201 	orr.w	r2, r2, #1
 80010c6:	641a      	str	r2, [r3, #64]	@ 0x40
 80010c8:	6c1b      	ldr	r3, [r3, #64]	@ 0x40
 80010ca:	f003 0301 	and.w	r3, r3, #1
 80010ce:	9300      	str	r3, [sp, #0]
 80010d0:	9b00      	ldr	r3, [sp, #0]
    HAL_NVIC_SetPriority(TIM2_IRQn, 0, 0);
 80010d2:	460a      	mov	r2, r1
 80010d4:	201c      	movs	r0, #28
 80010d6:	f000 fb2f 	bl	8001738 <HAL_NVIC_SetPriority>
    HAL_NVIC_EnableIRQ(TIM2_IRQn);
 80010da:	201c      	movs	r0, #28
 80010dc:	f000 fb3c 	bl	8001758 <HAL_NVIC_EnableIRQ>
 80010e0:	e7e7      	b.n	80010b2 <HAL_TIM_Base_MspInit+0x12>
    __HAL_RCC_TIM14_CLK_ENABLE();
 80010e2:	2100      	movs	r1, #0
 80010e4:	9101      	str	r1, [sp, #4]
 80010e6:	4b0a      	ldr	r3, [pc, #40]	@ (8001110 <HAL_TIM_Base_MspInit+0x70>)
 80010e8:	6c1a      	ldr	r2, [r3, #64]	@ 0x40
 80010ea:	f442 7280 	orr.w	r2, r2, #256	@ 0x100
 80010ee:	641a      	str	r2, [r3, #64]	@ 0x40
 80010f0:	6c1b      	ldr	r3, [r3, #64]	@ 0x40
 80010f2:	f403 7380 	and.w	r3, r3, #256	@ 0x100
 80010f6:	9301      	str	r3, [sp, #4]
 80010f8:	9b01      	ldr	r3, [sp, #4]
    HAL_NVIC_SetPriority(TIM8_TRG_COM_TIM14_IRQn, 0, 0);
 80010fa:	460a      	mov	r2, r1
 80010fc:	202d      	movs	r0, #45	@ 0x2d
 80010fe:	f000 fb1b 	bl	8001738 <HAL_NVIC_SetPriority>
    HAL_NVIC_EnableIRQ(TIM8_TRG_COM_TIM14_IRQn);
 8001102:	202d      	movs	r0, #45	@ 0x2d
 8001104:	f000 fb28 	bl	8001758 <HAL_NVIC_EnableIRQ>
}
 8001108:	e7d3      	b.n	80010b2 <HAL_TIM_Base_MspInit+0x12>
 800110a:	bf00      	nop
 800110c:	40002000 	.word	0x40002000
 8001110:	40023800 	.word	0x40023800

08001114 <MX_TIM14_Start>:
  }
}

/* USER CODE BEGIN 1 */
Status_t MX_TIM14_Start(void)
{
 8001114:	b508      	push	{r3, lr}
  Status_t ret = STATUS_OK;

  if (HAL_TIM_Base_Start_IT(&htim14) != HAL_OK)
 8001116:	4804      	ldr	r0, [pc, #16]	@ (8001128 <MX_TIM14_Start+0x14>)
 8001118:	f001 fdfc 	bl	8002d14 <HAL_TIM_Base_Start_IT>
 800111c:	b908      	cbnz	r0, 8001122 <MX_TIM14_Start+0xe>
  {
    Error_Handler();
  }

  return ret;
}
 800111e:	2000      	movs	r0, #0
 8001120:	bd08      	pop	{r3, pc}
    Error_Handler();
 8001122:	f7ff fe10 	bl	8000d46 <Error_Handler>
 8001126:	e7fa      	b.n	800111e <MX_TIM14_Start+0xa>
 8001128:	20000294 	.word	0x20000294

0800112c <MX_UART5_Init>:

UART_HandleTypeDef huart5;

/* UART5 init function */
void MX_UART5_Init(void)
{
 800112c:	b508      	push	{r3, lr}
  /* USER CODE END UART5_Init 0 */

  /* USER CODE BEGIN UART5_Init 1 */

  /* USER CODE END UART5_Init 1 */
  huart5.Instance = UART5;
 800112e:	480a      	ldr	r0, [pc, #40]	@ (8001158 <MX_UART5_Init+0x2c>)
 8001130:	4b0a      	ldr	r3, [pc, #40]	@ (800115c <MX_UART5_Init+0x30>)
 8001132:	6003      	str	r3, [r0, #0]
  huart5.Init.BaudRate = 115200;
 8001134:	f44f 33e1 	mov.w	r3, #115200	@ 0x1c200
 8001138:	6043      	str	r3, [r0, #4]
  huart5.Init.WordLength = UART_WORDLENGTH_8B;
 800113a:	2300      	movs	r3, #0
 800113c:	6083      	str	r3, [r0, #8]
  huart5.Init.StopBits = UART_STOPBITS_1;
 800113e:	60c3      	str	r3, [r0, #12]
  huart5.Init.Parity = UART_PARITY_NONE;
 8001140:	6103      	str	r3, [r0, #16]
  huart5.Init.Mode = UART_MODE_TX_RX;
 8001142:	220c      	movs	r2, #12
 8001144:	6142      	str	r2, [r0, #20]
  huart5.Init.HwFlowCtl = UART_HWCONTROL_NONE;
 8001146:	6183      	str	r3, [r0, #24]
  huart5.Init.OverSampling = UART_OVERSAMPLING_16;
 8001148:	61c3      	str	r3, [r0, #28]
  if (HAL_UART_Init(&huart5) != HAL_OK)
 800114a:	f002 f8cb 	bl	80032e4 <HAL_UART_Init>
 800114e:	b900      	cbnz	r0, 8001152 <MX_UART5_Init+0x26>
  }
  /* USER CODE BEGIN UART5_Init 2 */

  /* USER CODE END UART5_Init 2 */

}
 8001150:	bd08      	pop	{r3, pc}
    Error_Handler();
 8001152:	f7ff fdf8 	bl	8000d46 <Error_Handler>
}
 8001156:	e7fb      	b.n	8001150 <MX_UART5_Init+0x24>
 8001158:	20000324 	.word	0x20000324
 800115c:	40005000 	.word	0x40005000

08001160 <HAL_UART_MspInit>:

void HAL_UART_MspInit(UART_HandleTypeDef* uartHandle)
{
 8001160:	b5f0      	push	{r4, r5, r6, r7, lr}
 8001162:	b089      	sub	sp, #36	@ 0x24

  GPIO_InitTypeDef GPIO_InitStruct = {0};
 8001164:	2300      	movs	r3, #0
 8001166:	9303      	str	r3, [sp, #12]
 8001168:	9304      	str	r3, [sp, #16]
 800116a:	9305      	str	r3, [sp, #20]
 800116c:	9306      	str	r3, [sp, #24]
 800116e:	9307      	str	r3, [sp, #28]
  if(uartHandle->Instance==UART5)
 8001170:	6802      	ldr	r2, [r0, #0]
 8001172:	4b1f      	ldr	r3, [pc, #124]	@ (80011f0 <HAL_UART_MspInit+0x90>)
 8001174:	429a      	cmp	r2, r3
 8001176:	d001      	beq.n	800117c <HAL_UART_MspInit+0x1c>

  /* USER CODE BEGIN UART5_MspInit 1 */

  /* USER CODE END UART5_MspInit 1 */
  }
}
 8001178:	b009      	add	sp, #36	@ 0x24
 800117a:	bdf0      	pop	{r4, r5, r6, r7, pc}
    __HAL_RCC_UART5_CLK_ENABLE();
 800117c:	2400      	movs	r4, #0
 800117e:	9400      	str	r4, [sp, #0]
 8001180:	f503 33f4 	add.w	r3, r3, #124928	@ 0x1e800
 8001184:	6c1a      	ldr	r2, [r3, #64]	@ 0x40
 8001186:	f442 1280 	orr.w	r2, r2, #1048576	@ 0x100000
 800118a:	641a      	str	r2, [r3, #64]	@ 0x40
 800118c:	6c1a      	ldr	r2, [r3, #64]	@ 0x40
 800118e:	f402 1280 	and.w	r2, r2, #1048576	@ 0x100000
 8001192:	9200      	str	r2, [sp, #0]
 8001194:	9a00      	ldr	r2, [sp, #0]
    __HAL_RCC_GPIOC_CLK_ENABLE();
 8001196:	9401      	str	r4, [sp, #4]
 8001198:	6b1a      	ldr	r2, [r3, #48]	@ 0x30
 800119a:	f042 0204 	orr.w	r2, r2, #4
 800119e:	631a      	str	r2, [r3, #48]	@ 0x30
 80011a0:	6b1a      	ldr	r2, [r3, #48]	@ 0x30
 80011a2:	f002 0204 	and.w	r2, r2, #4
 80011a6:	9201      	str	r2, [sp, #4]
 80011a8:	9a01      	ldr	r2, [sp, #4]
    __HAL_RCC_GPIOD_CLK_ENABLE();
 80011aa:	9402      	str	r4, [sp, #8]
 80011ac:	6b1a      	ldr	r2, [r3, #48]	@ 0x30
 80011ae:	f042 0208 	orr.w	r2, r2, #8
 80011b2:	631a      	str	r2, [r3, #48]	@ 0x30
 80011b4:	6b1b      	ldr	r3, [r3, #48]	@ 0x30
 80011b6:	f003 0308 	and.w	r3, r3, #8
 80011ba:	9302      	str	r3, [sp, #8]
 80011bc:	9b02      	ldr	r3, [sp, #8]
    GPIO_InitStruct.Pin = GPIO_PIN_12;
 80011be:	f44f 5380 	mov.w	r3, #4096	@ 0x1000
 80011c2:	9303      	str	r3, [sp, #12]
    GPIO_InitStruct.Mode = GPIO_MODE_AF_PP;
 80011c4:	2702      	movs	r7, #2
 80011c6:	9704      	str	r7, [sp, #16]
    GPIO_InitStruct.Speed = GPIO_SPEED_FREQ_VERY_HIGH;
 80011c8:	2603      	movs	r6, #3
 80011ca:	9606      	str	r6, [sp, #24]
    GPIO_InitStruct.Alternate = GPIO_AF8_UART5;
 80011cc:	2508      	movs	r5, #8
 80011ce:	9507      	str	r5, [sp, #28]
    HAL_GPIO_Init(GPIOC, &GPIO_InitStruct);
 80011d0:	a903      	add	r1, sp, #12
 80011d2:	4808      	ldr	r0, [pc, #32]	@ (80011f4 <HAL_UART_MspInit+0x94>)
 80011d4:	f000 fea6 	bl	8001f24 <HAL_GPIO_Init>
    GPIO_InitStruct.Pin = GPIO_PIN_2;
 80011d8:	2304      	movs	r3, #4
 80011da:	9303      	str	r3, [sp, #12]
    GPIO_InitStruct.Mode = GPIO_MODE_AF_PP;
 80011dc:	9704      	str	r7, [sp, #16]
    GPIO_InitStruct.Pull = GPIO_NOPULL;
 80011de:	9405      	str	r4, [sp, #20]
    GPIO_InitStruct.Speed = GPIO_SPEED_FREQ_VERY_HIGH;
 80011e0:	9606      	str	r6, [sp, #24]
    GPIO_InitStruct.Alternate = GPIO_AF8_UART5;
 80011e2:	9507      	str	r5, [sp, #28]
    HAL_GPIO_Init(GPIOD, &GPIO_InitStruct);
 80011e4:	a903      	add	r1, sp, #12
 80011e6:	4804      	ldr	r0, [pc, #16]	@ (80011f8 <HAL_UART_MspInit+0x98>)
 80011e8:	f000 fe9c 	bl	8001f24 <HAL_GPIO_Init>
}
 80011ec:	e7c4      	b.n	8001178 <HAL_UART_MspInit+0x18>
 80011ee:	bf00      	nop
 80011f0:	40005000 	.word	0x40005000
 80011f4:	40020800 	.word	0x40020800
 80011f8:	40020c00 	.word	0x40020c00

080011fc <Reset_Handler>:

    .section  .text.Reset_Handler
  .weak  Reset_Handler
  .type  Reset_Handler, %function
Reset_Handler:  
  ldr   sp, =_estack     /* set stack pointer */
 80011fc:	f8df d034 	ldr.w	sp, [pc, #52]	@ 8001234 <LoopFillZerobss+0x14>

/* Copy the data segment initializers from flash to SRAM */  
  movs  r1, #0
 8001200:	2100      	movs	r1, #0
  b  LoopCopyDataInit
 8001202:	e003      	b.n	800120c <LoopCopyDataInit>

08001204 <CopyDataInit>:

CopyDataInit:
  ldr  r3, =_sidata
 8001204:	4b0c      	ldr	r3, [pc, #48]	@ (8001238 <LoopFillZerobss+0x18>)
  ldr  r3, [r3, r1]
 8001206:	585b      	ldr	r3, [r3, r1]
  str  r3, [r0, r1]
 8001208:	5043      	str	r3, [r0, r1]
  adds  r1, r1, #4
 800120a:	3104      	adds	r1, #4

0800120c <LoopCopyDataInit>:
    
LoopCopyDataInit:
  ldr  r0, =_sdata
 800120c:	480b      	ldr	r0, [pc, #44]	@ (800123c <LoopFillZerobss+0x1c>)
  ldr  r3, =_edata
 800120e:	4b0c      	ldr	r3, [pc, #48]	@ (8001240 <LoopFillZerobss+0x20>)
  adds  r2, r0, r1
 8001210:	1842      	adds	r2, r0, r1
  cmp  r2, r3
 8001212:	429a      	cmp	r2, r3
  bcc  CopyDataInit
 8001214:	d3f6      	bcc.n	8001204 <CopyDataInit>
  ldr  r2, =_sbss
 8001216:	4a0b      	ldr	r2, [pc, #44]	@ (8001244 <LoopFillZerobss+0x24>)
  b  LoopFillZerobss
 8001218:	e002      	b.n	8001220 <LoopFillZerobss>

0800121a <FillZerobss>:
/* Zero fill the bss segment. */  
FillZerobss:
  movs  r3, #0
 800121a:	2300      	movs	r3, #0
  str  r3, [r2], #4
 800121c:	f842 3b04 	str.w	r3, [r2], #4

08001220 <LoopFillZerobss>:
    
LoopFillZerobss:
  ldr  r3, = _ebss
 8001220:	4b09      	ldr	r3, [pc, #36]	@ (8001248 <LoopFillZerobss+0x28>)
  cmp  r2, r3
 8001222:	429a      	cmp	r2, r3
  bcc  FillZerobss
 8001224:	d3f9      	bcc.n	800121a <FillZerobss>

/* Call the clock system intitialization function.*/
  bl  SystemInit   
 8001226:	f7ff fedd 	bl	8000fe4 <SystemInit>
/* Call static constructors */
    bl __libc_init_array
 800122a:	f002 f893 	bl	8003354 <__libc_init_array>
/* Call the application's entry point.*/
  bl  main
 800122e:	f7ff fde7 	bl	8000e00 <main>
  bx  lr    
 8001232:	4770      	bx	lr
  ldr   sp, =_estack     /* set stack pointer */
 8001234:	20020000 	.word	0x20020000
  ldr  r3, =_sidata
 8001238:	08003404 	.word	0x08003404
  ldr  r0, =_sdata
 800123c:	200000c0 	.word	0x200000c0
  ldr  r3, =_edata
 8001240:	200000cc 	.word	0x200000cc
  ldr  r2, =_sbss
 8001244:	200000cc 	.word	0x200000cc
  ldr  r3, = _ebss
 8001248:	20000390 	.word	0x20000390

0800124c <ADC_IRQHandler>:
 * @retval None       
*/
    .section  .text.Default_Handler,"ax",%progbits
Default_Handler:
Infinite_Loop:
  b  Infinite_Loop
 800124c:	e7fe      	b.n	800124c <ADC_IRQHandler>

0800124e <HAL_MspDeInit>:
__weak void HAL_MspDeInit(void)
{
  /* NOTE : This function should not be modified, when the callback is needed,
            the HAL_MspDeInit could be implemented in the user file
   */ 
}
 800124e:	4770      	bx	lr

08001250 <HAL_DeInit>:
{
 8001250:	b510      	push	{r4, lr}
  __HAL_RCC_APB1_FORCE_RESET();
 8001252:	4b0a      	ldr	r3, [pc, #40]	@ (800127c <HAL_DeInit+0x2c>)
 8001254:	4a0a      	ldr	r2, [pc, #40]	@ (8001280 <HAL_DeInit+0x30>)
 8001256:	621a      	str	r2, [r3, #32]
  __HAL_RCC_APB1_RELEASE_RESET();
 8001258:	2400      	movs	r4, #0
 800125a:	621c      	str	r4, [r3, #32]
  __HAL_RCC_APB2_FORCE_RESET();
 800125c:	4a09      	ldr	r2, [pc, #36]	@ (8001284 <HAL_DeInit+0x34>)
 800125e:	625a      	str	r2, [r3, #36]	@ 0x24
  __HAL_RCC_APB2_RELEASE_RESET();
 8001260:	625c      	str	r4, [r3, #36]	@ 0x24
  __HAL_RCC_AHB1_FORCE_RESET();
 8001262:	4a09      	ldr	r2, [pc, #36]	@ (8001288 <HAL_DeInit+0x38>)
 8001264:	611a      	str	r2, [r3, #16]
  __HAL_RCC_AHB1_RELEASE_RESET();
 8001266:	611c      	str	r4, [r3, #16]
  __HAL_RCC_AHB2_FORCE_RESET();
 8001268:	2281      	movs	r2, #129	@ 0x81
 800126a:	615a      	str	r2, [r3, #20]
  __HAL_RCC_AHB2_RELEASE_RESET();
 800126c:	615c      	str	r4, [r3, #20]
  __HAL_RCC_AHB3_FORCE_RESET();
 800126e:	2203      	movs	r2, #3
 8001270:	619a      	str	r2, [r3, #24]
  __HAL_RCC_AHB3_RELEASE_RESET();
 8001272:	619c      	str	r4, [r3, #24]
  HAL_MspDeInit();
 8001274:	f7ff ffeb 	bl	800124e <HAL_MspDeInit>
}
 8001278:	4620      	mov	r0, r4
 800127a:	bd10      	pop	{r4, pc}
 800127c:	40023800 	.word	0x40023800
 8001280:	3fffc9ff 	.word	0x3fffc9ff
 8001284:	00c77933 	.word	0x00c77933
 8001288:	206010ff 	.word	0x206010ff

0800128c <HAL_InitTick>:
  *       implementation  in user file.
  * @param TickPriority Tick interrupt priority.
  * @retval HAL status
  */
__weak HAL_StatusTypeDef HAL_InitTick(uint32_t TickPriority)
{
 800128c:	b510      	push	{r4, lr}
 800128e:	4604      	mov	r4, r0
  /* Configure the SysTick to have interrupt in 1ms time basis*/
  if (HAL_SYSTICK_Config(SystemCoreClock / (1000U / uwTickFreq)) > 0U)
 8001290:	4b0e      	ldr	r3, [pc, #56]	@ (80012cc <HAL_InitTick+0x40>)
 8001292:	781a      	ldrb	r2, [r3, #0]
 8001294:	f44f 737a 	mov.w	r3, #1000	@ 0x3e8
 8001298:	fbb3 f3f2 	udiv	r3, r3, r2
 800129c:	4a0c      	ldr	r2, [pc, #48]	@ (80012d0 <HAL_InitTick+0x44>)
 800129e:	6810      	ldr	r0, [r2, #0]
 80012a0:	fbb0 f0f3 	udiv	r0, r0, r3
 80012a4:	f000 fa5c 	bl	8001760 <HAL_SYSTICK_Config>
 80012a8:	b968      	cbnz	r0, 80012c6 <HAL_InitTick+0x3a>
  {
    return HAL_ERROR;
  }

  /* Configure the SysTick IRQ priority */
  if (TickPriority < (1UL << __NVIC_PRIO_BITS))
 80012aa:	2c0f      	cmp	r4, #15
 80012ac:	d901      	bls.n	80012b2 <HAL_InitTick+0x26>
    HAL_NVIC_SetPriority(SysTick_IRQn, TickPriority, 0U);
    uwTickPrio = TickPriority;
  }
  else
  {
    return HAL_ERROR;
 80012ae:	2001      	movs	r0, #1
 80012b0:	e00a      	b.n	80012c8 <HAL_InitTick+0x3c>
    HAL_NVIC_SetPriority(SysTick_IRQn, TickPriority, 0U);
 80012b2:	2200      	movs	r2, #0
 80012b4:	4621      	mov	r1, r4
 80012b6:	f04f 30ff 	mov.w	r0, #4294967295
 80012ba:	f000 fa3d 	bl	8001738 <HAL_NVIC_SetPriority>
    uwTickPrio = TickPriority;
 80012be:	4b05      	ldr	r3, [pc, #20]	@ (80012d4 <HAL_InitTick+0x48>)
 80012c0:	601c      	str	r4, [r3, #0]
  }

  /* Return function status */
  return HAL_OK;
 80012c2:	2000      	movs	r0, #0
 80012c4:	e000      	b.n	80012c8 <HAL_InitTick+0x3c>
    return HAL_ERROR;
 80012c6:	2001      	movs	r0, #1
}
 80012c8:	bd10      	pop	{r4, pc}
 80012ca:	bf00      	nop
 80012cc:	200000c4 	.word	0x200000c4
 80012d0:	200000c0 	.word	0x200000c0
 80012d4:	200000c8 	.word	0x200000c8

080012d8 <HAL_Init>:
{
 80012d8:	b508      	push	{r3, lr}
  __HAL_FLASH_INSTRUCTION_CACHE_ENABLE();
 80012da:	4b0b      	ldr	r3, [pc, #44]	@ (8001308 <HAL_Init+0x30>)
 80012dc:	681a      	ldr	r2, [r3, #0]
 80012de:	f442 7200 	orr.w	r2, r2, #512	@ 0x200
 80012e2:	601a      	str	r2, [r3, #0]
  __HAL_FLASH_DATA_CACHE_ENABLE();
 80012e4:	681a      	ldr	r2, [r3, #0]
 80012e6:	f442 6280 	orr.w	r2, r2, #1024	@ 0x400
 80012ea:	601a      	str	r2, [r3, #0]
  __HAL_FLASH_PREFETCH_BUFFER_ENABLE();
 80012ec:	681a      	ldr	r2, [r3, #0]
 80012ee:	f442 7280 	orr.w	r2, r2, #256	@ 0x100
 80012f2:	601a      	str	r2, [r3, #0]
  HAL_NVIC_SetPriorityGrouping(NVIC_PRIORITYGROUP_4);
 80012f4:	2003      	movs	r0, #3
 80012f6:	f000 fa0d 	bl	8001714 <HAL_NVIC_SetPriorityGrouping>
  HAL_InitTick(TICK_INT_PRIORITY);
 80012fa:	2000      	movs	r0, #0
 80012fc:	f7ff ffc6 	bl	800128c <HAL_InitTick>
  HAL_MspInit();
 8001300:	f7ff fe2a 	bl	8000f58 <HAL_MspInit>
}
 8001304:	2000      	movs	r0, #0
 8001306:	bd08      	pop	{r3, pc}
 8001308:	40023c00 	.word	0x40023c00

0800130c <HAL_IncTick>:
  *      implementations in user file.
  * @retval None
  */
__weak void HAL_IncTick(void)
{
  uwTick += uwTickFreq;
 800130c:	4a03      	ldr	r2, [pc, #12]	@ (800131c <HAL_IncTick+0x10>)
 800130e:	6811      	ldr	r1, [r2, #0]
 8001310:	4b03      	ldr	r3, [pc, #12]	@ (8001320 <HAL_IncTick+0x14>)
 8001312:	781b      	ldrb	r3, [r3, #0]
 8001314:	440b      	add	r3, r1
 8001316:	6013      	str	r3, [r2, #0]
}
 8001318:	4770      	bx	lr
 800131a:	bf00      	nop
 800131c:	2000036c 	.word	0x2000036c
 8001320:	200000c4 	.word	0x200000c4

08001324 <HAL_GetTick>:
  *       implementations in user file.
  * @retval tick value
  */
__weak uint32_t HAL_GetTick(void)
{
  return uwTick;
 8001324:	4b01      	ldr	r3, [pc, #4]	@ (800132c <HAL_GetTick+0x8>)
 8001326:	6818      	ldr	r0, [r3, #0]
}
 8001328:	4770      	bx	lr
 800132a:	bf00      	nop
 800132c:	2000036c 	.word	0x2000036c

08001330 <HAL_Delay>:
  *       implementations in user file.
  * @param Delay specifies the delay time length, in milliseconds.
  * @retval None
  */
__weak void HAL_Delay(uint32_t Delay)
{
 8001330:	b538      	push	{r3, r4, r5, lr}
 8001332:	4604      	mov	r4, r0
  uint32_t tickstart = HAL_GetTick();
 8001334:	f7ff fff6 	bl	8001324 <HAL_GetTick>
 8001338:	4605      	mov	r5, r0
  uint32_t wait = Delay;

  /* Add a freq to guarantee minimum wait */
  if (wait < HAL_MAX_DELAY)
 800133a:	f1b4 3fff 	cmp.w	r4, #4294967295
 800133e:	d002      	beq.n	8001346 <HAL_Delay+0x16>
  {
    wait += (uint32_t)(uwTickFreq);
 8001340:	4b04      	ldr	r3, [pc, #16]	@ (8001354 <HAL_Delay+0x24>)
 8001342:	781b      	ldrb	r3, [r3, #0]
 8001344:	441c      	add	r4, r3
  }

  while((HAL_GetTick() - tickstart) < wait)
 8001346:	f7ff ffed 	bl	8001324 <HAL_GetTick>
 800134a:	1b40      	subs	r0, r0, r5
 800134c:	42a0      	cmp	r0, r4
 800134e:	d3fa      	bcc.n	8001346 <HAL_Delay+0x16>
  {
  }
}
 8001350:	bd38      	pop	{r3, r4, r5, pc}
 8001352:	bf00      	nop
 8001354:	200000c4 	.word	0x200000c4

08001358 <ADC_Init>:
  /* (Depending on STM32F4 product, there may be up to 3 ADCs and 1 common */
  /* control register)                                                    */
  tmpADC_Common = ADC_COMMON_REGISTER(hadc);

  /* Set the ADC clock prescaler */
  tmpADC_Common->CCR &= ~(ADC_CCR_ADCPRE);
 8001358:	4b4a      	ldr	r3, [pc, #296]	@ (8001484 <ADC_Init+0x12c>)
 800135a:	685a      	ldr	r2, [r3, #4]
 800135c:	f422 3240 	bic.w	r2, r2, #196608	@ 0x30000
 8001360:	605a      	str	r2, [r3, #4]
  tmpADC_Common->CCR |=  hadc->Init.ClockPrescaler;
 8001362:	685a      	ldr	r2, [r3, #4]
 8001364:	6841      	ldr	r1, [r0, #4]
 8001366:	430a      	orrs	r2, r1
 8001368:	605a      	str	r2, [r3, #4]

  /* Set ADC scan mode */
  hadc->Instance->CR1 &= ~(ADC_CR1_SCAN);
 800136a:	6802      	ldr	r2, [r0, #0]
 800136c:	6853      	ldr	r3, [r2, #4]
 800136e:	f423 7380 	bic.w	r3, r3, #256	@ 0x100
 8001372:	6053      	str	r3, [r2, #4]
  hadc->Instance->CR1 |=  ADC_CR1_SCANCONV(hadc->Init.ScanConvMode);
 8001374:	6802      	ldr	r2, [r0, #0]
 8001376:	6853      	ldr	r3, [r2, #4]
 8001378:	6901      	ldr	r1, [r0, #16]
 800137a:	ea43 2301 	orr.w	r3, r3, r1, lsl #8
 800137e:	6053      	str	r3, [r2, #4]

  /* Set ADC resolution */
  hadc->Instance->CR1 &= ~(ADC_CR1_RES);
 8001380:	6802      	ldr	r2, [r0, #0]
 8001382:	6853      	ldr	r3, [r2, #4]
 8001384:	f023 7340 	bic.w	r3, r3, #50331648	@ 0x3000000
 8001388:	6053      	str	r3, [r2, #4]
  hadc->Instance->CR1 |=  hadc->Init.Resolution;
 800138a:	6802      	ldr	r2, [r0, #0]
 800138c:	6853      	ldr	r3, [r2, #4]
 800138e:	6881      	ldr	r1, [r0, #8]
 8001390:	430b      	orrs	r3, r1
 8001392:	6053      	str	r3, [r2, #4]

  /* Set ADC data alignment */
  hadc->Instance->CR2 &= ~(ADC_CR2_ALIGN);
 8001394:	6802      	ldr	r2, [r0, #0]
 8001396:	6893      	ldr	r3, [r2, #8]
 8001398:	f423 6300 	bic.w	r3, r3, #2048	@ 0x800
 800139c:	6093      	str	r3, [r2, #8]
  hadc->Instance->CR2 |= hadc->Init.DataAlign;
 800139e:	6802      	ldr	r2, [r0, #0]
 80013a0:	6893      	ldr	r3, [r2, #8]
 80013a2:	68c1      	ldr	r1, [r0, #12]
 80013a4:	430b      	orrs	r3, r1
 80013a6:	6093      	str	r3, [r2, #8]
  /* Enable external trigger if trigger selection is different of software  */
  /* start.                                                                 */
  /* Note: This configuration keeps the hardware feature of parameter       */
  /*       ExternalTrigConvEdge "trigger edge none" equivalent to           */
  /*       software start.                                                  */
  if (hadc->Init.ExternalTrigConv != ADC_SOFTWARE_START)
 80013a8:	6a82      	ldr	r2, [r0, #40]	@ 0x28
 80013aa:	4b37      	ldr	r3, [pc, #220]	@ (8001488 <ADC_Init+0x130>)
 80013ac:	429a      	cmp	r2, r3
 80013ae:	d057      	beq.n	8001460 <ADC_Init+0x108>
  {
    /* Select external trigger to start conversion */
    hadc->Instance->CR2 &= ~(ADC_CR2_EXTSEL);
 80013b0:	6802      	ldr	r2, [r0, #0]
 80013b2:	6893      	ldr	r3, [r2, #8]
 80013b4:	f023 6370 	bic.w	r3, r3, #251658240	@ 0xf000000
 80013b8:	6093      	str	r3, [r2, #8]
    hadc->Instance->CR2 |= hadc->Init.ExternalTrigConv;
 80013ba:	6802      	ldr	r2, [r0, #0]
 80013bc:	6893      	ldr	r3, [r2, #8]
 80013be:	6a81      	ldr	r1, [r0, #40]	@ 0x28
 80013c0:	430b      	orrs	r3, r1
 80013c2:	6093      	str	r3, [r2, #8]

    /* Select external trigger polarity */
    hadc->Instance->CR2 &= ~(ADC_CR2_EXTEN);
 80013c4:	6802      	ldr	r2, [r0, #0]
 80013c6:	6893      	ldr	r3, [r2, #8]
 80013c8:	f023 5340 	bic.w	r3, r3, #805306368	@ 0x30000000
 80013cc:	6093      	str	r3, [r2, #8]
    hadc->Instance->CR2 |= hadc->Init.ExternalTrigConvEdge;
 80013ce:	6802      	ldr	r2, [r0, #0]
 80013d0:	6893      	ldr	r3, [r2, #8]
 80013d2:	6ac1      	ldr	r1, [r0, #44]	@ 0x2c
 80013d4:	430b      	orrs	r3, r1
 80013d6:	6093      	str	r3, [r2, #8]
    hadc->Instance->CR2 &= ~(ADC_CR2_EXTSEL);
    hadc->Instance->CR2 &= ~(ADC_CR2_EXTEN);
  }

  /* Enable or disable ADC continuous conversion mode */
  hadc->Instance->CR2 &= ~(ADC_CR2_CONT);
 80013d8:	6802      	ldr	r2, [r0, #0]
 80013da:	6893      	ldr	r3, [r2, #8]
 80013dc:	f023 0302 	bic.w	r3, r3, #2
 80013e0:	6093      	str	r3, [r2, #8]
  hadc->Instance->CR2 |= ADC_CR2_CONTINUOUS((uint32_t)hadc->Init.ContinuousConvMode);
 80013e2:	6802      	ldr	r2, [r0, #0]
 80013e4:	6893      	ldr	r3, [r2, #8]
 80013e6:	7e01      	ldrb	r1, [r0, #24]
 80013e8:	ea43 0341 	orr.w	r3, r3, r1, lsl #1
 80013ec:	6093      	str	r3, [r2, #8]

  if (hadc->Init.DiscontinuousConvMode != DISABLE)
 80013ee:	f890 3020 	ldrb.w	r3, [r0, #32]
 80013f2:	2b00      	cmp	r3, #0
 80013f4:	d03f      	beq.n	8001476 <ADC_Init+0x11e>
  {
    assert_param(IS_ADC_REGULAR_DISC_NUMBER(hadc->Init.NbrOfDiscConversion));

    /* Enable the selected ADC regular discontinuous mode */
    hadc->Instance->CR1 |= (uint32_t)ADC_CR1_DISCEN;
 80013f6:	6802      	ldr	r2, [r0, #0]
 80013f8:	6853      	ldr	r3, [r2, #4]
 80013fa:	f443 6300 	orr.w	r3, r3, #2048	@ 0x800
 80013fe:	6053      	str	r3, [r2, #4]

    /* Set the number of channels to be converted in discontinuous mode */
    hadc->Instance->CR1 &= ~(ADC_CR1_DISCNUM);
 8001400:	6802      	ldr	r2, [r0, #0]
 8001402:	6853      	ldr	r3, [r2, #4]
 8001404:	f423 4360 	bic.w	r3, r3, #57344	@ 0xe000
 8001408:	6053      	str	r3, [r2, #4]
    hadc->Instance->CR1 |=  ADC_CR1_DISCONTINUOUS(hadc->Init.NbrOfDiscConversion);
 800140a:	6801      	ldr	r1, [r0, #0]
 800140c:	684b      	ldr	r3, [r1, #4]
 800140e:	6a42      	ldr	r2, [r0, #36]	@ 0x24
 8001410:	3a01      	subs	r2, #1
 8001412:	ea43 3342 	orr.w	r3, r3, r2, lsl #13
 8001416:	604b      	str	r3, [r1, #4]
    /* Disable the selected ADC regular discontinuous mode */
    hadc->Instance->CR1 &= ~(ADC_CR1_DISCEN);
  }

  /* Set ADC number of conversion */
  hadc->Instance->SQR1 &= ~(ADC_SQR1_L);
 8001418:	6802      	ldr	r2, [r0, #0]
 800141a:	6ad3      	ldr	r3, [r2, #44]	@ 0x2c
 800141c:	f423 0370 	bic.w	r3, r3, #15728640	@ 0xf00000
 8001420:	62d3      	str	r3, [r2, #44]	@ 0x2c
  hadc->Instance->SQR1 |=  ADC_SQR1(hadc->Init.NbrOfConversion);
 8001422:	6801      	ldr	r1, [r0, #0]
 8001424:	6acb      	ldr	r3, [r1, #44]	@ 0x2c
 8001426:	69c2      	ldr	r2, [r0, #28]
 8001428:	3a01      	subs	r2, #1
 800142a:	ea43 5302 	orr.w	r3, r3, r2, lsl #20
 800142e:	62cb      	str	r3, [r1, #44]	@ 0x2c

  /* Enable or disable ADC DMA continuous request */
  hadc->Instance->CR2 &= ~(ADC_CR2_DDS);
 8001430:	6802      	ldr	r2, [r0, #0]
 8001432:	6893      	ldr	r3, [r2, #8]
 8001434:	f423 7300 	bic.w	r3, r3, #512	@ 0x200
 8001438:	6093      	str	r3, [r2, #8]
  hadc->Instance->CR2 |= ADC_CR2_DMAContReq((uint32_t)hadc->Init.DMAContinuousRequests);
 800143a:	6802      	ldr	r2, [r0, #0]
 800143c:	6893      	ldr	r3, [r2, #8]
 800143e:	f890 1030 	ldrb.w	r1, [r0, #48]	@ 0x30
 8001442:	ea43 2341 	orr.w	r3, r3, r1, lsl #9
 8001446:	6093      	str	r3, [r2, #8]

  /* Enable or disable ADC end of conversion selection */
  hadc->Instance->CR2 &= ~(ADC_CR2_EOCS);
 8001448:	6802      	ldr	r2, [r0, #0]
 800144a:	6893      	ldr	r3, [r2, #8]
 800144c:	f423 6380 	bic.w	r3, r3, #1024	@ 0x400
 8001450:	6093      	str	r3, [r2, #8]
  hadc->Instance->CR2 |= ADC_CR2_EOCSelection(hadc->Init.EOCSelection);
 8001452:	6802      	ldr	r2, [r0, #0]
 8001454:	6893      	ldr	r3, [r2, #8]
 8001456:	6941      	ldr	r1, [r0, #20]
 8001458:	ea43 2381 	orr.w	r3, r3, r1, lsl #10
 800145c:	6093      	str	r3, [r2, #8]
}
 800145e:	4770      	bx	lr
    hadc->Instance->CR2 &= ~(ADC_CR2_EXTSEL);
 8001460:	6802      	ldr	r2, [r0, #0]
 8001462:	6893      	ldr	r3, [r2, #8]
 8001464:	f023 6370 	bic.w	r3, r3, #251658240	@ 0xf000000
 8001468:	6093      	str	r3, [r2, #8]
    hadc->Instance->CR2 &= ~(ADC_CR2_EXTEN);
 800146a:	6802      	ldr	r2, [r0, #0]
 800146c:	6893      	ldr	r3, [r2, #8]
 800146e:	f023 5340 	bic.w	r3, r3, #805306368	@ 0x30000000
 8001472:	6093      	str	r3, [r2, #8]
 8001474:	e7b0      	b.n	80013d8 <ADC_Init+0x80>
    hadc->Instance->CR1 &= ~(ADC_CR1_DISCEN);
 8001476:	6802      	ldr	r2, [r0, #0]
 8001478:	6853      	ldr	r3, [r2, #4]
 800147a:	f423 6300 	bic.w	r3, r3, #2048	@ 0x800
 800147e:	6053      	str	r3, [r2, #4]
 8001480:	e7ca      	b.n	8001418 <ADC_Init+0xc0>
 8001482:	bf00      	nop
 8001484:	40012300 	.word	0x40012300
 8001488:	0f000001 	.word	0x0f000001

0800148c <HAL_ADC_Init>:
  if (hadc == NULL)
 800148c:	b338      	cbz	r0, 80014de <HAL_ADC_Init+0x52>
{
 800148e:	b510      	push	{r4, lr}
 8001490:	4604      	mov	r4, r0
  if (hadc->State == HAL_ADC_STATE_RESET)
 8001492:	6c03      	ldr	r3, [r0, #64]	@ 0x40
 8001494:	b143      	cbz	r3, 80014a8 <HAL_ADC_Init+0x1c>
  if (HAL_IS_BIT_CLR(hadc->State, HAL_ADC_STATE_ERROR_INTERNAL))
 8001496:	6c23      	ldr	r3, [r4, #64]	@ 0x40
 8001498:	f013 0f10 	tst.w	r3, #16
 800149c:	d00b      	beq.n	80014b6 <HAL_ADC_Init+0x2a>
    tmp_hal_status = HAL_ERROR;
 800149e:	2001      	movs	r0, #1
  __HAL_UNLOCK(hadc);
 80014a0:	2300      	movs	r3, #0
 80014a2:	f884 303c 	strb.w	r3, [r4, #60]	@ 0x3c
}
 80014a6:	bd10      	pop	{r4, pc}
    HAL_ADC_MspInit(hadc);
 80014a8:	f7ff fa98 	bl	80009dc <HAL_ADC_MspInit>
    ADC_CLEAR_ERRORCODE(hadc);
 80014ac:	2300      	movs	r3, #0
 80014ae:	6463      	str	r3, [r4, #68]	@ 0x44
    hadc->Lock = HAL_UNLOCKED;
 80014b0:	f884 303c 	strb.w	r3, [r4, #60]	@ 0x3c
 80014b4:	e7ef      	b.n	8001496 <HAL_ADC_Init+0xa>
    ADC_STATE_CLR_SET(hadc->State,
 80014b6:	6c23      	ldr	r3, [r4, #64]	@ 0x40
 80014b8:	f423 5388 	bic.w	r3, r3, #4352	@ 0x1100
 80014bc:	f023 0302 	bic.w	r3, r3, #2
 80014c0:	f043 0302 	orr.w	r3, r3, #2
 80014c4:	6423      	str	r3, [r4, #64]	@ 0x40
    ADC_Init(hadc);
 80014c6:	4620      	mov	r0, r4
 80014c8:	f7ff ff46 	bl	8001358 <ADC_Init>
    ADC_CLEAR_ERRORCODE(hadc);
 80014cc:	2000      	movs	r0, #0
 80014ce:	6460      	str	r0, [r4, #68]	@ 0x44
    ADC_STATE_CLR_SET(hadc->State,
 80014d0:	6c23      	ldr	r3, [r4, #64]	@ 0x40
 80014d2:	f023 0303 	bic.w	r3, r3, #3
 80014d6:	f043 0301 	orr.w	r3, r3, #1
 80014da:	6423      	str	r3, [r4, #64]	@ 0x40
 80014dc:	e7e0      	b.n	80014a0 <HAL_ADC_Init+0x14>
    return HAL_ERROR;
 80014de:	2001      	movs	r0, #1
}
 80014e0:	4770      	bx	lr
	...

080014e4 <HAL_ADC_ConfigChannel>:
{
 80014e4:	b430      	push	{r4, r5}
 80014e6:	b082      	sub	sp, #8
  __IO uint32_t counter = 0U;
 80014e8:	2200      	movs	r2, #0
 80014ea:	9201      	str	r2, [sp, #4]
  __HAL_LOCK(hadc);
 80014ec:	f890 203c 	ldrb.w	r2, [r0, #60]	@ 0x3c
 80014f0:	2a01      	cmp	r2, #1
 80014f2:	f000 80c0 	beq.w	8001676 <HAL_ADC_ConfigChannel+0x192>
 80014f6:	4603      	mov	r3, r0
 80014f8:	2201      	movs	r2, #1
 80014fa:	f880 203c 	strb.w	r2, [r0, #60]	@ 0x3c
  if (sConfig->Channel > ADC_CHANNEL_9)
 80014fe:	680a      	ldr	r2, [r1, #0]
 8001500:	2a09      	cmp	r2, #9
 8001502:	d940      	bls.n	8001586 <HAL_ADC_ConfigChannel+0xa2>
    hadc->Instance->SMPR1 &= ~ADC_SMPR1(ADC_SMPR1_SMP10, sConfig->Channel);
 8001504:	6804      	ldr	r4, [r0, #0]
 8001506:	68e0      	ldr	r0, [r4, #12]
 8001508:	b292      	uxth	r2, r2
 800150a:	eb02 0242 	add.w	r2, r2, r2, lsl #1
 800150e:	3a1e      	subs	r2, #30
 8001510:	f04f 0c07 	mov.w	ip, #7
 8001514:	fa0c f202 	lsl.w	r2, ip, r2
 8001518:	ea20 0202 	bic.w	r2, r0, r2
 800151c:	60e2      	str	r2, [r4, #12]
    hadc->Instance->SMPR1 |= ADC_SMPR1(sConfig->SamplingTime, sConfig->Channel);
 800151e:	681c      	ldr	r4, [r3, #0]
 8001520:	68e0      	ldr	r0, [r4, #12]
 8001522:	880a      	ldrh	r2, [r1, #0]
 8001524:	eb02 0242 	add.w	r2, r2, r2, lsl #1
 8001528:	3a1e      	subs	r2, #30
 800152a:	688d      	ldr	r5, [r1, #8]
 800152c:	fa05 f202 	lsl.w	r2, r5, r2
 8001530:	4302      	orrs	r2, r0
 8001532:	60e2      	str	r2, [r4, #12]
  if (sConfig->Rank < 7U)
 8001534:	684a      	ldr	r2, [r1, #4]
 8001536:	2a06      	cmp	r2, #6
 8001538:	d83c      	bhi.n	80015b4 <HAL_ADC_ConfigChannel+0xd0>
    hadc->Instance->SQR3 &= ~ADC_SQR3_RK(ADC_SQR3_SQ1, sConfig->Rank);
 800153a:	681c      	ldr	r4, [r3, #0]
 800153c:	6b60      	ldr	r0, [r4, #52]	@ 0x34
 800153e:	eb02 0282 	add.w	r2, r2, r2, lsl #2
 8001542:	3a05      	subs	r2, #5
 8001544:	f04f 0c1f 	mov.w	ip, #31
 8001548:	fa0c f202 	lsl.w	r2, ip, r2
 800154c:	ea20 0202 	bic.w	r2, r0, r2
 8001550:	6362      	str	r2, [r4, #52]	@ 0x34
    hadc->Instance->SQR3 |= ADC_SQR3_RK(sConfig->Channel, sConfig->Rank);
 8001552:	681c      	ldr	r4, [r3, #0]
 8001554:	6b60      	ldr	r0, [r4, #52]	@ 0x34
 8001556:	684a      	ldr	r2, [r1, #4]
 8001558:	eb02 0282 	add.w	r2, r2, r2, lsl #2
 800155c:	3a05      	subs	r2, #5
 800155e:	f8b1 c000 	ldrh.w	ip, [r1]
 8001562:	fa0c f202 	lsl.w	r2, ip, r2
 8001566:	4302      	orrs	r2, r0
 8001568:	6362      	str	r2, [r4, #52]	@ 0x34
  if ((hadc->Instance == ADC1) && (sConfig->Channel == ADC_CHANNEL_VBAT))
 800156a:	6818      	ldr	r0, [r3, #0]
 800156c:	4a43      	ldr	r2, [pc, #268]	@ (800167c <HAL_ADC_ConfigChannel+0x198>)
 800156e:	4290      	cmp	r0, r2
 8001570:	d050      	beq.n	8001614 <HAL_ADC_ConfigChannel+0x130>
  if ((hadc->Instance == ADC1) && ((sConfig->Channel == ADC_CHANNEL_TEMPSENSOR) || (sConfig->Channel == ADC_CHANNEL_VREFINT)))
 8001572:	6818      	ldr	r0, [r3, #0]
 8001574:	4a41      	ldr	r2, [pc, #260]	@ (800167c <HAL_ADC_ConfigChannel+0x198>)
 8001576:	4290      	cmp	r0, r2
 8001578:	d059      	beq.n	800162e <HAL_ADC_ConfigChannel+0x14a>
  __HAL_UNLOCK(hadc);
 800157a:	2000      	movs	r0, #0
 800157c:	f883 003c 	strb.w	r0, [r3, #60]	@ 0x3c
}
 8001580:	b002      	add	sp, #8
 8001582:	bc30      	pop	{r4, r5}
 8001584:	4770      	bx	lr
    hadc->Instance->SMPR2 &= ~ADC_SMPR2(ADC_SMPR2_SMP0, sConfig->Channel);
 8001586:	6804      	ldr	r4, [r0, #0]
 8001588:	6920      	ldr	r0, [r4, #16]
 800158a:	b292      	uxth	r2, r2
 800158c:	eb02 0242 	add.w	r2, r2, r2, lsl #1
 8001590:	f04f 0c07 	mov.w	ip, #7
 8001594:	fa0c f202 	lsl.w	r2, ip, r2
 8001598:	ea20 0202 	bic.w	r2, r0, r2
 800159c:	6122      	str	r2, [r4, #16]
    hadc->Instance->SMPR2 |= ADC_SMPR2(sConfig->SamplingTime, sConfig->Channel);
 800159e:	681c      	ldr	r4, [r3, #0]
 80015a0:	6920      	ldr	r0, [r4, #16]
 80015a2:	880a      	ldrh	r2, [r1, #0]
 80015a4:	eb02 0242 	add.w	r2, r2, r2, lsl #1
 80015a8:	688d      	ldr	r5, [r1, #8]
 80015aa:	fa05 f202 	lsl.w	r2, r5, r2
 80015ae:	4302      	orrs	r2, r0
 80015b0:	6122      	str	r2, [r4, #16]
 80015b2:	e7bf      	b.n	8001534 <HAL_ADC_ConfigChannel+0x50>
  else if (sConfig->Rank < 13U)
 80015b4:	2a0c      	cmp	r2, #12
 80015b6:	d816      	bhi.n	80015e6 <HAL_ADC_ConfigChannel+0x102>
    hadc->Instance->SQR2 &= ~ADC_SQR2_RK(ADC_SQR2_SQ7, sConfig->Rank);
 80015b8:	681d      	ldr	r5, [r3, #0]
 80015ba:	6b28      	ldr	r0, [r5, #48]	@ 0x30
 80015bc:	eb02 0282 	add.w	r2, r2, r2, lsl #2
 80015c0:	3a23      	subs	r2, #35	@ 0x23
 80015c2:	241f      	movs	r4, #31
 80015c4:	fa04 f202 	lsl.w	r2, r4, r2
 80015c8:	ea20 0202 	bic.w	r2, r0, r2
 80015cc:	632a      	str	r2, [r5, #48]	@ 0x30
    hadc->Instance->SQR2 |= ADC_SQR2_RK(sConfig->Channel, sConfig->Rank);
 80015ce:	681d      	ldr	r5, [r3, #0]
 80015d0:	6b28      	ldr	r0, [r5, #48]	@ 0x30
 80015d2:	684a      	ldr	r2, [r1, #4]
 80015d4:	eb02 0282 	add.w	r2, r2, r2, lsl #2
 80015d8:	3a23      	subs	r2, #35	@ 0x23
 80015da:	880c      	ldrh	r4, [r1, #0]
 80015dc:	fa04 f202 	lsl.w	r2, r4, r2
 80015e0:	4302      	orrs	r2, r0
 80015e2:	632a      	str	r2, [r5, #48]	@ 0x30
 80015e4:	e7c1      	b.n	800156a <HAL_ADC_ConfigChannel+0x86>
    hadc->Instance->SQR1 &= ~ADC_SQR1_RK(ADC_SQR1_SQ13, sConfig->Rank);
 80015e6:	681d      	ldr	r5, [r3, #0]
 80015e8:	6ae8      	ldr	r0, [r5, #44]	@ 0x2c
 80015ea:	eb02 0282 	add.w	r2, r2, r2, lsl #2
 80015ee:	3a41      	subs	r2, #65	@ 0x41
 80015f0:	241f      	movs	r4, #31
 80015f2:	fa04 f202 	lsl.w	r2, r4, r2
 80015f6:	ea20 0202 	bic.w	r2, r0, r2
 80015fa:	62ea      	str	r2, [r5, #44]	@ 0x2c
    hadc->Instance->SQR1 |= ADC_SQR1_RK(sConfig->Channel, sConfig->Rank);
 80015fc:	681d      	ldr	r5, [r3, #0]
 80015fe:	6ae8      	ldr	r0, [r5, #44]	@ 0x2c
 8001600:	684a      	ldr	r2, [r1, #4]
 8001602:	eb02 0282 	add.w	r2, r2, r2, lsl #2
 8001606:	3a41      	subs	r2, #65	@ 0x41
 8001608:	880c      	ldrh	r4, [r1, #0]
 800160a:	fa04 f202 	lsl.w	r2, r4, r2
 800160e:	4302      	orrs	r2, r0
 8001610:	62ea      	str	r2, [r5, #44]	@ 0x2c
 8001612:	e7aa      	b.n	800156a <HAL_ADC_ConfigChannel+0x86>
  if ((hadc->Instance == ADC1) && (sConfig->Channel == ADC_CHANNEL_VBAT))
 8001614:	680a      	ldr	r2, [r1, #0]
 8001616:	2a12      	cmp	r2, #18
 8001618:	d1ab      	bne.n	8001572 <HAL_ADC_ConfigChannel+0x8e>
      tmpADC_Common->CCR &= ~ADC_CCR_TSVREFE;
 800161a:	4a19      	ldr	r2, [pc, #100]	@ (8001680 <HAL_ADC_ConfigChannel+0x19c>)
 800161c:	6850      	ldr	r0, [r2, #4]
 800161e:	f420 0000 	bic.w	r0, r0, #8388608	@ 0x800000
 8001622:	6050      	str	r0, [r2, #4]
    tmpADC_Common->CCR |= ADC_CCR_VBATE;
 8001624:	6850      	ldr	r0, [r2, #4]
 8001626:	f440 0080 	orr.w	r0, r0, #4194304	@ 0x400000
 800162a:	6050      	str	r0, [r2, #4]
 800162c:	e7a1      	b.n	8001572 <HAL_ADC_ConfigChannel+0x8e>
  if ((hadc->Instance == ADC1) && ((sConfig->Channel == ADC_CHANNEL_TEMPSENSOR) || (sConfig->Channel == ADC_CHANNEL_VREFINT)))
 800162e:	680a      	ldr	r2, [r1, #0]
 8001630:	4814      	ldr	r0, [pc, #80]	@ (8001684 <HAL_ADC_ConfigChannel+0x1a0>)
 8001632:	4282      	cmp	r2, r0
 8001634:	d001      	beq.n	800163a <HAL_ADC_ConfigChannel+0x156>
 8001636:	2a11      	cmp	r2, #17
 8001638:	d19f      	bne.n	800157a <HAL_ADC_ConfigChannel+0x96>
      tmpADC_Common->CCR &= ~ADC_CCR_VBATE;
 800163a:	4a11      	ldr	r2, [pc, #68]	@ (8001680 <HAL_ADC_ConfigChannel+0x19c>)
 800163c:	6850      	ldr	r0, [r2, #4]
 800163e:	f420 0080 	bic.w	r0, r0, #4194304	@ 0x400000
 8001642:	6050      	str	r0, [r2, #4]
    tmpADC_Common->CCR |= ADC_CCR_TSVREFE;
 8001644:	6850      	ldr	r0, [r2, #4]
 8001646:	f440 0000 	orr.w	r0, r0, #8388608	@ 0x800000
 800164a:	6050      	str	r0, [r2, #4]
    if (sConfig->Channel == ADC_CHANNEL_TEMPSENSOR)
 800164c:	6809      	ldr	r1, [r1, #0]
 800164e:	4a0d      	ldr	r2, [pc, #52]	@ (8001684 <HAL_ADC_ConfigChannel+0x1a0>)
 8001650:	4291      	cmp	r1, r2
 8001652:	d192      	bne.n	800157a <HAL_ADC_ConfigChannel+0x96>
      counter = (ADC_TEMPSENSOR_DELAY_US * (SystemCoreClock / 1000000U));
 8001654:	4a0c      	ldr	r2, [pc, #48]	@ (8001688 <HAL_ADC_ConfigChannel+0x1a4>)
 8001656:	6812      	ldr	r2, [r2, #0]
 8001658:	490c      	ldr	r1, [pc, #48]	@ (800168c <HAL_ADC_ConfigChannel+0x1a8>)
 800165a:	fba1 1202 	umull	r1, r2, r1, r2
 800165e:	0c92      	lsrs	r2, r2, #18
 8001660:	eb02 0282 	add.w	r2, r2, r2, lsl #2
 8001664:	0052      	lsls	r2, r2, #1
 8001666:	9201      	str	r2, [sp, #4]
      while (counter != 0U)
 8001668:	9a01      	ldr	r2, [sp, #4]
 800166a:	2a00      	cmp	r2, #0
 800166c:	d085      	beq.n	800157a <HAL_ADC_ConfigChannel+0x96>
        counter--;
 800166e:	9a01      	ldr	r2, [sp, #4]
 8001670:	3a01      	subs	r2, #1
 8001672:	9201      	str	r2, [sp, #4]
 8001674:	e7f8      	b.n	8001668 <HAL_ADC_ConfigChannel+0x184>
  __HAL_LOCK(hadc);
 8001676:	2002      	movs	r0, #2
 8001678:	e782      	b.n	8001580 <HAL_ADC_ConfigChannel+0x9c>
 800167a:	bf00      	nop
 800167c:	40012000 	.word	0x40012000
 8001680:	40012300 	.word	0x40012300
 8001684:	10000012 	.word	0x10000012
 8001688:	200000c0 	.word	0x200000c0
 800168c:	431bde83 	.word	0x431bde83

08001690 <__NVIC_EnableIRQ>:
  \param [in]      IRQn  Device specific interrupt number.
  \note    IRQn must not be negative.
 */
__STATIC_INLINE void __NVIC_EnableIRQ(IRQn_Type IRQn)
{
  if ((int32_t)(IRQn) >= 0)
 8001690:	2800      	cmp	r0, #0
 8001692:	db07      	blt.n	80016a4 <__NVIC_EnableIRQ+0x14>
  {
    __COMPILER_BARRIER();
    NVIC->ISER[(((uint32_t)IRQn) >> 5UL)] = (uint32_t)(1UL << (((uint32_t)IRQn) & 0x1FUL));
 8001694:	f000 021f 	and.w	r2, r0, #31
 8001698:	0940      	lsrs	r0, r0, #5
 800169a:	2301      	movs	r3, #1
 800169c:	4093      	lsls	r3, r2
 800169e:	4a02      	ldr	r2, [pc, #8]	@ (80016a8 <__NVIC_EnableIRQ+0x18>)
 80016a0:	f842 3020 	str.w	r3, [r2, r0, lsl #2]
    __COMPILER_BARRIER();
  }
}
 80016a4:	4770      	bx	lr
 80016a6:	bf00      	nop
 80016a8:	e000e100 	.word	0xe000e100

080016ac <__NVIC_SetPriority>:
  \param [in]  priority  Priority to set.
  \note    The priority cannot be set for every processor exception.
 */
__STATIC_INLINE void __NVIC_SetPriority(IRQn_Type IRQn, uint32_t priority)
{
  if ((int32_t)(IRQn) >= 0)
 80016ac:	2800      	cmp	r0, #0
 80016ae:	db08      	blt.n	80016c2 <__NVIC_SetPriority+0x16>
  {
    NVIC->IP[((uint32_t)IRQn)]               = (uint8_t)((priority << (8U - __NVIC_PRIO_BITS)) & (uint32_t)0xFFUL);
 80016b0:	0109      	lsls	r1, r1, #4
 80016b2:	b2c9      	uxtb	r1, r1
 80016b4:	f100 4060 	add.w	r0, r0, #3758096384	@ 0xe0000000
 80016b8:	f500 4061 	add.w	r0, r0, #57600	@ 0xe100
 80016bc:	f880 1300 	strb.w	r1, [r0, #768]	@ 0x300
 80016c0:	4770      	bx	lr
  }
  else
  {
    SCB->SHP[(((uint32_t)IRQn) & 0xFUL)-4UL] = (uint8_t)((priority << (8U - __NVIC_PRIO_BITS)) & (uint32_t)0xFFUL);
 80016c2:	f000 000f 	and.w	r0, r0, #15
 80016c6:	0109      	lsls	r1, r1, #4
 80016c8:	b2c9      	uxtb	r1, r1
 80016ca:	4b01      	ldr	r3, [pc, #4]	@ (80016d0 <__NVIC_SetPriority+0x24>)
 80016cc:	5419      	strb	r1, [r3, r0]
  }
}
 80016ce:	4770      	bx	lr
 80016d0:	e000ed14 	.word	0xe000ed14

080016d4 <NVIC_EncodePriority>:
  \param [in]   PreemptPriority  Preemptive priority value (starting from 0).
  \param [in]       SubPriority  Subpriority value (starting from 0).
  \return                        Encoded priority. Value can be used in the function \ref NVIC_SetPriority().
 */
__STATIC_INLINE uint32_t NVIC_EncodePriority (uint32_t PriorityGroup, uint32_t PreemptPriority, uint32_t SubPriority)
{
 80016d4:	b500      	push	{lr}
  uint32_t PriorityGroupTmp = (PriorityGroup & (uint32_t)0x07UL);   /* only values 0..7 are used          */
 80016d6:	f000 0007 	and.w	r0, r0, #7
  uint32_t PreemptPriorityBits;
  uint32_t SubPriorityBits;

  PreemptPriorityBits = ((7UL - PriorityGroupTmp) > (uint32_t)(__NVIC_PRIO_BITS)) ? (uint32_t)(__NVIC_PRIO_BITS) : (uint32_t)(7UL - PriorityGroupTmp);
 80016da:	f1c0 0c07 	rsb	ip, r0, #7
 80016de:	f1bc 0f04 	cmp.w	ip, #4
 80016e2:	bf28      	it	cs
 80016e4:	f04f 0c04 	movcs.w	ip, #4
  SubPriorityBits     = ((PriorityGroupTmp + (uint32_t)(__NVIC_PRIO_BITS)) < (uint32_t)7UL) ? (uint32_t)0UL : (uint32_t)((PriorityGroupTmp - 7UL) + (uint32_t)(__NVIC_PRIO_BITS));
 80016e8:	1d03      	adds	r3, r0, #4
 80016ea:	2b06      	cmp	r3, #6
 80016ec:	d90f      	bls.n	800170e <NVIC_EncodePriority+0x3a>
 80016ee:	1ec3      	subs	r3, r0, #3

  return (
           ((PreemptPriority & (uint32_t)((1UL << (PreemptPriorityBits)) - 1UL)) << SubPriorityBits) |
 80016f0:	f04f 3eff 	mov.w	lr, #4294967295
 80016f4:	fa0e f00c 	lsl.w	r0, lr, ip
 80016f8:	ea21 0100 	bic.w	r1, r1, r0
 80016fc:	4099      	lsls	r1, r3
           ((SubPriority     & (uint32_t)((1UL << (SubPriorityBits    )) - 1UL)))
 80016fe:	fa0e fe03 	lsl.w	lr, lr, r3
 8001702:	ea22 020e 	bic.w	r2, r2, lr
         );
}
 8001706:	ea41 0002 	orr.w	r0, r1, r2
 800170a:	f85d fb04 	ldr.w	pc, [sp], #4
  SubPriorityBits     = ((PriorityGroupTmp + (uint32_t)(__NVIC_PRIO_BITS)) < (uint32_t)7UL) ? (uint32_t)0UL : (uint32_t)((PriorityGroupTmp - 7UL) + (uint32_t)(__NVIC_PRIO_BITS));
 800170e:	2300      	movs	r3, #0
 8001710:	e7ee      	b.n	80016f0 <NVIC_EncodePriority+0x1c>
	...

08001714 <HAL_NVIC_SetPriorityGrouping>:
  reg_value  =  SCB->AIRCR;                                                   /* read old register configuration    */
 8001714:	4a07      	ldr	r2, [pc, #28]	@ (8001734 <HAL_NVIC_SetPriorityGrouping+0x20>)
 8001716:	68d3      	ldr	r3, [r2, #12]
  reg_value &= ~((uint32_t)(SCB_AIRCR_VECTKEY_Msk | SCB_AIRCR_PRIGROUP_Msk)); /* clear bits to change               */
 8001718:	f423 63e0 	bic.w	r3, r3, #1792	@ 0x700
 800171c:	041b      	lsls	r3, r3, #16
 800171e:	0c1b      	lsrs	r3, r3, #16
                (PriorityGroupTmp << SCB_AIRCR_PRIGROUP_Pos)  );              /* Insert write key and priority group */
 8001720:	0200      	lsls	r0, r0, #8
 8001722:	f400 60e0 	and.w	r0, r0, #1792	@ 0x700
                ((uint32_t)0x5FAUL << SCB_AIRCR_VECTKEY_Pos) |
 8001726:	4303      	orrs	r3, r0
  reg_value  =  (reg_value                                   |
 8001728:	f043 63bf 	orr.w	r3, r3, #100139008	@ 0x5f80000
 800172c:	f443 3300 	orr.w	r3, r3, #131072	@ 0x20000
  SCB->AIRCR =  reg_value;
 8001730:	60d3      	str	r3, [r2, #12]
  /* Check the parameters */
  assert_param(IS_NVIC_PRIORITY_GROUP(PriorityGroup));
  
  /* Set the PRIGROUP[10:8] bits according to the PriorityGroup parameter value */
  NVIC_SetPriorityGrouping(PriorityGroup);
}
 8001732:	4770      	bx	lr
 8001734:	e000ed00 	.word	0xe000ed00

08001738 <HAL_NVIC_SetPriority>:
  *         This parameter can be a value between 0 and 15
  *         A lower priority value indicates a higher priority.          
  * @retval None
  */
void HAL_NVIC_SetPriority(IRQn_Type IRQn, uint32_t PreemptPriority, uint32_t SubPriority)
{ 
 8001738:	b510      	push	{r4, lr}
 800173a:	4604      	mov	r4, r0
  return ((uint32_t)((SCB->AIRCR & SCB_AIRCR_PRIGROUP_Msk) >> SCB_AIRCR_PRIGROUP_Pos));
 800173c:	4b05      	ldr	r3, [pc, #20]	@ (8001754 <HAL_NVIC_SetPriority+0x1c>)
 800173e:	68d8      	ldr	r0, [r3, #12]
  assert_param(IS_NVIC_SUB_PRIORITY(SubPriority));
  assert_param(IS_NVIC_PREEMPTION_PRIORITY(PreemptPriority));
  
  prioritygroup = NVIC_GetPriorityGrouping();
  
  NVIC_SetPriority(IRQn, NVIC_EncodePriority(prioritygroup, PreemptPriority, SubPriority));
 8001740:	f3c0 2002 	ubfx	r0, r0, #8, #3
 8001744:	f7ff ffc6 	bl	80016d4 <NVIC_EncodePriority>
 8001748:	4601      	mov	r1, r0
 800174a:	4620      	mov	r0, r4
 800174c:	f7ff ffae 	bl	80016ac <__NVIC_SetPriority>
}
 8001750:	bd10      	pop	{r4, pc}
 8001752:	bf00      	nop
 8001754:	e000ed00 	.word	0xe000ed00

08001758 <HAL_NVIC_EnableIRQ>:
  *         This parameter can be an enumerator of IRQn_Type enumeration
  *         (For the complete STM32 Devices IRQ Channels list, please refer to the appropriate CMSIS device file (stm32f4xxxx.h))
  * @retval None
  */
void HAL_NVIC_EnableIRQ(IRQn_Type IRQn)
{
 8001758:	b508      	push	{r3, lr}
  /* Check the parameters */
  assert_param(IS_NVIC_DEVICE_IRQ(IRQn));
  
  /* Enable interrupt */
  NVIC_EnableIRQ(IRQn);
 800175a:	f7ff ff99 	bl	8001690 <__NVIC_EnableIRQ>
}
 800175e:	bd08      	pop	{r3, pc}

08001760 <HAL_SYSTICK_Config>:
           function <b>SysTick_Config</b> is not included. In this case, the file <b><i>device</i>.h</b>
           must contain a vendor-specific implementation of this function.
 */
__STATIC_INLINE uint32_t SysTick_Config(uint32_t ticks)
{
  if ((ticks - 1UL) > SysTick_LOAD_RELOAD_Msk)
 8001760:	3801      	subs	r0, #1
 8001762:	f1b0 7f80 	cmp.w	r0, #16777216	@ 0x1000000
 8001766:	d20b      	bcs.n	8001780 <HAL_SYSTICK_Config+0x20>
  {
    return (1UL);                                                   /* Reload value impossible */
  }

  SysTick->LOAD  = (uint32_t)(ticks - 1UL);                         /* set reload register */
 8001768:	f04f 23e0 	mov.w	r3, #3758153728	@ 0xe000e000
 800176c:	6158      	str	r0, [r3, #20]
    SCB->SHP[(((uint32_t)IRQn) & 0xFUL)-4UL] = (uint8_t)((priority << (8U - __NVIC_PRIO_BITS)) & (uint32_t)0xFFUL);
 800176e:	4a05      	ldr	r2, [pc, #20]	@ (8001784 <HAL_SYSTICK_Config+0x24>)
 8001770:	21f0      	movs	r1, #240	@ 0xf0
 8001772:	f882 1023 	strb.w	r1, [r2, #35]	@ 0x23
  NVIC_SetPriority (SysTick_IRQn, (1UL << __NVIC_PRIO_BITS) - 1UL); /* set Priority for Systick Interrupt */
  SysTick->VAL   = 0UL;                                             /* Load the SysTick Counter Value */
 8001776:	2000      	movs	r0, #0
 8001778:	6198      	str	r0, [r3, #24]
  SysTick->CTRL  = SysTick_CTRL_CLKSOURCE_Msk |
 800177a:	2207      	movs	r2, #7
 800177c:	611a      	str	r2, [r3, #16]
                   SysTick_CTRL_TICKINT_Msk   |
                   SysTick_CTRL_ENABLE_Msk;                         /* Enable SysTick IRQ and SysTick Timer */
  return (0UL);                                                     /* Function successful */
 800177e:	4770      	bx	lr
    return (1UL);                                                   /* Reload value impossible */
 8001780:	2001      	movs	r0, #1
  *                  - 1  Function failed.
  */
uint32_t HAL_SYSTICK_Config(uint32_t TicksNumb)
{
   return SysTick_Config(TicksNumb);
}
 8001782:	4770      	bx	lr
 8001784:	e000ed00 	.word	0xe000ed00

08001788 <HAL_CRC_Init>:
  * @retval HAL status
  */
HAL_StatusTypeDef HAL_CRC_Init(CRC_HandleTypeDef *hcrc)
{
  /* Check the CRC handle allocation */
  if (hcrc == NULL)
 8001788:	b158      	cbz	r0, 80017a2 <HAL_CRC_Init+0x1a>
{
 800178a:	b510      	push	{r4, lr}
 800178c:	4604      	mov	r4, r0
  }

  /* Check the parameters */
  assert_param(IS_CRC_ALL_INSTANCE(hcrc->Instance));

  if (hcrc->State == HAL_CRC_STATE_RESET)
 800178e:	7943      	ldrb	r3, [r0, #5]
 8001790:	b11b      	cbz	r3, 800179a <HAL_CRC_Init+0x12>
    /* Init the low level hardware */
    HAL_CRC_MspInit(hcrc);
  }

  /* Change CRC peripheral state */
  hcrc->State = HAL_CRC_STATE_READY;
 8001792:	2301      	movs	r3, #1
 8001794:	7163      	strb	r3, [r4, #5]

  /* Return function status */
  return HAL_OK;
 8001796:	2000      	movs	r0, #0
}
 8001798:	bd10      	pop	{r4, pc}
    hcrc->Lock = HAL_UNLOCKED;
 800179a:	7103      	strb	r3, [r0, #4]
    HAL_CRC_MspInit(hcrc);
 800179c:	f7ff f9ba 	bl	8000b14 <HAL_CRC_MspInit>
 80017a0:	e7f7      	b.n	8001792 <HAL_CRC_Init+0xa>
    return HAL_ERROR;
 80017a2:	2001      	movs	r0, #1
}
 80017a4:	4770      	bx	lr

080017a6 <HAL_CRC_Accumulate>:
  * @param  pBuffer pointer to the input data buffer.
  * @param  BufferLength input data buffer length (number of uint32_t words).
  * @retval uint32_t CRC (returned value LSBs for CRC shorter than 32 bits)
  */
uint32_t HAL_CRC_Accumulate(CRC_HandleTypeDef *hcrc, uint32_t pBuffer[], uint32_t BufferLength)
{
 80017a6:	4684      	mov	ip, r0
  uint32_t index;      /* CRC input data buffer index */
  uint32_t temp = 0U;  /* CRC output (read from hcrc->Instance->DR register) */

  /* Change CRC peripheral state */
  hcrc->State = HAL_CRC_STATE_BUSY;
 80017a8:	2302      	movs	r3, #2
 80017aa:	7143      	strb	r3, [r0, #5]

  /* Enter Data to the CRC calculator */
  for (index = 0U; index < BufferLength; index++)
 80017ac:	2300      	movs	r3, #0
 80017ae:	4293      	cmp	r3, r2
 80017b0:	d211      	bcs.n	80017d6 <HAL_CRC_Accumulate+0x30>
{
 80017b2:	b410      	push	{r4}
  {
    hcrc->Instance->DR = pBuffer[index];
 80017b4:	f8dc 0000 	ldr.w	r0, [ip]
 80017b8:	f851 4023 	ldr.w	r4, [r1, r3, lsl #2]
 80017bc:	6004      	str	r4, [r0, #0]
  for (index = 0U; index < BufferLength; index++)
 80017be:	3301      	adds	r3, #1
 80017c0:	4293      	cmp	r3, r2
 80017c2:	d3f7      	bcc.n	80017b4 <HAL_CRC_Accumulate+0xe>
  }
  temp = hcrc->Instance->DR;
 80017c4:	f8dc 3000 	ldr.w	r3, [ip]
 80017c8:	6818      	ldr	r0, [r3, #0]

  /* Change CRC peripheral state */
  hcrc->State = HAL_CRC_STATE_READY;
 80017ca:	2301      	movs	r3, #1
 80017cc:	f88c 3005 	strb.w	r3, [ip, #5]

  /* Return the CRC computed value */
  return temp;
}
 80017d0:	f85d 4b04 	ldr.w	r4, [sp], #4
 80017d4:	4770      	bx	lr
  temp = hcrc->Instance->DR;
 80017d6:	6803      	ldr	r3, [r0, #0]
 80017d8:	6818      	ldr	r0, [r3, #0]
  hcrc->State = HAL_CRC_STATE_READY;
 80017da:	2301      	movs	r3, #1
 80017dc:	f88c 3005 	strb.w	r3, [ip, #5]
}
 80017e0:	4770      	bx	lr
	...

080017e4 <DMA_CalcBaseAndBitshift>:
  * @param  hdma       pointer to a DMA_HandleTypeDef structure that contains
  *                     the configuration information for the specified DMA Stream. 
  * @retval Stream base address
  */
static uint32_t DMA_CalcBaseAndBitshift(DMA_HandleTypeDef *hdma)
{
 80017e4:	b410      	push	{r4}
  uint32_t stream_number = (((uint32_t)hdma->Instance & 0xFFU) - 16U) / 24U;
 80017e6:	6803      	ldr	r3, [r0, #0]
 80017e8:	b2d9      	uxtb	r1, r3
 80017ea:	3910      	subs	r1, #16
 80017ec:	4a0c      	ldr	r2, [pc, #48]	@ (8001820 <DMA_CalcBaseAndBitshift+0x3c>)
 80017ee:	fba2 4201 	umull	r4, r2, r2, r1
 80017f2:	0912      	lsrs	r2, r2, #4
  
  /* lookup table for necessary bitshift of flags within status registers */
  static const uint8_t flagBitshiftOffset[8U] = {0U, 6U, 16U, 22U, 0U, 6U, 16U, 22U};
  hdma->StreamIndex = flagBitshiftOffset[stream_number];
 80017f4:	4c0b      	ldr	r4, [pc, #44]	@ (8001824 <DMA_CalcBaseAndBitshift+0x40>)
 80017f6:	5ca2      	ldrb	r2, [r4, r2]
 80017f8:	65c2      	str	r2, [r0, #92]	@ 0x5c
  
  if (stream_number > 3U)
 80017fa:	295f      	cmp	r1, #95	@ 0x5f
 80017fc:	d909      	bls.n	8001812 <DMA_CalcBaseAndBitshift+0x2e>
  {
    /* return pointer to HISR and HIFCR */
    hdma->StreamBaseAddress = (((uint32_t)hdma->Instance & (uint32_t)(~0x3FFU)) + 4U);
 80017fe:	f423 737f 	bic.w	r3, r3, #1020	@ 0x3fc
 8001802:	f023 0303 	bic.w	r3, r3, #3
 8001806:	3304      	adds	r3, #4
 8001808:	6583      	str	r3, [r0, #88]	@ 0x58
    /* return pointer to LISR and LIFCR */
    hdma->StreamBaseAddress = ((uint32_t)hdma->Instance & (uint32_t)(~0x3FFU));
  }
  
  return hdma->StreamBaseAddress;
}
 800180a:	6d80      	ldr	r0, [r0, #88]	@ 0x58
 800180c:	f85d 4b04 	ldr.w	r4, [sp], #4
 8001810:	4770      	bx	lr
    hdma->StreamBaseAddress = ((uint32_t)hdma->Instance & (uint32_t)(~0x3FFU));
 8001812:	f423 737f 	bic.w	r3, r3, #1020	@ 0x3fc
 8001816:	f023 0303 	bic.w	r3, r3, #3
 800181a:	6583      	str	r3, [r0, #88]	@ 0x58
 800181c:	e7f5      	b.n	800180a <DMA_CalcBaseAndBitshift+0x26>
 800181e:	bf00      	nop
 8001820:	aaaaaaab 	.word	0xaaaaaaab
 8001824:	080033ec 	.word	0x080033ec

08001828 <DMA_CheckFifoParam>:
  * @retval HAL status
  */
static HAL_StatusTypeDef DMA_CheckFifoParam(DMA_HandleTypeDef *hdma)
{
  HAL_StatusTypeDef status = HAL_OK;
  uint32_t tmp = hdma->Init.FIFOThreshold;
 8001828:	6a83      	ldr	r3, [r0, #40]	@ 0x28
  
  /* Memory Data size equal to Byte */
  if(hdma->Init.MemDataAlignment == DMA_MDATAALIGN_BYTE)
 800182a:	6982      	ldr	r2, [r0, #24]
 800182c:	b992      	cbnz	r2, 8001854 <DMA_CheckFifoParam+0x2c>
  {
    switch (tmp)
 800182e:	2b01      	cmp	r3, #1
 8001830:	d00a      	beq.n	8001848 <DMA_CheckFifoParam+0x20>
 8001832:	2b02      	cmp	r3, #2
 8001834:	d002      	beq.n	800183c <DMA_CheckFifoParam+0x14>
 8001836:	b10b      	cbz	r3, 800183c <DMA_CheckFifoParam+0x14>
 8001838:	2000      	movs	r0, #0
 800183a:	4770      	bx	lr
    {
    case DMA_FIFO_THRESHOLD_1QUARTERFULL:
    case DMA_FIFO_THRESHOLD_3QUARTERSFULL:
      if ((hdma->Init.MemBurst & DMA_SxCR_MBURST_1) == DMA_SxCR_MBURST_1)
 800183c:	6ac3      	ldr	r3, [r0, #44]	@ 0x2c
 800183e:	f013 7f80 	tst.w	r3, #16777216	@ 0x1000000
 8001842:	d128      	bne.n	8001896 <DMA_CheckFifoParam+0x6e>
  HAL_StatusTypeDef status = HAL_OK;
 8001844:	2000      	movs	r0, #0
 8001846:	4770      	bx	lr
      {
        status = HAL_ERROR;
      }
      break;
    case DMA_FIFO_THRESHOLD_HALFFULL:
      if (hdma->Init.MemBurst == DMA_MBURST_INC16)
 8001848:	6ac3      	ldr	r3, [r0, #44]	@ 0x2c
 800184a:	f1b3 7fc0 	cmp.w	r3, #25165824	@ 0x1800000
 800184e:	d024      	beq.n	800189a <DMA_CheckFifoParam+0x72>
  HAL_StatusTypeDef status = HAL_OK;
 8001850:	2000      	movs	r0, #0
 8001852:	4770      	bx	lr
      break;
    }
  }
  
  /* Memory Data size equal to Half-Word */
  else if (hdma->Init.MemDataAlignment == DMA_MDATAALIGN_HALFWORD)
 8001854:	f5b2 5f00 	cmp.w	r2, #8192	@ 0x2000
 8001858:	d009      	beq.n	800186e <DMA_CheckFifoParam+0x46>
  }
  
  /* Memory Data size equal to Word */
  else
  {
    switch (tmp)
 800185a:	2b02      	cmp	r3, #2
 800185c:	d925      	bls.n	80018aa <DMA_CheckFifoParam+0x82>
 800185e:	2b03      	cmp	r3, #3
 8001860:	d125      	bne.n	80018ae <DMA_CheckFifoParam+0x86>
    case DMA_FIFO_THRESHOLD_HALFFULL:
    case DMA_FIFO_THRESHOLD_3QUARTERSFULL:
      status = HAL_ERROR;
      break;
    case DMA_FIFO_THRESHOLD_FULL:
      if ((hdma->Init.MemBurst & DMA_SxCR_MBURST_1) == DMA_SxCR_MBURST_1)
 8001862:	6ac3      	ldr	r3, [r0, #44]	@ 0x2c
 8001864:	f013 7f80 	tst.w	r3, #16777216	@ 0x1000000
 8001868:	d123      	bne.n	80018b2 <DMA_CheckFifoParam+0x8a>
  HAL_StatusTypeDef status = HAL_OK;
 800186a:	2000      	movs	r0, #0
 800186c:	4770      	bx	lr
    switch (tmp)
 800186e:	2b03      	cmp	r3, #3
 8001870:	d803      	bhi.n	800187a <DMA_CheckFifoParam+0x52>
 8001872:	e8df f003 	tbb	[pc, r3]
 8001876:	0414      	.short	0x0414
 8001878:	0a14      	.short	0x0a14
 800187a:	2000      	movs	r0, #0
 800187c:	4770      	bx	lr
      if ((hdma->Init.MemBurst & DMA_SxCR_MBURST_1) == DMA_SxCR_MBURST_1)
 800187e:	6ac3      	ldr	r3, [r0, #44]	@ 0x2c
 8001880:	f013 7f80 	tst.w	r3, #16777216	@ 0x1000000
 8001884:	d10d      	bne.n	80018a2 <DMA_CheckFifoParam+0x7a>
  HAL_StatusTypeDef status = HAL_OK;
 8001886:	2000      	movs	r0, #0
 8001888:	4770      	bx	lr
      if (hdma->Init.MemBurst == DMA_MBURST_INC16)
 800188a:	6ac3      	ldr	r3, [r0, #44]	@ 0x2c
 800188c:	f1b3 7fc0 	cmp.w	r3, #25165824	@ 0x1800000
 8001890:	d009      	beq.n	80018a6 <DMA_CheckFifoParam+0x7e>
  HAL_StatusTypeDef status = HAL_OK;
 8001892:	2000      	movs	r0, #0
 8001894:	4770      	bx	lr
        status = HAL_ERROR;
 8001896:	2001      	movs	r0, #1
 8001898:	4770      	bx	lr
        status = HAL_ERROR;
 800189a:	2001      	movs	r0, #1
 800189c:	4770      	bx	lr
      status = HAL_ERROR;
 800189e:	2001      	movs	r0, #1
 80018a0:	4770      	bx	lr
        status = HAL_ERROR;
 80018a2:	2001      	movs	r0, #1
 80018a4:	4770      	bx	lr
        status = HAL_ERROR;
 80018a6:	2001      	movs	r0, #1
 80018a8:	4770      	bx	lr
      status = HAL_ERROR;
 80018aa:	2001      	movs	r0, #1
 80018ac:	4770      	bx	lr
    switch (tmp)
 80018ae:	2000      	movs	r0, #0
 80018b0:	4770      	bx	lr
      {
        status = HAL_ERROR;
 80018b2:	2001      	movs	r0, #1
      break;
    }
  } 
  
  return status; 
}
 80018b4:	4770      	bx	lr
	...

080018b8 <HAL_DMA_Init>:
{
 80018b8:	b570      	push	{r4, r5, r6, lr}
 80018ba:	4604      	mov	r4, r0
  uint32_t tickstart = HAL_GetTick();
 80018bc:	f7ff fd32 	bl	8001324 <HAL_GetTick>
  if(hdma == NULL)
 80018c0:	2c00      	cmp	r4, #0
 80018c2:	d05b      	beq.n	800197c <HAL_DMA_Init+0xc4>
 80018c4:	4605      	mov	r5, r0
  hdma->State = HAL_DMA_STATE_BUSY;
 80018c6:	2302      	movs	r3, #2
 80018c8:	f884 3035 	strb.w	r3, [r4, #53]	@ 0x35
  __HAL_UNLOCK(hdma);
 80018cc:	2300      	movs	r3, #0
 80018ce:	f884 3034 	strb.w	r3, [r4, #52]	@ 0x34
  __HAL_DMA_DISABLE(hdma);
 80018d2:	6822      	ldr	r2, [r4, #0]
 80018d4:	6813      	ldr	r3, [r2, #0]
 80018d6:	f023 0301 	bic.w	r3, r3, #1
 80018da:	6013      	str	r3, [r2, #0]
  while((hdma->Instance->CR & DMA_SxCR_EN) != RESET)
 80018dc:	6823      	ldr	r3, [r4, #0]
 80018de:	681a      	ldr	r2, [r3, #0]
 80018e0:	f012 0f01 	tst.w	r2, #1
 80018e4:	d00a      	beq.n	80018fc <HAL_DMA_Init+0x44>
    if((HAL_GetTick() - tickstart ) > HAL_TIMEOUT_DMA_ABORT)
 80018e6:	f7ff fd1d 	bl	8001324 <HAL_GetTick>
 80018ea:	1b43      	subs	r3, r0, r5
 80018ec:	2b05      	cmp	r3, #5
 80018ee:	d9f5      	bls.n	80018dc <HAL_DMA_Init+0x24>
      hdma->ErrorCode = HAL_DMA_ERROR_TIMEOUT;
 80018f0:	2320      	movs	r3, #32
 80018f2:	6563      	str	r3, [r4, #84]	@ 0x54
      hdma->State = HAL_DMA_STATE_TIMEOUT;
 80018f4:	2003      	movs	r0, #3
 80018f6:	f884 0035 	strb.w	r0, [r4, #53]	@ 0x35
}
 80018fa:	bd70      	pop	{r4, r5, r6, pc}
  tmp = hdma->Instance->CR;
 80018fc:	681a      	ldr	r2, [r3, #0]
  tmp &= ((uint32_t)~(DMA_SxCR_CHSEL | DMA_SxCR_MBURST | DMA_SxCR_PBURST | \
 80018fe:	4920      	ldr	r1, [pc, #128]	@ (8001980 <HAL_DMA_Init+0xc8>)
 8001900:	4011      	ands	r1, r2
  tmp |=  hdma->Init.Channel             | hdma->Init.Direction        |
 8001902:	6862      	ldr	r2, [r4, #4]
 8001904:	68a0      	ldr	r0, [r4, #8]
 8001906:	4302      	orrs	r2, r0
          hdma->Init.PeriphInc           | hdma->Init.MemInc           |
 8001908:	68e0      	ldr	r0, [r4, #12]
  tmp |=  hdma->Init.Channel             | hdma->Init.Direction        |
 800190a:	4302      	orrs	r2, r0
          hdma->Init.PeriphInc           | hdma->Init.MemInc           |
 800190c:	6920      	ldr	r0, [r4, #16]
 800190e:	4302      	orrs	r2, r0
          hdma->Init.PeriphDataAlignment | hdma->Init.MemDataAlignment |
 8001910:	6960      	ldr	r0, [r4, #20]
          hdma->Init.PeriphInc           | hdma->Init.MemInc           |
 8001912:	4302      	orrs	r2, r0
          hdma->Init.PeriphDataAlignment | hdma->Init.MemDataAlignment |
 8001914:	69a0      	ldr	r0, [r4, #24]
 8001916:	4302      	orrs	r2, r0
          hdma->Init.Mode                | hdma->Init.Priority;
 8001918:	69e0      	ldr	r0, [r4, #28]
          hdma->Init.PeriphDataAlignment | hdma->Init.MemDataAlignment |
 800191a:	4302      	orrs	r2, r0
          hdma->Init.Mode                | hdma->Init.Priority;
 800191c:	6a20      	ldr	r0, [r4, #32]
 800191e:	4302      	orrs	r2, r0
  tmp |=  hdma->Init.Channel             | hdma->Init.Direction        |
 8001920:	430a      	orrs	r2, r1
  if(hdma->Init.FIFOMode == DMA_FIFOMODE_ENABLE)
 8001922:	6a61      	ldr	r1, [r4, #36]	@ 0x24
 8001924:	2904      	cmp	r1, #4
 8001926:	d01e      	beq.n	8001966 <HAL_DMA_Init+0xae>
  hdma->Instance->CR = tmp;  
 8001928:	601a      	str	r2, [r3, #0]
  tmp = hdma->Instance->FCR;
 800192a:	6826      	ldr	r6, [r4, #0]
 800192c:	6975      	ldr	r5, [r6, #20]
  tmp &= (uint32_t)~(DMA_SxFCR_DMDIS | DMA_SxFCR_FTH);
 800192e:	f025 0507 	bic.w	r5, r5, #7
  tmp |= hdma->Init.FIFOMode;
 8001932:	6a63      	ldr	r3, [r4, #36]	@ 0x24
 8001934:	431d      	orrs	r5, r3
  if(hdma->Init.FIFOMode == DMA_FIFOMODE_ENABLE)
 8001936:	2b04      	cmp	r3, #4
 8001938:	d107      	bne.n	800194a <HAL_DMA_Init+0x92>
    tmp |= hdma->Init.FIFOThreshold;
 800193a:	6aa3      	ldr	r3, [r4, #40]	@ 0x28
 800193c:	431d      	orrs	r5, r3
    if (hdma->Init.MemBurst != DMA_MBURST_SINGLE)
 800193e:	6ae3      	ldr	r3, [r4, #44]	@ 0x2c
 8001940:	b11b      	cbz	r3, 800194a <HAL_DMA_Init+0x92>
      if (DMA_CheckFifoParam(hdma) != HAL_OK)
 8001942:	4620      	mov	r0, r4
 8001944:	f7ff ff70 	bl	8001828 <DMA_CheckFifoParam>
 8001948:	b990      	cbnz	r0, 8001970 <HAL_DMA_Init+0xb8>
  hdma->Instance->FCR = tmp;
 800194a:	6175      	str	r5, [r6, #20]
  regs = (DMA_Base_Registers *)DMA_CalcBaseAndBitshift(hdma);
 800194c:	4620      	mov	r0, r4
 800194e:	f7ff ff49 	bl	80017e4 <DMA_CalcBaseAndBitshift>
  regs->IFCR = 0x3FU << hdma->StreamIndex;
 8001952:	6de2      	ldr	r2, [r4, #92]	@ 0x5c
 8001954:	233f      	movs	r3, #63	@ 0x3f
 8001956:	4093      	lsls	r3, r2
 8001958:	6083      	str	r3, [r0, #8]
  hdma->ErrorCode = HAL_DMA_ERROR_NONE;
 800195a:	2000      	movs	r0, #0
 800195c:	6560      	str	r0, [r4, #84]	@ 0x54
  hdma->State = HAL_DMA_STATE_READY;
 800195e:	2301      	movs	r3, #1
 8001960:	f884 3035 	strb.w	r3, [r4, #53]	@ 0x35
  return HAL_OK;
 8001964:	e7c9      	b.n	80018fa <HAL_DMA_Init+0x42>
    tmp |=  hdma->Init.MemBurst | hdma->Init.PeriphBurst;
 8001966:	6ae1      	ldr	r1, [r4, #44]	@ 0x2c
 8001968:	6b20      	ldr	r0, [r4, #48]	@ 0x30
 800196a:	4301      	orrs	r1, r0
 800196c:	430a      	orrs	r2, r1
 800196e:	e7db      	b.n	8001928 <HAL_DMA_Init+0x70>
        hdma->ErrorCode = HAL_DMA_ERROR_PARAM;
 8001970:	2340      	movs	r3, #64	@ 0x40
 8001972:	6563      	str	r3, [r4, #84]	@ 0x54
        hdma->State = HAL_DMA_STATE_READY;
 8001974:	2001      	movs	r0, #1
 8001976:	f884 0035 	strb.w	r0, [r4, #53]	@ 0x35
        return HAL_ERROR; 
 800197a:	e7be      	b.n	80018fa <HAL_DMA_Init+0x42>
    return HAL_ERROR;
 800197c:	2001      	movs	r0, #1
 800197e:	e7bc      	b.n	80018fa <HAL_DMA_Init+0x42>
 8001980:	f010803f 	.word	0xf010803f

08001984 <HAL_DMA_IRQHandler>:
{
 8001984:	b5f0      	push	{r4, r5, r6, r7, lr}
 8001986:	b083      	sub	sp, #12
 8001988:	4604      	mov	r4, r0
  __IO uint32_t count = 0U;
 800198a:	2300      	movs	r3, #0
 800198c:	9301      	str	r3, [sp, #4]
  uint32_t timeout = SystemCoreClock / 9600U;
 800198e:	4b72      	ldr	r3, [pc, #456]	@ (8001b58 <HAL_DMA_IRQHandler+0x1d4>)
 8001990:	681d      	ldr	r5, [r3, #0]
 8001992:	4b72      	ldr	r3, [pc, #456]	@ (8001b5c <HAL_DMA_IRQHandler+0x1d8>)
 8001994:	fba3 3505 	umull	r3, r5, r3, r5
 8001998:	0aad      	lsrs	r5, r5, #10
  DMA_Base_Registers *regs = (DMA_Base_Registers *)hdma->StreamBaseAddress;
 800199a:	6d87      	ldr	r7, [r0, #88]	@ 0x58
  tmpisr = regs->ISR;
 800199c:	683e      	ldr	r6, [r7, #0]
  if ((tmpisr & (DMA_FLAG_TEIF0_4 << hdma->StreamIndex)) != RESET)
 800199e:	6dc2      	ldr	r2, [r0, #92]	@ 0x5c
 80019a0:	2308      	movs	r3, #8
 80019a2:	4093      	lsls	r3, r2
 80019a4:	4233      	tst	r3, r6
 80019a6:	d010      	beq.n	80019ca <HAL_DMA_IRQHandler+0x46>
    if(__HAL_DMA_GET_IT_SOURCE(hdma, DMA_IT_TE) != RESET)
 80019a8:	6803      	ldr	r3, [r0, #0]
 80019aa:	681a      	ldr	r2, [r3, #0]
 80019ac:	f012 0f04 	tst.w	r2, #4
 80019b0:	d00b      	beq.n	80019ca <HAL_DMA_IRQHandler+0x46>
      hdma->Instance->CR  &= ~(DMA_IT_TE);
 80019b2:	681a      	ldr	r2, [r3, #0]
 80019b4:	f022 0204 	bic.w	r2, r2, #4
 80019b8:	601a      	str	r2, [r3, #0]
      regs->IFCR = DMA_FLAG_TEIF0_4 << hdma->StreamIndex;
 80019ba:	6dc2      	ldr	r2, [r0, #92]	@ 0x5c
 80019bc:	2308      	movs	r3, #8
 80019be:	4093      	lsls	r3, r2
 80019c0:	60bb      	str	r3, [r7, #8]
      hdma->ErrorCode |= HAL_DMA_ERROR_TE;
 80019c2:	6d43      	ldr	r3, [r0, #84]	@ 0x54
 80019c4:	f043 0301 	orr.w	r3, r3, #1
 80019c8:	6543      	str	r3, [r0, #84]	@ 0x54
  if ((tmpisr & (DMA_FLAG_FEIF0_4 << hdma->StreamIndex)) != RESET)
 80019ca:	6de2      	ldr	r2, [r4, #92]	@ 0x5c
 80019cc:	2301      	movs	r3, #1
 80019ce:	4093      	lsls	r3, r2
 80019d0:	4233      	tst	r3, r6
 80019d2:	d009      	beq.n	80019e8 <HAL_DMA_IRQHandler+0x64>
    if(__HAL_DMA_GET_IT_SOURCE(hdma, DMA_IT_FE) != RESET)
 80019d4:	6822      	ldr	r2, [r4, #0]
 80019d6:	6952      	ldr	r2, [r2, #20]
 80019d8:	f012 0f80 	tst.w	r2, #128	@ 0x80
 80019dc:	d004      	beq.n	80019e8 <HAL_DMA_IRQHandler+0x64>
      regs->IFCR = DMA_FLAG_FEIF0_4 << hdma->StreamIndex;
 80019de:	60bb      	str	r3, [r7, #8]
      hdma->ErrorCode |= HAL_DMA_ERROR_FE;
 80019e0:	6d63      	ldr	r3, [r4, #84]	@ 0x54
 80019e2:	f043 0302 	orr.w	r3, r3, #2
 80019e6:	6563      	str	r3, [r4, #84]	@ 0x54
  if ((tmpisr & (DMA_FLAG_DMEIF0_4 << hdma->StreamIndex)) != RESET)
 80019e8:	6de2      	ldr	r2, [r4, #92]	@ 0x5c
 80019ea:	2304      	movs	r3, #4
 80019ec:	4093      	lsls	r3, r2
 80019ee:	4233      	tst	r3, r6
 80019f0:	d009      	beq.n	8001a06 <HAL_DMA_IRQHandler+0x82>
    if(__HAL_DMA_GET_IT_SOURCE(hdma, DMA_IT_DME) != RESET)
 80019f2:	6822      	ldr	r2, [r4, #0]
 80019f4:	6812      	ldr	r2, [r2, #0]
 80019f6:	f012 0f02 	tst.w	r2, #2
 80019fa:	d004      	beq.n	8001a06 <HAL_DMA_IRQHandler+0x82>
      regs->IFCR = DMA_FLAG_DMEIF0_4 << hdma->StreamIndex;
 80019fc:	60bb      	str	r3, [r7, #8]
      hdma->ErrorCode |= HAL_DMA_ERROR_DME;
 80019fe:	6d63      	ldr	r3, [r4, #84]	@ 0x54
 8001a00:	f043 0304 	orr.w	r3, r3, #4
 8001a04:	6563      	str	r3, [r4, #84]	@ 0x54
  if ((tmpisr & (DMA_FLAG_HTIF0_4 << hdma->StreamIndex)) != RESET)
 8001a06:	6de2      	ldr	r2, [r4, #92]	@ 0x5c
 8001a08:	2310      	movs	r3, #16
 8001a0a:	4093      	lsls	r3, r2
 8001a0c:	4233      	tst	r3, r6
 8001a0e:	d024      	beq.n	8001a5a <HAL_DMA_IRQHandler+0xd6>
    if(__HAL_DMA_GET_IT_SOURCE(hdma, DMA_IT_HT) != RESET)
 8001a10:	6822      	ldr	r2, [r4, #0]
 8001a12:	6812      	ldr	r2, [r2, #0]
 8001a14:	f012 0f08 	tst.w	r2, #8
 8001a18:	d01f      	beq.n	8001a5a <HAL_DMA_IRQHandler+0xd6>
      regs->IFCR = DMA_FLAG_HTIF0_4 << hdma->StreamIndex;
 8001a1a:	60bb      	str	r3, [r7, #8]
      if(((hdma->Instance->CR) & (uint32_t)(DMA_SxCR_DBM)) != RESET)
 8001a1c:	6823      	ldr	r3, [r4, #0]
 8001a1e:	681a      	ldr	r2, [r3, #0]
 8001a20:	f412 2f80 	tst.w	r2, #262144	@ 0x40000
 8001a24:	d00d      	beq.n	8001a42 <HAL_DMA_IRQHandler+0xbe>
        if((hdma->Instance->CR & DMA_SxCR_CT) == RESET)
 8001a26:	681b      	ldr	r3, [r3, #0]
 8001a28:	f413 2f00 	tst.w	r3, #524288	@ 0x80000
 8001a2c:	d104      	bne.n	8001a38 <HAL_DMA_IRQHandler+0xb4>
          if(hdma->XferHalfCpltCallback != NULL)
 8001a2e:	6c23      	ldr	r3, [r4, #64]	@ 0x40
 8001a30:	b19b      	cbz	r3, 8001a5a <HAL_DMA_IRQHandler+0xd6>
            hdma->XferHalfCpltCallback(hdma);
 8001a32:	4620      	mov	r0, r4
 8001a34:	4798      	blx	r3
 8001a36:	e010      	b.n	8001a5a <HAL_DMA_IRQHandler+0xd6>
          if(hdma->XferM1HalfCpltCallback != NULL)
 8001a38:	6ca3      	ldr	r3, [r4, #72]	@ 0x48
 8001a3a:	b173      	cbz	r3, 8001a5a <HAL_DMA_IRQHandler+0xd6>
            hdma->XferM1HalfCpltCallback(hdma);
 8001a3c:	4620      	mov	r0, r4
 8001a3e:	4798      	blx	r3
 8001a40:	e00b      	b.n	8001a5a <HAL_DMA_IRQHandler+0xd6>
        if((hdma->Instance->CR & DMA_SxCR_CIRC) == RESET)
 8001a42:	681a      	ldr	r2, [r3, #0]
 8001a44:	f412 7f80 	tst.w	r2, #256	@ 0x100
 8001a48:	d103      	bne.n	8001a52 <HAL_DMA_IRQHandler+0xce>
          hdma->Instance->CR  &= ~(DMA_IT_HT);
 8001a4a:	681a      	ldr	r2, [r3, #0]
 8001a4c:	f022 0208 	bic.w	r2, r2, #8
 8001a50:	601a      	str	r2, [r3, #0]
        if(hdma->XferHalfCpltCallback != NULL)
 8001a52:	6c23      	ldr	r3, [r4, #64]	@ 0x40
 8001a54:	b10b      	cbz	r3, 8001a5a <HAL_DMA_IRQHandler+0xd6>
          hdma->XferHalfCpltCallback(hdma);
 8001a56:	4620      	mov	r0, r4
 8001a58:	4798      	blx	r3
  if ((tmpisr & (DMA_FLAG_TCIF0_4 << hdma->StreamIndex)) != RESET)
 8001a5a:	6de2      	ldr	r2, [r4, #92]	@ 0x5c
 8001a5c:	2320      	movs	r3, #32
 8001a5e:	4093      	lsls	r3, r2
 8001a60:	4233      	tst	r3, r6
 8001a62:	d055      	beq.n	8001b10 <HAL_DMA_IRQHandler+0x18c>
    if(__HAL_DMA_GET_IT_SOURCE(hdma, DMA_IT_TC) != RESET)
 8001a64:	6822      	ldr	r2, [r4, #0]
 8001a66:	6812      	ldr	r2, [r2, #0]
 8001a68:	f012 0f10 	tst.w	r2, #16
 8001a6c:	d050      	beq.n	8001b10 <HAL_DMA_IRQHandler+0x18c>
      regs->IFCR = DMA_FLAG_TCIF0_4 << hdma->StreamIndex;
 8001a6e:	60bb      	str	r3, [r7, #8]
      if(HAL_DMA_STATE_ABORT == hdma->State)
 8001a70:	f894 3035 	ldrb.w	r3, [r4, #53]	@ 0x35
 8001a74:	b2db      	uxtb	r3, r3
 8001a76:	2b05      	cmp	r3, #5
 8001a78:	d00e      	beq.n	8001a98 <HAL_DMA_IRQHandler+0x114>
      if(((hdma->Instance->CR) & (uint32_t)(DMA_SxCR_DBM)) != RESET)
 8001a7a:	6823      	ldr	r3, [r4, #0]
 8001a7c:	681a      	ldr	r2, [r3, #0]
 8001a7e:	f412 2f80 	tst.w	r2, #262144	@ 0x40000
 8001a82:	d033      	beq.n	8001aec <HAL_DMA_IRQHandler+0x168>
        if((hdma->Instance->CR & DMA_SxCR_CT) == RESET)
 8001a84:	681b      	ldr	r3, [r3, #0]
 8001a86:	f413 2f00 	tst.w	r3, #524288	@ 0x80000
 8001a8a:	d12a      	bne.n	8001ae2 <HAL_DMA_IRQHandler+0x15e>
          if(hdma->XferM1CpltCallback != NULL)
 8001a8c:	6c63      	ldr	r3, [r4, #68]	@ 0x44
 8001a8e:	2b00      	cmp	r3, #0
 8001a90:	d03e      	beq.n	8001b10 <HAL_DMA_IRQHandler+0x18c>
            hdma->XferM1CpltCallback(hdma);
 8001a92:	4620      	mov	r0, r4
 8001a94:	4798      	blx	r3
 8001a96:	e03b      	b.n	8001b10 <HAL_DMA_IRQHandler+0x18c>
        hdma->Instance->CR  &= ~(DMA_IT_TC | DMA_IT_TE | DMA_IT_DME);
 8001a98:	6822      	ldr	r2, [r4, #0]
 8001a9a:	6813      	ldr	r3, [r2, #0]
 8001a9c:	f023 0316 	bic.w	r3, r3, #22
 8001aa0:	6013      	str	r3, [r2, #0]
        hdma->Instance->FCR &= ~(DMA_IT_FE);
 8001aa2:	6822      	ldr	r2, [r4, #0]
 8001aa4:	6953      	ldr	r3, [r2, #20]
 8001aa6:	f023 0380 	bic.w	r3, r3, #128	@ 0x80
 8001aaa:	6153      	str	r3, [r2, #20]
        if((hdma->XferHalfCpltCallback != NULL) || (hdma->XferM1HalfCpltCallback != NULL))
 8001aac:	6c23      	ldr	r3, [r4, #64]	@ 0x40
 8001aae:	b1a3      	cbz	r3, 8001ada <HAL_DMA_IRQHandler+0x156>
          hdma->Instance->CR  &= ~(DMA_IT_HT);
 8001ab0:	6822      	ldr	r2, [r4, #0]
 8001ab2:	6813      	ldr	r3, [r2, #0]
 8001ab4:	f023 0308 	bic.w	r3, r3, #8
 8001ab8:	6013      	str	r3, [r2, #0]
        regs->IFCR = 0x3FU << hdma->StreamIndex;
 8001aba:	6de2      	ldr	r2, [r4, #92]	@ 0x5c
 8001abc:	233f      	movs	r3, #63	@ 0x3f
 8001abe:	4093      	lsls	r3, r2
 8001ac0:	60bb      	str	r3, [r7, #8]
        hdma->State = HAL_DMA_STATE_READY;
 8001ac2:	2301      	movs	r3, #1
 8001ac4:	f884 3035 	strb.w	r3, [r4, #53]	@ 0x35
        __HAL_UNLOCK(hdma);
 8001ac8:	2300      	movs	r3, #0
 8001aca:	f884 3034 	strb.w	r3, [r4, #52]	@ 0x34
        if(hdma->XferAbortCallback != NULL)
 8001ace:	6d23      	ldr	r3, [r4, #80]	@ 0x50
 8001ad0:	2b00      	cmp	r3, #0
 8001ad2:	d03f      	beq.n	8001b54 <HAL_DMA_IRQHandler+0x1d0>
          hdma->XferAbortCallback(hdma);
 8001ad4:	4620      	mov	r0, r4
 8001ad6:	4798      	blx	r3
        return;
 8001ad8:	e03c      	b.n	8001b54 <HAL_DMA_IRQHandler+0x1d0>
        if((hdma->XferHalfCpltCallback != NULL) || (hdma->XferM1HalfCpltCallback != NULL))
 8001ada:	6ca3      	ldr	r3, [r4, #72]	@ 0x48
 8001adc:	2b00      	cmp	r3, #0
 8001ade:	d1e7      	bne.n	8001ab0 <HAL_DMA_IRQHandler+0x12c>
 8001ae0:	e7eb      	b.n	8001aba <HAL_DMA_IRQHandler+0x136>
          if(hdma->XferCpltCallback != NULL)
 8001ae2:	6be3      	ldr	r3, [r4, #60]	@ 0x3c
 8001ae4:	b1a3      	cbz	r3, 8001b10 <HAL_DMA_IRQHandler+0x18c>
            hdma->XferCpltCallback(hdma);
 8001ae6:	4620      	mov	r0, r4
 8001ae8:	4798      	blx	r3
 8001aea:	e011      	b.n	8001b10 <HAL_DMA_IRQHandler+0x18c>
        if((hdma->Instance->CR & DMA_SxCR_CIRC) == RESET)
 8001aec:	681a      	ldr	r2, [r3, #0]
 8001aee:	f412 7f80 	tst.w	r2, #256	@ 0x100
 8001af2:	d109      	bne.n	8001b08 <HAL_DMA_IRQHandler+0x184>
          hdma->Instance->CR  &= ~(DMA_IT_TC);
 8001af4:	681a      	ldr	r2, [r3, #0]
 8001af6:	f022 0210 	bic.w	r2, r2, #16
 8001afa:	601a      	str	r2, [r3, #0]
          hdma->State = HAL_DMA_STATE_READY;
 8001afc:	2301      	movs	r3, #1
 8001afe:	f884 3035 	strb.w	r3, [r4, #53]	@ 0x35
          __HAL_UNLOCK(hdma);
 8001b02:	2300      	movs	r3, #0
 8001b04:	f884 3034 	strb.w	r3, [r4, #52]	@ 0x34
        if(hdma->XferCpltCallback != NULL)
 8001b08:	6be3      	ldr	r3, [r4, #60]	@ 0x3c
 8001b0a:	b10b      	cbz	r3, 8001b10 <HAL_DMA_IRQHandler+0x18c>
          hdma->XferCpltCallback(hdma);
 8001b0c:	4620      	mov	r0, r4
 8001b0e:	4798      	blx	r3
  if(hdma->ErrorCode != HAL_DMA_ERROR_NONE)
 8001b10:	6d63      	ldr	r3, [r4, #84]	@ 0x54
 8001b12:	b1fb      	cbz	r3, 8001b54 <HAL_DMA_IRQHandler+0x1d0>
    if((hdma->ErrorCode & HAL_DMA_ERROR_TE) != RESET)
 8001b14:	6d63      	ldr	r3, [r4, #84]	@ 0x54
 8001b16:	f013 0f01 	tst.w	r3, #1
 8001b1a:	d017      	beq.n	8001b4c <HAL_DMA_IRQHandler+0x1c8>
      hdma->State = HAL_DMA_STATE_ABORT;
 8001b1c:	2305      	movs	r3, #5
 8001b1e:	f884 3035 	strb.w	r3, [r4, #53]	@ 0x35
      __HAL_DMA_DISABLE(hdma);
 8001b22:	6822      	ldr	r2, [r4, #0]
 8001b24:	6813      	ldr	r3, [r2, #0]
 8001b26:	f023 0301 	bic.w	r3, r3, #1
 8001b2a:	6013      	str	r3, [r2, #0]
        if (++count > timeout)
 8001b2c:	9b01      	ldr	r3, [sp, #4]
 8001b2e:	3301      	adds	r3, #1
 8001b30:	9301      	str	r3, [sp, #4]
 8001b32:	42ab      	cmp	r3, r5
 8001b34:	d804      	bhi.n	8001b40 <HAL_DMA_IRQHandler+0x1bc>
      while((hdma->Instance->CR & DMA_SxCR_EN) != RESET);
 8001b36:	6823      	ldr	r3, [r4, #0]
 8001b38:	681b      	ldr	r3, [r3, #0]
 8001b3a:	f013 0f01 	tst.w	r3, #1
 8001b3e:	d1f5      	bne.n	8001b2c <HAL_DMA_IRQHandler+0x1a8>
      hdma->State = HAL_DMA_STATE_READY;
 8001b40:	2301      	movs	r3, #1
 8001b42:	f884 3035 	strb.w	r3, [r4, #53]	@ 0x35
      __HAL_UNLOCK(hdma);
 8001b46:	2300      	movs	r3, #0
 8001b48:	f884 3034 	strb.w	r3, [r4, #52]	@ 0x34
    if(hdma->XferErrorCallback != NULL)
 8001b4c:	6ce3      	ldr	r3, [r4, #76]	@ 0x4c
 8001b4e:	b10b      	cbz	r3, 8001b54 <HAL_DMA_IRQHandler+0x1d0>
      hdma->XferErrorCallback(hdma);
 8001b50:	4620      	mov	r0, r4
 8001b52:	4798      	blx	r3
}
 8001b54:	b003      	add	sp, #12
 8001b56:	bdf0      	pop	{r4, r5, r6, r7, pc}
 8001b58:	200000c0 	.word	0x200000c0
 8001b5c:	1b4e81b5 	.word	0x1b4e81b5

08001b60 <FLASH_Program_DoubleWord>:
  * @param  Address specifies the address to be programmed.
  * @param  Data specifies the data to be programmed.
  * @retval None
  */
static void FLASH_Program_DoubleWord(uint32_t Address, uint64_t Data)
{
 8001b60:	b410      	push	{r4}
  /* Check the parameters */
  assert_param(IS_FLASH_ADDRESS(Address));

  /* If the previous operation is completed, proceed to program the new data */
  CLEAR_BIT(FLASH->CR, FLASH_CR_PSIZE);
 8001b62:	490a      	ldr	r1, [pc, #40]	@ (8001b8c <FLASH_Program_DoubleWord+0x2c>)
 8001b64:	690c      	ldr	r4, [r1, #16]
 8001b66:	f424 7440 	bic.w	r4, r4, #768	@ 0x300
 8001b6a:	610c      	str	r4, [r1, #16]
  FLASH->CR |= FLASH_PSIZE_DOUBLE_WORD;
 8001b6c:	690c      	ldr	r4, [r1, #16]
 8001b6e:	f444 7440 	orr.w	r4, r4, #768	@ 0x300
 8001b72:	610c      	str	r4, [r1, #16]
  FLASH->CR |= FLASH_CR_PG;
 8001b74:	690c      	ldr	r4, [r1, #16]
 8001b76:	f044 0401 	orr.w	r4, r4, #1
 8001b7a:	610c      	str	r4, [r1, #16]

  /* Program first word */
  *(__IO uint32_t *)Address = (uint32_t)Data;
 8001b7c:	6002      	str	r2, [r0, #0]
  __ASM volatile ("isb 0xF":::"memory");
 8001b7e:	f3bf 8f6f 	isb	sy
  /* Barrier to ensure programming is performed in 2 steps, in right order
    (independently of compiler optimization behavior) */
  __ISB();

  /* Program second word */
  *(__IO uint32_t *)(Address + 4) = (uint32_t)(Data >> 32);
 8001b82:	6043      	str	r3, [r0, #4]
}
 8001b84:	f85d 4b04 	ldr.w	r4, [sp], #4
 8001b88:	4770      	bx	lr
 8001b8a:	bf00      	nop
 8001b8c:	40023c00 	.word	0x40023c00

08001b90 <FLASH_Program_Word>:
{
  /* Check the parameters */
  assert_param(IS_FLASH_ADDRESS(Address));

  /* If the previous operation is completed, proceed to program the new data */
  CLEAR_BIT(FLASH->CR, FLASH_CR_PSIZE);
 8001b90:	4b07      	ldr	r3, [pc, #28]	@ (8001bb0 <FLASH_Program_Word+0x20>)
 8001b92:	691a      	ldr	r2, [r3, #16]
 8001b94:	f422 7240 	bic.w	r2, r2, #768	@ 0x300
 8001b98:	611a      	str	r2, [r3, #16]
  FLASH->CR |= FLASH_PSIZE_WORD;
 8001b9a:	691a      	ldr	r2, [r3, #16]
 8001b9c:	f442 7200 	orr.w	r2, r2, #512	@ 0x200
 8001ba0:	611a      	str	r2, [r3, #16]
  FLASH->CR |= FLASH_CR_PG;
 8001ba2:	691a      	ldr	r2, [r3, #16]
 8001ba4:	f042 0201 	orr.w	r2, r2, #1
 8001ba8:	611a      	str	r2, [r3, #16]

  *(__IO uint32_t *)Address = Data;
 8001baa:	6001      	str	r1, [r0, #0]
}
 8001bac:	4770      	bx	lr
 8001bae:	bf00      	nop
 8001bb0:	40023c00 	.word	0x40023c00

08001bb4 <FLASH_Program_HalfWord>:
{
  /* Check the parameters */
  assert_param(IS_FLASH_ADDRESS(Address));

  /* If the previous operation is completed, proceed to program the new data */
  CLEAR_BIT(FLASH->CR, FLASH_CR_PSIZE);
 8001bb4:	4b07      	ldr	r3, [pc, #28]	@ (8001bd4 <FLASH_Program_HalfWord+0x20>)
 8001bb6:	691a      	ldr	r2, [r3, #16]
 8001bb8:	f422 7240 	bic.w	r2, r2, #768	@ 0x300
 8001bbc:	611a      	str	r2, [r3, #16]
  FLASH->CR |= FLASH_PSIZE_HALF_WORD;
 8001bbe:	691a      	ldr	r2, [r3, #16]
 8001bc0:	f442 7280 	orr.w	r2, r2, #256	@ 0x100
 8001bc4:	611a      	str	r2, [r3, #16]
  FLASH->CR |= FLASH_CR_PG;
 8001bc6:	691a      	ldr	r2, [r3, #16]
 8001bc8:	f042 0201 	orr.w	r2, r2, #1
 8001bcc:	611a      	str	r2, [r3, #16]

  *(__IO uint16_t *)Address = Data;
 8001bce:	8001      	strh	r1, [r0, #0]
}
 8001bd0:	4770      	bx	lr
 8001bd2:	bf00      	nop
 8001bd4:	40023c00 	.word	0x40023c00

08001bd8 <FLASH_Program_Byte>:
{
  /* Check the parameters */
  assert_param(IS_FLASH_ADDRESS(Address));

  /* If the previous operation is completed, proceed to program the new data */
  CLEAR_BIT(FLASH->CR, FLASH_CR_PSIZE);
 8001bd8:	4b06      	ldr	r3, [pc, #24]	@ (8001bf4 <FLASH_Program_Byte+0x1c>)
 8001bda:	691a      	ldr	r2, [r3, #16]
 8001bdc:	f422 7240 	bic.w	r2, r2, #768	@ 0x300
 8001be0:	611a      	str	r2, [r3, #16]
  FLASH->CR |= FLASH_PSIZE_BYTE;
 8001be2:	691a      	ldr	r2, [r3, #16]
 8001be4:	611a      	str	r2, [r3, #16]
  FLASH->CR |= FLASH_CR_PG;
 8001be6:	691a      	ldr	r2, [r3, #16]
 8001be8:	f042 0201 	orr.w	r2, r2, #1
 8001bec:	611a      	str	r2, [r3, #16]

  *(__IO uint8_t *)Address = Data;
 8001bee:	7001      	strb	r1, [r0, #0]
}
 8001bf0:	4770      	bx	lr
 8001bf2:	bf00      	nop
 8001bf4:	40023c00 	.word	0x40023c00

08001bf8 <FLASH_SetErrorCode>:
  * @brief  Set the specific FLASH error flag.
  * @retval None
  */
static void FLASH_SetErrorCode(void)
{
  if (__HAL_FLASH_GET_FLAG(FLASH_FLAG_WRPERR) != RESET)
 8001bf8:	4b27      	ldr	r3, [pc, #156]	@ (8001c98 <FLASH_SetErrorCode+0xa0>)
 8001bfa:	68db      	ldr	r3, [r3, #12]
 8001bfc:	f013 0f10 	tst.w	r3, #16
 8001c00:	d007      	beq.n	8001c12 <FLASH_SetErrorCode+0x1a>
  {
    pFlash.ErrorCode |= HAL_FLASH_ERROR_WRP;
 8001c02:	4a26      	ldr	r2, [pc, #152]	@ (8001c9c <FLASH_SetErrorCode+0xa4>)
 8001c04:	69d3      	ldr	r3, [r2, #28]
 8001c06:	f043 0310 	orr.w	r3, r3, #16
 8001c0a:	61d3      	str	r3, [r2, #28]

    /* Clear FLASH write protection error pending bit */
    __HAL_FLASH_CLEAR_FLAG(FLASH_FLAG_WRPERR);
 8001c0c:	4b22      	ldr	r3, [pc, #136]	@ (8001c98 <FLASH_SetErrorCode+0xa0>)
 8001c0e:	2210      	movs	r2, #16
 8001c10:	60da      	str	r2, [r3, #12]
  }

  if (__HAL_FLASH_GET_FLAG(FLASH_FLAG_PGAERR) != RESET)
 8001c12:	4b21      	ldr	r3, [pc, #132]	@ (8001c98 <FLASH_SetErrorCode+0xa0>)
 8001c14:	68db      	ldr	r3, [r3, #12]
 8001c16:	f013 0f20 	tst.w	r3, #32
 8001c1a:	d007      	beq.n	8001c2c <FLASH_SetErrorCode+0x34>
  {
    pFlash.ErrorCode |= HAL_FLASH_ERROR_PGA;
 8001c1c:	4a1f      	ldr	r2, [pc, #124]	@ (8001c9c <FLASH_SetErrorCode+0xa4>)
 8001c1e:	69d3      	ldr	r3, [r2, #28]
 8001c20:	f043 0308 	orr.w	r3, r3, #8
 8001c24:	61d3      	str	r3, [r2, #28]

    /* Clear FLASH Programming alignment error pending bit */
    __HAL_FLASH_CLEAR_FLAG(FLASH_FLAG_PGAERR);
 8001c26:	4b1c      	ldr	r3, [pc, #112]	@ (8001c98 <FLASH_SetErrorCode+0xa0>)
 8001c28:	2220      	movs	r2, #32
 8001c2a:	60da      	str	r2, [r3, #12]
  }

  if (__HAL_FLASH_GET_FLAG(FLASH_FLAG_PGPERR) != RESET)
 8001c2c:	4b1a      	ldr	r3, [pc, #104]	@ (8001c98 <FLASH_SetErrorCode+0xa0>)
 8001c2e:	68db      	ldr	r3, [r3, #12]
 8001c30:	f013 0f40 	tst.w	r3, #64	@ 0x40
 8001c34:	d007      	beq.n	8001c46 <FLASH_SetErrorCode+0x4e>
  {
    pFlash.ErrorCode |= HAL_FLASH_ERROR_PGP;
 8001c36:	4a19      	ldr	r2, [pc, #100]	@ (8001c9c <FLASH_SetErrorCode+0xa4>)
 8001c38:	69d3      	ldr	r3, [r2, #28]
 8001c3a:	f043 0304 	orr.w	r3, r3, #4
 8001c3e:	61d3      	str	r3, [r2, #28]

    /* Clear FLASH Programming parallelism error pending bit */
    __HAL_FLASH_CLEAR_FLAG(FLASH_FLAG_PGPERR);
 8001c40:	4b15      	ldr	r3, [pc, #84]	@ (8001c98 <FLASH_SetErrorCode+0xa0>)
 8001c42:	2240      	movs	r2, #64	@ 0x40
 8001c44:	60da      	str	r2, [r3, #12]
  }

  if (__HAL_FLASH_GET_FLAG(FLASH_FLAG_PGSERR) != RESET)
 8001c46:	4b14      	ldr	r3, [pc, #80]	@ (8001c98 <FLASH_SetErrorCode+0xa0>)
 8001c48:	68db      	ldr	r3, [r3, #12]
 8001c4a:	f013 0f80 	tst.w	r3, #128	@ 0x80
 8001c4e:	d007      	beq.n	8001c60 <FLASH_SetErrorCode+0x68>
  {
    pFlash.ErrorCode |= HAL_FLASH_ERROR_PGS;
 8001c50:	4a12      	ldr	r2, [pc, #72]	@ (8001c9c <FLASH_SetErrorCode+0xa4>)
 8001c52:	69d3      	ldr	r3, [r2, #28]
 8001c54:	f043 0302 	orr.w	r3, r3, #2
 8001c58:	61d3      	str	r3, [r2, #28]

    /* Clear FLASH Programming sequence error pending bit */
    __HAL_FLASH_CLEAR_FLAG(FLASH_FLAG_PGSERR);
 8001c5a:	4b0f      	ldr	r3, [pc, #60]	@ (8001c98 <FLASH_SetErrorCode+0xa0>)
 8001c5c:	2280      	movs	r2, #128	@ 0x80
 8001c5e:	60da      	str	r2, [r3, #12]
  }
#if defined(FLASH_SR_RDERR)
  if (__HAL_FLASH_GET_FLAG(FLASH_FLAG_RDERR) != RESET)
 8001c60:	4b0d      	ldr	r3, [pc, #52]	@ (8001c98 <FLASH_SetErrorCode+0xa0>)
 8001c62:	68db      	ldr	r3, [r3, #12]
 8001c64:	f413 7f80 	tst.w	r3, #256	@ 0x100
 8001c68:	d008      	beq.n	8001c7c <FLASH_SetErrorCode+0x84>
  {
    pFlash.ErrorCode |= HAL_FLASH_ERROR_RD;
 8001c6a:	4a0c      	ldr	r2, [pc, #48]	@ (8001c9c <FLASH_SetErrorCode+0xa4>)
 8001c6c:	69d3      	ldr	r3, [r2, #28]
 8001c6e:	f043 0301 	orr.w	r3, r3, #1
 8001c72:	61d3      	str	r3, [r2, #28]

    /* Clear FLASH Proprietary readout protection error pending bit */
    __HAL_FLASH_CLEAR_FLAG(FLASH_FLAG_RDERR);
 8001c74:	4b08      	ldr	r3, [pc, #32]	@ (8001c98 <FLASH_SetErrorCode+0xa0>)
 8001c76:	f44f 7280 	mov.w	r2, #256	@ 0x100
 8001c7a:	60da      	str	r2, [r3, #12]
  }
#endif /* FLASH_SR_RDERR */
  if (__HAL_FLASH_GET_FLAG(FLASH_FLAG_OPERR) != RESET)
 8001c7c:	4b06      	ldr	r3, [pc, #24]	@ (8001c98 <FLASH_SetErrorCode+0xa0>)
 8001c7e:	68db      	ldr	r3, [r3, #12]
 8001c80:	f013 0f02 	tst.w	r3, #2
 8001c84:	d007      	beq.n	8001c96 <FLASH_SetErrorCode+0x9e>
  {
    pFlash.ErrorCode |= HAL_FLASH_ERROR_OPERATION;
 8001c86:	4a05      	ldr	r2, [pc, #20]	@ (8001c9c <FLASH_SetErrorCode+0xa4>)
 8001c88:	69d3      	ldr	r3, [r2, #28]
 8001c8a:	f043 0320 	orr.w	r3, r3, #32
 8001c8e:	61d3      	str	r3, [r2, #28]

    /* Clear FLASH Operation error pending bit */
    __HAL_FLASH_CLEAR_FLAG(FLASH_FLAG_OPERR);
 8001c90:	4b01      	ldr	r3, [pc, #4]	@ (8001c98 <FLASH_SetErrorCode+0xa0>)
 8001c92:	2202      	movs	r2, #2
 8001c94:	60da      	str	r2, [r3, #12]
  }
}
 8001c96:	4770      	bx	lr
 8001c98:	40023c00 	.word	0x40023c00
 8001c9c:	20000370 	.word	0x20000370

08001ca0 <HAL_FLASH_Unlock>:
  if (READ_BIT(FLASH->CR, FLASH_CR_LOCK) != RESET)
 8001ca0:	4b09      	ldr	r3, [pc, #36]	@ (8001cc8 <HAL_FLASH_Unlock+0x28>)
 8001ca2:	691b      	ldr	r3, [r3, #16]
 8001ca4:	2b00      	cmp	r3, #0
 8001ca6:	db01      	blt.n	8001cac <HAL_FLASH_Unlock+0xc>
  HAL_StatusTypeDef status = HAL_OK;
 8001ca8:	2000      	movs	r0, #0
 8001caa:	4770      	bx	lr
    WRITE_REG(FLASH->KEYR, FLASH_KEY1);
 8001cac:	4b06      	ldr	r3, [pc, #24]	@ (8001cc8 <HAL_FLASH_Unlock+0x28>)
 8001cae:	4a07      	ldr	r2, [pc, #28]	@ (8001ccc <HAL_FLASH_Unlock+0x2c>)
 8001cb0:	605a      	str	r2, [r3, #4]
    WRITE_REG(FLASH->KEYR, FLASH_KEY2);
 8001cb2:	f102 3288 	add.w	r2, r2, #2290649224	@ 0x88888888
 8001cb6:	605a      	str	r2, [r3, #4]
    if (READ_BIT(FLASH->CR, FLASH_CR_LOCK) != RESET)
 8001cb8:	691b      	ldr	r3, [r3, #16]
 8001cba:	2b00      	cmp	r3, #0
 8001cbc:	db01      	blt.n	8001cc2 <HAL_FLASH_Unlock+0x22>
  HAL_StatusTypeDef status = HAL_OK;
 8001cbe:	2000      	movs	r0, #0
 8001cc0:	4770      	bx	lr
      status = HAL_ERROR;
 8001cc2:	2001      	movs	r0, #1
}
 8001cc4:	4770      	bx	lr
 8001cc6:	bf00      	nop
 8001cc8:	40023c00 	.word	0x40023c00
 8001ccc:	45670123 	.word	0x45670123

08001cd0 <HAL_FLASH_Lock>:
  FLASH->CR |= FLASH_CR_LOCK;
 8001cd0:	4a03      	ldr	r2, [pc, #12]	@ (8001ce0 <HAL_FLASH_Lock+0x10>)
 8001cd2:	6913      	ldr	r3, [r2, #16]
 8001cd4:	f043 4300 	orr.w	r3, r3, #2147483648	@ 0x80000000
 8001cd8:	6113      	str	r3, [r2, #16]
}
 8001cda:	2000      	movs	r0, #0
 8001cdc:	4770      	bx	lr
 8001cde:	bf00      	nop
 8001ce0:	40023c00 	.word	0x40023c00

08001ce4 <FLASH_WaitForLastOperation>:
{
 8001ce4:	b538      	push	{r3, r4, r5, lr}
 8001ce6:	4604      	mov	r4, r0
  pFlash.ErrorCode = HAL_FLASH_ERROR_NONE;
 8001ce8:	4b14      	ldr	r3, [pc, #80]	@ (8001d3c <FLASH_WaitForLastOperation+0x58>)
 8001cea:	2200      	movs	r2, #0
 8001cec:	61da      	str	r2, [r3, #28]
  tickstart = HAL_GetTick();
 8001cee:	f7ff fb19 	bl	8001324 <HAL_GetTick>
 8001cf2:	4605      	mov	r5, r0
  while (__HAL_FLASH_GET_FLAG(FLASH_FLAG_BSY) != RESET)
 8001cf4:	4b12      	ldr	r3, [pc, #72]	@ (8001d40 <FLASH_WaitForLastOperation+0x5c>)
 8001cf6:	68db      	ldr	r3, [r3, #12]
 8001cf8:	f413 3f80 	tst.w	r3, #65536	@ 0x10000
 8001cfc:	d00a      	beq.n	8001d14 <FLASH_WaitForLastOperation+0x30>
    if (Timeout != HAL_MAX_DELAY)
 8001cfe:	f1b4 3fff 	cmp.w	r4, #4294967295
 8001d02:	d0f7      	beq.n	8001cf4 <FLASH_WaitForLastOperation+0x10>
      if ((Timeout == 0U) || ((HAL_GetTick() - tickstart) > Timeout))
 8001d04:	b124      	cbz	r4, 8001d10 <FLASH_WaitForLastOperation+0x2c>
 8001d06:	f7ff fb0d 	bl	8001324 <HAL_GetTick>
 8001d0a:	1b40      	subs	r0, r0, r5
 8001d0c:	42a0      	cmp	r0, r4
 8001d0e:	d9f1      	bls.n	8001cf4 <FLASH_WaitForLastOperation+0x10>
        return HAL_TIMEOUT;
 8001d10:	2003      	movs	r0, #3
 8001d12:	e00d      	b.n	8001d30 <FLASH_WaitForLastOperation+0x4c>
  if (__HAL_FLASH_GET_FLAG(FLASH_FLAG_EOP) != RESET)
 8001d14:	4b0a      	ldr	r3, [pc, #40]	@ (8001d40 <FLASH_WaitForLastOperation+0x5c>)
 8001d16:	68db      	ldr	r3, [r3, #12]
 8001d18:	f013 0f01 	tst.w	r3, #1
 8001d1c:	d002      	beq.n	8001d24 <FLASH_WaitForLastOperation+0x40>
    __HAL_FLASH_CLEAR_FLAG(FLASH_FLAG_EOP);
 8001d1e:	4b08      	ldr	r3, [pc, #32]	@ (8001d40 <FLASH_WaitForLastOperation+0x5c>)
 8001d20:	2201      	movs	r2, #1
 8001d22:	60da      	str	r2, [r3, #12]
  if (__HAL_FLASH_GET_FLAG((FLASH_FLAG_OPERR | FLASH_FLAG_WRPERR | FLASH_FLAG_PGAERR | \
 8001d24:	4b06      	ldr	r3, [pc, #24]	@ (8001d40 <FLASH_WaitForLastOperation+0x5c>)
 8001d26:	68db      	ldr	r3, [r3, #12]
 8001d28:	f413 7ff9 	tst.w	r3, #498	@ 0x1f2
 8001d2c:	d101      	bne.n	8001d32 <FLASH_WaitForLastOperation+0x4e>
  return HAL_OK;
 8001d2e:	2000      	movs	r0, #0
}
 8001d30:	bd38      	pop	{r3, r4, r5, pc}
    FLASH_SetErrorCode();
 8001d32:	f7ff ff61 	bl	8001bf8 <FLASH_SetErrorCode>
    return HAL_ERROR;
 8001d36:	2001      	movs	r0, #1
 8001d38:	e7fa      	b.n	8001d30 <FLASH_WaitForLastOperation+0x4c>
 8001d3a:	bf00      	nop
 8001d3c:	20000370 	.word	0x20000370
 8001d40:	40023c00 	.word	0x40023c00

08001d44 <HAL_FLASH_Program>:
{
 8001d44:	b5f8      	push	{r3, r4, r5, r6, r7, lr}
 8001d46:	4616      	mov	r6, r2
  __HAL_LOCK(&pFlash);
 8001d48:	4a1b      	ldr	r2, [pc, #108]	@ (8001db8 <HAL_FLASH_Program+0x74>)
 8001d4a:	7e12      	ldrb	r2, [r2, #24]
 8001d4c:	2a01      	cmp	r2, #1
 8001d4e:	d030      	beq.n	8001db2 <HAL_FLASH_Program+0x6e>
 8001d50:	4604      	mov	r4, r0
 8001d52:	460d      	mov	r5, r1
 8001d54:	461f      	mov	r7, r3
 8001d56:	4b18      	ldr	r3, [pc, #96]	@ (8001db8 <HAL_FLASH_Program+0x74>)
 8001d58:	2201      	movs	r2, #1
 8001d5a:	761a      	strb	r2, [r3, #24]
  status = FLASH_WaitForLastOperation((uint32_t)FLASH_TIMEOUT_VALUE);
 8001d5c:	f24c 3050 	movw	r0, #50000	@ 0xc350
 8001d60:	f7ff ffc0 	bl	8001ce4 <FLASH_WaitForLastOperation>
  if (status == HAL_OK)
 8001d64:	b990      	cbnz	r0, 8001d8c <HAL_FLASH_Program+0x48>
    if (TypeProgram == FLASH_TYPEPROGRAM_BYTE)
 8001d66:	b1ac      	cbz	r4, 8001d94 <HAL_FLASH_Program+0x50>
    else if (TypeProgram == FLASH_TYPEPROGRAM_HALFWORD)
 8001d68:	2c01      	cmp	r4, #1
 8001d6a:	d018      	beq.n	8001d9e <HAL_FLASH_Program+0x5a>
    else if (TypeProgram == FLASH_TYPEPROGRAM_WORD)
 8001d6c:	2c02      	cmp	r4, #2
 8001d6e:	d01b      	beq.n	8001da8 <HAL_FLASH_Program+0x64>
      FLASH_Program_DoubleWord(Address, Data);
 8001d70:	4632      	mov	r2, r6
 8001d72:	463b      	mov	r3, r7
 8001d74:	4628      	mov	r0, r5
 8001d76:	f7ff fef3 	bl	8001b60 <FLASH_Program_DoubleWord>
    status = FLASH_WaitForLastOperation((uint32_t)FLASH_TIMEOUT_VALUE);
 8001d7a:	f24c 3050 	movw	r0, #50000	@ 0xc350
 8001d7e:	f7ff ffb1 	bl	8001ce4 <FLASH_WaitForLastOperation>
    FLASH->CR &= (~FLASH_CR_PG);
 8001d82:	4a0e      	ldr	r2, [pc, #56]	@ (8001dbc <HAL_FLASH_Program+0x78>)
 8001d84:	6913      	ldr	r3, [r2, #16]
 8001d86:	f023 0301 	bic.w	r3, r3, #1
 8001d8a:	6113      	str	r3, [r2, #16]
  __HAL_UNLOCK(&pFlash);
 8001d8c:	4b0a      	ldr	r3, [pc, #40]	@ (8001db8 <HAL_FLASH_Program+0x74>)
 8001d8e:	2200      	movs	r2, #0
 8001d90:	761a      	strb	r2, [r3, #24]
}
 8001d92:	bdf8      	pop	{r3, r4, r5, r6, r7, pc}
      FLASH_Program_Byte(Address, (uint8_t) Data);
 8001d94:	b2f1      	uxtb	r1, r6
 8001d96:	4628      	mov	r0, r5
 8001d98:	f7ff ff1e 	bl	8001bd8 <FLASH_Program_Byte>
 8001d9c:	e7ed      	b.n	8001d7a <HAL_FLASH_Program+0x36>
      FLASH_Program_HalfWord(Address, (uint16_t) Data);
 8001d9e:	b2b1      	uxth	r1, r6
 8001da0:	4628      	mov	r0, r5
 8001da2:	f7ff ff07 	bl	8001bb4 <FLASH_Program_HalfWord>
 8001da6:	e7e8      	b.n	8001d7a <HAL_FLASH_Program+0x36>
      FLASH_Program_Word(Address, (uint32_t) Data);
 8001da8:	4631      	mov	r1, r6
 8001daa:	4628      	mov	r0, r5
 8001dac:	f7ff fef0 	bl	8001b90 <FLASH_Program_Word>
 8001db0:	e7e3      	b.n	8001d7a <HAL_FLASH_Program+0x36>
  __HAL_LOCK(&pFlash);
 8001db2:	2002      	movs	r0, #2
 8001db4:	e7ed      	b.n	8001d92 <HAL_FLASH_Program+0x4e>
 8001db6:	bf00      	nop
 8001db8:	20000370 	.word	0x20000370
 8001dbc:	40023c00 	.word	0x40023c00

08001dc0 <FLASH_MassErase>:
  /* Check the parameters */
  assert_param(IS_VOLTAGERANGE(VoltageRange));
  assert_param(IS_FLASH_BANK(Banks));

  /* If the previous operation is completed, proceed to erase all sectors */
  CLEAR_BIT(FLASH->CR, FLASH_CR_PSIZE);
 8001dc0:	4b07      	ldr	r3, [pc, #28]	@ (8001de0 <FLASH_MassErase+0x20>)
 8001dc2:	691a      	ldr	r2, [r3, #16]
 8001dc4:	f422 7240 	bic.w	r2, r2, #768	@ 0x300
 8001dc8:	611a      	str	r2, [r3, #16]
  FLASH->CR |= FLASH_CR_MER;
 8001dca:	691a      	ldr	r2, [r3, #16]
 8001dcc:	f042 0204 	orr.w	r2, r2, #4
 8001dd0:	611a      	str	r2, [r3, #16]
  FLASH->CR |= FLASH_CR_STRT | ((uint32_t)VoltageRange << 8U);
 8001dd2:	691a      	ldr	r2, [r3, #16]
 8001dd4:	ea42 2200 	orr.w	r2, r2, r0, lsl #8
 8001dd8:	f442 3280 	orr.w	r2, r2, #65536	@ 0x10000
 8001ddc:	611a      	str	r2, [r3, #16]
}
 8001dde:	4770      	bx	lr
 8001de0:	40023c00 	.word	0x40023c00

08001de4 <FLASH_Erase_Sector>:

  /* Check the parameters */
  assert_param(IS_FLASH_SECTOR(Sector));
  assert_param(IS_VOLTAGERANGE(VoltageRange));

  if (VoltageRange == FLASH_VOLTAGE_RANGE_1)
 8001de4:	2901      	cmp	r1, #1
 8001de6:	d01b      	beq.n	8001e20 <FLASH_Erase_Sector+0x3c>
 8001de8:	2902      	cmp	r1, #2
 8001dea:	d01c      	beq.n	8001e26 <FLASH_Erase_Sector+0x42>
 8001dec:	b109      	cbz	r1, 8001df2 <FLASH_Erase_Sector+0xe>
{
 8001dee:	f44f 7140 	mov.w	r1, #768	@ 0x300
  {
    tmp_psize = FLASH_PSIZE_DOUBLE_WORD;
  }

  /* If the previous operation is completed, proceed to erase the sector */
  CLEAR_BIT(FLASH->CR, FLASH_CR_PSIZE);
 8001df2:	4b0e      	ldr	r3, [pc, #56]	@ (8001e2c <FLASH_Erase_Sector+0x48>)
 8001df4:	691a      	ldr	r2, [r3, #16]
 8001df6:	f422 7240 	bic.w	r2, r2, #768	@ 0x300
 8001dfa:	611a      	str	r2, [r3, #16]
  FLASH->CR |= tmp_psize;
 8001dfc:	691a      	ldr	r2, [r3, #16]
 8001dfe:	430a      	orrs	r2, r1
 8001e00:	611a      	str	r2, [r3, #16]
  CLEAR_BIT(FLASH->CR, FLASH_CR_SNB);
 8001e02:	691a      	ldr	r2, [r3, #16]
 8001e04:	f022 02f8 	bic.w	r2, r2, #248	@ 0xf8
 8001e08:	611a      	str	r2, [r3, #16]
  FLASH->CR |= FLASH_CR_SER | (Sector << FLASH_CR_SNB_Pos);
 8001e0a:	691a      	ldr	r2, [r3, #16]
 8001e0c:	ea42 00c0 	orr.w	r0, r2, r0, lsl #3
 8001e10:	f040 0002 	orr.w	r0, r0, #2
 8001e14:	6118      	str	r0, [r3, #16]
  FLASH->CR |= FLASH_CR_STRT;
 8001e16:	691a      	ldr	r2, [r3, #16]
 8001e18:	f442 3280 	orr.w	r2, r2, #65536	@ 0x10000
 8001e1c:	611a      	str	r2, [r3, #16]
}
 8001e1e:	4770      	bx	lr
{
 8001e20:	f44f 7180 	mov.w	r1, #256	@ 0x100
 8001e24:	e7e5      	b.n	8001df2 <FLASH_Erase_Sector+0xe>
 8001e26:	f44f 7100 	mov.w	r1, #512	@ 0x200
 8001e2a:	e7e2      	b.n	8001df2 <FLASH_Erase_Sector+0xe>
 8001e2c:	40023c00 	.word	0x40023c00

08001e30 <FLASH_FlushCaches>:
  * @retval None
  */
void FLASH_FlushCaches(void)
{
  /* Flush instruction cache  */
  if (READ_BIT(FLASH->ACR, FLASH_ACR_ICEN) != RESET)
 8001e30:	4b16      	ldr	r3, [pc, #88]	@ (8001e8c <FLASH_FlushCaches+0x5c>)
 8001e32:	681b      	ldr	r3, [r3, #0]
 8001e34:	f413 7f00 	tst.w	r3, #512	@ 0x200
 8001e38:	d010      	beq.n	8001e5c <FLASH_FlushCaches+0x2c>
  {
    /* Disable instruction cache  */
    __HAL_FLASH_INSTRUCTION_CACHE_DISABLE();
 8001e3a:	4b14      	ldr	r3, [pc, #80]	@ (8001e8c <FLASH_FlushCaches+0x5c>)
 8001e3c:	681a      	ldr	r2, [r3, #0]
 8001e3e:	f422 7200 	bic.w	r2, r2, #512	@ 0x200
 8001e42:	601a      	str	r2, [r3, #0]
    /* Reset instruction cache */
    __HAL_FLASH_INSTRUCTION_CACHE_RESET();
 8001e44:	681a      	ldr	r2, [r3, #0]
 8001e46:	f442 6200 	orr.w	r2, r2, #2048	@ 0x800
 8001e4a:	601a      	str	r2, [r3, #0]
 8001e4c:	681a      	ldr	r2, [r3, #0]
 8001e4e:	f422 6200 	bic.w	r2, r2, #2048	@ 0x800
 8001e52:	601a      	str	r2, [r3, #0]
    /* Enable instruction cache */
    __HAL_FLASH_INSTRUCTION_CACHE_ENABLE();
 8001e54:	681a      	ldr	r2, [r3, #0]
 8001e56:	f442 7200 	orr.w	r2, r2, #512	@ 0x200
 8001e5a:	601a      	str	r2, [r3, #0]
  }

  /* Flush data cache */
  if (READ_BIT(FLASH->ACR, FLASH_ACR_DCEN) != RESET)
 8001e5c:	4b0b      	ldr	r3, [pc, #44]	@ (8001e8c <FLASH_FlushCaches+0x5c>)
 8001e5e:	681b      	ldr	r3, [r3, #0]
 8001e60:	f413 6f80 	tst.w	r3, #1024	@ 0x400
 8001e64:	d010      	beq.n	8001e88 <FLASH_FlushCaches+0x58>
  {
    /* Disable data cache  */
    __HAL_FLASH_DATA_CACHE_DISABLE();
 8001e66:	4b09      	ldr	r3, [pc, #36]	@ (8001e8c <FLASH_FlushCaches+0x5c>)
 8001e68:	681a      	ldr	r2, [r3, #0]
 8001e6a:	f422 6280 	bic.w	r2, r2, #1024	@ 0x400
 8001e6e:	601a      	str	r2, [r3, #0]
    /* Reset data cache */
    __HAL_FLASH_DATA_CACHE_RESET();
 8001e70:	681a      	ldr	r2, [r3, #0]
 8001e72:	f442 5280 	orr.w	r2, r2, #4096	@ 0x1000
 8001e76:	601a      	str	r2, [r3, #0]
 8001e78:	681a      	ldr	r2, [r3, #0]
 8001e7a:	f422 5280 	bic.w	r2, r2, #4096	@ 0x1000
 8001e7e:	601a      	str	r2, [r3, #0]
    /* Enable data cache */
    __HAL_FLASH_DATA_CACHE_ENABLE();
 8001e80:	681a      	ldr	r2, [r3, #0]
 8001e82:	f442 6280 	orr.w	r2, r2, #1024	@ 0x400
 8001e86:	601a      	str	r2, [r3, #0]
  }
}
 8001e88:	4770      	bx	lr
 8001e8a:	bf00      	nop
 8001e8c:	40023c00 	.word	0x40023c00

08001e90 <HAL_FLASHEx_Erase>:
{
 8001e90:	b5f8      	push	{r3, r4, r5, r6, r7, lr}
  __HAL_LOCK(&pFlash);
 8001e92:	4b22      	ldr	r3, [pc, #136]	@ (8001f1c <HAL_FLASHEx_Erase+0x8c>)
 8001e94:	7e1b      	ldrb	r3, [r3, #24]
 8001e96:	2b01      	cmp	r3, #1
 8001e98:	d03e      	beq.n	8001f18 <HAL_FLASHEx_Erase+0x88>
 8001e9a:	4604      	mov	r4, r0
 8001e9c:	460e      	mov	r6, r1
 8001e9e:	4b1f      	ldr	r3, [pc, #124]	@ (8001f1c <HAL_FLASHEx_Erase+0x8c>)
 8001ea0:	2201      	movs	r2, #1
 8001ea2:	761a      	strb	r2, [r3, #24]
  status = FLASH_WaitForLastOperation((uint32_t)FLASH_TIMEOUT_VALUE);
 8001ea4:	f24c 3050 	movw	r0, #50000	@ 0xc350
 8001ea8:	f7ff ff1c 	bl	8001ce4 <FLASH_WaitForLastOperation>
  if (status == HAL_OK)
 8001eac:	4607      	mov	r7, r0
 8001eae:	bb70      	cbnz	r0, 8001f0e <HAL_FLASHEx_Erase+0x7e>
    *SectorError = 0xFFFFFFFFU;
 8001eb0:	f04f 33ff 	mov.w	r3, #4294967295
 8001eb4:	6033      	str	r3, [r6, #0]
    if (pEraseInit->TypeErase == FLASH_TYPEERASE_MASSERASE)
 8001eb6:	6823      	ldr	r3, [r4, #0]
 8001eb8:	2b01      	cmp	r3, #1
 8001eba:	d016      	beq.n	8001eea <HAL_FLASHEx_Erase+0x5a>
      for (index = pEraseInit->Sector; index < (pEraseInit->NbSectors + pEraseInit->Sector); index++)
 8001ebc:	68a5      	ldr	r5, [r4, #8]
 8001ebe:	68e3      	ldr	r3, [r4, #12]
 8001ec0:	68a2      	ldr	r2, [r4, #8]
 8001ec2:	4413      	add	r3, r2
 8001ec4:	42ab      	cmp	r3, r5
 8001ec6:	d920      	bls.n	8001f0a <HAL_FLASHEx_Erase+0x7a>
        FLASH_Erase_Sector(index, (uint8_t) pEraseInit->VoltageRange);
 8001ec8:	7c21      	ldrb	r1, [r4, #16]
 8001eca:	4628      	mov	r0, r5
 8001ecc:	f7ff ff8a 	bl	8001de4 <FLASH_Erase_Sector>
        status = FLASH_WaitForLastOperation((uint32_t)FLASH_TIMEOUT_VALUE);
 8001ed0:	f24c 3050 	movw	r0, #50000	@ 0xc350
 8001ed4:	f7ff ff06 	bl	8001ce4 <FLASH_WaitForLastOperation>
        CLEAR_BIT(FLASH->CR, (FLASH_CR_SER | FLASH_CR_SNB));
 8001ed8:	4a11      	ldr	r2, [pc, #68]	@ (8001f20 <HAL_FLASHEx_Erase+0x90>)
 8001eda:	6913      	ldr	r3, [r2, #16]
 8001edc:	f023 03fa 	bic.w	r3, r3, #250	@ 0xfa
 8001ee0:	6113      	str	r3, [r2, #16]
        if (status != HAL_OK)
 8001ee2:	4607      	mov	r7, r0
 8001ee4:	b980      	cbnz	r0, 8001f08 <HAL_FLASHEx_Erase+0x78>
      for (index = pEraseInit->Sector; index < (pEraseInit->NbSectors + pEraseInit->Sector); index++)
 8001ee6:	3501      	adds	r5, #1
 8001ee8:	e7e9      	b.n	8001ebe <HAL_FLASHEx_Erase+0x2e>
      FLASH_MassErase((uint8_t) pEraseInit->VoltageRange, pEraseInit->Banks);
 8001eea:	6861      	ldr	r1, [r4, #4]
 8001eec:	7c20      	ldrb	r0, [r4, #16]
 8001eee:	f7ff ff67 	bl	8001dc0 <FLASH_MassErase>
      status = FLASH_WaitForLastOperation((uint32_t)FLASH_TIMEOUT_VALUE);
 8001ef2:	f24c 3050 	movw	r0, #50000	@ 0xc350
 8001ef6:	f7ff fef5 	bl	8001ce4 <FLASH_WaitForLastOperation>
 8001efa:	4607      	mov	r7, r0
      FLASH->CR &= (~FLASH_MER_BIT);
 8001efc:	4a08      	ldr	r2, [pc, #32]	@ (8001f20 <HAL_FLASHEx_Erase+0x90>)
 8001efe:	6913      	ldr	r3, [r2, #16]
 8001f00:	f023 0304 	bic.w	r3, r3, #4
 8001f04:	6113      	str	r3, [r2, #16]
 8001f06:	e000      	b.n	8001f0a <HAL_FLASHEx_Erase+0x7a>
          *SectorError = index;
 8001f08:	6035      	str	r5, [r6, #0]
    FLASH_FlushCaches();
 8001f0a:	f7ff ff91 	bl	8001e30 <FLASH_FlushCaches>
  __HAL_UNLOCK(&pFlash);
 8001f0e:	4b03      	ldr	r3, [pc, #12]	@ (8001f1c <HAL_FLASHEx_Erase+0x8c>)
 8001f10:	2200      	movs	r2, #0
 8001f12:	761a      	strb	r2, [r3, #24]
}
 8001f14:	4638      	mov	r0, r7
 8001f16:	bdf8      	pop	{r3, r4, r5, r6, r7, pc}
  __HAL_LOCK(&pFlash);
 8001f18:	2702      	movs	r7, #2
 8001f1a:	e7fb      	b.n	8001f14 <HAL_FLASHEx_Erase+0x84>
 8001f1c:	20000370 	.word	0x20000370
 8001f20:	40023c00 	.word	0x40023c00

08001f24 <HAL_GPIO_Init>:
  assert_param(IS_GPIO_ALL_INSTANCE(GPIOx));
  assert_param(IS_GPIO_PIN(GPIO_Init->Pin));
  assert_param(IS_GPIO_MODE(GPIO_Init->Mode));

  /* Configure the port pins */
  for(position = 0U; position < GPIO_NUMBER; position++)
 8001f24:	2300      	movs	r3, #0
 8001f26:	2b0f      	cmp	r3, #15
 8001f28:	f200 80e3 	bhi.w	80020f2 <HAL_GPIO_Init+0x1ce>
{
 8001f2c:	b570      	push	{r4, r5, r6, lr}
 8001f2e:	b082      	sub	sp, #8
 8001f30:	e065      	b.n	8001ffe <HAL_GPIO_Init+0xda>
          (GPIO_Init->Mode & GPIO_MODE) == MODE_AF)
      {
        /* Check the Speed parameter */
        assert_param(IS_GPIO_SPEED(GPIO_Init->Speed));
        /* Configure the IO Speed */
        temp = GPIOx->OSPEEDR; 
 8001f32:	6885      	ldr	r5, [r0, #8]
        temp &= ~(GPIO_OSPEEDER_OSPEEDR0 << (position * 2U));
 8001f34:	ea4f 0e43 	mov.w	lr, r3, lsl #1
 8001f38:	2403      	movs	r4, #3
 8001f3a:	fa04 f40e 	lsl.w	r4, r4, lr
 8001f3e:	ea25 0504 	bic.w	r5, r5, r4
        temp |= (GPIO_Init->Speed << (position * 2U));
 8001f42:	68cc      	ldr	r4, [r1, #12]
 8001f44:	fa04 f40e 	lsl.w	r4, r4, lr
 8001f48:	432c      	orrs	r4, r5
        GPIOx->OSPEEDR = temp;
 8001f4a:	6084      	str	r4, [r0, #8]

        /* Configure the IO Output Type */
        temp = GPIOx->OTYPER;
 8001f4c:	6844      	ldr	r4, [r0, #4]
        temp &= ~(GPIO_OTYPER_OT_0 << position) ;
 8001f4e:	ea24 0402 	bic.w	r4, r4, r2
        temp |= (((GPIO_Init->Mode & OUTPUT_TYPE) >> OUTPUT_TYPE_Pos) << position);
 8001f52:	684a      	ldr	r2, [r1, #4]
 8001f54:	f3c2 1200 	ubfx	r2, r2, #4, #1
 8001f58:	409a      	lsls	r2, r3
 8001f5a:	4322      	orrs	r2, r4
        GPIOx->OTYPER = temp;
 8001f5c:	6042      	str	r2, [r0, #4]
 8001f5e:	e05c      	b.n	800201a <HAL_GPIO_Init+0xf6>
      if((GPIO_Init->Mode & GPIO_MODE) == MODE_AF)
      {
        /* Check the Alternate function parameter */
        assert_param(IS_GPIO_AF(GPIO_Init->Alternate));
        /* Configure Alternate function mapped with the current IO */
        temp = GPIOx->AFR[position >> 3U];
 8001f60:	08dc      	lsrs	r4, r3, #3
 8001f62:	3408      	adds	r4, #8
 8001f64:	f850 2024 	ldr.w	r2, [r0, r4, lsl #2]
        temp &= ~(0xFU << ((uint32_t)(position & 0x07U) * 4U)) ;
 8001f68:	f003 0507 	and.w	r5, r3, #7
 8001f6c:	00ad      	lsls	r5, r5, #2
 8001f6e:	f04f 0e0f 	mov.w	lr, #15
 8001f72:	fa0e fe05 	lsl.w	lr, lr, r5
 8001f76:	ea22 0e0e 	bic.w	lr, r2, lr
        temp |= ((uint32_t)(GPIO_Init->Alternate) << (((uint32_t)position & 0x07U) * 4U));
 8001f7a:	690a      	ldr	r2, [r1, #16]
 8001f7c:	40aa      	lsls	r2, r5
 8001f7e:	ea42 020e 	orr.w	r2, r2, lr
        GPIOx->AFR[position >> 3U] = temp;
 8001f82:	f840 2024 	str.w	r2, [r0, r4, lsl #2]
 8001f86:	e05c      	b.n	8002042 <HAL_GPIO_Init+0x11e>
        /* Enable SYSCFG Clock */
        __HAL_RCC_SYSCFG_CLK_ENABLE();

        temp = SYSCFG->EXTICR[position >> 2U];
        temp &= ~(0x0FU << (4U * (position & 0x03U)));
        temp |= ((uint32_t)(GPIO_GET_INDEX(GPIOx)) << (4U * (position & 0x03U)));
 8001f88:	2206      	movs	r2, #6
 8001f8a:	e000      	b.n	8001f8e <HAL_GPIO_Init+0x6a>
 8001f8c:	2200      	movs	r2, #0
 8001f8e:	fa02 f20e 	lsl.w	r2, r2, lr
 8001f92:	432a      	orrs	r2, r5
        SYSCFG->EXTICR[position >> 2U] = temp;
 8001f94:	3402      	adds	r4, #2
 8001f96:	4d57      	ldr	r5, [pc, #348]	@ (80020f4 <HAL_GPIO_Init+0x1d0>)
 8001f98:	f845 2024 	str.w	r2, [r5, r4, lsl #2]

        /* Clear Rising Falling edge configuration */
        temp = EXTI->RTSR;
 8001f9c:	4a56      	ldr	r2, [pc, #344]	@ (80020f8 <HAL_GPIO_Init+0x1d4>)
 8001f9e:	6894      	ldr	r4, [r2, #8]
        temp &= ~((uint32_t)iocurrent);
 8001fa0:	ea6f 020c 	mvn.w	r2, ip
 8001fa4:	ea24 050c 	bic.w	r5, r4, ip
        if((GPIO_Init->Mode & TRIGGER_RISING) != 0x00U)
 8001fa8:	684e      	ldr	r6, [r1, #4]
 8001faa:	f416 1f80 	tst.w	r6, #1048576	@ 0x100000
 8001fae:	d001      	beq.n	8001fb4 <HAL_GPIO_Init+0x90>
        {
          temp |= iocurrent;
 8001fb0:	ea4c 0504 	orr.w	r5, ip, r4
        }
        EXTI->RTSR = temp;
 8001fb4:	4c50      	ldr	r4, [pc, #320]	@ (80020f8 <HAL_GPIO_Init+0x1d4>)
 8001fb6:	60a5      	str	r5, [r4, #8]

        temp = EXTI->FTSR;
 8001fb8:	68e4      	ldr	r4, [r4, #12]
        temp &= ~((uint32_t)iocurrent);
 8001fba:	ea02 0504 	and.w	r5, r2, r4
        if((GPIO_Init->Mode & TRIGGER_FALLING) != 0x00U)
 8001fbe:	684e      	ldr	r6, [r1, #4]
 8001fc0:	f416 1f00 	tst.w	r6, #2097152	@ 0x200000
 8001fc4:	d001      	beq.n	8001fca <HAL_GPIO_Init+0xa6>
        {
          temp |= iocurrent;
 8001fc6:	ea4c 0504 	orr.w	r5, ip, r4
        }
        EXTI->FTSR = temp;
 8001fca:	4c4b      	ldr	r4, [pc, #300]	@ (80020f8 <HAL_GPIO_Init+0x1d4>)
 8001fcc:	60e5      	str	r5, [r4, #12]

        temp = EXTI->EMR;
 8001fce:	6864      	ldr	r4, [r4, #4]
        temp &= ~((uint32_t)iocurrent);
 8001fd0:	ea02 0504 	and.w	r5, r2, r4
        if((GPIO_Init->Mode & EXTI_EVT) != 0x00U)
 8001fd4:	684e      	ldr	r6, [r1, #4]
 8001fd6:	f416 3f00 	tst.w	r6, #131072	@ 0x20000
 8001fda:	d001      	beq.n	8001fe0 <HAL_GPIO_Init+0xbc>
        {
          temp |= iocurrent;
 8001fdc:	ea4c 0504 	orr.w	r5, ip, r4
        }
        EXTI->EMR = temp;
 8001fe0:	4c45      	ldr	r4, [pc, #276]	@ (80020f8 <HAL_GPIO_Init+0x1d4>)
 8001fe2:	6065      	str	r5, [r4, #4]

        /* Clear EXTI line configuration */
        temp = EXTI->IMR;
 8001fe4:	6824      	ldr	r4, [r4, #0]
        temp &= ~((uint32_t)iocurrent);
 8001fe6:	4022      	ands	r2, r4
        if((GPIO_Init->Mode & EXTI_IT) != 0x00U)
 8001fe8:	684d      	ldr	r5, [r1, #4]
 8001fea:	f415 3f80 	tst.w	r5, #65536	@ 0x10000
 8001fee:	d001      	beq.n	8001ff4 <HAL_GPIO_Init+0xd0>
        {
          temp |= iocurrent;
 8001ff0:	ea4c 0204 	orr.w	r2, ip, r4
        }
        EXTI->IMR = temp;
 8001ff4:	4c40      	ldr	r4, [pc, #256]	@ (80020f8 <HAL_GPIO_Init+0x1d4>)
 8001ff6:	6022      	str	r2, [r4, #0]
  for(position = 0U; position < GPIO_NUMBER; position++)
 8001ff8:	3301      	adds	r3, #1
 8001ffa:	2b0f      	cmp	r3, #15
 8001ffc:	d877      	bhi.n	80020ee <HAL_GPIO_Init+0x1ca>
    ioposition = 0x01U << position;
 8001ffe:	2201      	movs	r2, #1
 8002000:	409a      	lsls	r2, r3
    iocurrent = (uint32_t)(GPIO_Init->Pin) & ioposition;
 8002002:	680c      	ldr	r4, [r1, #0]
 8002004:	ea04 0c02 	and.w	ip, r4, r2
    if(iocurrent == ioposition)
 8002008:	ea32 0404 	bics.w	r4, r2, r4
 800200c:	d1f4      	bne.n	8001ff8 <HAL_GPIO_Init+0xd4>
      if(((GPIO_Init->Mode & GPIO_MODE) == MODE_OUTPUT) || \
 800200e:	684c      	ldr	r4, [r1, #4]
 8002010:	f004 0403 	and.w	r4, r4, #3
 8002014:	3c01      	subs	r4, #1
 8002016:	2c01      	cmp	r4, #1
 8002018:	d98b      	bls.n	8001f32 <HAL_GPIO_Init+0xe>
      if((GPIO_Init->Mode & GPIO_MODE) != MODE_ANALOG)
 800201a:	684a      	ldr	r2, [r1, #4]
 800201c:	f002 0203 	and.w	r2, r2, #3
 8002020:	2a03      	cmp	r2, #3
 8002022:	d009      	beq.n	8002038 <HAL_GPIO_Init+0x114>
        temp = GPIOx->PUPDR;
 8002024:	68c4      	ldr	r4, [r0, #12]
        temp &= ~(GPIO_PUPDR_PUPDR0 << (position * 2U));
 8002026:	005d      	lsls	r5, r3, #1
 8002028:	2203      	movs	r2, #3
 800202a:	40aa      	lsls	r2, r5
 800202c:	ea24 0402 	bic.w	r4, r4, r2
        temp |= ((GPIO_Init->Pull) << (position * 2U));
 8002030:	688a      	ldr	r2, [r1, #8]
 8002032:	40aa      	lsls	r2, r5
 8002034:	4322      	orrs	r2, r4
        GPIOx->PUPDR = temp;
 8002036:	60c2      	str	r2, [r0, #12]
      if((GPIO_Init->Mode & GPIO_MODE) == MODE_AF)
 8002038:	684a      	ldr	r2, [r1, #4]
 800203a:	f002 0203 	and.w	r2, r2, #3
 800203e:	2a02      	cmp	r2, #2
 8002040:	d08e      	beq.n	8001f60 <HAL_GPIO_Init+0x3c>
      temp = GPIOx->MODER;
 8002042:	6804      	ldr	r4, [r0, #0]
      temp &= ~(GPIO_MODER_MODER0 << (position * 2U));
 8002044:	ea4f 0e43 	mov.w	lr, r3, lsl #1
 8002048:	2203      	movs	r2, #3
 800204a:	fa02 f20e 	lsl.w	r2, r2, lr
 800204e:	ea24 0402 	bic.w	r4, r4, r2
      temp |= ((GPIO_Init->Mode & GPIO_MODE) << (position * 2U));
 8002052:	684a      	ldr	r2, [r1, #4]
 8002054:	f002 0203 	and.w	r2, r2, #3
 8002058:	fa02 f20e 	lsl.w	r2, r2, lr
 800205c:	4322      	orrs	r2, r4
      GPIOx->MODER = temp;
 800205e:	6002      	str	r2, [r0, #0]
      if((GPIO_Init->Mode & EXTI_MODE) != 0x00U)
 8002060:	684a      	ldr	r2, [r1, #4]
 8002062:	f412 3f40 	tst.w	r2, #196608	@ 0x30000
 8002066:	d0c7      	beq.n	8001ff8 <HAL_GPIO_Init+0xd4>
        __HAL_RCC_SYSCFG_CLK_ENABLE();
 8002068:	2200      	movs	r2, #0
 800206a:	9201      	str	r2, [sp, #4]
 800206c:	4a23      	ldr	r2, [pc, #140]	@ (80020fc <HAL_GPIO_Init+0x1d8>)
 800206e:	6c54      	ldr	r4, [r2, #68]	@ 0x44
 8002070:	f444 4480 	orr.w	r4, r4, #16384	@ 0x4000
 8002074:	6454      	str	r4, [r2, #68]	@ 0x44
 8002076:	6c52      	ldr	r2, [r2, #68]	@ 0x44
 8002078:	f402 4280 	and.w	r2, r2, #16384	@ 0x4000
 800207c:	9201      	str	r2, [sp, #4]
 800207e:	9a01      	ldr	r2, [sp, #4]
        temp = SYSCFG->EXTICR[position >> 2U];
 8002080:	089c      	lsrs	r4, r3, #2
 8002082:	1ca5      	adds	r5, r4, #2
 8002084:	4a1b      	ldr	r2, [pc, #108]	@ (80020f4 <HAL_GPIO_Init+0x1d0>)
 8002086:	f852 5025 	ldr.w	r5, [r2, r5, lsl #2]
        temp &= ~(0x0FU << (4U * (position & 0x03U)));
 800208a:	f003 0e03 	and.w	lr, r3, #3
 800208e:	ea4f 0e8e 	mov.w	lr, lr, lsl #2
 8002092:	220f      	movs	r2, #15
 8002094:	fa02 f20e 	lsl.w	r2, r2, lr
 8002098:	ea25 0502 	bic.w	r5, r5, r2
        temp |= ((uint32_t)(GPIO_GET_INDEX(GPIOx)) << (4U * (position & 0x03U)));
 800209c:	4a18      	ldr	r2, [pc, #96]	@ (8002100 <HAL_GPIO_Init+0x1dc>)
 800209e:	4290      	cmp	r0, r2
 80020a0:	f43f af74 	beq.w	8001f8c <HAL_GPIO_Init+0x68>
 80020a4:	f502 6280 	add.w	r2, r2, #1024	@ 0x400
 80020a8:	4290      	cmp	r0, r2
 80020aa:	d016      	beq.n	80020da <HAL_GPIO_Init+0x1b6>
 80020ac:	f502 6280 	add.w	r2, r2, #1024	@ 0x400
 80020b0:	4290      	cmp	r0, r2
 80020b2:	d014      	beq.n	80020de <HAL_GPIO_Init+0x1ba>
 80020b4:	f502 6280 	add.w	r2, r2, #1024	@ 0x400
 80020b8:	4290      	cmp	r0, r2
 80020ba:	d012      	beq.n	80020e2 <HAL_GPIO_Init+0x1be>
 80020bc:	f502 6280 	add.w	r2, r2, #1024	@ 0x400
 80020c0:	4290      	cmp	r0, r2
 80020c2:	d010      	beq.n	80020e6 <HAL_GPIO_Init+0x1c2>
 80020c4:	f502 6280 	add.w	r2, r2, #1024	@ 0x400
 80020c8:	4290      	cmp	r0, r2
 80020ca:	d00e      	beq.n	80020ea <HAL_GPIO_Init+0x1c6>
 80020cc:	f502 6280 	add.w	r2, r2, #1024	@ 0x400
 80020d0:	4290      	cmp	r0, r2
 80020d2:	f43f af59 	beq.w	8001f88 <HAL_GPIO_Init+0x64>
 80020d6:	2207      	movs	r2, #7
 80020d8:	e759      	b.n	8001f8e <HAL_GPIO_Init+0x6a>
 80020da:	2201      	movs	r2, #1
 80020dc:	e757      	b.n	8001f8e <HAL_GPIO_Init+0x6a>
 80020de:	2202      	movs	r2, #2
 80020e0:	e755      	b.n	8001f8e <HAL_GPIO_Init+0x6a>
 80020e2:	2203      	movs	r2, #3
 80020e4:	e753      	b.n	8001f8e <HAL_GPIO_Init+0x6a>
 80020e6:	2204      	movs	r2, #4
 80020e8:	e751      	b.n	8001f8e <HAL_GPIO_Init+0x6a>
 80020ea:	2205      	movs	r2, #5
 80020ec:	e74f      	b.n	8001f8e <HAL_GPIO_Init+0x6a>
      }
    }
  }
}
 80020ee:	b002      	add	sp, #8
 80020f0:	bd70      	pop	{r4, r5, r6, pc}
 80020f2:	4770      	bx	lr
 80020f4:	40013800 	.word	0x40013800
 80020f8:	40013c00 	.word	0x40013c00
 80020fc:	40023800 	.word	0x40023800
 8002100:	40020000 	.word	0x40020000

08002104 <HAL_GPIO_WritePin>:
{
  /* Check the parameters */
  assert_param(IS_GPIO_PIN(GPIO_Pin));
  assert_param(IS_GPIO_PIN_ACTION(PinState));

  if(PinState != GPIO_PIN_RESET)
 8002104:	b10a      	cbz	r2, 800210a <HAL_GPIO_WritePin+0x6>
  {
    GPIOx->BSRR = GPIO_Pin;
 8002106:	6181      	str	r1, [r0, #24]
 8002108:	4770      	bx	lr
  }
  else
  {
    GPIOx->BSRR = (uint32_t)GPIO_Pin << 16U;
 800210a:	0409      	lsls	r1, r1, #16
 800210c:	6181      	str	r1, [r0, #24]
  }
}
 800210e:	4770      	bx	lr

08002110 <HAL_GPIO_EXTI_Callback>:
  /* Prevent unused argument(s) compilation warning */
  UNUSED(GPIO_Pin);
  /* NOTE: This function Should not be modified, when the callback is needed,
           the HAL_GPIO_EXTI_Callback could be implemented in the user file
   */
}
 8002110:	4770      	bx	lr
	...

08002114 <HAL_GPIO_EXTI_IRQHandler>:
{
 8002114:	b508      	push	{r3, lr}
  if(__HAL_GPIO_EXTI_GET_IT(GPIO_Pin) != RESET)
 8002116:	4b05      	ldr	r3, [pc, #20]	@ (800212c <HAL_GPIO_EXTI_IRQHandler+0x18>)
 8002118:	695b      	ldr	r3, [r3, #20]
 800211a:	4203      	tst	r3, r0
 800211c:	d100      	bne.n	8002120 <HAL_GPIO_EXTI_IRQHandler+0xc>
}
 800211e:	bd08      	pop	{r3, pc}
    __HAL_GPIO_EXTI_CLEAR_IT(GPIO_Pin);
 8002120:	4b02      	ldr	r3, [pc, #8]	@ (800212c <HAL_GPIO_EXTI_IRQHandler+0x18>)
 8002122:	6158      	str	r0, [r3, #20]
    HAL_GPIO_EXTI_Callback(GPIO_Pin);
 8002124:	f7ff fff4 	bl	8002110 <HAL_GPIO_EXTI_Callback>
}
 8002128:	e7f9      	b.n	800211e <HAL_GPIO_EXTI_IRQHandler+0xa>
 800212a:	bf00      	nop
 800212c:	40013c00 	.word	0x40013c00

08002130 <HAL_I2C_Init>:
{
  uint32_t freqrange;
  uint32_t pclk1;

  /* Check the I2C handle allocation */
  if (hi2c == NULL)
 8002130:	2800      	cmp	r0, #0
 8002132:	f000 80cc 	beq.w	80022ce <HAL_I2C_Init+0x19e>
{
 8002136:	b570      	push	{r4, r5, r6, lr}
 8002138:	4604      	mov	r4, r0
  assert_param(IS_I2C_DUAL_ADDRESS(hi2c->Init.DualAddressMode));
  assert_param(IS_I2C_OWN_ADDRESS2(hi2c->Init.OwnAddress2));
  assert_param(IS_I2C_GENERAL_CALL(hi2c->Init.GeneralCallMode));
  assert_param(IS_I2C_NO_STRETCH(hi2c->Init.NoStretchMode));

  if (hi2c->State == HAL_I2C_STATE_RESET)
 800213a:	f890 303d 	ldrb.w	r3, [r0, #61]	@ 0x3d
 800213e:	2b00      	cmp	r3, #0
 8002140:	d077      	beq.n	8002232 <HAL_I2C_Init+0x102>
    /* Init the low level hardware : GPIO, CLOCK, NVIC */
    HAL_I2C_MspInit(hi2c);
#endif /* USE_HAL_I2C_REGISTER_CALLBACKS */
  }

  hi2c->State = HAL_I2C_STATE_BUSY;
 8002142:	2324      	movs	r3, #36	@ 0x24
 8002144:	f884 303d 	strb.w	r3, [r4, #61]	@ 0x3d

  /* Disable the selected I2C peripheral */
  __HAL_I2C_DISABLE(hi2c);
 8002148:	6822      	ldr	r2, [r4, #0]
 800214a:	6813      	ldr	r3, [r2, #0]
 800214c:	f023 0301 	bic.w	r3, r3, #1
 8002150:	6013      	str	r3, [r2, #0]

  /*Reset I2C*/
  hi2c->Instance->CR1 |= I2C_CR1_SWRST;
 8002152:	6822      	ldr	r2, [r4, #0]
 8002154:	6813      	ldr	r3, [r2, #0]
 8002156:	f443 4300 	orr.w	r3, r3, #32768	@ 0x8000
 800215a:	6013      	str	r3, [r2, #0]
  hi2c->Instance->CR1 &= ~I2C_CR1_SWRST;
 800215c:	6822      	ldr	r2, [r4, #0]
 800215e:	6813      	ldr	r3, [r2, #0]
 8002160:	f423 4300 	bic.w	r3, r3, #32768	@ 0x8000
 8002164:	6013      	str	r3, [r2, #0]

  /* Get PCLK1 frequency */
  pclk1 = HAL_RCC_GetPCLK1Freq();
 8002166:	f000 f9b5 	bl	80024d4 <HAL_RCC_GetPCLK1Freq>

  /* Check the minimum allowed PCLK1 frequency */
  if (I2C_MIN_PCLK_FREQ(pclk1, hi2c->Init.ClockSpeed) == 1U)
 800216a:	6862      	ldr	r2, [r4, #4]
 800216c:	4b5a      	ldr	r3, [pc, #360]	@ (80022d8 <HAL_I2C_Init+0x1a8>)
 800216e:	429a      	cmp	r2, r3
 8002170:	d864      	bhi.n	800223c <HAL_I2C_Init+0x10c>
 8002172:	4b5a      	ldr	r3, [pc, #360]	@ (80022dc <HAL_I2C_Init+0x1ac>)
 8002174:	4298      	cmp	r0, r3
 8002176:	bf8c      	ite	hi
 8002178:	2300      	movhi	r3, #0
 800217a:	2301      	movls	r3, #1
 800217c:	2b00      	cmp	r3, #0
 800217e:	f040 80a8 	bne.w	80022d2 <HAL_I2C_Init+0x1a2>
  {
    return HAL_ERROR;
  }

  /* Calculate frequency range */
  freqrange = I2C_FREQRANGE(pclk1);
 8002182:	4957      	ldr	r1, [pc, #348]	@ (80022e0 <HAL_I2C_Init+0x1b0>)
 8002184:	fba1 3100 	umull	r3, r1, r1, r0
 8002188:	0c8b      	lsrs	r3, r1, #18

  /*---------------------------- I2Cx CR2 Configuration ----------------------*/
  /* Configure I2Cx: Frequency range */
  MODIFY_REG(hi2c->Instance->CR2, I2C_CR2_FREQ, freqrange);
 800218a:	6825      	ldr	r5, [r4, #0]
 800218c:	686a      	ldr	r2, [r5, #4]
 800218e:	f022 023f 	bic.w	r2, r2, #63	@ 0x3f
 8002192:	ea42 4291 	orr.w	r2, r2, r1, lsr #18
 8002196:	606a      	str	r2, [r5, #4]

  /*---------------------------- I2Cx TRISE Configuration --------------------*/
  /* Configure I2Cx: Rise Time */
  MODIFY_REG(hi2c->Instance->TRISE, I2C_TRISE_TRISE, I2C_RISE_TIME(freqrange, hi2c->Init.ClockSpeed));
 8002198:	6821      	ldr	r1, [r4, #0]
 800219a:	6a0a      	ldr	r2, [r1, #32]
 800219c:	f022 023f 	bic.w	r2, r2, #63	@ 0x3f
 80021a0:	6866      	ldr	r6, [r4, #4]
 80021a2:	4d4d      	ldr	r5, [pc, #308]	@ (80022d8 <HAL_I2C_Init+0x1a8>)
 80021a4:	42ae      	cmp	r6, r5
 80021a6:	d84f      	bhi.n	8002248 <HAL_I2C_Init+0x118>
 80021a8:	3301      	adds	r3, #1
 80021aa:	4313      	orrs	r3, r2
 80021ac:	620b      	str	r3, [r1, #32]

  /*---------------------------- I2Cx CCR Configuration ----------------------*/
  /* Configure I2Cx: Speed */
  MODIFY_REG(hi2c->Instance->CCR, (I2C_CCR_FS | I2C_CCR_DUTY | I2C_CCR_CCR), I2C_SPEED(pclk1, hi2c->Init.ClockSpeed, hi2c->Init.DutyCycle));
 80021ae:	6821      	ldr	r1, [r4, #0]
 80021b0:	69ca      	ldr	r2, [r1, #28]
 80021b2:	f422 424f 	bic.w	r2, r2, #52992	@ 0xcf00
 80021b6:	f022 02ff 	bic.w	r2, r2, #255	@ 0xff
 80021ba:	6865      	ldr	r5, [r4, #4]
 80021bc:	4b46      	ldr	r3, [pc, #280]	@ (80022d8 <HAL_I2C_Init+0x1a8>)
 80021be:	429d      	cmp	r5, r3
 80021c0:	d84c      	bhi.n	800225c <HAL_I2C_Init+0x12c>
 80021c2:	1e43      	subs	r3, r0, #1
 80021c4:	006d      	lsls	r5, r5, #1
 80021c6:	fbb3 f3f5 	udiv	r3, r3, r5
 80021ca:	3301      	adds	r3, #1
 80021cc:	f640 70fc 	movw	r0, #4092	@ 0xffc
 80021d0:	4203      	tst	r3, r0
 80021d2:	d078      	beq.n	80022c6 <HAL_I2C_Init+0x196>
 80021d4:	f3c3 030b 	ubfx	r3, r3, #0, #12
 80021d8:	431a      	orrs	r2, r3
 80021da:	61ca      	str	r2, [r1, #28]

  /*---------------------------- I2Cx CR1 Configuration ----------------------*/
  /* Configure I2Cx: Generalcall and NoStretch mode */
  MODIFY_REG(hi2c->Instance->CR1, (I2C_CR1_ENGC | I2C_CR1_NOSTRETCH), (hi2c->Init.GeneralCallMode | hi2c->Init.NoStretchMode));
 80021dc:	6821      	ldr	r1, [r4, #0]
 80021de:	680b      	ldr	r3, [r1, #0]
 80021e0:	f023 03c0 	bic.w	r3, r3, #192	@ 0xc0
 80021e4:	69e2      	ldr	r2, [r4, #28]
 80021e6:	6a20      	ldr	r0, [r4, #32]
 80021e8:	4302      	orrs	r2, r0
 80021ea:	4313      	orrs	r3, r2
 80021ec:	600b      	str	r3, [r1, #0]

  /*---------------------------- I2Cx OAR1 Configuration ---------------------*/
  /* Configure I2Cx: Own Address1 and addressing mode */
  MODIFY_REG(hi2c->Instance->OAR1, (I2C_OAR1_ADDMODE | I2C_OAR1_ADD8_9 | I2C_OAR1_ADD1_7 | I2C_OAR1_ADD0), (hi2c->Init.AddressingMode | hi2c->Init.OwnAddress1));
 80021ee:	6821      	ldr	r1, [r4, #0]
 80021f0:	688b      	ldr	r3, [r1, #8]
 80021f2:	f423 4303 	bic.w	r3, r3, #33536	@ 0x8300
 80021f6:	f023 03ff 	bic.w	r3, r3, #255	@ 0xff
 80021fa:	6922      	ldr	r2, [r4, #16]
 80021fc:	68e0      	ldr	r0, [r4, #12]
 80021fe:	4302      	orrs	r2, r0
 8002200:	4313      	orrs	r3, r2
 8002202:	608b      	str	r3, [r1, #8]

  /*---------------------------- I2Cx OAR2 Configuration ---------------------*/
  /* Configure I2Cx: Dual mode and Own Address2 */
  MODIFY_REG(hi2c->Instance->OAR2, (I2C_OAR2_ENDUAL | I2C_OAR2_ADD2), (hi2c->Init.DualAddressMode | hi2c->Init.OwnAddress2));
 8002204:	6821      	ldr	r1, [r4, #0]
 8002206:	68cb      	ldr	r3, [r1, #12]
 8002208:	f023 03ff 	bic.w	r3, r3, #255	@ 0xff
 800220c:	6962      	ldr	r2, [r4, #20]
 800220e:	69a0      	ldr	r0, [r4, #24]
 8002210:	4302      	orrs	r2, r0
 8002212:	4313      	orrs	r3, r2
 8002214:	60cb      	str	r3, [r1, #12]

  /* Enable the selected I2C peripheral */
  __HAL_I2C_ENABLE(hi2c);
 8002216:	6822      	ldr	r2, [r4, #0]
 8002218:	6813      	ldr	r3, [r2, #0]
 800221a:	f043 0301 	orr.w	r3, r3, #1
 800221e:	6013      	str	r3, [r2, #0]

  hi2c->ErrorCode = HAL_I2C_ERROR_NONE;
 8002220:	2000      	movs	r0, #0
 8002222:	6420      	str	r0, [r4, #64]	@ 0x40
  hi2c->State = HAL_I2C_STATE_READY;
 8002224:	2320      	movs	r3, #32
 8002226:	f884 303d 	strb.w	r3, [r4, #61]	@ 0x3d
  hi2c->PreviousState = I2C_STATE_NONE;
 800222a:	6320      	str	r0, [r4, #48]	@ 0x30
  hi2c->Mode = HAL_I2C_MODE_NONE;
 800222c:	f884 003e 	strb.w	r0, [r4, #62]	@ 0x3e

  return HAL_OK;
}
 8002230:	bd70      	pop	{r4, r5, r6, pc}
    hi2c->Lock = HAL_UNLOCKED;
 8002232:	f880 303c 	strb.w	r3, [r0, #60]	@ 0x3c
    HAL_I2C_MspInit(hi2c);
 8002236:	f7fe fd4d 	bl	8000cd4 <HAL_I2C_MspInit>
 800223a:	e782      	b.n	8002142 <HAL_I2C_Init+0x12>
  if (I2C_MIN_PCLK_FREQ(pclk1, hi2c->Init.ClockSpeed) == 1U)
 800223c:	4b29      	ldr	r3, [pc, #164]	@ (80022e4 <HAL_I2C_Init+0x1b4>)
 800223e:	4298      	cmp	r0, r3
 8002240:	bf8c      	ite	hi
 8002242:	2300      	movhi	r3, #0
 8002244:	2301      	movls	r3, #1
 8002246:	e799      	b.n	800217c <HAL_I2C_Init+0x4c>
  MODIFY_REG(hi2c->Instance->TRISE, I2C_TRISE_TRISE, I2C_RISE_TIME(freqrange, hi2c->Init.ClockSpeed));
 8002248:	f44f 7596 	mov.w	r5, #300	@ 0x12c
 800224c:	fb05 f303 	mul.w	r3, r5, r3
 8002250:	4d25      	ldr	r5, [pc, #148]	@ (80022e8 <HAL_I2C_Init+0x1b8>)
 8002252:	fba5 5303 	umull	r5, r3, r5, r3
 8002256:	099b      	lsrs	r3, r3, #6
 8002258:	3301      	adds	r3, #1
 800225a:	e7a6      	b.n	80021aa <HAL_I2C_Init+0x7a>
  MODIFY_REG(hi2c->Instance->CCR, (I2C_CCR_FS | I2C_CCR_DUTY | I2C_CCR_CCR), I2C_SPEED(pclk1, hi2c->Init.ClockSpeed, hi2c->Init.DutyCycle));
 800225c:	68a6      	ldr	r6, [r4, #8]
 800225e:	b9be      	cbnz	r6, 8002290 <HAL_I2C_Init+0x160>
 8002260:	1e43      	subs	r3, r0, #1
 8002262:	eb05 0c45 	add.w	ip, r5, r5, lsl #1
 8002266:	fbb3 f3fc 	udiv	r3, r3, ip
 800226a:	3301      	adds	r3, #1
 800226c:	f3c3 030b 	ubfx	r3, r3, #0, #12
 8002270:	fab3 f383 	clz	r3, r3
 8002274:	095b      	lsrs	r3, r3, #5
 8002276:	bb43      	cbnz	r3, 80022ca <HAL_I2C_Init+0x19a>
 8002278:	b9c6      	cbnz	r6, 80022ac <HAL_I2C_Init+0x17c>
 800227a:	1e43      	subs	r3, r0, #1
 800227c:	eb05 0545 	add.w	r5, r5, r5, lsl #1
 8002280:	fbb3 f3f5 	udiv	r3, r3, r5
 8002284:	3301      	adds	r3, #1
 8002286:	f3c3 030b 	ubfx	r3, r3, #0, #12
 800228a:	f443 4300 	orr.w	r3, r3, #32768	@ 0x8000
 800228e:	e7a3      	b.n	80021d8 <HAL_I2C_Init+0xa8>
 8002290:	1e43      	subs	r3, r0, #1
 8002292:	eb05 0c85 	add.w	ip, r5, r5, lsl #2
 8002296:	eb0c 0c8c 	add.w	ip, ip, ip, lsl #2
 800229a:	fbb3 f3fc 	udiv	r3, r3, ip
 800229e:	3301      	adds	r3, #1
 80022a0:	f3c3 030b 	ubfx	r3, r3, #0, #12
 80022a4:	fab3 f383 	clz	r3, r3
 80022a8:	095b      	lsrs	r3, r3, #5
 80022aa:	e7e4      	b.n	8002276 <HAL_I2C_Init+0x146>
 80022ac:	1e43      	subs	r3, r0, #1
 80022ae:	eb05 0585 	add.w	r5, r5, r5, lsl #2
 80022b2:	eb05 0585 	add.w	r5, r5, r5, lsl #2
 80022b6:	fbb3 f3f5 	udiv	r3, r3, r5
 80022ba:	3301      	adds	r3, #1
 80022bc:	f3c3 030b 	ubfx	r3, r3, #0, #12
 80022c0:	f443 4340 	orr.w	r3, r3, #49152	@ 0xc000
 80022c4:	e788      	b.n	80021d8 <HAL_I2C_Init+0xa8>
 80022c6:	2304      	movs	r3, #4
 80022c8:	e786      	b.n	80021d8 <HAL_I2C_Init+0xa8>
 80022ca:	2301      	movs	r3, #1
 80022cc:	e784      	b.n	80021d8 <HAL_I2C_Init+0xa8>
    return HAL_ERROR;
 80022ce:	2001      	movs	r0, #1
}
 80022d0:	4770      	bx	lr
    return HAL_ERROR;
 80022d2:	2001      	movs	r0, #1
 80022d4:	e7ac      	b.n	8002230 <HAL_I2C_Init+0x100>
 80022d6:	bf00      	nop
 80022d8:	000186a0 	.word	0x000186a0
 80022dc:	001e847f 	.word	0x001e847f
 80022e0:	431bde83 	.word	0x431bde83
 80022e4:	003d08ff 	.word	0x003d08ff
 80022e8:	10624dd3 	.word	0x10624dd3

080022ec <HAL_PWREx_EnableOverDrive>:
  *         During the Over-drive switch activation, no peripheral clocks should be enabled.   
  *         The peripheral clocks must be enabled once the Over-drive mode is activated.   
  * @retval HAL status
  */
HAL_StatusTypeDef HAL_PWREx_EnableOverDrive(void)
{
 80022ec:	b510      	push	{r4, lr}
 80022ee:	b082      	sub	sp, #8
  uint32_t tickstart = 0U;

  __HAL_RCC_PWR_CLK_ENABLE();
 80022f0:	2300      	movs	r3, #0
 80022f2:	9301      	str	r3, [sp, #4]
 80022f4:	4b19      	ldr	r3, [pc, #100]	@ (800235c <HAL_PWREx_EnableOverDrive+0x70>)
 80022f6:	6c1a      	ldr	r2, [r3, #64]	@ 0x40
 80022f8:	f042 5280 	orr.w	r2, r2, #268435456	@ 0x10000000
 80022fc:	641a      	str	r2, [r3, #64]	@ 0x40
 80022fe:	6c1b      	ldr	r3, [r3, #64]	@ 0x40
 8002300:	f003 5380 	and.w	r3, r3, #268435456	@ 0x10000000
 8002304:	9301      	str	r3, [sp, #4]
 8002306:	9b01      	ldr	r3, [sp, #4]
  
  /* Enable the Over-drive to extend the clock frequency to 180 Mhz */
  __HAL_PWR_OVERDRIVE_ENABLE();
 8002308:	4b15      	ldr	r3, [pc, #84]	@ (8002360 <HAL_PWREx_EnableOverDrive+0x74>)
 800230a:	2201      	movs	r2, #1
 800230c:	641a      	str	r2, [r3, #64]	@ 0x40

  /* Get tick */
  tickstart = HAL_GetTick();
 800230e:	f7ff f809 	bl	8001324 <HAL_GetTick>
 8002312:	4604      	mov	r4, r0

  while(!__HAL_PWR_GET_FLAG(PWR_FLAG_ODRDY))
 8002314:	4b13      	ldr	r3, [pc, #76]	@ (8002364 <HAL_PWREx_EnableOverDrive+0x78>)
 8002316:	685b      	ldr	r3, [r3, #4]
 8002318:	f413 3f80 	tst.w	r3, #65536	@ 0x10000
 800231c:	d108      	bne.n	8002330 <HAL_PWREx_EnableOverDrive+0x44>
  {
    if((HAL_GetTick() - tickstart) > PWR_OVERDRIVE_TIMEOUT_VALUE)
 800231e:	f7ff f801 	bl	8001324 <HAL_GetTick>
 8002322:	1b00      	subs	r0, r0, r4
 8002324:	f5b0 7f7a 	cmp.w	r0, #1000	@ 0x3e8
 8002328:	d9f4      	bls.n	8002314 <HAL_PWREx_EnableOverDrive+0x28>
    {
      return HAL_TIMEOUT;
 800232a:	2003      	movs	r0, #3
    {
      return HAL_TIMEOUT;
    }
  } 
  return HAL_OK;
}
 800232c:	b002      	add	sp, #8
 800232e:	bd10      	pop	{r4, pc}
  __HAL_PWR_OVERDRIVESWITCHING_ENABLE();
 8002330:	4b0b      	ldr	r3, [pc, #44]	@ (8002360 <HAL_PWREx_EnableOverDrive+0x74>)
 8002332:	2201      	movs	r2, #1
 8002334:	645a      	str	r2, [r3, #68]	@ 0x44
  tickstart = HAL_GetTick();
 8002336:	f7fe fff5 	bl	8001324 <HAL_GetTick>
 800233a:	4604      	mov	r4, r0
  while(!__HAL_PWR_GET_FLAG(PWR_FLAG_ODSWRDY))
 800233c:	4b09      	ldr	r3, [pc, #36]	@ (8002364 <HAL_PWREx_EnableOverDrive+0x78>)
 800233e:	685b      	ldr	r3, [r3, #4]
 8002340:	f413 3f00 	tst.w	r3, #131072	@ 0x20000
 8002344:	d107      	bne.n	8002356 <HAL_PWREx_EnableOverDrive+0x6a>
    if((HAL_GetTick() - tickstart ) > PWR_OVERDRIVE_TIMEOUT_VALUE)
 8002346:	f7fe ffed 	bl	8001324 <HAL_GetTick>
 800234a:	1b00      	subs	r0, r0, r4
 800234c:	f5b0 7f7a 	cmp.w	r0, #1000	@ 0x3e8
 8002350:	d9f4      	bls.n	800233c <HAL_PWREx_EnableOverDrive+0x50>
      return HAL_TIMEOUT;
 8002352:	2003      	movs	r0, #3
 8002354:	e7ea      	b.n	800232c <HAL_PWREx_EnableOverDrive+0x40>
  return HAL_OK;
 8002356:	2000      	movs	r0, #0
 8002358:	e7e8      	b.n	800232c <HAL_PWREx_EnableOverDrive+0x40>
 800235a:	bf00      	nop
 800235c:	40023800 	.word	0x40023800
 8002360:	420e0000 	.word	0x420e0000
 8002364:	40007000 	.word	0x40007000

08002368 <HAL_RCC_ClockConfig>:
HAL_StatusTypeDef HAL_RCC_ClockConfig(const RCC_ClkInitTypeDef  *RCC_ClkInitStruct, uint32_t FLatency)
{
  uint32_t tickstart;

  /* Check Null pointer */
  if (RCC_ClkInitStruct == NULL)
 8002368:	2800      	cmp	r0, #0
 800236a:	f000 809b 	beq.w	80024a4 <HAL_RCC_ClockConfig+0x13c>
{
 800236e:	b570      	push	{r4, r5, r6, lr}
 8002370:	460d      	mov	r5, r1
 8002372:	4604      	mov	r4, r0
  /* To correctly read data from FLASH memory, the number of wait states (LATENCY)
    must be correctly programmed according to the frequency of the CPU clock
    (HCLK) and the supply voltage of the device. */

  /* Increasing the number of wait states because of higher CPU frequency */
  if (FLatency > __HAL_FLASH_GET_LATENCY())
 8002374:	4b4f      	ldr	r3, [pc, #316]	@ (80024b4 <HAL_RCC_ClockConfig+0x14c>)
 8002376:	681b      	ldr	r3, [r3, #0]
 8002378:	f003 030f 	and.w	r3, r3, #15
 800237c:	428b      	cmp	r3, r1
 800237e:	d208      	bcs.n	8002392 <HAL_RCC_ClockConfig+0x2a>
  {
    /* Program the new number of wait states to the LATENCY bits in the FLASH_ACR register */
    __HAL_FLASH_SET_LATENCY(FLatency);
 8002380:	b2cb      	uxtb	r3, r1
 8002382:	4a4c      	ldr	r2, [pc, #304]	@ (80024b4 <HAL_RCC_ClockConfig+0x14c>)
 8002384:	7013      	strb	r3, [r2, #0]

    /* Check that the new number of wait states is taken into account to access the Flash
    memory by reading the FLASH_ACR register */
    if (__HAL_FLASH_GET_LATENCY() != FLatency)
 8002386:	6813      	ldr	r3, [r2, #0]
 8002388:	f003 030f 	and.w	r3, r3, #15
 800238c:	428b      	cmp	r3, r1
 800238e:	f040 808b 	bne.w	80024a8 <HAL_RCC_ClockConfig+0x140>
      return HAL_ERROR;
    }
  }

  /*-------------------------- HCLK Configuration --------------------------*/
  if (((RCC_ClkInitStruct->ClockType) & RCC_CLOCKTYPE_HCLK) == RCC_CLOCKTYPE_HCLK)
 8002392:	6823      	ldr	r3, [r4, #0]
 8002394:	f013 0f02 	tst.w	r3, #2
 8002398:	d017      	beq.n	80023ca <HAL_RCC_ClockConfig+0x62>
  {
    /* Set the highest APBx dividers in order to ensure that we do not go through
       a non-spec phase whatever we decrease or increase HCLK. */
    if (((RCC_ClkInitStruct->ClockType) & RCC_CLOCKTYPE_PCLK1) == RCC_CLOCKTYPE_PCLK1)
 800239a:	f013 0f04 	tst.w	r3, #4
 800239e:	d004      	beq.n	80023aa <HAL_RCC_ClockConfig+0x42>
    {
      MODIFY_REG(RCC->CFGR, RCC_CFGR_PPRE1, RCC_HCLK_DIV16);
 80023a0:	4a45      	ldr	r2, [pc, #276]	@ (80024b8 <HAL_RCC_ClockConfig+0x150>)
 80023a2:	6893      	ldr	r3, [r2, #8]
 80023a4:	f443 53e0 	orr.w	r3, r3, #7168	@ 0x1c00
 80023a8:	6093      	str	r3, [r2, #8]
    }

    if (((RCC_ClkInitStruct->ClockType) & RCC_CLOCKTYPE_PCLK2) == RCC_CLOCKTYPE_PCLK2)
 80023aa:	6823      	ldr	r3, [r4, #0]
 80023ac:	f013 0f08 	tst.w	r3, #8
 80023b0:	d004      	beq.n	80023bc <HAL_RCC_ClockConfig+0x54>
    {
      MODIFY_REG(RCC->CFGR, RCC_CFGR_PPRE2, (RCC_HCLK_DIV16 << 3));
 80023b2:	4a41      	ldr	r2, [pc, #260]	@ (80024b8 <HAL_RCC_ClockConfig+0x150>)
 80023b4:	6893      	ldr	r3, [r2, #8]
 80023b6:	f443 4360 	orr.w	r3, r3, #57344	@ 0xe000
 80023ba:	6093      	str	r3, [r2, #8]
    }

    assert_param(IS_RCC_HCLK(RCC_ClkInitStruct->AHBCLKDivider));
    MODIFY_REG(RCC->CFGR, RCC_CFGR_HPRE, RCC_ClkInitStruct->AHBCLKDivider);
 80023bc:	4a3e      	ldr	r2, [pc, #248]	@ (80024b8 <HAL_RCC_ClockConfig+0x150>)
 80023be:	6893      	ldr	r3, [r2, #8]
 80023c0:	f023 03f0 	bic.w	r3, r3, #240	@ 0xf0
 80023c4:	68a1      	ldr	r1, [r4, #8]
 80023c6:	430b      	orrs	r3, r1
 80023c8:	6093      	str	r3, [r2, #8]
  }

  /*------------------------- SYSCLK Configuration ---------------------------*/
  if (((RCC_ClkInitStruct->ClockType) & RCC_CLOCKTYPE_SYSCLK) == RCC_CLOCKTYPE_SYSCLK)
 80023ca:	6823      	ldr	r3, [r4, #0]
 80023cc:	f013 0f01 	tst.w	r3, #1
 80023d0:	d032      	beq.n	8002438 <HAL_RCC_ClockConfig+0xd0>
  {
    assert_param(IS_RCC_SYSCLKSOURCE(RCC_ClkInitStruct->SYSCLKSource));

    /* HSE is selected as System Clock Source */
    if (RCC_ClkInitStruct->SYSCLKSource == RCC_SYSCLKSOURCE_HSE)
 80023d2:	6863      	ldr	r3, [r4, #4]
 80023d4:	2b01      	cmp	r3, #1
 80023d6:	d021      	beq.n	800241c <HAL_RCC_ClockConfig+0xb4>
      {
        return HAL_ERROR;
      }
    }
    /* PLL is selected as System Clock Source */
    else if ((RCC_ClkInitStruct->SYSCLKSource == RCC_SYSCLKSOURCE_PLLCLK)   ||
 80023d8:	1e9a      	subs	r2, r3, #2
 80023da:	2a01      	cmp	r2, #1
 80023dc:	d925      	bls.n	800242a <HAL_RCC_ClockConfig+0xc2>
    }
    /* HSI is selected as System Clock Source */
    else
    {
      /* Check the HSI ready flag */
      if (__HAL_RCC_GET_FLAG(RCC_FLAG_HSIRDY) == RESET)
 80023de:	4a36      	ldr	r2, [pc, #216]	@ (80024b8 <HAL_RCC_ClockConfig+0x150>)
 80023e0:	6812      	ldr	r2, [r2, #0]
 80023e2:	f012 0f02 	tst.w	r2, #2
 80023e6:	d061      	beq.n	80024ac <HAL_RCC_ClockConfig+0x144>
      {
        return HAL_ERROR;
      }
    }

    __HAL_RCC_SYSCLK_CONFIG(RCC_ClkInitStruct->SYSCLKSource);
 80023e8:	4933      	ldr	r1, [pc, #204]	@ (80024b8 <HAL_RCC_ClockConfig+0x150>)
 80023ea:	688a      	ldr	r2, [r1, #8]
 80023ec:	f022 0203 	bic.w	r2, r2, #3
 80023f0:	4313      	orrs	r3, r2
 80023f2:	608b      	str	r3, [r1, #8]

    /* Get Start Tick */
    tickstart = HAL_GetTick();
 80023f4:	f7fe ff96 	bl	8001324 <HAL_GetTick>
 80023f8:	4606      	mov	r6, r0

    while (__HAL_RCC_GET_SYSCLK_SOURCE() != (RCC_ClkInitStruct->SYSCLKSource << RCC_CFGR_SWS_Pos))
 80023fa:	4b2f      	ldr	r3, [pc, #188]	@ (80024b8 <HAL_RCC_ClockConfig+0x150>)
 80023fc:	689b      	ldr	r3, [r3, #8]
 80023fe:	f003 030c 	and.w	r3, r3, #12
 8002402:	6862      	ldr	r2, [r4, #4]
 8002404:	ebb3 0f82 	cmp.w	r3, r2, lsl #2
 8002408:	d016      	beq.n	8002438 <HAL_RCC_ClockConfig+0xd0>
    {
      if ((HAL_GetTick() - tickstart) > CLOCKSWITCH_TIMEOUT_VALUE)
 800240a:	f7fe ff8b 	bl	8001324 <HAL_GetTick>
 800240e:	1b80      	subs	r0, r0, r6
 8002410:	f241 3388 	movw	r3, #5000	@ 0x1388
 8002414:	4298      	cmp	r0, r3
 8002416:	d9f0      	bls.n	80023fa <HAL_RCC_ClockConfig+0x92>
      {
        return HAL_TIMEOUT;
 8002418:	2003      	movs	r0, #3
 800241a:	e042      	b.n	80024a2 <HAL_RCC_ClockConfig+0x13a>
      if (__HAL_RCC_GET_FLAG(RCC_FLAG_HSERDY) == RESET)
 800241c:	4a26      	ldr	r2, [pc, #152]	@ (80024b8 <HAL_RCC_ClockConfig+0x150>)
 800241e:	6812      	ldr	r2, [r2, #0]
 8002420:	f412 3f00 	tst.w	r2, #131072	@ 0x20000
 8002424:	d1e0      	bne.n	80023e8 <HAL_RCC_ClockConfig+0x80>
        return HAL_ERROR;
 8002426:	2001      	movs	r0, #1
 8002428:	e03b      	b.n	80024a2 <HAL_RCC_ClockConfig+0x13a>
      if (__HAL_RCC_GET_FLAG(RCC_FLAG_PLLRDY) == RESET)
 800242a:	4a23      	ldr	r2, [pc, #140]	@ (80024b8 <HAL_RCC_ClockConfig+0x150>)
 800242c:	6812      	ldr	r2, [r2, #0]
 800242e:	f012 7f00 	tst.w	r2, #33554432	@ 0x2000000
 8002432:	d1d9      	bne.n	80023e8 <HAL_RCC_ClockConfig+0x80>
        return HAL_ERROR;
 8002434:	2001      	movs	r0, #1
 8002436:	e034      	b.n	80024a2 <HAL_RCC_ClockConfig+0x13a>
      }
    }
  }

  /* Decreasing the number of wait states because of lower CPU frequency */
  if (FLatency < __HAL_FLASH_GET_LATENCY())
 8002438:	4b1e      	ldr	r3, [pc, #120]	@ (80024b4 <HAL_RCC_ClockConfig+0x14c>)
 800243a:	681b      	ldr	r3, [r3, #0]
 800243c:	f003 030f 	and.w	r3, r3, #15
 8002440:	42ab      	cmp	r3, r5
 8002442:	d907      	bls.n	8002454 <HAL_RCC_ClockConfig+0xec>
  {
    /* Program the new number of wait states to the LATENCY bits in the FLASH_ACR register */
    __HAL_FLASH_SET_LATENCY(FLatency);
 8002444:	b2ea      	uxtb	r2, r5
 8002446:	4b1b      	ldr	r3, [pc, #108]	@ (80024b4 <HAL_RCC_ClockConfig+0x14c>)
 8002448:	701a      	strb	r2, [r3, #0]

    /* Check that the new number of wait states is taken into account to access the Flash
    memory by reading the FLASH_ACR register */
    if (__HAL_FLASH_GET_LATENCY() != FLatency)
 800244a:	681b      	ldr	r3, [r3, #0]
 800244c:	f003 030f 	and.w	r3, r3, #15
 8002450:	42ab      	cmp	r3, r5
 8002452:	d12d      	bne.n	80024b0 <HAL_RCC_ClockConfig+0x148>
      return HAL_ERROR;
    }
  }

  /*-------------------------- PCLK1 Configuration ---------------------------*/
  if (((RCC_ClkInitStruct->ClockType) & RCC_CLOCKTYPE_PCLK1) == RCC_CLOCKTYPE_PCLK1)
 8002454:	6823      	ldr	r3, [r4, #0]
 8002456:	f013 0f04 	tst.w	r3, #4
 800245a:	d006      	beq.n	800246a <HAL_RCC_ClockConfig+0x102>
  {
    assert_param(IS_RCC_PCLK(RCC_ClkInitStruct->APB1CLKDivider));
    MODIFY_REG(RCC->CFGR, RCC_CFGR_PPRE1, RCC_ClkInitStruct->APB1CLKDivider);
 800245c:	4a16      	ldr	r2, [pc, #88]	@ (80024b8 <HAL_RCC_ClockConfig+0x150>)
 800245e:	6893      	ldr	r3, [r2, #8]
 8002460:	f423 53e0 	bic.w	r3, r3, #7168	@ 0x1c00
 8002464:	68e1      	ldr	r1, [r4, #12]
 8002466:	430b      	orrs	r3, r1
 8002468:	6093      	str	r3, [r2, #8]
  }

  /*-------------------------- PCLK2 Configuration ---------------------------*/
  if (((RCC_ClkInitStruct->ClockType) & RCC_CLOCKTYPE_PCLK2) == RCC_CLOCKTYPE_PCLK2)
 800246a:	6823      	ldr	r3, [r4, #0]
 800246c:	f013 0f08 	tst.w	r3, #8
 8002470:	d007      	beq.n	8002482 <HAL_RCC_ClockConfig+0x11a>
  {
    assert_param(IS_RCC_PCLK(RCC_ClkInitStruct->APB2CLKDivider));
    MODIFY_REG(RCC->CFGR, RCC_CFGR_PPRE2, ((RCC_ClkInitStruct->APB2CLKDivider) << 3U));
 8002472:	4a11      	ldr	r2, [pc, #68]	@ (80024b8 <HAL_RCC_ClockConfig+0x150>)
 8002474:	6893      	ldr	r3, [r2, #8]
 8002476:	f423 4360 	bic.w	r3, r3, #57344	@ 0xe000
 800247a:	6921      	ldr	r1, [r4, #16]
 800247c:	ea43 03c1 	orr.w	r3, r3, r1, lsl #3
 8002480:	6093      	str	r3, [r2, #8]
  }

  /* Update the SystemCoreClock global variable */
  SystemCoreClock = HAL_RCC_GetSysClockFreq() >> AHBPrescTable[(RCC->CFGR & RCC_CFGR_HPRE) >> RCC_CFGR_HPRE_Pos];
 8002482:	f000 f847 	bl	8002514 <HAL_RCC_GetSysClockFreq>
 8002486:	4b0c      	ldr	r3, [pc, #48]	@ (80024b8 <HAL_RCC_ClockConfig+0x150>)
 8002488:	689b      	ldr	r3, [r3, #8]
 800248a:	f3c3 1303 	ubfx	r3, r3, #4, #4
 800248e:	4a0b      	ldr	r2, [pc, #44]	@ (80024bc <HAL_RCC_ClockConfig+0x154>)
 8002490:	5cd3      	ldrb	r3, [r2, r3]
 8002492:	40d8      	lsrs	r0, r3
 8002494:	4b0a      	ldr	r3, [pc, #40]	@ (80024c0 <HAL_RCC_ClockConfig+0x158>)
 8002496:	6018      	str	r0, [r3, #0]

  /* Configure the source of time base considering new system clocks settings */
  HAL_InitTick(uwTickPrio);
 8002498:	4b0a      	ldr	r3, [pc, #40]	@ (80024c4 <HAL_RCC_ClockConfig+0x15c>)
 800249a:	6818      	ldr	r0, [r3, #0]
 800249c:	f7fe fef6 	bl	800128c <HAL_InitTick>

  return HAL_OK;
 80024a0:	2000      	movs	r0, #0
}
 80024a2:	bd70      	pop	{r4, r5, r6, pc}
    return HAL_ERROR;
 80024a4:	2001      	movs	r0, #1
}
 80024a6:	4770      	bx	lr
      return HAL_ERROR;
 80024a8:	2001      	movs	r0, #1
 80024aa:	e7fa      	b.n	80024a2 <HAL_RCC_ClockConfig+0x13a>
        return HAL_ERROR;
 80024ac:	2001      	movs	r0, #1
 80024ae:	e7f8      	b.n	80024a2 <HAL_RCC_ClockConfig+0x13a>
      return HAL_ERROR;
 80024b0:	2001      	movs	r0, #1
 80024b2:	e7f6      	b.n	80024a2 <HAL_RCC_ClockConfig+0x13a>
 80024b4:	40023c00 	.word	0x40023c00
 80024b8:	40023800 	.word	0x40023800
 80024bc:	080033dc 	.word	0x080033dc
 80024c0:	200000c0 	.word	0x200000c0
 80024c4:	200000c8 	.word	0x200000c8

080024c8 <HAL_RCC_GetHCLKFreq>:
  * @retval HCLK frequency
  */
uint32_t HAL_RCC_GetHCLKFreq(void)
{
  return SystemCoreClock;
}
 80024c8:	4b01      	ldr	r3, [pc, #4]	@ (80024d0 <HAL_RCC_GetHCLKFreq+0x8>)
 80024ca:	6818      	ldr	r0, [r3, #0]
 80024cc:	4770      	bx	lr
 80024ce:	bf00      	nop
 80024d0:	200000c0 	.word	0x200000c0

080024d4 <HAL_RCC_GetPCLK1Freq>:
  * @note   Each time PCLK1 changes, this function must be called to update the
  *         right PCLK1 value. Otherwise, any configuration based on this function will be incorrect.
  * @retval PCLK1 frequency
  */
uint32_t HAL_RCC_GetPCLK1Freq(void)
{
 80024d4:	b508      	push	{r3, lr}
  /* Get HCLK source and Compute PCLK1 frequency ---------------------------*/
  return (HAL_RCC_GetHCLKFreq() >> APBPrescTable[(RCC->CFGR & RCC_CFGR_PPRE1) >> RCC_CFGR_PPRE1_Pos]);
 80024d6:	f7ff fff7 	bl	80024c8 <HAL_RCC_GetHCLKFreq>
 80024da:	4b04      	ldr	r3, [pc, #16]	@ (80024ec <HAL_RCC_GetPCLK1Freq+0x18>)
 80024dc:	689b      	ldr	r3, [r3, #8]
 80024de:	f3c3 2382 	ubfx	r3, r3, #10, #3
 80024e2:	4a03      	ldr	r2, [pc, #12]	@ (80024f0 <HAL_RCC_GetPCLK1Freq+0x1c>)
 80024e4:	5cd3      	ldrb	r3, [r2, r3]
}
 80024e6:	40d8      	lsrs	r0, r3
 80024e8:	bd08      	pop	{r3, pc}
 80024ea:	bf00      	nop
 80024ec:	40023800 	.word	0x40023800
 80024f0:	080033d4 	.word	0x080033d4

080024f4 <HAL_RCC_GetPCLK2Freq>:
  * @note   Each time PCLK2 changes, this function must be called to update the
  *         right PCLK2 value. Otherwise, any configuration based on this function will be incorrect.
  * @retval PCLK2 frequency
  */
uint32_t HAL_RCC_GetPCLK2Freq(void)
{
 80024f4:	b508      	push	{r3, lr}
  /* Get HCLK source and Compute PCLK2 frequency ---------------------------*/
  return (HAL_RCC_GetHCLKFreq() >> APBPrescTable[(RCC->CFGR & RCC_CFGR_PPRE2) >> RCC_CFGR_PPRE2_Pos]);
 80024f6:	f7ff ffe7 	bl	80024c8 <HAL_RCC_GetHCLKFreq>
 80024fa:	4b04      	ldr	r3, [pc, #16]	@ (800250c <HAL_RCC_GetPCLK2Freq+0x18>)
 80024fc:	689b      	ldr	r3, [r3, #8]
 80024fe:	f3c3 3342 	ubfx	r3, r3, #13, #3
 8002502:	4a03      	ldr	r2, [pc, #12]	@ (8002510 <HAL_RCC_GetPCLK2Freq+0x1c>)
 8002504:	5cd3      	ldrb	r3, [r2, r3]
}
 8002506:	40d8      	lsrs	r0, r3
 8002508:	bd08      	pop	{r3, pc}
 800250a:	bf00      	nop
 800250c:	40023800 	.word	0x40023800
 8002510:	080033d4 	.word	0x080033d4

08002514 <HAL_RCC_GetSysClockFreq>:
  *
  *
  * @retval SYSCLK frequency
  */
uint32_t HAL_RCC_GetSysClockFreq(void)
{
 8002514:	b508      	push	{r3, lr}
  uint32_t pllp = 0U;
  uint32_t pllr = 0U;
  uint32_t sysclockfreq = 0U;

  /* Get SYSCLK source -------------------------------------------------------*/
  switch (RCC->CFGR & RCC_CFGR_SWS)
 8002516:	4b46      	ldr	r3, [pc, #280]	@ (8002630 <HAL_RCC_GetSysClockFreq+0x11c>)
 8002518:	689b      	ldr	r3, [r3, #8]
 800251a:	f003 030c 	and.w	r3, r3, #12
 800251e:	2b08      	cmp	r3, #8
 8002520:	d007      	beq.n	8002532 <HAL_RCC_GetSysClockFreq+0x1e>
 8002522:	2b0c      	cmp	r3, #12
 8002524:	d045      	beq.n	80025b2 <HAL_RCC_GetSysClockFreq+0x9e>
 8002526:	2b04      	cmp	r3, #4
 8002528:	d001      	beq.n	800252e <HAL_RCC_GetSysClockFreq+0x1a>
 800252a:	4842      	ldr	r0, [pc, #264]	@ (8002634 <HAL_RCC_GetSysClockFreq+0x120>)
      sysclockfreq = HSI_VALUE;
      break;
    }
  }
  return sysclockfreq;
}
 800252c:	bd08      	pop	{r3, pc}
      sysclockfreq = HSE_VALUE;
 800252e:	4842      	ldr	r0, [pc, #264]	@ (8002638 <HAL_RCC_GetSysClockFreq+0x124>)
 8002530:	e7fc      	b.n	800252c <HAL_RCC_GetSysClockFreq+0x18>
      pllm = RCC->PLLCFGR & RCC_PLLCFGR_PLLM;
 8002532:	4b3f      	ldr	r3, [pc, #252]	@ (8002630 <HAL_RCC_GetSysClockFreq+0x11c>)
 8002534:	685a      	ldr	r2, [r3, #4]
 8002536:	f002 023f 	and.w	r2, r2, #63	@ 0x3f
      if (__HAL_RCC_GET_PLL_OSCSOURCE() != RCC_PLLSOURCE_HSI)
 800253a:	685b      	ldr	r3, [r3, #4]
 800253c:	f413 0f80 	tst.w	r3, #4194304	@ 0x400000
 8002540:	d012      	beq.n	8002568 <HAL_RCC_GetSysClockFreq+0x54>
        pllvco = (uint32_t)((((uint64_t) HSE_VALUE * ((uint64_t)((RCC->PLLCFGR & RCC_PLLCFGR_PLLN) >> RCC_PLLCFGR_PLLN_Pos)))) / (uint64_t)pllm);
 8002542:	4b3b      	ldr	r3, [pc, #236]	@ (8002630 <HAL_RCC_GetSysClockFreq+0x11c>)
 8002544:	6859      	ldr	r1, [r3, #4]
 8002546:	f3c1 1188 	ubfx	r1, r1, #6, #9
 800254a:	483b      	ldr	r0, [pc, #236]	@ (8002638 <HAL_RCC_GetSysClockFreq+0x124>)
 800254c:	2300      	movs	r3, #0
 800254e:	fba1 0100 	umull	r0, r1, r1, r0
 8002552:	f7fd fe85 	bl	8000260 <__aeabi_uldivmod>
      pllp = ((((RCC->PLLCFGR & RCC_PLLCFGR_PLLP) >> RCC_PLLCFGR_PLLP_Pos) + 1U) * 2U);
 8002556:	4b36      	ldr	r3, [pc, #216]	@ (8002630 <HAL_RCC_GetSysClockFreq+0x11c>)
 8002558:	685b      	ldr	r3, [r3, #4]
 800255a:	f3c3 4301 	ubfx	r3, r3, #16, #2
 800255e:	3301      	adds	r3, #1
 8002560:	005b      	lsls	r3, r3, #1
      sysclockfreq = pllvco / pllp;
 8002562:	fbb0 f0f3 	udiv	r0, r0, r3
      break;
 8002566:	e7e1      	b.n	800252c <HAL_RCC_GetSysClockFreq+0x18>
        pllvco = (uint32_t)((((uint64_t) HSI_VALUE * ((uint64_t)((RCC->PLLCFGR & RCC_PLLCFGR_PLLN) >> RCC_PLLCFGR_PLLN_Pos)))) / (uint64_t)pllm);
 8002568:	4b31      	ldr	r3, [pc, #196]	@ (8002630 <HAL_RCC_GetSysClockFreq+0x11c>)
 800256a:	6858      	ldr	r0, [r3, #4]
 800256c:	f3c0 1088 	ubfx	r0, r0, #6, #9
 8002570:	ea4f 1c40 	mov.w	ip, r0, lsl #5
 8002574:	ebbc 0c00 	subs.w	ip, ip, r0
 8002578:	eb6e 0e0e 	sbc.w	lr, lr, lr
 800257c:	ea4f 138e 	mov.w	r3, lr, lsl #6
 8002580:	ea43 639c 	orr.w	r3, r3, ip, lsr #26
 8002584:	ea4f 118c 	mov.w	r1, ip, lsl #6
 8002588:	ebb1 010c 	subs.w	r1, r1, ip
 800258c:	eb63 030e 	sbc.w	r3, r3, lr
 8002590:	00db      	lsls	r3, r3, #3
 8002592:	ea43 7351 	orr.w	r3, r3, r1, lsr #29
 8002596:	00c9      	lsls	r1, r1, #3
 8002598:	eb11 0c00 	adds.w	ip, r1, r0
 800259c:	f143 0300 	adc.w	r3, r3, #0
 80025a0:	0299      	lsls	r1, r3, #10
 80025a2:	2300      	movs	r3, #0
 80025a4:	ea4f 208c 	mov.w	r0, ip, lsl #10
 80025a8:	ea41 519c 	orr.w	r1, r1, ip, lsr #22
 80025ac:	f7fd fe58 	bl	8000260 <__aeabi_uldivmod>
 80025b0:	e7d1      	b.n	8002556 <HAL_RCC_GetSysClockFreq+0x42>
      pllm = RCC->PLLCFGR & RCC_PLLCFGR_PLLM;
 80025b2:	4b1f      	ldr	r3, [pc, #124]	@ (8002630 <HAL_RCC_GetSysClockFreq+0x11c>)
 80025b4:	685a      	ldr	r2, [r3, #4]
 80025b6:	f002 023f 	and.w	r2, r2, #63	@ 0x3f
      if (__HAL_RCC_GET_PLL_OSCSOURCE() != RCC_PLLSOURCE_HSI)
 80025ba:	685b      	ldr	r3, [r3, #4]
 80025bc:	f413 0f80 	tst.w	r3, #4194304	@ 0x400000
 80025c0:	d010      	beq.n	80025e4 <HAL_RCC_GetSysClockFreq+0xd0>
        pllvco = (uint32_t)((((uint64_t) HSE_VALUE * ((uint64_t)((RCC->PLLCFGR & RCC_PLLCFGR_PLLN) >> RCC_PLLCFGR_PLLN_Pos)))) / (uint64_t)pllm);
 80025c2:	4b1b      	ldr	r3, [pc, #108]	@ (8002630 <HAL_RCC_GetSysClockFreq+0x11c>)
 80025c4:	6859      	ldr	r1, [r3, #4]
 80025c6:	f3c1 1188 	ubfx	r1, r1, #6, #9
 80025ca:	481b      	ldr	r0, [pc, #108]	@ (8002638 <HAL_RCC_GetSysClockFreq+0x124>)
 80025cc:	2300      	movs	r3, #0
 80025ce:	fba1 0100 	umull	r0, r1, r1, r0
 80025d2:	f7fd fe45 	bl	8000260 <__aeabi_uldivmod>
      pllr = ((RCC->PLLCFGR & RCC_PLLCFGR_PLLR) >> RCC_PLLCFGR_PLLR_Pos);
 80025d6:	4b16      	ldr	r3, [pc, #88]	@ (8002630 <HAL_RCC_GetSysClockFreq+0x11c>)
 80025d8:	685b      	ldr	r3, [r3, #4]
 80025da:	f3c3 7302 	ubfx	r3, r3, #28, #3
      sysclockfreq = pllvco / pllr;
 80025de:	fbb0 f0f3 	udiv	r0, r0, r3
      break;
 80025e2:	e7a3      	b.n	800252c <HAL_RCC_GetSysClockFreq+0x18>
        pllvco = (uint32_t)((((uint64_t) HSI_VALUE * ((uint64_t)((RCC->PLLCFGR & RCC_PLLCFGR_PLLN) >> RCC_PLLCFGR_PLLN_Pos)))) / (uint64_t)pllm);
 80025e4:	4b12      	ldr	r3, [pc, #72]	@ (8002630 <HAL_RCC_GetSysClockFreq+0x11c>)
 80025e6:	6858      	ldr	r0, [r3, #4]
 80025e8:	f3c0 1088 	ubfx	r0, r0, #6, #9
 80025ec:	ea4f 1c40 	mov.w	ip, r0, lsl #5
 80025f0:	ebbc 0c00 	subs.w	ip, ip, r0
 80025f4:	eb6e 0e0e 	sbc.w	lr, lr, lr
 80025f8:	ea4f 138e 	mov.w	r3, lr, lsl #6
 80025fc:	ea43 639c 	orr.w	r3, r3, ip, lsr #26
 8002600:	ea4f 118c 	mov.w	r1, ip, lsl #6
 8002604:	ebb1 010c 	subs.w	r1, r1, ip
 8002608:	eb63 030e 	sbc.w	r3, r3, lr
 800260c:	00db      	lsls	r3, r3, #3
 800260e:	ea43 7351 	orr.w	r3, r3, r1, lsr #29
 8002612:	00c9      	lsls	r1, r1, #3
 8002614:	eb11 0c00 	adds.w	ip, r1, r0
 8002618:	f143 0300 	adc.w	r3, r3, #0
 800261c:	0299      	lsls	r1, r3, #10
 800261e:	2300      	movs	r3, #0
 8002620:	ea4f 208c 	mov.w	r0, ip, lsl #10
 8002624:	ea41 519c 	orr.w	r1, r1, ip, lsr #22
 8002628:	f7fd fe1a 	bl	8000260 <__aeabi_uldivmod>
 800262c:	e7d3      	b.n	80025d6 <HAL_RCC_GetSysClockFreq+0xc2>
 800262e:	bf00      	nop
 8002630:	40023800 	.word	0x40023800
 8002634:	00f42400 	.word	0x00f42400
 8002638:	017d7840 	.word	0x017d7840

0800263c <HAL_RCC_DeInit>:
  *            - Peripheral clocks
  *            - LSI, LSE and RTC clocks
  * @retval HAL status
  */
HAL_StatusTypeDef HAL_RCC_DeInit(void)
{
 800263c:	b538      	push	{r3, r4, r5, lr}
  uint32_t tickstart;

  /* Get Start Tick */
  tickstart = HAL_GetTick();
 800263e:	f7fe fe71 	bl	8001324 <HAL_GetTick>
 8002642:	4604      	mov	r4, r0

  /* Set HSION bit to the reset value */
  SET_BIT(RCC->CR, RCC_CR_HSION);
 8002644:	4a56      	ldr	r2, [pc, #344]	@ (80027a0 <HAL_RCC_DeInit+0x164>)
 8002646:	6813      	ldr	r3, [r2, #0]
 8002648:	f043 0301 	orr.w	r3, r3, #1
 800264c:	6013      	str	r3, [r2, #0]

  /* Wait till HSI is ready */
  while (READ_BIT(RCC->CR, RCC_CR_HSIRDY) == RESET)
 800264e:	4b54      	ldr	r3, [pc, #336]	@ (80027a0 <HAL_RCC_DeInit+0x164>)
 8002650:	681b      	ldr	r3, [r3, #0]
 8002652:	f013 0f02 	tst.w	r3, #2
 8002656:	d106      	bne.n	8002666 <HAL_RCC_DeInit+0x2a>
  {
    if ((HAL_GetTick() - tickstart) > HSI_TIMEOUT_VALUE)
 8002658:	f7fe fe64 	bl	8001324 <HAL_GetTick>
 800265c:	1b00      	subs	r0, r0, r4
 800265e:	2802      	cmp	r0, #2
 8002660:	d9f5      	bls.n	800264e <HAL_RCC_DeInit+0x12>
    {
      return HAL_TIMEOUT;
 8002662:	2003      	movs	r0, #3
  }
  else
  {
    return HAL_OK;
  }
}
 8002664:	bd38      	pop	{r3, r4, r5, pc}
  SET_BIT(RCC->CR, RCC_CR_HSITRIM_4);
 8002666:	4d4e      	ldr	r5, [pc, #312]	@ (80027a0 <HAL_RCC_DeInit+0x164>)
 8002668:	682b      	ldr	r3, [r5, #0]
 800266a:	f043 0380 	orr.w	r3, r3, #128	@ 0x80
 800266e:	602b      	str	r3, [r5, #0]
  tickstart = HAL_GetTick();
 8002670:	f7fe fe58 	bl	8001324 <HAL_GetTick>
 8002674:	4604      	mov	r4, r0
  CLEAR_REG(RCC->CFGR);
 8002676:	2300      	movs	r3, #0
 8002678:	60ab      	str	r3, [r5, #8]
  while (READ_BIT(RCC->CFGR, RCC_CFGR_SWS) != RESET)
 800267a:	4b49      	ldr	r3, [pc, #292]	@ (80027a0 <HAL_RCC_DeInit+0x164>)
 800267c:	689b      	ldr	r3, [r3, #8]
 800267e:	f013 0f0c 	tst.w	r3, #12
 8002682:	d008      	beq.n	8002696 <HAL_RCC_DeInit+0x5a>
    if ((HAL_GetTick() - tickstart) > CLOCKSWITCH_TIMEOUT_VALUE)
 8002684:	f7fe fe4e 	bl	8001324 <HAL_GetTick>
 8002688:	1b00      	subs	r0, r0, r4
 800268a:	f241 3388 	movw	r3, #5000	@ 0x1388
 800268e:	4298      	cmp	r0, r3
 8002690:	d9f3      	bls.n	800267a <HAL_RCC_DeInit+0x3e>
      return HAL_TIMEOUT;
 8002692:	2003      	movs	r0, #3
 8002694:	e7e6      	b.n	8002664 <HAL_RCC_DeInit+0x28>
  tickstart = HAL_GetTick();
 8002696:	f7fe fe45 	bl	8001324 <HAL_GetTick>
 800269a:	4604      	mov	r4, r0
  CLEAR_BIT(RCC->CR, RCC_CR_HSEON | RCC_CR_HSEBYP | RCC_CR_CSSON);
 800269c:	4a40      	ldr	r2, [pc, #256]	@ (80027a0 <HAL_RCC_DeInit+0x164>)
 800269e:	6813      	ldr	r3, [r2, #0]
 80026a0:	f423 2350 	bic.w	r3, r3, #851968	@ 0xd0000
 80026a4:	6013      	str	r3, [r2, #0]
  while (READ_BIT(RCC->CR, RCC_CR_HSERDY) != RESET)
 80026a6:	4b3e      	ldr	r3, [pc, #248]	@ (80027a0 <HAL_RCC_DeInit+0x164>)
 80026a8:	681b      	ldr	r3, [r3, #0]
 80026aa:	f413 3f00 	tst.w	r3, #131072	@ 0x20000
 80026ae:	d006      	beq.n	80026be <HAL_RCC_DeInit+0x82>
    if ((HAL_GetTick() - tickstart) > HSE_TIMEOUT_VALUE)
 80026b0:	f7fe fe38 	bl	8001324 <HAL_GetTick>
 80026b4:	1b00      	subs	r0, r0, r4
 80026b6:	2864      	cmp	r0, #100	@ 0x64
 80026b8:	d9f5      	bls.n	80026a6 <HAL_RCC_DeInit+0x6a>
      return HAL_TIMEOUT;
 80026ba:	2003      	movs	r0, #3
 80026bc:	e7d2      	b.n	8002664 <HAL_RCC_DeInit+0x28>
  tickstart = HAL_GetTick();
 80026be:	f7fe fe31 	bl	8001324 <HAL_GetTick>
 80026c2:	4604      	mov	r4, r0
  CLEAR_BIT(RCC->CR, RCC_CR_PLLON);
 80026c4:	4a36      	ldr	r2, [pc, #216]	@ (80027a0 <HAL_RCC_DeInit+0x164>)
 80026c6:	6813      	ldr	r3, [r2, #0]
 80026c8:	f023 7380 	bic.w	r3, r3, #16777216	@ 0x1000000
 80026cc:	6013      	str	r3, [r2, #0]
  while (READ_BIT(RCC->CR, RCC_CR_PLLRDY) != RESET)
 80026ce:	4b34      	ldr	r3, [pc, #208]	@ (80027a0 <HAL_RCC_DeInit+0x164>)
 80026d0:	681b      	ldr	r3, [r3, #0]
 80026d2:	f013 7f00 	tst.w	r3, #33554432	@ 0x2000000
 80026d6:	d006      	beq.n	80026e6 <HAL_RCC_DeInit+0xaa>
    if ((HAL_GetTick() - tickstart) > PLL_TIMEOUT_VALUE)
 80026d8:	f7fe fe24 	bl	8001324 <HAL_GetTick>
 80026dc:	1b00      	subs	r0, r0, r4
 80026de:	2802      	cmp	r0, #2
 80026e0:	d9f5      	bls.n	80026ce <HAL_RCC_DeInit+0x92>
      return HAL_TIMEOUT;
 80026e2:	2003      	movs	r0, #3
 80026e4:	e7be      	b.n	8002664 <HAL_RCC_DeInit+0x28>
  tickstart = HAL_GetTick();
 80026e6:	f7fe fe1d 	bl	8001324 <HAL_GetTick>
 80026ea:	4604      	mov	r4, r0
  CLEAR_BIT(RCC->CR, RCC_CR_PLLI2SON);
 80026ec:	4a2c      	ldr	r2, [pc, #176]	@ (80027a0 <HAL_RCC_DeInit+0x164>)
 80026ee:	6813      	ldr	r3, [r2, #0]
 80026f0:	f023 6380 	bic.w	r3, r3, #67108864	@ 0x4000000
 80026f4:	6013      	str	r3, [r2, #0]
  while (READ_BIT(RCC->CR, RCC_CR_PLLI2SRDY) != RESET)
 80026f6:	4b2a      	ldr	r3, [pc, #168]	@ (80027a0 <HAL_RCC_DeInit+0x164>)
 80026f8:	681b      	ldr	r3, [r3, #0]
 80026fa:	f013 6f00 	tst.w	r3, #134217728	@ 0x8000000
 80026fe:	d006      	beq.n	800270e <HAL_RCC_DeInit+0xd2>
    if ((HAL_GetTick() - tickstart) > PLLI2S_TIMEOUT_VALUE)
 8002700:	f7fe fe10 	bl	8001324 <HAL_GetTick>
 8002704:	1b00      	subs	r0, r0, r4
 8002706:	2802      	cmp	r0, #2
 8002708:	d9f5      	bls.n	80026f6 <HAL_RCC_DeInit+0xba>
      return HAL_TIMEOUT;
 800270a:	2003      	movs	r0, #3
 800270c:	e7aa      	b.n	8002664 <HAL_RCC_DeInit+0x28>
  tickstart = HAL_GetTick();
 800270e:	f7fe fe09 	bl	8001324 <HAL_GetTick>
 8002712:	4604      	mov	r4, r0
  CLEAR_BIT(RCC->CR, RCC_CR_PLLSAION);
 8002714:	4a22      	ldr	r2, [pc, #136]	@ (80027a0 <HAL_RCC_DeInit+0x164>)
 8002716:	6813      	ldr	r3, [r2, #0]
 8002718:	f023 5380 	bic.w	r3, r3, #268435456	@ 0x10000000
 800271c:	6013      	str	r3, [r2, #0]
  while (READ_BIT(RCC->CR, RCC_CR_PLLSAIRDY) != RESET)
 800271e:	4b20      	ldr	r3, [pc, #128]	@ (80027a0 <HAL_RCC_DeInit+0x164>)
 8002720:	681b      	ldr	r3, [r3, #0]
 8002722:	f013 5f00 	tst.w	r3, #536870912	@ 0x20000000
 8002726:	d006      	beq.n	8002736 <HAL_RCC_DeInit+0xfa>
    if ((HAL_GetTick() - tickstart) > PLLSAI_TIMEOUT_VALUE)
 8002728:	f7fe fdfc 	bl	8001324 <HAL_GetTick>
 800272c:	1b00      	subs	r0, r0, r4
 800272e:	2802      	cmp	r0, #2
 8002730:	d9f5      	bls.n	800271e <HAL_RCC_DeInit+0xe2>
      return HAL_TIMEOUT;
 8002732:	2003      	movs	r0, #3
 8002734:	e796      	b.n	8002664 <HAL_RCC_DeInit+0x28>
  RCC->PLLCFGR = RCC_PLLCFGR_PLLM_4 | RCC_PLLCFGR_PLLN_6 | RCC_PLLCFGR_PLLN_7 | RCC_PLLCFGR_PLLQ_2 | RCC_PLLCFGR_PLLR_1;
 8002736:	4b1a      	ldr	r3, [pc, #104]	@ (80027a0 <HAL_RCC_DeInit+0x164>)
 8002738:	4a1a      	ldr	r2, [pc, #104]	@ (80027a4 <HAL_RCC_DeInit+0x168>)
 800273a:	605a      	str	r2, [r3, #4]
  RCC->PLLI2SCFGR = RCC_PLLI2SCFGR_PLLI2SM_4 | RCC_PLLI2SCFGR_PLLI2SN_6 | RCC_PLLI2SCFGR_PLLI2SN_7 | RCC_PLLI2SCFGR_PLLI2SQ_2 | RCC_PLLI2SCFGR_PLLI2SR_1;
 800273c:	f8c3 2084 	str.w	r2, [r3, #132]	@ 0x84
  RCC->PLLSAICFGR = RCC_PLLSAICFGR_PLLSAIM_4 | RCC_PLLSAICFGR_PLLSAIN_6 | RCC_PLLSAICFGR_PLLSAIN_7 | RCC_PLLSAICFGR_PLLSAIQ_2;
 8002740:	f102 4260 	add.w	r2, r2, #3758096384	@ 0xe0000000
 8002744:	f8c3 2088 	str.w	r2, [r3, #136]	@ 0x88
  CLEAR_BIT(RCC->CIR, RCC_CIR_LSIRDYIE | RCC_CIR_LSERDYIE | RCC_CIR_HSIRDYIE | RCC_CIR_HSERDYIE | RCC_CIR_PLLRDYIE);
 8002748:	68da      	ldr	r2, [r3, #12]
 800274a:	f422 52f8 	bic.w	r2, r2, #7936	@ 0x1f00
 800274e:	60da      	str	r2, [r3, #12]
  CLEAR_BIT(RCC->CIR, RCC_CIR_PLLI2SRDYIE);
 8002750:	68da      	ldr	r2, [r3, #12]
 8002752:	f422 5200 	bic.w	r2, r2, #8192	@ 0x2000
 8002756:	60da      	str	r2, [r3, #12]
  CLEAR_BIT(RCC->CIR, RCC_CIR_PLLSAIRDYIE);
 8002758:	68da      	ldr	r2, [r3, #12]
 800275a:	f422 4280 	bic.w	r2, r2, #16384	@ 0x4000
 800275e:	60da      	str	r2, [r3, #12]
  SET_BIT(RCC->CIR, RCC_CIR_LSIRDYC | RCC_CIR_LSERDYC | RCC_CIR_HSIRDYC | RCC_CIR_HSERDYC | RCC_CIR_PLLRDYC |
 8002760:	68da      	ldr	r2, [r3, #12]
 8002762:	f442 021f 	orr.w	r2, r2, #10420224	@ 0x9f0000
 8002766:	60da      	str	r2, [r3, #12]
  SET_BIT(RCC->CIR, RCC_CIR_PLLI2SRDYC);
 8002768:	68da      	ldr	r2, [r3, #12]
 800276a:	f442 1200 	orr.w	r2, r2, #2097152	@ 0x200000
 800276e:	60da      	str	r2, [r3, #12]
  SET_BIT(RCC->CIR, RCC_CIR_PLLSAIRDYC);
 8002770:	68da      	ldr	r2, [r3, #12]
 8002772:	f442 0280 	orr.w	r2, r2, #4194304	@ 0x400000
 8002776:	60da      	str	r2, [r3, #12]
  CLEAR_BIT(RCC->CSR, RCC_CSR_LSION);
 8002778:	6f5a      	ldr	r2, [r3, #116]	@ 0x74
 800277a:	f022 0201 	bic.w	r2, r2, #1
 800277e:	675a      	str	r2, [r3, #116]	@ 0x74
  SET_BIT(RCC->CSR, RCC_CSR_RMVF);
 8002780:	6f5a      	ldr	r2, [r3, #116]	@ 0x74
 8002782:	f042 7280 	orr.w	r2, r2, #16777216	@ 0x1000000
 8002786:	675a      	str	r2, [r3, #116]	@ 0x74
  SystemCoreClock = HSI_VALUE;
 8002788:	4b07      	ldr	r3, [pc, #28]	@ (80027a8 <HAL_RCC_DeInit+0x16c>)
 800278a:	4a08      	ldr	r2, [pc, #32]	@ (80027ac <HAL_RCC_DeInit+0x170>)
 800278c:	601a      	str	r2, [r3, #0]
  if (HAL_InitTick(uwTickPrio) != HAL_OK)
 800278e:	4b08      	ldr	r3, [pc, #32]	@ (80027b0 <HAL_RCC_DeInit+0x174>)
 8002790:	6818      	ldr	r0, [r3, #0]
 8002792:	f7fe fd7b 	bl	800128c <HAL_InitTick>
 8002796:	2800      	cmp	r0, #0
 8002798:	f43f af64 	beq.w	8002664 <HAL_RCC_DeInit+0x28>
    return HAL_ERROR;
 800279c:	2001      	movs	r0, #1
 800279e:	e761      	b.n	8002664 <HAL_RCC_DeInit+0x28>
 80027a0:	40023800 	.word	0x40023800
 80027a4:	24003010 	.word	0x24003010
 80027a8:	200000c0 	.word	0x200000c0
 80027ac:	00f42400 	.word	0x00f42400
 80027b0:	200000c8 	.word	0x200000c8

080027b4 <HAL_RCC_OscConfig>:
{
  uint32_t tickstart;
  uint32_t pll_config;

  /* Check Null pointer */
  if (RCC_OscInitStruct == NULL)
 80027b4:	2800      	cmp	r0, #0
 80027b6:	f000 8201 	beq.w	8002bbc <HAL_RCC_OscConfig+0x408>
{
 80027ba:	b570      	push	{r4, r5, r6, lr}
 80027bc:	b082      	sub	sp, #8
 80027be:	4604      	mov	r4, r0
  }

  /* Check the parameters */
  assert_param(IS_RCC_OSCILLATORTYPE(RCC_OscInitStruct->OscillatorType));
  /*------------------------------- HSE Configuration ------------------------*/
  if (((RCC_OscInitStruct->OscillatorType) & RCC_OSCILLATORTYPE_HSE) == RCC_OSCILLATORTYPE_HSE)
 80027c0:	6803      	ldr	r3, [r0, #0]
 80027c2:	f013 0f01 	tst.w	r3, #1
 80027c6:	d041      	beq.n	800284c <HAL_RCC_OscConfig+0x98>
  {
    /* Check the parameters */
    assert_param(IS_RCC_HSE(RCC_OscInitStruct->HSEState));
    /* When the HSE is used as system clock or clock source for PLL in these cases HSE will not disabled */
#if defined(STM32F446xx)
    if ((__HAL_RCC_GET_SYSCLK_SOURCE() == RCC_CFGR_SWS_HSE)
 80027c8:	4b99      	ldr	r3, [pc, #612]	@ (8002a30 <HAL_RCC_OscConfig+0x27c>)
 80027ca:	689b      	ldr	r3, [r3, #8]
 80027cc:	f003 030c 	and.w	r3, r3, #12
 80027d0:	2b04      	cmp	r3, #4
 80027d2:	d032      	beq.n	800283a <HAL_RCC_OscConfig+0x86>
        || \
        ((__HAL_RCC_GET_SYSCLK_SOURCE() == RCC_CFGR_SWS_PLL) && ((RCC->PLLCFGR & RCC_PLLCFGR_PLLSRC) == RCC_PLLCFGR_PLLSRC_HSE)) || \
 80027d4:	4b96      	ldr	r3, [pc, #600]	@ (8002a30 <HAL_RCC_OscConfig+0x27c>)
 80027d6:	689b      	ldr	r3, [r3, #8]
 80027d8:	f003 030c 	and.w	r3, r3, #12
        || \
 80027dc:	2b08      	cmp	r3, #8
 80027de:	d027      	beq.n	8002830 <HAL_RCC_OscConfig+0x7c>
        ((__HAL_RCC_GET_SYSCLK_SOURCE() == RCC_CFGR_SWS_PLLR) && ((RCC->PLLCFGR & RCC_PLLCFGR_PLLSRC) == RCC_PLLCFGR_PLLSRC_HSE)))
 80027e0:	4b93      	ldr	r3, [pc, #588]	@ (8002a30 <HAL_RCC_OscConfig+0x27c>)
 80027e2:	689b      	ldr	r3, [r3, #8]
 80027e4:	f003 030c 	and.w	r3, r3, #12
        ((__HAL_RCC_GET_SYSCLK_SOURCE() == RCC_CFGR_SWS_PLL) && ((RCC->PLLCFGR & RCC_PLLCFGR_PLLSRC) == RCC_PLLCFGR_PLLSRC_HSE)) || \
 80027e8:	2b0c      	cmp	r3, #12
 80027ea:	d059      	beq.n	80028a0 <HAL_RCC_OscConfig+0xec>
      }
    }
    else
    {
      /* Set the new HSE configuration ---------------------------------------*/
      __HAL_RCC_HSE_CONFIG(RCC_OscInitStruct->HSEState);
 80027ec:	6863      	ldr	r3, [r4, #4]
 80027ee:	f5b3 3f80 	cmp.w	r3, #65536	@ 0x10000
 80027f2:	d05b      	beq.n	80028ac <HAL_RCC_OscConfig+0xf8>
 80027f4:	f5b3 2fa0 	cmp.w	r3, #327680	@ 0x50000
 80027f8:	d05e      	beq.n	80028b8 <HAL_RCC_OscConfig+0x104>
 80027fa:	4b8d      	ldr	r3, [pc, #564]	@ (8002a30 <HAL_RCC_OscConfig+0x27c>)
 80027fc:	681a      	ldr	r2, [r3, #0]
 80027fe:	f422 3280 	bic.w	r2, r2, #65536	@ 0x10000
 8002802:	601a      	str	r2, [r3, #0]
 8002804:	681a      	ldr	r2, [r3, #0]
 8002806:	f422 2280 	bic.w	r2, r2, #262144	@ 0x40000
 800280a:	601a      	str	r2, [r3, #0]

      /* Check the HSE State */
      if ((RCC_OscInitStruct->HSEState) != RCC_HSE_OFF)
 800280c:	6863      	ldr	r3, [r4, #4]
 800280e:	2b00      	cmp	r3, #0
 8002810:	d05c      	beq.n	80028cc <HAL_RCC_OscConfig+0x118>
      {
        /* Get Start Tick*/
        tickstart = HAL_GetTick();
 8002812:	f7fe fd87 	bl	8001324 <HAL_GetTick>
 8002816:	4605      	mov	r5, r0

        /* Wait till HSE is ready */
        while (__HAL_RCC_GET_FLAG(RCC_FLAG_HSERDY) == RESET)
 8002818:	4b85      	ldr	r3, [pc, #532]	@ (8002a30 <HAL_RCC_OscConfig+0x27c>)
 800281a:	681b      	ldr	r3, [r3, #0]
 800281c:	f413 3f00 	tst.w	r3, #131072	@ 0x20000
 8002820:	d114      	bne.n	800284c <HAL_RCC_OscConfig+0x98>
        {
          if ((HAL_GetTick() - tickstart) > HSE_TIMEOUT_VALUE)
 8002822:	f7fe fd7f 	bl	8001324 <HAL_GetTick>
 8002826:	1b40      	subs	r0, r0, r5
 8002828:	2864      	cmp	r0, #100	@ 0x64
 800282a:	d9f5      	bls.n	8002818 <HAL_RCC_OscConfig+0x64>
          {
            return HAL_TIMEOUT;
 800282c:	2003      	movs	r0, #3
 800282e:	e1cc      	b.n	8002bca <HAL_RCC_OscConfig+0x416>
        ((__HAL_RCC_GET_SYSCLK_SOURCE() == RCC_CFGR_SWS_PLL) && ((RCC->PLLCFGR & RCC_PLLCFGR_PLLSRC) == RCC_PLLCFGR_PLLSRC_HSE)) || \
 8002830:	4b7f      	ldr	r3, [pc, #508]	@ (8002a30 <HAL_RCC_OscConfig+0x27c>)
 8002832:	685b      	ldr	r3, [r3, #4]
 8002834:	f413 0f80 	tst.w	r3, #4194304	@ 0x400000
 8002838:	d0d2      	beq.n	80027e0 <HAL_RCC_OscConfig+0x2c>
      if ((__HAL_RCC_GET_FLAG(RCC_FLAG_HSERDY) != RESET) && (RCC_OscInitStruct->HSEState == RCC_HSE_OFF))
 800283a:	4b7d      	ldr	r3, [pc, #500]	@ (8002a30 <HAL_RCC_OscConfig+0x27c>)
 800283c:	681b      	ldr	r3, [r3, #0]
 800283e:	f413 3f00 	tst.w	r3, #131072	@ 0x20000
 8002842:	d003      	beq.n	800284c <HAL_RCC_OscConfig+0x98>
 8002844:	6863      	ldr	r3, [r4, #4]
 8002846:	2b00      	cmp	r3, #0
 8002848:	f000 81ba 	beq.w	8002bc0 <HAL_RCC_OscConfig+0x40c>
        }
      }
    }
  }
  /*----------------------------- HSI Configuration --------------------------*/
  if (((RCC_OscInitStruct->OscillatorType) & RCC_OSCILLATORTYPE_HSI) == RCC_OSCILLATORTYPE_HSI)
 800284c:	6823      	ldr	r3, [r4, #0]
 800284e:	f013 0f02 	tst.w	r3, #2
 8002852:	d060      	beq.n	8002916 <HAL_RCC_OscConfig+0x162>
    assert_param(IS_RCC_HSI(RCC_OscInitStruct->HSIState));
    assert_param(IS_RCC_CALIBRATION_VALUE(RCC_OscInitStruct->HSICalibrationValue));

    /* Check if HSI is used as system clock or as PLL source when PLL is selected as system clock */
#if defined(STM32F446xx)
    if ((__HAL_RCC_GET_SYSCLK_SOURCE() == RCC_CFGR_SWS_HSI)
 8002854:	4b76      	ldr	r3, [pc, #472]	@ (8002a30 <HAL_RCC_OscConfig+0x27c>)
 8002856:	689b      	ldr	r3, [r3, #8]
 8002858:	f013 0f0c 	tst.w	r3, #12
 800285c:	d04a      	beq.n	80028f4 <HAL_RCC_OscConfig+0x140>
        || \
        ((__HAL_RCC_GET_SYSCLK_SOURCE() == RCC_CFGR_SWS_PLL) && ((RCC->PLLCFGR & RCC_PLLCFGR_PLLSRC) == RCC_PLLCFGR_PLLSRC_HSI)) || \
 800285e:	4b74      	ldr	r3, [pc, #464]	@ (8002a30 <HAL_RCC_OscConfig+0x27c>)
 8002860:	689b      	ldr	r3, [r3, #8]
 8002862:	f003 030c 	and.w	r3, r3, #12
        || \
 8002866:	2b08      	cmp	r3, #8
 8002868:	d03f      	beq.n	80028ea <HAL_RCC_OscConfig+0x136>
        ((__HAL_RCC_GET_SYSCLK_SOURCE() == RCC_CFGR_SWS_PLLR) && ((RCC->PLLCFGR & RCC_PLLCFGR_PLLSRC) == RCC_PLLCFGR_PLLSRC_HSI)))
 800286a:	4b71      	ldr	r3, [pc, #452]	@ (8002a30 <HAL_RCC_OscConfig+0x27c>)
 800286c:	689b      	ldr	r3, [r3, #8]
 800286e:	f003 030c 	and.w	r3, r3, #12
        ((__HAL_RCC_GET_SYSCLK_SOURCE() == RCC_CFGR_SWS_PLL) && ((RCC->PLLCFGR & RCC_PLLCFGR_PLLSRC) == RCC_PLLCFGR_PLLSRC_HSI)) || \
 8002872:	2b0c      	cmp	r3, #12
 8002874:	d069      	beq.n	800294a <HAL_RCC_OscConfig+0x196>
      }
    }
    else
    {
      /* Check the HSI State */
      if ((RCC_OscInitStruct->HSIState) != RCC_HSI_OFF)
 8002876:	68e3      	ldr	r3, [r4, #12]
 8002878:	2b00      	cmp	r3, #0
 800287a:	d075      	beq.n	8002968 <HAL_RCC_OscConfig+0x1b4>
      {
        /* Enable the Internal High Speed oscillator (HSI). */
        __HAL_RCC_HSI_ENABLE();
 800287c:	4b6d      	ldr	r3, [pc, #436]	@ (8002a34 <HAL_RCC_OscConfig+0x280>)
 800287e:	2201      	movs	r2, #1
 8002880:	601a      	str	r2, [r3, #0]

        /* Get Start Tick*/
        tickstart = HAL_GetTick();
 8002882:	f7fe fd4f 	bl	8001324 <HAL_GetTick>
 8002886:	4605      	mov	r5, r0

        /* Wait till HSI is ready */
        while (__HAL_RCC_GET_FLAG(RCC_FLAG_HSIRDY) == RESET)
 8002888:	4b69      	ldr	r3, [pc, #420]	@ (8002a30 <HAL_RCC_OscConfig+0x27c>)
 800288a:	681b      	ldr	r3, [r3, #0]
 800288c:	f013 0f02 	tst.w	r3, #2
 8002890:	d161      	bne.n	8002956 <HAL_RCC_OscConfig+0x1a2>
        {
          if ((HAL_GetTick() - tickstart) > HSI_TIMEOUT_VALUE)
 8002892:	f7fe fd47 	bl	8001324 <HAL_GetTick>
 8002896:	1b40      	subs	r0, r0, r5
 8002898:	2802      	cmp	r0, #2
 800289a:	d9f5      	bls.n	8002888 <HAL_RCC_OscConfig+0xd4>
          {
            return HAL_TIMEOUT;
 800289c:	2003      	movs	r0, #3
 800289e:	e194      	b.n	8002bca <HAL_RCC_OscConfig+0x416>
        ((__HAL_RCC_GET_SYSCLK_SOURCE() == RCC_CFGR_SWS_PLLR) && ((RCC->PLLCFGR & RCC_PLLCFGR_PLLSRC) == RCC_PLLCFGR_PLLSRC_HSE)))
 80028a0:	4b63      	ldr	r3, [pc, #396]	@ (8002a30 <HAL_RCC_OscConfig+0x27c>)
 80028a2:	685b      	ldr	r3, [r3, #4]
 80028a4:	f413 0f80 	tst.w	r3, #4194304	@ 0x400000
 80028a8:	d0a0      	beq.n	80027ec <HAL_RCC_OscConfig+0x38>
 80028aa:	e7c6      	b.n	800283a <HAL_RCC_OscConfig+0x86>
      __HAL_RCC_HSE_CONFIG(RCC_OscInitStruct->HSEState);
 80028ac:	4a60      	ldr	r2, [pc, #384]	@ (8002a30 <HAL_RCC_OscConfig+0x27c>)
 80028ae:	6813      	ldr	r3, [r2, #0]
 80028b0:	f443 3380 	orr.w	r3, r3, #65536	@ 0x10000
 80028b4:	6013      	str	r3, [r2, #0]
 80028b6:	e7a9      	b.n	800280c <HAL_RCC_OscConfig+0x58>
 80028b8:	4b5d      	ldr	r3, [pc, #372]	@ (8002a30 <HAL_RCC_OscConfig+0x27c>)
 80028ba:	681a      	ldr	r2, [r3, #0]
 80028bc:	f442 2280 	orr.w	r2, r2, #262144	@ 0x40000
 80028c0:	601a      	str	r2, [r3, #0]
 80028c2:	681a      	ldr	r2, [r3, #0]
 80028c4:	f442 3280 	orr.w	r2, r2, #65536	@ 0x10000
 80028c8:	601a      	str	r2, [r3, #0]
 80028ca:	e79f      	b.n	800280c <HAL_RCC_OscConfig+0x58>
        tickstart = HAL_GetTick();
 80028cc:	f7fe fd2a 	bl	8001324 <HAL_GetTick>
 80028d0:	4605      	mov	r5, r0
        while (__HAL_RCC_GET_FLAG(RCC_FLAG_HSERDY) != RESET)
 80028d2:	4b57      	ldr	r3, [pc, #348]	@ (8002a30 <HAL_RCC_OscConfig+0x27c>)
 80028d4:	681b      	ldr	r3, [r3, #0]
 80028d6:	f413 3f00 	tst.w	r3, #131072	@ 0x20000
 80028da:	d0b7      	beq.n	800284c <HAL_RCC_OscConfig+0x98>
          if ((HAL_GetTick() - tickstart) > HSE_TIMEOUT_VALUE)
 80028dc:	f7fe fd22 	bl	8001324 <HAL_GetTick>
 80028e0:	1b40      	subs	r0, r0, r5
 80028e2:	2864      	cmp	r0, #100	@ 0x64
 80028e4:	d9f5      	bls.n	80028d2 <HAL_RCC_OscConfig+0x11e>
            return HAL_TIMEOUT;
 80028e6:	2003      	movs	r0, #3
 80028e8:	e16f      	b.n	8002bca <HAL_RCC_OscConfig+0x416>
        ((__HAL_RCC_GET_SYSCLK_SOURCE() == RCC_CFGR_SWS_PLL) && ((RCC->PLLCFGR & RCC_PLLCFGR_PLLSRC) == RCC_PLLCFGR_PLLSRC_HSI)) || \
 80028ea:	4b51      	ldr	r3, [pc, #324]	@ (8002a30 <HAL_RCC_OscConfig+0x27c>)
 80028ec:	685b      	ldr	r3, [r3, #4]
 80028ee:	f413 0f80 	tst.w	r3, #4194304	@ 0x400000
 80028f2:	d1ba      	bne.n	800286a <HAL_RCC_OscConfig+0xb6>
      if ((__HAL_RCC_GET_FLAG(RCC_FLAG_HSIRDY) != RESET) && (RCC_OscInitStruct->HSIState != RCC_HSI_ON))
 80028f4:	4b4e      	ldr	r3, [pc, #312]	@ (8002a30 <HAL_RCC_OscConfig+0x27c>)
 80028f6:	681b      	ldr	r3, [r3, #0]
 80028f8:	f013 0f02 	tst.w	r3, #2
 80028fc:	d003      	beq.n	8002906 <HAL_RCC_OscConfig+0x152>
 80028fe:	68e3      	ldr	r3, [r4, #12]
 8002900:	2b01      	cmp	r3, #1
 8002902:	f040 815f 	bne.w	8002bc4 <HAL_RCC_OscConfig+0x410>
        __HAL_RCC_HSI_CALIBRATIONVALUE_ADJUST(RCC_OscInitStruct->HSICalibrationValue);
 8002906:	4a4a      	ldr	r2, [pc, #296]	@ (8002a30 <HAL_RCC_OscConfig+0x27c>)
 8002908:	6813      	ldr	r3, [r2, #0]
 800290a:	f023 03f8 	bic.w	r3, r3, #248	@ 0xf8
 800290e:	6921      	ldr	r1, [r4, #16]
 8002910:	ea43 03c1 	orr.w	r3, r3, r1, lsl #3
 8002914:	6013      	str	r3, [r2, #0]
        }
      }
    }
  }
  /*------------------------------ LSI Configuration -------------------------*/
  if (((RCC_OscInitStruct->OscillatorType) & RCC_OSCILLATORTYPE_LSI) == RCC_OSCILLATORTYPE_LSI)
 8002916:	6823      	ldr	r3, [r4, #0]
 8002918:	f013 0f08 	tst.w	r3, #8
 800291c:	d049      	beq.n	80029b2 <HAL_RCC_OscConfig+0x1fe>
  {
    /* Check the parameters */
    assert_param(IS_RCC_LSI(RCC_OscInitStruct->LSIState));

    /* Check the LSI State */
    if ((RCC_OscInitStruct->LSIState) != RCC_LSI_OFF)
 800291e:	6963      	ldr	r3, [r4, #20]
 8002920:	2b00      	cmp	r3, #0
 8002922:	d033      	beq.n	800298c <HAL_RCC_OscConfig+0x1d8>
    {
      /* Enable the Internal Low Speed oscillator (LSI). */
      __HAL_RCC_LSI_ENABLE();
 8002924:	4b43      	ldr	r3, [pc, #268]	@ (8002a34 <HAL_RCC_OscConfig+0x280>)
 8002926:	2201      	movs	r2, #1
 8002928:	f8c3 2e80 	str.w	r2, [r3, #3712]	@ 0xe80

      /* Get Start Tick*/
      tickstart = HAL_GetTick();
 800292c:	f7fe fcfa 	bl	8001324 <HAL_GetTick>
 8002930:	4605      	mov	r5, r0

      /* Wait till LSI is ready */
      while (__HAL_RCC_GET_FLAG(RCC_FLAG_LSIRDY) == RESET)
 8002932:	4b3f      	ldr	r3, [pc, #252]	@ (8002a30 <HAL_RCC_OscConfig+0x27c>)
 8002934:	6f5b      	ldr	r3, [r3, #116]	@ 0x74
 8002936:	f013 0f02 	tst.w	r3, #2
 800293a:	d13a      	bne.n	80029b2 <HAL_RCC_OscConfig+0x1fe>
      {
        if ((HAL_GetTick() - tickstart) > LSI_TIMEOUT_VALUE)
 800293c:	f7fe fcf2 	bl	8001324 <HAL_GetTick>
 8002940:	1b40      	subs	r0, r0, r5
 8002942:	2802      	cmp	r0, #2
 8002944:	d9f5      	bls.n	8002932 <HAL_RCC_OscConfig+0x17e>
        {
          return HAL_TIMEOUT;
 8002946:	2003      	movs	r0, #3
 8002948:	e13f      	b.n	8002bca <HAL_RCC_OscConfig+0x416>
        ((__HAL_RCC_GET_SYSCLK_SOURCE() == RCC_CFGR_SWS_PLLR) && ((RCC->PLLCFGR & RCC_PLLCFGR_PLLSRC) == RCC_PLLCFGR_PLLSRC_HSI)))
 800294a:	4b39      	ldr	r3, [pc, #228]	@ (8002a30 <HAL_RCC_OscConfig+0x27c>)
 800294c:	685b      	ldr	r3, [r3, #4]
 800294e:	f413 0f80 	tst.w	r3, #4194304	@ 0x400000
 8002952:	d190      	bne.n	8002876 <HAL_RCC_OscConfig+0xc2>
 8002954:	e7ce      	b.n	80028f4 <HAL_RCC_OscConfig+0x140>
        __HAL_RCC_HSI_CALIBRATIONVALUE_ADJUST(RCC_OscInitStruct->HSICalibrationValue);
 8002956:	4a36      	ldr	r2, [pc, #216]	@ (8002a30 <HAL_RCC_OscConfig+0x27c>)
 8002958:	6813      	ldr	r3, [r2, #0]
 800295a:	f023 03f8 	bic.w	r3, r3, #248	@ 0xf8
 800295e:	6921      	ldr	r1, [r4, #16]
 8002960:	ea43 03c1 	orr.w	r3, r3, r1, lsl #3
 8002964:	6013      	str	r3, [r2, #0]
 8002966:	e7d6      	b.n	8002916 <HAL_RCC_OscConfig+0x162>
        __HAL_RCC_HSI_DISABLE();
 8002968:	4b32      	ldr	r3, [pc, #200]	@ (8002a34 <HAL_RCC_OscConfig+0x280>)
 800296a:	2200      	movs	r2, #0
 800296c:	601a      	str	r2, [r3, #0]
        tickstart = HAL_GetTick();
 800296e:	f7fe fcd9 	bl	8001324 <HAL_GetTick>
 8002972:	4605      	mov	r5, r0
        while (__HAL_RCC_GET_FLAG(RCC_FLAG_HSIRDY) != RESET)
 8002974:	4b2e      	ldr	r3, [pc, #184]	@ (8002a30 <HAL_RCC_OscConfig+0x27c>)
 8002976:	681b      	ldr	r3, [r3, #0]
 8002978:	f013 0f02 	tst.w	r3, #2
 800297c:	d0cb      	beq.n	8002916 <HAL_RCC_OscConfig+0x162>
          if ((HAL_GetTick() - tickstart) > HSI_TIMEOUT_VALUE)
 800297e:	f7fe fcd1 	bl	8001324 <HAL_GetTick>
 8002982:	1b40      	subs	r0, r0, r5
 8002984:	2802      	cmp	r0, #2
 8002986:	d9f5      	bls.n	8002974 <HAL_RCC_OscConfig+0x1c0>
            return HAL_TIMEOUT;
 8002988:	2003      	movs	r0, #3
 800298a:	e11e      	b.n	8002bca <HAL_RCC_OscConfig+0x416>
      }
    }
    else
    {
      /* Disable the Internal Low Speed oscillator (LSI). */
      __HAL_RCC_LSI_DISABLE();
 800298c:	4b29      	ldr	r3, [pc, #164]	@ (8002a34 <HAL_RCC_OscConfig+0x280>)
 800298e:	2200      	movs	r2, #0
 8002990:	f8c3 2e80 	str.w	r2, [r3, #3712]	@ 0xe80

      /* Get Start Tick*/
      tickstart = HAL_GetTick();
 8002994:	f7fe fcc6 	bl	8001324 <HAL_GetTick>
 8002998:	4605      	mov	r5, r0

      /* Wait till LSI is ready */
      while (__HAL_RCC_GET_FLAG(RCC_FLAG_LSIRDY) != RESET)
 800299a:	4b25      	ldr	r3, [pc, #148]	@ (8002a30 <HAL_RCC_OscConfig+0x27c>)
 800299c:	6f5b      	ldr	r3, [r3, #116]	@ 0x74
 800299e:	f013 0f02 	tst.w	r3, #2
 80029a2:	d006      	beq.n	80029b2 <HAL_RCC_OscConfig+0x1fe>
      {
        if ((HAL_GetTick() - tickstart) > LSI_TIMEOUT_VALUE)
 80029a4:	f7fe fcbe 	bl	8001324 <HAL_GetTick>
 80029a8:	1b40      	subs	r0, r0, r5
 80029aa:	2802      	cmp	r0, #2
 80029ac:	d9f5      	bls.n	800299a <HAL_RCC_OscConfig+0x1e6>
        {
          return HAL_TIMEOUT;
 80029ae:	2003      	movs	r0, #3
 80029b0:	e10b      	b.n	8002bca <HAL_RCC_OscConfig+0x416>
        }
      }
    }
  }
  /*------------------------------ LSE Configuration -------------------------*/
  if (((RCC_OscInitStruct->OscillatorType) & RCC_OSCILLATORTYPE_LSE) == RCC_OSCILLATORTYPE_LSE)
 80029b2:	6823      	ldr	r3, [r4, #0]
 80029b4:	f013 0f04 	tst.w	r3, #4
 80029b8:	d076      	beq.n	8002aa8 <HAL_RCC_OscConfig+0x2f4>
    /* Check the parameters */
    assert_param(IS_RCC_LSE(RCC_OscInitStruct->LSEState));

    /* Update LSE configuration in Backup Domain control register    */
    /* Requires to enable write access to Backup Domain of necessary */
    if (__HAL_RCC_PWR_IS_CLK_DISABLED())
 80029ba:	4b1d      	ldr	r3, [pc, #116]	@ (8002a30 <HAL_RCC_OscConfig+0x27c>)
 80029bc:	6c1b      	ldr	r3, [r3, #64]	@ 0x40
 80029be:	f013 5f80 	tst.w	r3, #268435456	@ 0x10000000
 80029c2:	d133      	bne.n	8002a2c <HAL_RCC_OscConfig+0x278>
    {
      __HAL_RCC_PWR_CLK_ENABLE();
 80029c4:	2300      	movs	r3, #0
 80029c6:	9301      	str	r3, [sp, #4]
 80029c8:	4b19      	ldr	r3, [pc, #100]	@ (8002a30 <HAL_RCC_OscConfig+0x27c>)
 80029ca:	6c1a      	ldr	r2, [r3, #64]	@ 0x40
 80029cc:	f042 5280 	orr.w	r2, r2, #268435456	@ 0x10000000
 80029d0:	641a      	str	r2, [r3, #64]	@ 0x40
 80029d2:	6c1b      	ldr	r3, [r3, #64]	@ 0x40
 80029d4:	f003 5380 	and.w	r3, r3, #268435456	@ 0x10000000
 80029d8:	9301      	str	r3, [sp, #4]
 80029da:	9b01      	ldr	r3, [sp, #4]
      pwrclkchanged = SET;
 80029dc:	2501      	movs	r5, #1
    }

    if (HAL_IS_BIT_CLR(PWR->CR, PWR_CR_DBP))
 80029de:	4b16      	ldr	r3, [pc, #88]	@ (8002a38 <HAL_RCC_OscConfig+0x284>)
 80029e0:	681b      	ldr	r3, [r3, #0]
 80029e2:	f413 7f80 	tst.w	r3, #256	@ 0x100
 80029e6:	d029      	beq.n	8002a3c <HAL_RCC_OscConfig+0x288>
        }
      }
    }

    /* Set the new LSE configuration -----------------------------------------*/
    __HAL_RCC_LSE_CONFIG(RCC_OscInitStruct->LSEState);
 80029e8:	68a3      	ldr	r3, [r4, #8]
 80029ea:	2b01      	cmp	r3, #1
 80029ec:	d03a      	beq.n	8002a64 <HAL_RCC_OscConfig+0x2b0>
 80029ee:	2b05      	cmp	r3, #5
 80029f0:	d03e      	beq.n	8002a70 <HAL_RCC_OscConfig+0x2bc>
 80029f2:	4b0f      	ldr	r3, [pc, #60]	@ (8002a30 <HAL_RCC_OscConfig+0x27c>)
 80029f4:	6f1a      	ldr	r2, [r3, #112]	@ 0x70
 80029f6:	f022 0201 	bic.w	r2, r2, #1
 80029fa:	671a      	str	r2, [r3, #112]	@ 0x70
 80029fc:	6f1a      	ldr	r2, [r3, #112]	@ 0x70
 80029fe:	f022 0204 	bic.w	r2, r2, #4
 8002a02:	671a      	str	r2, [r3, #112]	@ 0x70
    /* Check the LSE State */
    if ((RCC_OscInitStruct->LSEState) != RCC_LSE_OFF)
 8002a04:	68a3      	ldr	r3, [r4, #8]
 8002a06:	2b00      	cmp	r3, #0
 8002a08:	d03c      	beq.n	8002a84 <HAL_RCC_OscConfig+0x2d0>
    {
      /* Get Start Tick*/
      tickstart = HAL_GetTick();
 8002a0a:	f7fe fc8b 	bl	8001324 <HAL_GetTick>
 8002a0e:	4606      	mov	r6, r0

      /* Wait till LSE is ready */
      while (__HAL_RCC_GET_FLAG(RCC_FLAG_LSERDY) == RESET)
 8002a10:	4b07      	ldr	r3, [pc, #28]	@ (8002a30 <HAL_RCC_OscConfig+0x27c>)
 8002a12:	6f1b      	ldr	r3, [r3, #112]	@ 0x70
 8002a14:	f013 0f02 	tst.w	r3, #2
 8002a18:	d145      	bne.n	8002aa6 <HAL_RCC_OscConfig+0x2f2>
      {
        if ((HAL_GetTick() - tickstart) > RCC_LSE_TIMEOUT_VALUE)
 8002a1a:	f7fe fc83 	bl	8001324 <HAL_GetTick>
 8002a1e:	1b80      	subs	r0, r0, r6
 8002a20:	f241 3388 	movw	r3, #5000	@ 0x1388
 8002a24:	4298      	cmp	r0, r3
 8002a26:	d9f3      	bls.n	8002a10 <HAL_RCC_OscConfig+0x25c>
        {
          return HAL_TIMEOUT;
 8002a28:	2003      	movs	r0, #3
 8002a2a:	e0ce      	b.n	8002bca <HAL_RCC_OscConfig+0x416>
    FlagStatus       pwrclkchanged = RESET;
 8002a2c:	2500      	movs	r5, #0
 8002a2e:	e7d6      	b.n	80029de <HAL_RCC_OscConfig+0x22a>
 8002a30:	40023800 	.word	0x40023800
 8002a34:	42470000 	.word	0x42470000
 8002a38:	40007000 	.word	0x40007000
      SET_BIT(PWR->CR, PWR_CR_DBP);
 8002a3c:	4a6b      	ldr	r2, [pc, #428]	@ (8002bec <HAL_RCC_OscConfig+0x438>)
 8002a3e:	6813      	ldr	r3, [r2, #0]
 8002a40:	f443 7380 	orr.w	r3, r3, #256	@ 0x100
 8002a44:	6013      	str	r3, [r2, #0]
      tickstart = HAL_GetTick();
 8002a46:	f7fe fc6d 	bl	8001324 <HAL_GetTick>
 8002a4a:	4606      	mov	r6, r0
      while (HAL_IS_BIT_CLR(PWR->CR, PWR_CR_DBP))
 8002a4c:	4b67      	ldr	r3, [pc, #412]	@ (8002bec <HAL_RCC_OscConfig+0x438>)
 8002a4e:	681b      	ldr	r3, [r3, #0]
 8002a50:	f413 7f80 	tst.w	r3, #256	@ 0x100
 8002a54:	d1c8      	bne.n	80029e8 <HAL_RCC_OscConfig+0x234>
        if ((HAL_GetTick() - tickstart) > RCC_DBP_TIMEOUT_VALUE)
 8002a56:	f7fe fc65 	bl	8001324 <HAL_GetTick>
 8002a5a:	1b80      	subs	r0, r0, r6
 8002a5c:	2802      	cmp	r0, #2
 8002a5e:	d9f5      	bls.n	8002a4c <HAL_RCC_OscConfig+0x298>
          return HAL_TIMEOUT;
 8002a60:	2003      	movs	r0, #3
 8002a62:	e0b2      	b.n	8002bca <HAL_RCC_OscConfig+0x416>
    __HAL_RCC_LSE_CONFIG(RCC_OscInitStruct->LSEState);
 8002a64:	4a62      	ldr	r2, [pc, #392]	@ (8002bf0 <HAL_RCC_OscConfig+0x43c>)
 8002a66:	6f13      	ldr	r3, [r2, #112]	@ 0x70
 8002a68:	f043 0301 	orr.w	r3, r3, #1
 8002a6c:	6713      	str	r3, [r2, #112]	@ 0x70
 8002a6e:	e7c9      	b.n	8002a04 <HAL_RCC_OscConfig+0x250>
 8002a70:	4b5f      	ldr	r3, [pc, #380]	@ (8002bf0 <HAL_RCC_OscConfig+0x43c>)
 8002a72:	6f1a      	ldr	r2, [r3, #112]	@ 0x70
 8002a74:	f042 0204 	orr.w	r2, r2, #4
 8002a78:	671a      	str	r2, [r3, #112]	@ 0x70
 8002a7a:	6f1a      	ldr	r2, [r3, #112]	@ 0x70
 8002a7c:	f042 0201 	orr.w	r2, r2, #1
 8002a80:	671a      	str	r2, [r3, #112]	@ 0x70
 8002a82:	e7bf      	b.n	8002a04 <HAL_RCC_OscConfig+0x250>
      }
    }
    else
    {
      /* Get Start Tick*/
      tickstart = HAL_GetTick();
 8002a84:	f7fe fc4e 	bl	8001324 <HAL_GetTick>
 8002a88:	4606      	mov	r6, r0

      /* Wait till LSE is ready */
      while (__HAL_RCC_GET_FLAG(RCC_FLAG_LSERDY) != RESET)
 8002a8a:	4b59      	ldr	r3, [pc, #356]	@ (8002bf0 <HAL_RCC_OscConfig+0x43c>)
 8002a8c:	6f1b      	ldr	r3, [r3, #112]	@ 0x70
 8002a8e:	f013 0f02 	tst.w	r3, #2
 8002a92:	d008      	beq.n	8002aa6 <HAL_RCC_OscConfig+0x2f2>
      {
        if ((HAL_GetTick() - tickstart) > RCC_LSE_TIMEOUT_VALUE)
 8002a94:	f7fe fc46 	bl	8001324 <HAL_GetTick>
 8002a98:	1b80      	subs	r0, r0, r6
 8002a9a:	f241 3388 	movw	r3, #5000	@ 0x1388
 8002a9e:	4298      	cmp	r0, r3
 8002aa0:	d9f3      	bls.n	8002a8a <HAL_RCC_OscConfig+0x2d6>
        {
          return HAL_TIMEOUT;
 8002aa2:	2003      	movs	r0, #3
 8002aa4:	e091      	b.n	8002bca <HAL_RCC_OscConfig+0x416>
        }
      }
    }

    /* Restore clock configuration if changed */
    if (pwrclkchanged == SET)
 8002aa6:	b9ed      	cbnz	r5, 8002ae4 <HAL_RCC_OscConfig+0x330>
    }
  }
  /*-------------------------------- PLL Configuration -----------------------*/
  /* Check the parameters */
  assert_param(IS_RCC_PLL(RCC_OscInitStruct->PLL.PLLState));
  if ((RCC_OscInitStruct->PLL.PLLState) != RCC_PLL_NONE)
 8002aa8:	69a3      	ldr	r3, [r4, #24]
 8002aaa:	2b00      	cmp	r3, #0
 8002aac:	f000 808c 	beq.w	8002bc8 <HAL_RCC_OscConfig+0x414>
  {
    /* Check if the PLL is used as system clock or not */
    if (__HAL_RCC_GET_SYSCLK_SOURCE() != RCC_CFGR_SWS_PLL)
 8002ab0:	4a4f      	ldr	r2, [pc, #316]	@ (8002bf0 <HAL_RCC_OscConfig+0x43c>)
 8002ab2:	6892      	ldr	r2, [r2, #8]
 8002ab4:	f002 020c 	and.w	r2, r2, #12
 8002ab8:	2a08      	cmp	r2, #8
 8002aba:	d054      	beq.n	8002b66 <HAL_RCC_OscConfig+0x3b2>
    {
      if ((RCC_OscInitStruct->PLL.PLLState) == RCC_PLL_ON)
 8002abc:	2b02      	cmp	r3, #2
 8002abe:	d017      	beq.n	8002af0 <HAL_RCC_OscConfig+0x33c>
        }
      }
      else
      {
        /* Disable the main PLL. */
        __HAL_RCC_PLL_DISABLE();
 8002ac0:	4b4c      	ldr	r3, [pc, #304]	@ (8002bf4 <HAL_RCC_OscConfig+0x440>)
 8002ac2:	2200      	movs	r2, #0
 8002ac4:	661a      	str	r2, [r3, #96]	@ 0x60

        /* Get Start Tick*/
        tickstart = HAL_GetTick();
 8002ac6:	f7fe fc2d 	bl	8001324 <HAL_GetTick>
 8002aca:	4604      	mov	r4, r0

        /* Wait till PLL is ready */
        while (__HAL_RCC_GET_FLAG(RCC_FLAG_PLLRDY) != RESET)
 8002acc:	4b48      	ldr	r3, [pc, #288]	@ (8002bf0 <HAL_RCC_OscConfig+0x43c>)
 8002ace:	681b      	ldr	r3, [r3, #0]
 8002ad0:	f013 7f00 	tst.w	r3, #33554432	@ 0x2000000
 8002ad4:	d045      	beq.n	8002b62 <HAL_RCC_OscConfig+0x3ae>
        {
          if ((HAL_GetTick() - tickstart) > PLL_TIMEOUT_VALUE)
 8002ad6:	f7fe fc25 	bl	8001324 <HAL_GetTick>
 8002ada:	1b00      	subs	r0, r0, r4
 8002adc:	2802      	cmp	r0, #2
 8002ade:	d9f5      	bls.n	8002acc <HAL_RCC_OscConfig+0x318>
          {
            return HAL_TIMEOUT;
 8002ae0:	2003      	movs	r0, #3
 8002ae2:	e072      	b.n	8002bca <HAL_RCC_OscConfig+0x416>
      __HAL_RCC_PWR_CLK_DISABLE();
 8002ae4:	4a42      	ldr	r2, [pc, #264]	@ (8002bf0 <HAL_RCC_OscConfig+0x43c>)
 8002ae6:	6c13      	ldr	r3, [r2, #64]	@ 0x40
 8002ae8:	f023 5380 	bic.w	r3, r3, #268435456	@ 0x10000000
 8002aec:	6413      	str	r3, [r2, #64]	@ 0x40
 8002aee:	e7db      	b.n	8002aa8 <HAL_RCC_OscConfig+0x2f4>
        __HAL_RCC_PLL_DISABLE();
 8002af0:	4b40      	ldr	r3, [pc, #256]	@ (8002bf4 <HAL_RCC_OscConfig+0x440>)
 8002af2:	2200      	movs	r2, #0
 8002af4:	661a      	str	r2, [r3, #96]	@ 0x60
        tickstart = HAL_GetTick();
 8002af6:	f7fe fc15 	bl	8001324 <HAL_GetTick>
 8002afa:	4605      	mov	r5, r0
        while (__HAL_RCC_GET_FLAG(RCC_FLAG_PLLRDY) != RESET)
 8002afc:	4b3c      	ldr	r3, [pc, #240]	@ (8002bf0 <HAL_RCC_OscConfig+0x43c>)
 8002afe:	681b      	ldr	r3, [r3, #0]
 8002b00:	f013 7f00 	tst.w	r3, #33554432	@ 0x2000000
 8002b04:	d006      	beq.n	8002b14 <HAL_RCC_OscConfig+0x360>
          if ((HAL_GetTick() - tickstart) > PLL_TIMEOUT_VALUE)
 8002b06:	f7fe fc0d 	bl	8001324 <HAL_GetTick>
 8002b0a:	1b40      	subs	r0, r0, r5
 8002b0c:	2802      	cmp	r0, #2
 8002b0e:	d9f5      	bls.n	8002afc <HAL_RCC_OscConfig+0x348>
            return HAL_TIMEOUT;
 8002b10:	2003      	movs	r0, #3
 8002b12:	e05a      	b.n	8002bca <HAL_RCC_OscConfig+0x416>
        WRITE_REG(RCC->PLLCFGR, (RCC_OscInitStruct->PLL.PLLSource                                            | \
 8002b14:	69e3      	ldr	r3, [r4, #28]
 8002b16:	6a22      	ldr	r2, [r4, #32]
 8002b18:	4313      	orrs	r3, r2
 8002b1a:	6a62      	ldr	r2, [r4, #36]	@ 0x24
 8002b1c:	ea43 1382 	orr.w	r3, r3, r2, lsl #6
 8002b20:	6aa2      	ldr	r2, [r4, #40]	@ 0x28
 8002b22:	0852      	lsrs	r2, r2, #1
 8002b24:	3a01      	subs	r2, #1
 8002b26:	ea43 4302 	orr.w	r3, r3, r2, lsl #16
 8002b2a:	6ae2      	ldr	r2, [r4, #44]	@ 0x2c
 8002b2c:	ea43 6302 	orr.w	r3, r3, r2, lsl #24
 8002b30:	6b22      	ldr	r2, [r4, #48]	@ 0x30
 8002b32:	ea43 7302 	orr.w	r3, r3, r2, lsl #28
 8002b36:	4a2e      	ldr	r2, [pc, #184]	@ (8002bf0 <HAL_RCC_OscConfig+0x43c>)
 8002b38:	6053      	str	r3, [r2, #4]
        __HAL_RCC_PLL_ENABLE();
 8002b3a:	4b2e      	ldr	r3, [pc, #184]	@ (8002bf4 <HAL_RCC_OscConfig+0x440>)
 8002b3c:	2201      	movs	r2, #1
 8002b3e:	661a      	str	r2, [r3, #96]	@ 0x60
        tickstart = HAL_GetTick();
 8002b40:	f7fe fbf0 	bl	8001324 <HAL_GetTick>
 8002b44:	4604      	mov	r4, r0
        while (__HAL_RCC_GET_FLAG(RCC_FLAG_PLLRDY) == RESET)
 8002b46:	4b2a      	ldr	r3, [pc, #168]	@ (8002bf0 <HAL_RCC_OscConfig+0x43c>)
 8002b48:	681b      	ldr	r3, [r3, #0]
 8002b4a:	f013 7f00 	tst.w	r3, #33554432	@ 0x2000000
 8002b4e:	d106      	bne.n	8002b5e <HAL_RCC_OscConfig+0x3aa>
          if ((HAL_GetTick() - tickstart) > PLL_TIMEOUT_VALUE)
 8002b50:	f7fe fbe8 	bl	8001324 <HAL_GetTick>
 8002b54:	1b00      	subs	r0, r0, r4
 8002b56:	2802      	cmp	r0, #2
 8002b58:	d9f5      	bls.n	8002b46 <HAL_RCC_OscConfig+0x392>
            return HAL_TIMEOUT;
 8002b5a:	2003      	movs	r0, #3
 8002b5c:	e035      	b.n	8002bca <HAL_RCC_OscConfig+0x416>
          return HAL_ERROR;
        }
      }
    }
  }
  return HAL_OK;
 8002b5e:	2000      	movs	r0, #0
 8002b60:	e033      	b.n	8002bca <HAL_RCC_OscConfig+0x416>
 8002b62:	2000      	movs	r0, #0
 8002b64:	e031      	b.n	8002bca <HAL_RCC_OscConfig+0x416>
      if ((RCC_OscInitStruct->PLL.PLLState) == RCC_PLL_OFF)
 8002b66:	2b01      	cmp	r3, #1
 8002b68:	d031      	beq.n	8002bce <HAL_RCC_OscConfig+0x41a>
        pll_config = RCC->PLLCFGR;
 8002b6a:	4b21      	ldr	r3, [pc, #132]	@ (8002bf0 <HAL_RCC_OscConfig+0x43c>)
 8002b6c:	685b      	ldr	r3, [r3, #4]
            (READ_BIT(pll_config, RCC_PLLCFGR_PLLSRC) != RCC_OscInitStruct->PLL.PLLSource) ||
 8002b6e:	f403 0180 	and.w	r1, r3, #4194304	@ 0x400000
 8002b72:	69e2      	ldr	r2, [r4, #28]
        if (((RCC_OscInitStruct->PLL.PLLState) == RCC_PLL_OFF) ||
 8002b74:	4291      	cmp	r1, r2
 8002b76:	d12c      	bne.n	8002bd2 <HAL_RCC_OscConfig+0x41e>
            (READ_BIT(pll_config, RCC_PLLCFGR_PLLM) != (RCC_OscInitStruct->PLL.PLLM) << RCC_PLLCFGR_PLLM_Pos) ||
 8002b78:	f003 023f 	and.w	r2, r3, #63	@ 0x3f
 8002b7c:	6a21      	ldr	r1, [r4, #32]
            (READ_BIT(pll_config, RCC_PLLCFGR_PLLSRC) != RCC_OscInitStruct->PLL.PLLSource) ||
 8002b7e:	428a      	cmp	r2, r1
 8002b80:	d129      	bne.n	8002bd6 <HAL_RCC_OscConfig+0x422>
            (READ_BIT(pll_config, RCC_PLLCFGR_PLLN) != (RCC_OscInitStruct->PLL.PLLN) << RCC_PLLCFGR_PLLN_Pos) ||
 8002b82:	6a61      	ldr	r1, [r4, #36]	@ 0x24
            (READ_BIT(pll_config, RCC_PLLCFGR_PLLM) != (RCC_OscInitStruct->PLL.PLLM) << RCC_PLLCFGR_PLLM_Pos) ||
 8002b84:	f647 72c0 	movw	r2, #32704	@ 0x7fc0
 8002b88:	401a      	ands	r2, r3
 8002b8a:	ebb2 1f81 	cmp.w	r2, r1, lsl #6
 8002b8e:	d124      	bne.n	8002bda <HAL_RCC_OscConfig+0x426>
            (READ_BIT(pll_config, RCC_PLLCFGR_PLLP) != (((RCC_OscInitStruct->PLL.PLLP >> 1U) - 1U)) << RCC_PLLCFGR_PLLP_Pos) ||
 8002b90:	f403 3140 	and.w	r1, r3, #196608	@ 0x30000
 8002b94:	6aa2      	ldr	r2, [r4, #40]	@ 0x28
 8002b96:	0852      	lsrs	r2, r2, #1
 8002b98:	3a01      	subs	r2, #1
            (READ_BIT(pll_config, RCC_PLLCFGR_PLLN) != (RCC_OscInitStruct->PLL.PLLN) << RCC_PLLCFGR_PLLN_Pos) ||
 8002b9a:	ebb1 4f02 	cmp.w	r1, r2, lsl #16
 8002b9e:	d11e      	bne.n	8002bde <HAL_RCC_OscConfig+0x42a>
            (READ_BIT(pll_config, RCC_PLLCFGR_PLLQ) != (RCC_OscInitStruct->PLL.PLLQ << RCC_PLLCFGR_PLLQ_Pos)) ||
 8002ba0:	f003 6270 	and.w	r2, r3, #251658240	@ 0xf000000
 8002ba4:	6ae1      	ldr	r1, [r4, #44]	@ 0x2c
            (READ_BIT(pll_config, RCC_PLLCFGR_PLLP) != (((RCC_OscInitStruct->PLL.PLLP >> 1U) - 1U)) << RCC_PLLCFGR_PLLP_Pos) ||
 8002ba6:	ebb2 6f01 	cmp.w	r2, r1, lsl #24
 8002baa:	d11a      	bne.n	8002be2 <HAL_RCC_OscConfig+0x42e>
            (READ_BIT(pll_config, RCC_PLLCFGR_PLLR) != (RCC_OscInitStruct->PLL.PLLR << RCC_PLLCFGR_PLLR_Pos)))
 8002bac:	f003 43e0 	and.w	r3, r3, #1879048192	@ 0x70000000
 8002bb0:	6b22      	ldr	r2, [r4, #48]	@ 0x30
            (READ_BIT(pll_config, RCC_PLLCFGR_PLLQ) != (RCC_OscInitStruct->PLL.PLLQ << RCC_PLLCFGR_PLLQ_Pos)) ||
 8002bb2:	ebb3 7f02 	cmp.w	r3, r2, lsl #28
 8002bb6:	d116      	bne.n	8002be6 <HAL_RCC_OscConfig+0x432>
  return HAL_OK;
 8002bb8:	2000      	movs	r0, #0
 8002bba:	e006      	b.n	8002bca <HAL_RCC_OscConfig+0x416>
    return HAL_ERROR;
 8002bbc:	2001      	movs	r0, #1
}
 8002bbe:	4770      	bx	lr
        return HAL_ERROR;
 8002bc0:	2001      	movs	r0, #1
 8002bc2:	e002      	b.n	8002bca <HAL_RCC_OscConfig+0x416>
        return HAL_ERROR;
 8002bc4:	2001      	movs	r0, #1
 8002bc6:	e000      	b.n	8002bca <HAL_RCC_OscConfig+0x416>
  return HAL_OK;
 8002bc8:	2000      	movs	r0, #0
}
 8002bca:	b002      	add	sp, #8
 8002bcc:	bd70      	pop	{r4, r5, r6, pc}
        return HAL_ERROR;
 8002bce:	2001      	movs	r0, #1
 8002bd0:	e7fb      	b.n	8002bca <HAL_RCC_OscConfig+0x416>
          return HAL_ERROR;
 8002bd2:	2001      	movs	r0, #1
 8002bd4:	e7f9      	b.n	8002bca <HAL_RCC_OscConfig+0x416>
 8002bd6:	2001      	movs	r0, #1
 8002bd8:	e7f7      	b.n	8002bca <HAL_RCC_OscConfig+0x416>
 8002bda:	2001      	movs	r0, #1
 8002bdc:	e7f5      	b.n	8002bca <HAL_RCC_OscConfig+0x416>
 8002bde:	2001      	movs	r0, #1
 8002be0:	e7f3      	b.n	8002bca <HAL_RCC_OscConfig+0x416>
 8002be2:	2001      	movs	r0, #1
 8002be4:	e7f1      	b.n	8002bca <HAL_RCC_OscConfig+0x416>
 8002be6:	2001      	movs	r0, #1
 8002be8:	e7ef      	b.n	8002bca <HAL_RCC_OscConfig+0x416>
 8002bea:	bf00      	nop
 8002bec:	40007000 	.word	0x40007000
 8002bf0:	40023800 	.word	0x40023800
 8002bf4:	42470000 	.word	0x42470000

08002bf8 <HAL_SPI_Init>:
  * @retval HAL status
  */
HAL_StatusTypeDef HAL_SPI_Init(SPI_HandleTypeDef *hspi)
{
  /* Check the SPI handle allocation */
  if (hspi == NULL)
 8002bf8:	2800      	cmp	r0, #0
 8002bfa:	d05a      	beq.n	8002cb2 <HAL_SPI_Init+0xba>
{
 8002bfc:	b510      	push	{r4, lr}
 8002bfe:	4604      	mov	r4, r0
  assert_param(IS_SPI_DATASIZE(hspi->Init.DataSize));
  assert_param(IS_SPI_NSS(hspi->Init.NSS));
  assert_param(IS_SPI_BAUDRATE_PRESCALER(hspi->Init.BaudRatePrescaler));
  assert_param(IS_SPI_FIRST_BIT(hspi->Init.FirstBit));
  assert_param(IS_SPI_TIMODE(hspi->Init.TIMode));
  if (hspi->Init.TIMode == SPI_TIMODE_DISABLE)
 8002c00:	6a43      	ldr	r3, [r0, #36]	@ 0x24
 8002c02:	b933      	cbnz	r3, 8002c12 <HAL_SPI_Init+0x1a>
  {
    assert_param(IS_SPI_CPOL(hspi->Init.CLKPolarity));
    assert_param(IS_SPI_CPHA(hspi->Init.CLKPhase));

    if (hspi->Init.Mode == SPI_MODE_MASTER)
 8002c04:	6843      	ldr	r3, [r0, #4]
 8002c06:	f5b3 7f82 	cmp.w	r3, #260	@ 0x104
 8002c0a:	d005      	beq.n	8002c18 <HAL_SPI_Init+0x20>
      assert_param(IS_SPI_BAUDRATE_PRESCALER(hspi->Init.BaudRatePrescaler));
    }
    else
    {
      /* Baudrate prescaler not use in Motoraola Slave mode. force to default value */
      hspi->Init.BaudRatePrescaler = SPI_BAUDRATEPRESCALER_2;
 8002c0c:	2300      	movs	r3, #0
 8002c0e:	61c3      	str	r3, [r0, #28]
 8002c10:	e002      	b.n	8002c18 <HAL_SPI_Init+0x20>
  else
  {
    assert_param(IS_SPI_BAUDRATE_PRESCALER(hspi->Init.BaudRatePrescaler));

    /* Force polarity and phase to TI protocaol requirements */
    hspi->Init.CLKPolarity = SPI_POLARITY_LOW;
 8002c12:	2300      	movs	r3, #0
 8002c14:	6103      	str	r3, [r0, #16]
    hspi->Init.CLKPhase    = SPI_PHASE_1EDGE;
 8002c16:	6143      	str	r3, [r0, #20]
  if (hspi->Init.CRCCalculation == SPI_CRCCALCULATION_ENABLE)
  {
    assert_param(IS_SPI_CRC_POLYNOMIAL(hspi->Init.CRCPolynomial));
  }
#else
  hspi->Init.CRCCalculation = SPI_CRCCALCULATION_DISABLE;
 8002c18:	2300      	movs	r3, #0
 8002c1a:	62a3      	str	r3, [r4, #40]	@ 0x28
#endif /* USE_SPI_CRC */

  if (hspi->State == HAL_SPI_STATE_RESET)
 8002c1c:	f894 3051 	ldrb.w	r3, [r4, #81]	@ 0x51
 8002c20:	2b00      	cmp	r3, #0
 8002c22:	d040      	beq.n	8002ca6 <HAL_SPI_Init+0xae>
    /* Init the low level hardware : GPIO, CLOCK, NVIC... */
    HAL_SPI_MspInit(hspi);
#endif /* USE_HAL_SPI_REGISTER_CALLBACKS */
  }

  hspi->State = HAL_SPI_STATE_BUSY;
 8002c24:	2302      	movs	r3, #2
 8002c26:	f884 3051 	strb.w	r3, [r4, #81]	@ 0x51

  /* Disable the selected SPI peripheral */
  __HAL_SPI_DISABLE(hspi);
 8002c2a:	6822      	ldr	r2, [r4, #0]
 8002c2c:	6813      	ldr	r3, [r2, #0]
 8002c2e:	f023 0340 	bic.w	r3, r3, #64	@ 0x40
 8002c32:	6013      	str	r3, [r2, #0]

  /*----------------------- SPIx CR1 & CR2 Configuration ---------------------*/
  /* Configure : SPI Mode, Communication Mode, Data size, Clock polarity and phase, NSS management,
  Communication speed, First bit and CRC calculation state */
  WRITE_REG(hspi->Instance->CR1, ((hspi->Init.Mode & (SPI_CR1_MSTR | SPI_CR1_SSI)) |
 8002c34:	6863      	ldr	r3, [r4, #4]
 8002c36:	f403 7382 	and.w	r3, r3, #260	@ 0x104
 8002c3a:	68a2      	ldr	r2, [r4, #8]
 8002c3c:	f402 4204 	and.w	r2, r2, #33792	@ 0x8400
 8002c40:	4313      	orrs	r3, r2
 8002c42:	68e2      	ldr	r2, [r4, #12]
 8002c44:	f402 6200 	and.w	r2, r2, #2048	@ 0x800
 8002c48:	4313      	orrs	r3, r2
 8002c4a:	6922      	ldr	r2, [r4, #16]
 8002c4c:	f002 0202 	and.w	r2, r2, #2
 8002c50:	4313      	orrs	r3, r2
 8002c52:	6962      	ldr	r2, [r4, #20]
 8002c54:	f002 0201 	and.w	r2, r2, #1
 8002c58:	4313      	orrs	r3, r2
 8002c5a:	69a2      	ldr	r2, [r4, #24]
 8002c5c:	f402 7200 	and.w	r2, r2, #512	@ 0x200
 8002c60:	4313      	orrs	r3, r2
 8002c62:	69e2      	ldr	r2, [r4, #28]
 8002c64:	f002 0238 	and.w	r2, r2, #56	@ 0x38
 8002c68:	4313      	orrs	r3, r2
 8002c6a:	6a22      	ldr	r2, [r4, #32]
 8002c6c:	f002 0280 	and.w	r2, r2, #128	@ 0x80
 8002c70:	4313      	orrs	r3, r2
 8002c72:	6aa2      	ldr	r2, [r4, #40]	@ 0x28
 8002c74:	f402 5200 	and.w	r2, r2, #8192	@ 0x2000
 8002c78:	6821      	ldr	r1, [r4, #0]
 8002c7a:	4313      	orrs	r3, r2
 8002c7c:	600b      	str	r3, [r1, #0]
                                  (hspi->Init.BaudRatePrescaler & SPI_CR1_BR_Msk) |
                                  (hspi->Init.FirstBit  & SPI_CR1_LSBFIRST) |
                                  (hspi->Init.CRCCalculation & SPI_CR1_CRCEN)));

  /* Configure : NSS management, TI Mode */
  WRITE_REG(hspi->Instance->CR2, (((hspi->Init.NSS >> 16U) & SPI_CR2_SSOE) | (hspi->Init.TIMode & SPI_CR2_FRF)));
 8002c7e:	8b63      	ldrh	r3, [r4, #26]
 8002c80:	f003 0304 	and.w	r3, r3, #4
 8002c84:	6a62      	ldr	r2, [r4, #36]	@ 0x24
 8002c86:	f002 0210 	and.w	r2, r2, #16
 8002c8a:	6821      	ldr	r1, [r4, #0]
 8002c8c:	4313      	orrs	r3, r2
 8002c8e:	604b      	str	r3, [r1, #4]
  }
#endif /* USE_SPI_CRC */

#if defined(SPI_I2SCFGR_I2SMOD)
  /* Activate the SPI mode (Make sure that I2SMOD bit in I2SCFGR register is reset) */
  CLEAR_BIT(hspi->Instance->I2SCFGR, SPI_I2SCFGR_I2SMOD);
 8002c90:	6822      	ldr	r2, [r4, #0]
 8002c92:	69d3      	ldr	r3, [r2, #28]
 8002c94:	f423 6300 	bic.w	r3, r3, #2048	@ 0x800
 8002c98:	61d3      	str	r3, [r2, #28]
#endif /* SPI_I2SCFGR_I2SMOD */

  hspi->ErrorCode = HAL_SPI_ERROR_NONE;
 8002c9a:	2000      	movs	r0, #0
 8002c9c:	6560      	str	r0, [r4, #84]	@ 0x54
  hspi->State     = HAL_SPI_STATE_READY;
 8002c9e:	2301      	movs	r3, #1
 8002ca0:	f884 3051 	strb.w	r3, [r4, #81]	@ 0x51

  return HAL_OK;
}
 8002ca4:	bd10      	pop	{r4, pc}
    hspi->Lock = HAL_UNLOCKED;
 8002ca6:	f884 3050 	strb.w	r3, [r4, #80]	@ 0x50
    HAL_SPI_MspInit(hspi);
 8002caa:	4620      	mov	r0, r4
 8002cac:	f7fe f8f8 	bl	8000ea0 <HAL_SPI_MspInit>
 8002cb0:	e7b8      	b.n	8002c24 <HAL_SPI_Init+0x2c>
    return HAL_ERROR;
 8002cb2:	2001      	movs	r0, #1
}
 8002cb4:	4770      	bx	lr

08002cb6 <TIM_TI1_ConfigInputStage>:
  * @param  TIM_ICFilter Specifies the Input Capture Filter.
  *          This parameter must be a value between 0x00 and 0x0F.
  * @retval None
  */
static void TIM_TI1_ConfigInputStage(TIM_TypeDef *TIMx, uint32_t TIM_ICPolarity, uint32_t TIM_ICFilter)
{
 8002cb6:	b410      	push	{r4}
  uint32_t tmpccmr1;
  uint32_t tmpccer;

  /* Disable the Channel 1: Reset the CC1E Bit */
  tmpccer = TIMx->CCER;
 8002cb8:	6a03      	ldr	r3, [r0, #32]
  TIMx->CCER &= ~TIM_CCER_CC1E;
 8002cba:	6a04      	ldr	r4, [r0, #32]
 8002cbc:	f024 0401 	bic.w	r4, r4, #1
 8002cc0:	6204      	str	r4, [r0, #32]
  tmpccmr1 = TIMx->CCMR1;
 8002cc2:	6984      	ldr	r4, [r0, #24]

  /* Set the filter */
  tmpccmr1 &= ~TIM_CCMR1_IC1F;
 8002cc4:	f024 0cf0 	bic.w	ip, r4, #240	@ 0xf0
  tmpccmr1 |= (TIM_ICFilter << 4U);
 8002cc8:	ea4c 1202 	orr.w	r2, ip, r2, lsl #4

  /* Select the Polarity and set the CC1E Bit */
  tmpccer &= ~(TIM_CCER_CC1P | TIM_CCER_CC1NP);
 8002ccc:	f023 030a 	bic.w	r3, r3, #10
  tmpccer |= TIM_ICPolarity;
 8002cd0:	430b      	orrs	r3, r1

  /* Write to TIMx CCMR1 and CCER registers */
  TIMx->CCMR1 = tmpccmr1;
 8002cd2:	6182      	str	r2, [r0, #24]
  TIMx->CCER = tmpccer;
 8002cd4:	6203      	str	r3, [r0, #32]
}
 8002cd6:	f85d 4b04 	ldr.w	r4, [sp], #4
 8002cda:	4770      	bx	lr

08002cdc <TIM_TI2_ConfigInputStage>:
  * @param  TIM_ICFilter Specifies the Input Capture Filter.
  *          This parameter must be a value between 0x00 and 0x0F.
  * @retval None
  */
static void TIM_TI2_ConfigInputStage(TIM_TypeDef *TIMx, uint32_t TIM_ICPolarity, uint32_t TIM_ICFilter)
{
 8002cdc:	b410      	push	{r4}
  uint32_t tmpccmr1;
  uint32_t tmpccer;

  /* Disable the Channel 2: Reset the CC2E Bit */
  tmpccer = TIMx->CCER;
 8002cde:	6a03      	ldr	r3, [r0, #32]
  TIMx->CCER &= ~TIM_CCER_CC2E;
 8002ce0:	6a04      	ldr	r4, [r0, #32]
 8002ce2:	f024 0410 	bic.w	r4, r4, #16
 8002ce6:	6204      	str	r4, [r0, #32]
  tmpccmr1 = TIMx->CCMR1;
 8002ce8:	6984      	ldr	r4, [r0, #24]

  /* Set the filter */
  tmpccmr1 &= ~TIM_CCMR1_IC2F;
 8002cea:	f424 4c70 	bic.w	ip, r4, #61440	@ 0xf000
  tmpccmr1 |= (TIM_ICFilter << 12U);
 8002cee:	ea4c 3202 	orr.w	r2, ip, r2, lsl #12

  /* Select the Polarity and set the CC2E Bit */
  tmpccer &= ~(TIM_CCER_CC2P | TIM_CCER_CC2NP);
 8002cf2:	f023 03a0 	bic.w	r3, r3, #160	@ 0xa0
  tmpccer |= (TIM_ICPolarity << 4U);
 8002cf6:	ea43 1301 	orr.w	r3, r3, r1, lsl #4

  /* Write to TIMx CCMR1 and CCER registers */
  TIMx->CCMR1 = tmpccmr1 ;
 8002cfa:	6182      	str	r2, [r0, #24]
  TIMx->CCER = tmpccer;
 8002cfc:	6203      	str	r3, [r0, #32]
}
 8002cfe:	f85d 4b04 	ldr.w	r4, [sp], #4
 8002d02:	4770      	bx	lr

08002d04 <TIM_ITRx_SetConfig>:
static void TIM_ITRx_SetConfig(TIM_TypeDef *TIMx, uint32_t InputTriggerSource)
{
  uint32_t tmpsmcr;

  /* Get the TIMx SMCR register value */
  tmpsmcr = TIMx->SMCR;
 8002d04:	6883      	ldr	r3, [r0, #8]
  /* Reset the TS Bits */
  tmpsmcr &= ~TIM_SMCR_TS;
 8002d06:	f023 0370 	bic.w	r3, r3, #112	@ 0x70
  /* Set the Input Trigger source and the slave mode*/
  tmpsmcr |= (InputTriggerSource | TIM_SLAVEMODE_EXTERNAL1);
 8002d0a:	430b      	orrs	r3, r1
 8002d0c:	f043 0307 	orr.w	r3, r3, #7
  /* Write to TIMx SMCR */
  TIMx->SMCR = tmpsmcr;
 8002d10:	6083      	str	r3, [r0, #8]
}
 8002d12:	4770      	bx	lr

08002d14 <HAL_TIM_Base_Start_IT>:
  if (htim->State != HAL_TIM_STATE_READY)
 8002d14:	f890 303d 	ldrb.w	r3, [r0, #61]	@ 0x3d
 8002d18:	b2db      	uxtb	r3, r3
 8002d1a:	2b01      	cmp	r3, #1
 8002d1c:	d137      	bne.n	8002d8e <HAL_TIM_Base_Start_IT+0x7a>
  htim->State = HAL_TIM_STATE_BUSY;
 8002d1e:	2302      	movs	r3, #2
 8002d20:	f880 303d 	strb.w	r3, [r0, #61]	@ 0x3d
  __HAL_TIM_ENABLE_IT(htim, TIM_IT_UPDATE);
 8002d24:	6802      	ldr	r2, [r0, #0]
 8002d26:	68d3      	ldr	r3, [r2, #12]
 8002d28:	f043 0301 	orr.w	r3, r3, #1
 8002d2c:	60d3      	str	r3, [r2, #12]
  if (IS_TIM_SLAVE_INSTANCE(htim->Instance))
 8002d2e:	6803      	ldr	r3, [r0, #0]
 8002d30:	4a19      	ldr	r2, [pc, #100]	@ (8002d98 <HAL_TIM_Base_Start_IT+0x84>)
 8002d32:	4293      	cmp	r3, r2
 8002d34:	d020      	beq.n	8002d78 <HAL_TIM_Base_Start_IT+0x64>
 8002d36:	f1b3 4f80 	cmp.w	r3, #1073741824	@ 0x40000000
 8002d3a:	d01d      	beq.n	8002d78 <HAL_TIM_Base_Start_IT+0x64>
 8002d3c:	f5a2 427c 	sub.w	r2, r2, #64512	@ 0xfc00
 8002d40:	4293      	cmp	r3, r2
 8002d42:	d019      	beq.n	8002d78 <HAL_TIM_Base_Start_IT+0x64>
 8002d44:	f502 6280 	add.w	r2, r2, #1024	@ 0x400
 8002d48:	4293      	cmp	r3, r2
 8002d4a:	d015      	beq.n	8002d78 <HAL_TIM_Base_Start_IT+0x64>
 8002d4c:	f502 6280 	add.w	r2, r2, #1024	@ 0x400
 8002d50:	4293      	cmp	r3, r2
 8002d52:	d011      	beq.n	8002d78 <HAL_TIM_Base_Start_IT+0x64>
 8002d54:	f502 4278 	add.w	r2, r2, #63488	@ 0xf800
 8002d58:	4293      	cmp	r3, r2
 8002d5a:	d00d      	beq.n	8002d78 <HAL_TIM_Base_Start_IT+0x64>
 8002d5c:	f502 5270 	add.w	r2, r2, #15360	@ 0x3c00
 8002d60:	4293      	cmp	r3, r2
 8002d62:	d009      	beq.n	8002d78 <HAL_TIM_Base_Start_IT+0x64>
 8002d64:	f5a2 3294 	sub.w	r2, r2, #75776	@ 0x12800
 8002d68:	4293      	cmp	r3, r2
 8002d6a:	d005      	beq.n	8002d78 <HAL_TIM_Base_Start_IT+0x64>
    __HAL_TIM_ENABLE(htim);
 8002d6c:	681a      	ldr	r2, [r3, #0]
 8002d6e:	f042 0201 	orr.w	r2, r2, #1
 8002d72:	601a      	str	r2, [r3, #0]
  return HAL_OK;
 8002d74:	2000      	movs	r0, #0
 8002d76:	4770      	bx	lr
    tmpsmcr = htim->Instance->SMCR & TIM_SMCR_SMS;
 8002d78:	689a      	ldr	r2, [r3, #8]
 8002d7a:	f002 0207 	and.w	r2, r2, #7
    if (!IS_TIM_SLAVEMODE_TRIGGER_ENABLED(tmpsmcr))
 8002d7e:	2a06      	cmp	r2, #6
 8002d80:	d007      	beq.n	8002d92 <HAL_TIM_Base_Start_IT+0x7e>
      __HAL_TIM_ENABLE(htim);
 8002d82:	681a      	ldr	r2, [r3, #0]
 8002d84:	f042 0201 	orr.w	r2, r2, #1
 8002d88:	601a      	str	r2, [r3, #0]
  return HAL_OK;
 8002d8a:	2000      	movs	r0, #0
 8002d8c:	4770      	bx	lr
    return HAL_ERROR;
 8002d8e:	2001      	movs	r0, #1
 8002d90:	4770      	bx	lr
  return HAL_OK;
 8002d92:	2000      	movs	r0, #0
}
 8002d94:	4770      	bx	lr
 8002d96:	bf00      	nop
 8002d98:	40010000 	.word	0x40010000

08002d9c <HAL_TIM_OC_DelayElapsedCallback>:
}
 8002d9c:	4770      	bx	lr

08002d9e <HAL_TIM_IC_CaptureCallback>:
}
 8002d9e:	4770      	bx	lr

08002da0 <HAL_TIM_PWM_PulseFinishedCallback>:
}
 8002da0:	4770      	bx	lr

08002da2 <HAL_TIM_TriggerCallback>:
}
 8002da2:	4770      	bx	lr

08002da4 <HAL_TIM_IRQHandler>:
{
 8002da4:	b570      	push	{r4, r5, r6, lr}
 8002da6:	4604      	mov	r4, r0
  uint32_t itsource = htim->Instance->DIER;
 8002da8:	6803      	ldr	r3, [r0, #0]
 8002daa:	68de      	ldr	r6, [r3, #12]
  uint32_t itflag   = htim->Instance->SR;
 8002dac:	691d      	ldr	r5, [r3, #16]
  if ((itflag & (TIM_FLAG_CC1)) == (TIM_FLAG_CC1))
 8002dae:	f015 0f02 	tst.w	r5, #2
 8002db2:	d010      	beq.n	8002dd6 <HAL_TIM_IRQHandler+0x32>
    if ((itsource & (TIM_IT_CC1)) == (TIM_IT_CC1))
 8002db4:	f016 0f02 	tst.w	r6, #2
 8002db8:	d00d      	beq.n	8002dd6 <HAL_TIM_IRQHandler+0x32>
        __HAL_TIM_CLEAR_FLAG(htim, TIM_FLAG_CC1);
 8002dba:	f06f 0202 	mvn.w	r2, #2
 8002dbe:	611a      	str	r2, [r3, #16]
        htim->Channel = HAL_TIM_ACTIVE_CHANNEL_1;
 8002dc0:	2301      	movs	r3, #1
 8002dc2:	7703      	strb	r3, [r0, #28]
        if ((htim->Instance->CCMR1 & TIM_CCMR1_CC1S) != 0x00U)
 8002dc4:	6803      	ldr	r3, [r0, #0]
 8002dc6:	699b      	ldr	r3, [r3, #24]
 8002dc8:	f013 0f03 	tst.w	r3, #3
 8002dcc:	d05e      	beq.n	8002e8c <HAL_TIM_IRQHandler+0xe8>
          HAL_TIM_IC_CaptureCallback(htim);
 8002dce:	f7ff ffe6 	bl	8002d9e <HAL_TIM_IC_CaptureCallback>
        htim->Channel = HAL_TIM_ACTIVE_CHANNEL_CLEARED;
 8002dd2:	2300      	movs	r3, #0
 8002dd4:	7723      	strb	r3, [r4, #28]
  if ((itflag & (TIM_FLAG_CC2)) == (TIM_FLAG_CC2))
 8002dd6:	f015 0f04 	tst.w	r5, #4
 8002dda:	d012      	beq.n	8002e02 <HAL_TIM_IRQHandler+0x5e>
    if ((itsource & (TIM_IT_CC2)) == (TIM_IT_CC2))
 8002ddc:	f016 0f04 	tst.w	r6, #4
 8002de0:	d00f      	beq.n	8002e02 <HAL_TIM_IRQHandler+0x5e>
      __HAL_TIM_CLEAR_FLAG(htim, TIM_FLAG_CC2);
 8002de2:	6823      	ldr	r3, [r4, #0]
 8002de4:	f06f 0204 	mvn.w	r2, #4
 8002de8:	611a      	str	r2, [r3, #16]
      htim->Channel = HAL_TIM_ACTIVE_CHANNEL_2;
 8002dea:	2302      	movs	r3, #2
 8002dec:	7723      	strb	r3, [r4, #28]
      if ((htim->Instance->CCMR1 & TIM_CCMR1_CC2S) != 0x00U)
 8002dee:	6823      	ldr	r3, [r4, #0]
 8002df0:	699b      	ldr	r3, [r3, #24]
 8002df2:	f413 7f40 	tst.w	r3, #768	@ 0x300
 8002df6:	d04f      	beq.n	8002e98 <HAL_TIM_IRQHandler+0xf4>
        HAL_TIM_IC_CaptureCallback(htim);
 8002df8:	4620      	mov	r0, r4
 8002dfa:	f7ff ffd0 	bl	8002d9e <HAL_TIM_IC_CaptureCallback>
      htim->Channel = HAL_TIM_ACTIVE_CHANNEL_CLEARED;
 8002dfe:	2300      	movs	r3, #0
 8002e00:	7723      	strb	r3, [r4, #28]
  if ((itflag & (TIM_FLAG_CC3)) == (TIM_FLAG_CC3))
 8002e02:	f015 0f08 	tst.w	r5, #8
 8002e06:	d012      	beq.n	8002e2e <HAL_TIM_IRQHandler+0x8a>
    if ((itsource & (TIM_IT_CC3)) == (TIM_IT_CC3))
 8002e08:	f016 0f08 	tst.w	r6, #8
 8002e0c:	d00f      	beq.n	8002e2e <HAL_TIM_IRQHandler+0x8a>
      __HAL_TIM_CLEAR_FLAG(htim, TIM_FLAG_CC3);
 8002e0e:	6823      	ldr	r3, [r4, #0]
 8002e10:	f06f 0208 	mvn.w	r2, #8
 8002e14:	611a      	str	r2, [r3, #16]
      htim->Channel = HAL_TIM_ACTIVE_CHANNEL_3;
 8002e16:	2304      	movs	r3, #4
 8002e18:	7723      	strb	r3, [r4, #28]
      if ((htim->Instance->CCMR2 & TIM_CCMR2_CC3S) != 0x00U)
 8002e1a:	6823      	ldr	r3, [r4, #0]
 8002e1c:	69db      	ldr	r3, [r3, #28]
 8002e1e:	f013 0f03 	tst.w	r3, #3
 8002e22:	d040      	beq.n	8002ea6 <HAL_TIM_IRQHandler+0x102>
        HAL_TIM_IC_CaptureCallback(htim);
 8002e24:	4620      	mov	r0, r4
 8002e26:	f7ff ffba 	bl	8002d9e <HAL_TIM_IC_CaptureCallback>
      htim->Channel = HAL_TIM_ACTIVE_CHANNEL_CLEARED;
 8002e2a:	2300      	movs	r3, #0
 8002e2c:	7723      	strb	r3, [r4, #28]
  if ((itflag & (TIM_FLAG_CC4)) == (TIM_FLAG_CC4))
 8002e2e:	f015 0f10 	tst.w	r5, #16
 8002e32:	d012      	beq.n	8002e5a <HAL_TIM_IRQHandler+0xb6>
    if ((itsource & (TIM_IT_CC4)) == (TIM_IT_CC4))
 8002e34:	f016 0f10 	tst.w	r6, #16
 8002e38:	d00f      	beq.n	8002e5a <HAL_TIM_IRQHandler+0xb6>
      __HAL_TIM_CLEAR_FLAG(htim, TIM_FLAG_CC4);
 8002e3a:	6823      	ldr	r3, [r4, #0]
 8002e3c:	f06f 0210 	mvn.w	r2, #16
 8002e40:	611a      	str	r2, [r3, #16]
      htim->Channel = HAL_TIM_ACTIVE_CHANNEL_4;
 8002e42:	2308      	movs	r3, #8
 8002e44:	7723      	strb	r3, [r4, #28]
      if ((htim->Instance->CCMR2 & TIM_CCMR2_CC4S) != 0x00U)
 8002e46:	6823      	ldr	r3, [r4, #0]
 8002e48:	69db      	ldr	r3, [r3, #28]
 8002e4a:	f413 7f40 	tst.w	r3, #768	@ 0x300
 8002e4e:	d031      	beq.n	8002eb4 <HAL_TIM_IRQHandler+0x110>
        HAL_TIM_IC_CaptureCallback(htim);
 8002e50:	4620      	mov	r0, r4
 8002e52:	f7ff ffa4 	bl	8002d9e <HAL_TIM_IC_CaptureCallback>
      htim->Channel = HAL_TIM_ACTIVE_CHANNEL_CLEARED;
 8002e56:	2300      	movs	r3, #0
 8002e58:	7723      	strb	r3, [r4, #28]
  if ((itflag & (TIM_FLAG_UPDATE)) == (TIM_FLAG_UPDATE))
 8002e5a:	f015 0f01 	tst.w	r5, #1
 8002e5e:	d002      	beq.n	8002e66 <HAL_TIM_IRQHandler+0xc2>
    if ((itsource & (TIM_IT_UPDATE)) == (TIM_IT_UPDATE))
 8002e60:	f016 0f01 	tst.w	r6, #1
 8002e64:	d12d      	bne.n	8002ec2 <HAL_TIM_IRQHandler+0x11e>
  if ((itflag & (TIM_FLAG_BREAK)) == (TIM_FLAG_BREAK))
 8002e66:	f015 0f80 	tst.w	r5, #128	@ 0x80
 8002e6a:	d002      	beq.n	8002e72 <HAL_TIM_IRQHandler+0xce>
    if ((itsource & (TIM_IT_BREAK)) == (TIM_IT_BREAK))
 8002e6c:	f016 0f80 	tst.w	r6, #128	@ 0x80
 8002e70:	d12f      	bne.n	8002ed2 <HAL_TIM_IRQHandler+0x12e>
  if ((itflag & (TIM_FLAG_TRIGGER)) == (TIM_FLAG_TRIGGER))
 8002e72:	f015 0f40 	tst.w	r5, #64	@ 0x40
 8002e76:	d002      	beq.n	8002e7e <HAL_TIM_IRQHandler+0xda>
    if ((itsource & (TIM_IT_TRIGGER)) == (TIM_IT_TRIGGER))
 8002e78:	f016 0f40 	tst.w	r6, #64	@ 0x40
 8002e7c:	d131      	bne.n	8002ee2 <HAL_TIM_IRQHandler+0x13e>
  if ((itflag & (TIM_FLAG_COM)) == (TIM_FLAG_COM))
 8002e7e:	f015 0f20 	tst.w	r5, #32
 8002e82:	d002      	beq.n	8002e8a <HAL_TIM_IRQHandler+0xe6>
    if ((itsource & (TIM_IT_COM)) == (TIM_IT_COM))
 8002e84:	f016 0f20 	tst.w	r6, #32
 8002e88:	d133      	bne.n	8002ef2 <HAL_TIM_IRQHandler+0x14e>
}
 8002e8a:	bd70      	pop	{r4, r5, r6, pc}
          HAL_TIM_OC_DelayElapsedCallback(htim);
 8002e8c:	f7ff ff86 	bl	8002d9c <HAL_TIM_OC_DelayElapsedCallback>
          HAL_TIM_PWM_PulseFinishedCallback(htim);
 8002e90:	4620      	mov	r0, r4
 8002e92:	f7ff ff85 	bl	8002da0 <HAL_TIM_PWM_PulseFinishedCallback>
 8002e96:	e79c      	b.n	8002dd2 <HAL_TIM_IRQHandler+0x2e>
        HAL_TIM_OC_DelayElapsedCallback(htim);
 8002e98:	4620      	mov	r0, r4
 8002e9a:	f7ff ff7f 	bl	8002d9c <HAL_TIM_OC_DelayElapsedCallback>
        HAL_TIM_PWM_PulseFinishedCallback(htim);
 8002e9e:	4620      	mov	r0, r4
 8002ea0:	f7ff ff7e 	bl	8002da0 <HAL_TIM_PWM_PulseFinishedCallback>
 8002ea4:	e7ab      	b.n	8002dfe <HAL_TIM_IRQHandler+0x5a>
        HAL_TIM_OC_DelayElapsedCallback(htim);
 8002ea6:	4620      	mov	r0, r4
 8002ea8:	f7ff ff78 	bl	8002d9c <HAL_TIM_OC_DelayElapsedCallback>
        HAL_TIM_PWM_PulseFinishedCallback(htim);
 8002eac:	4620      	mov	r0, r4
 8002eae:	f7ff ff77 	bl	8002da0 <HAL_TIM_PWM_PulseFinishedCallback>
 8002eb2:	e7ba      	b.n	8002e2a <HAL_TIM_IRQHandler+0x86>
        HAL_TIM_OC_DelayElapsedCallback(htim);
 8002eb4:	4620      	mov	r0, r4
 8002eb6:	f7ff ff71 	bl	8002d9c <HAL_TIM_OC_DelayElapsedCallback>
        HAL_TIM_PWM_PulseFinishedCallback(htim);
 8002eba:	4620      	mov	r0, r4
 8002ebc:	f7ff ff70 	bl	8002da0 <HAL_TIM_PWM_PulseFinishedCallback>
 8002ec0:	e7c9      	b.n	8002e56 <HAL_TIM_IRQHandler+0xb2>
      __HAL_TIM_CLEAR_FLAG(htim, TIM_FLAG_UPDATE);
 8002ec2:	6823      	ldr	r3, [r4, #0]
 8002ec4:	f06f 0201 	mvn.w	r2, #1
 8002ec8:	611a      	str	r2, [r3, #16]
      HAL_TIM_PeriodElapsedCallback(htim);
 8002eca:	4620      	mov	r0, r4
 8002ecc:	f7fd ff3a 	bl	8000d44 <HAL_TIM_PeriodElapsedCallback>
 8002ed0:	e7c9      	b.n	8002e66 <HAL_TIM_IRQHandler+0xc2>
      __HAL_TIM_CLEAR_FLAG(htim, TIM_FLAG_BREAK);
 8002ed2:	6823      	ldr	r3, [r4, #0]
 8002ed4:	f06f 0280 	mvn.w	r2, #128	@ 0x80
 8002ed8:	611a      	str	r2, [r3, #16]
      HAL_TIMEx_BreakCallback(htim);
 8002eda:	4620      	mov	r0, r4
 8002edc:	f000 f979 	bl	80031d2 <HAL_TIMEx_BreakCallback>
 8002ee0:	e7c7      	b.n	8002e72 <HAL_TIM_IRQHandler+0xce>
      __HAL_TIM_CLEAR_FLAG(htim, TIM_FLAG_TRIGGER);
 8002ee2:	6823      	ldr	r3, [r4, #0]
 8002ee4:	f06f 0240 	mvn.w	r2, #64	@ 0x40
 8002ee8:	611a      	str	r2, [r3, #16]
      HAL_TIM_TriggerCallback(htim);
 8002eea:	4620      	mov	r0, r4
 8002eec:	f7ff ff59 	bl	8002da2 <HAL_TIM_TriggerCallback>
 8002ef0:	e7c5      	b.n	8002e7e <HAL_TIM_IRQHandler+0xda>
      __HAL_TIM_CLEAR_FLAG(htim, TIM_FLAG_COM);
 8002ef2:	6823      	ldr	r3, [r4, #0]
 8002ef4:	f06f 0220 	mvn.w	r2, #32
 8002ef8:	611a      	str	r2, [r3, #16]
      HAL_TIMEx_CommutCallback(htim);
 8002efa:	4620      	mov	r0, r4
 8002efc:	f000 f968 	bl	80031d0 <HAL_TIMEx_CommutCallback>
}
 8002f00:	e7c3      	b.n	8002e8a <HAL_TIM_IRQHandler+0xe6>
	...

08002f04 <TIM_Base_SetConfig>:
  tmpcr1 = TIMx->CR1;
 8002f04:	6803      	ldr	r3, [r0, #0]
  if (IS_TIM_COUNTER_MODE_SELECT_INSTANCE(TIMx))
 8002f06:	4a32      	ldr	r2, [pc, #200]	@ (8002fd0 <TIM_Base_SetConfig+0xcc>)
 8002f08:	4290      	cmp	r0, r2
 8002f0a:	d012      	beq.n	8002f32 <TIM_Base_SetConfig+0x2e>
 8002f0c:	f1b0 4f80 	cmp.w	r0, #1073741824	@ 0x40000000
 8002f10:	d00f      	beq.n	8002f32 <TIM_Base_SetConfig+0x2e>
 8002f12:	f5a2 427c 	sub.w	r2, r2, #64512	@ 0xfc00
 8002f16:	4290      	cmp	r0, r2
 8002f18:	d00b      	beq.n	8002f32 <TIM_Base_SetConfig+0x2e>
 8002f1a:	f502 6280 	add.w	r2, r2, #1024	@ 0x400
 8002f1e:	4290      	cmp	r0, r2
 8002f20:	d007      	beq.n	8002f32 <TIM_Base_SetConfig+0x2e>
 8002f22:	f502 6280 	add.w	r2, r2, #1024	@ 0x400
 8002f26:	4290      	cmp	r0, r2
 8002f28:	d003      	beq.n	8002f32 <TIM_Base_SetConfig+0x2e>
 8002f2a:	f502 4278 	add.w	r2, r2, #63488	@ 0xf800
 8002f2e:	4290      	cmp	r0, r2
 8002f30:	d103      	bne.n	8002f3a <TIM_Base_SetConfig+0x36>
    tmpcr1 &= ~(TIM_CR1_DIR | TIM_CR1_CMS);
 8002f32:	f023 0370 	bic.w	r3, r3, #112	@ 0x70
    tmpcr1 |= Structure->CounterMode;
 8002f36:	684a      	ldr	r2, [r1, #4]
 8002f38:	4313      	orrs	r3, r2
  if (IS_TIM_CLOCK_DIVISION_INSTANCE(TIMx))
 8002f3a:	4a25      	ldr	r2, [pc, #148]	@ (8002fd0 <TIM_Base_SetConfig+0xcc>)
 8002f3c:	4290      	cmp	r0, r2
 8002f3e:	d02a      	beq.n	8002f96 <TIM_Base_SetConfig+0x92>
 8002f40:	f1b0 4f80 	cmp.w	r0, #1073741824	@ 0x40000000
 8002f44:	d027      	beq.n	8002f96 <TIM_Base_SetConfig+0x92>
 8002f46:	f5a2 427c 	sub.w	r2, r2, #64512	@ 0xfc00
 8002f4a:	4290      	cmp	r0, r2
 8002f4c:	d023      	beq.n	8002f96 <TIM_Base_SetConfig+0x92>
 8002f4e:	f502 6280 	add.w	r2, r2, #1024	@ 0x400
 8002f52:	4290      	cmp	r0, r2
 8002f54:	d01f      	beq.n	8002f96 <TIM_Base_SetConfig+0x92>
 8002f56:	f502 6280 	add.w	r2, r2, #1024	@ 0x400
 8002f5a:	4290      	cmp	r0, r2
 8002f5c:	d01b      	beq.n	8002f96 <TIM_Base_SetConfig+0x92>
 8002f5e:	f502 4278 	add.w	r2, r2, #63488	@ 0xf800
 8002f62:	4290      	cmp	r0, r2
 8002f64:	d017      	beq.n	8002f96 <TIM_Base_SetConfig+0x92>
 8002f66:	f502 5270 	add.w	r2, r2, #15360	@ 0x3c00
 8002f6a:	4290      	cmp	r0, r2
 8002f6c:	d013      	beq.n	8002f96 <TIM_Base_SetConfig+0x92>
 8002f6e:	f502 6280 	add.w	r2, r2, #1024	@ 0x400
 8002f72:	4290      	cmp	r0, r2
 8002f74:	d00f      	beq.n	8002f96 <TIM_Base_SetConfig+0x92>
 8002f76:	f502 6280 	add.w	r2, r2, #1024	@ 0x400
 8002f7a:	4290      	cmp	r0, r2
 8002f7c:	d00b      	beq.n	8002f96 <TIM_Base_SetConfig+0x92>
 8002f7e:	f5a2 3298 	sub.w	r2, r2, #77824	@ 0x13000
 8002f82:	4290      	cmp	r0, r2
 8002f84:	d007      	beq.n	8002f96 <TIM_Base_SetConfig+0x92>
 8002f86:	f502 6280 	add.w	r2, r2, #1024	@ 0x400
 8002f8a:	4290      	cmp	r0, r2
 8002f8c:	d003      	beq.n	8002f96 <TIM_Base_SetConfig+0x92>
 8002f8e:	f502 6280 	add.w	r2, r2, #1024	@ 0x400
 8002f92:	4290      	cmp	r0, r2
 8002f94:	d103      	bne.n	8002f9e <TIM_Base_SetConfig+0x9a>
    tmpcr1 &= ~TIM_CR1_CKD;
 8002f96:	f423 7340 	bic.w	r3, r3, #768	@ 0x300
    tmpcr1 |= (uint32_t)Structure->ClockDivision;
 8002f9a:	68ca      	ldr	r2, [r1, #12]
 8002f9c:	4313      	orrs	r3, r2
  MODIFY_REG(tmpcr1, TIM_CR1_ARPE, Structure->AutoReloadPreload);
 8002f9e:	f023 0380 	bic.w	r3, r3, #128	@ 0x80
 8002fa2:	694a      	ldr	r2, [r1, #20]
 8002fa4:	4313      	orrs	r3, r2
  TIMx->ARR = (uint32_t)Structure->Period ;
 8002fa6:	688a      	ldr	r2, [r1, #8]
 8002fa8:	62c2      	str	r2, [r0, #44]	@ 0x2c
  TIMx->PSC = Structure->Prescaler;
 8002faa:	680a      	ldr	r2, [r1, #0]
 8002fac:	6282      	str	r2, [r0, #40]	@ 0x28
  if (IS_TIM_REPETITION_COUNTER_INSTANCE(TIMx))
 8002fae:	4a08      	ldr	r2, [pc, #32]	@ (8002fd0 <TIM_Base_SetConfig+0xcc>)
 8002fb0:	4290      	cmp	r0, r2
 8002fb2:	d003      	beq.n	8002fbc <TIM_Base_SetConfig+0xb8>
 8002fb4:	f502 6280 	add.w	r2, r2, #1024	@ 0x400
 8002fb8:	4290      	cmp	r0, r2
 8002fba:	d101      	bne.n	8002fc0 <TIM_Base_SetConfig+0xbc>
    TIMx->RCR = Structure->RepetitionCounter;
 8002fbc:	690a      	ldr	r2, [r1, #16]
 8002fbe:	6302      	str	r2, [r0, #48]	@ 0x30
  SET_BIT(TIMx->CR1, TIM_CR1_URS);
 8002fc0:	6802      	ldr	r2, [r0, #0]
 8002fc2:	f042 0204 	orr.w	r2, r2, #4
 8002fc6:	6002      	str	r2, [r0, #0]
  TIMx->EGR = TIM_EGR_UG;
 8002fc8:	2201      	movs	r2, #1
 8002fca:	6142      	str	r2, [r0, #20]
  TIMx->CR1 = tmpcr1;
 8002fcc:	6003      	str	r3, [r0, #0]
}
 8002fce:	4770      	bx	lr
 8002fd0:	40010000 	.word	0x40010000

08002fd4 <HAL_TIM_Base_Init>:
  if (htim == NULL)
 8002fd4:	b340      	cbz	r0, 8003028 <HAL_TIM_Base_Init+0x54>
{
 8002fd6:	b510      	push	{r4, lr}
 8002fd8:	4604      	mov	r4, r0
  if (htim->State == HAL_TIM_STATE_RESET)
 8002fda:	f890 303d 	ldrb.w	r3, [r0, #61]	@ 0x3d
 8002fde:	b1f3      	cbz	r3, 800301e <HAL_TIM_Base_Init+0x4a>
  htim->State = HAL_TIM_STATE_BUSY;
 8002fe0:	2302      	movs	r3, #2
 8002fe2:	f884 303d 	strb.w	r3, [r4, #61]	@ 0x3d
  TIM_Base_SetConfig(htim->Instance, &htim->Init);
 8002fe6:	4621      	mov	r1, r4
 8002fe8:	f851 0b04 	ldr.w	r0, [r1], #4
 8002fec:	f7ff ff8a 	bl	8002f04 <TIM_Base_SetConfig>
  htim->DMABurstState = HAL_DMA_BURST_STATE_READY;
 8002ff0:	2301      	movs	r3, #1
 8002ff2:	f884 3046 	strb.w	r3, [r4, #70]	@ 0x46
  TIM_CHANNEL_STATE_SET_ALL(htim, HAL_TIM_CHANNEL_STATE_READY);
 8002ff6:	f884 303e 	strb.w	r3, [r4, #62]	@ 0x3e
 8002ffa:	f884 303f 	strb.w	r3, [r4, #63]	@ 0x3f
 8002ffe:	f884 3040 	strb.w	r3, [r4, #64]	@ 0x40
 8003002:	f884 3041 	strb.w	r3, [r4, #65]	@ 0x41
  TIM_CHANNEL_N_STATE_SET_ALL(htim, HAL_TIM_CHANNEL_STATE_READY);
 8003006:	f884 3042 	strb.w	r3, [r4, #66]	@ 0x42
 800300a:	f884 3043 	strb.w	r3, [r4, #67]	@ 0x43
 800300e:	f884 3044 	strb.w	r3, [r4, #68]	@ 0x44
 8003012:	f884 3045 	strb.w	r3, [r4, #69]	@ 0x45
  htim->State = HAL_TIM_STATE_READY;
 8003016:	f884 303d 	strb.w	r3, [r4, #61]	@ 0x3d
  return HAL_OK;
 800301a:	2000      	movs	r0, #0
}
 800301c:	bd10      	pop	{r4, pc}
    htim->Lock = HAL_UNLOCKED;
 800301e:	f880 303c 	strb.w	r3, [r0, #60]	@ 0x3c
    HAL_TIM_Base_MspInit(htim);
 8003022:	f7fe f83d 	bl	80010a0 <HAL_TIM_Base_MspInit>
 8003026:	e7db      	b.n	8002fe0 <HAL_TIM_Base_Init+0xc>
    return HAL_ERROR;
 8003028:	2001      	movs	r0, #1
}
 800302a:	4770      	bx	lr

0800302c <TIM_ETR_SetConfig>:
  *          This parameter must be a value between 0x00 and 0x0F
  * @retval None
  */
void TIM_ETR_SetConfig(TIM_TypeDef *TIMx, uint32_t TIM_ExtTRGPrescaler,
                       uint32_t TIM_ExtTRGPolarity, uint32_t ExtTRGFilter)
{
 800302c:	b410      	push	{r4}
  uint32_t tmpsmcr;

  tmpsmcr = TIMx->SMCR;
 800302e:	6884      	ldr	r4, [r0, #8]

  /* Reset the ETR Bits */
  tmpsmcr &= ~(TIM_SMCR_ETF | TIM_SMCR_ETPS | TIM_SMCR_ECE | TIM_SMCR_ETP);
 8003030:	f424 4c7f 	bic.w	ip, r4, #65280	@ 0xff00

  /* Set the Prescaler, the Filter value and the Polarity */
  tmpsmcr |= (uint32_t)(TIM_ExtTRGPrescaler | (TIM_ExtTRGPolarity | (ExtTRGFilter << 8U)));
 8003034:	ea42 2203 	orr.w	r2, r2, r3, lsl #8
 8003038:	430a      	orrs	r2, r1
 800303a:	ea42 020c 	orr.w	r2, r2, ip

  /* Write to TIMx SMCR */
  TIMx->SMCR = tmpsmcr;
 800303e:	6082      	str	r2, [r0, #8]
}
 8003040:	f85d 4b04 	ldr.w	r4, [sp], #4
 8003044:	4770      	bx	lr

08003046 <HAL_TIM_ConfigClockSource>:
  __HAL_LOCK(htim);
 8003046:	f890 303c 	ldrb.w	r3, [r0, #60]	@ 0x3c
 800304a:	2b01      	cmp	r3, #1
 800304c:	d078      	beq.n	8003140 <HAL_TIM_ConfigClockSource+0xfa>
{
 800304e:	b510      	push	{r4, lr}
 8003050:	4604      	mov	r4, r0
  __HAL_LOCK(htim);
 8003052:	2301      	movs	r3, #1
 8003054:	f880 303c 	strb.w	r3, [r0, #60]	@ 0x3c
  htim->State = HAL_TIM_STATE_BUSY;
 8003058:	2302      	movs	r3, #2
 800305a:	f880 303d 	strb.w	r3, [r0, #61]	@ 0x3d
  tmpsmcr = htim->Instance->SMCR;
 800305e:	6802      	ldr	r2, [r0, #0]
 8003060:	6893      	ldr	r3, [r2, #8]
  tmpsmcr &= ~(TIM_SMCR_ETF | TIM_SMCR_ETPS | TIM_SMCR_ECE | TIM_SMCR_ETP);
 8003062:	f423 437f 	bic.w	r3, r3, #65280	@ 0xff00
 8003066:	f023 0377 	bic.w	r3, r3, #119	@ 0x77
  htim->Instance->SMCR = tmpsmcr;
 800306a:	6093      	str	r3, [r2, #8]
  switch (sClockSourceConfig->ClockSource)
 800306c:	680b      	ldr	r3, [r1, #0]
 800306e:	2b60      	cmp	r3, #96	@ 0x60
 8003070:	d04c      	beq.n	800310c <HAL_TIM_ConfigClockSource+0xc6>
 8003072:	d829      	bhi.n	80030c8 <HAL_TIM_ConfigClockSource+0x82>
 8003074:	2b40      	cmp	r3, #64	@ 0x40
 8003076:	d054      	beq.n	8003122 <HAL_TIM_ConfigClockSource+0xdc>
 8003078:	d90c      	bls.n	8003094 <HAL_TIM_ConfigClockSource+0x4e>
 800307a:	2b50      	cmp	r3, #80	@ 0x50
 800307c:	d122      	bne.n	80030c4 <HAL_TIM_ConfigClockSource+0x7e>
      TIM_TI1_ConfigInputStage(htim->Instance,
 800307e:	68ca      	ldr	r2, [r1, #12]
 8003080:	6849      	ldr	r1, [r1, #4]
 8003082:	6800      	ldr	r0, [r0, #0]
 8003084:	f7ff fe17 	bl	8002cb6 <TIM_TI1_ConfigInputStage>
      TIM_ITRx_SetConfig(htim->Instance, TIM_CLOCKSOURCE_TI1);
 8003088:	2150      	movs	r1, #80	@ 0x50
 800308a:	6820      	ldr	r0, [r4, #0]
 800308c:	f7ff fe3a 	bl	8002d04 <TIM_ITRx_SetConfig>
  HAL_StatusTypeDef status = HAL_OK;
 8003090:	2000      	movs	r0, #0
      break;
 8003092:	e005      	b.n	80030a0 <HAL_TIM_ConfigClockSource+0x5a>
  switch (sClockSourceConfig->ClockSource)
 8003094:	2b20      	cmp	r3, #32
 8003096:	d00d      	beq.n	80030b4 <HAL_TIM_ConfigClockSource+0x6e>
 8003098:	d909      	bls.n	80030ae <HAL_TIM_ConfigClockSource+0x68>
 800309a:	2b30      	cmp	r3, #48	@ 0x30
 800309c:	d00a      	beq.n	80030b4 <HAL_TIM_ConfigClockSource+0x6e>
      status = HAL_ERROR;
 800309e:	2001      	movs	r0, #1
  htim->State = HAL_TIM_STATE_READY;
 80030a0:	2301      	movs	r3, #1
 80030a2:	f884 303d 	strb.w	r3, [r4, #61]	@ 0x3d
  __HAL_UNLOCK(htim);
 80030a6:	2300      	movs	r3, #0
 80030a8:	f884 303c 	strb.w	r3, [r4, #60]	@ 0x3c
}
 80030ac:	bd10      	pop	{r4, pc}
  switch (sClockSourceConfig->ClockSource)
 80030ae:	b10b      	cbz	r3, 80030b4 <HAL_TIM_ConfigClockSource+0x6e>
 80030b0:	2b10      	cmp	r3, #16
 80030b2:	d105      	bne.n	80030c0 <HAL_TIM_ConfigClockSource+0x7a>
      TIM_ITRx_SetConfig(htim->Instance, sClockSourceConfig->ClockSource);
 80030b4:	4619      	mov	r1, r3
 80030b6:	6820      	ldr	r0, [r4, #0]
 80030b8:	f7ff fe24 	bl	8002d04 <TIM_ITRx_SetConfig>
  HAL_StatusTypeDef status = HAL_OK;
 80030bc:	2000      	movs	r0, #0
      break;
 80030be:	e7ef      	b.n	80030a0 <HAL_TIM_ConfigClockSource+0x5a>
      status = HAL_ERROR;
 80030c0:	2001      	movs	r0, #1
 80030c2:	e7ed      	b.n	80030a0 <HAL_TIM_ConfigClockSource+0x5a>
 80030c4:	2001      	movs	r0, #1
 80030c6:	e7eb      	b.n	80030a0 <HAL_TIM_ConfigClockSource+0x5a>
  switch (sClockSourceConfig->ClockSource)
 80030c8:	f5b3 5f80 	cmp.w	r3, #4096	@ 0x1000
 80030cc:	d034      	beq.n	8003138 <HAL_TIM_ConfigClockSource+0xf2>
 80030ce:	f5b3 5f00 	cmp.w	r3, #8192	@ 0x2000
 80030d2:	d10c      	bne.n	80030ee <HAL_TIM_ConfigClockSource+0xa8>
      TIM_ETR_SetConfig(htim->Instance,
 80030d4:	68cb      	ldr	r3, [r1, #12]
 80030d6:	684a      	ldr	r2, [r1, #4]
 80030d8:	6889      	ldr	r1, [r1, #8]
 80030da:	6800      	ldr	r0, [r0, #0]
 80030dc:	f7ff ffa6 	bl	800302c <TIM_ETR_SetConfig>
      htim->Instance->SMCR |= TIM_SMCR_ECE;
 80030e0:	6822      	ldr	r2, [r4, #0]
 80030e2:	6893      	ldr	r3, [r2, #8]
 80030e4:	f443 4380 	orr.w	r3, r3, #16384	@ 0x4000
 80030e8:	6093      	str	r3, [r2, #8]
  HAL_StatusTypeDef status = HAL_OK;
 80030ea:	2000      	movs	r0, #0
      break;
 80030ec:	e7d8      	b.n	80030a0 <HAL_TIM_ConfigClockSource+0x5a>
  switch (sClockSourceConfig->ClockSource)
 80030ee:	2b70      	cmp	r3, #112	@ 0x70
 80030f0:	d124      	bne.n	800313c <HAL_TIM_ConfigClockSource+0xf6>
      TIM_ETR_SetConfig(htim->Instance,
 80030f2:	68cb      	ldr	r3, [r1, #12]
 80030f4:	684a      	ldr	r2, [r1, #4]
 80030f6:	6889      	ldr	r1, [r1, #8]
 80030f8:	6800      	ldr	r0, [r0, #0]
 80030fa:	f7ff ff97 	bl	800302c <TIM_ETR_SetConfig>
      tmpsmcr = htim->Instance->SMCR;
 80030fe:	6822      	ldr	r2, [r4, #0]
 8003100:	6893      	ldr	r3, [r2, #8]
      tmpsmcr |= (TIM_SLAVEMODE_EXTERNAL1 | TIM_CLOCKSOURCE_ETRMODE1);
 8003102:	f043 0377 	orr.w	r3, r3, #119	@ 0x77
      htim->Instance->SMCR = tmpsmcr;
 8003106:	6093      	str	r3, [r2, #8]
  HAL_StatusTypeDef status = HAL_OK;
 8003108:	2000      	movs	r0, #0
      break;
 800310a:	e7c9      	b.n	80030a0 <HAL_TIM_ConfigClockSource+0x5a>
      TIM_TI2_ConfigInputStage(htim->Instance,
 800310c:	68ca      	ldr	r2, [r1, #12]
 800310e:	6849      	ldr	r1, [r1, #4]
 8003110:	6800      	ldr	r0, [r0, #0]
 8003112:	f7ff fde3 	bl	8002cdc <TIM_TI2_ConfigInputStage>
      TIM_ITRx_SetConfig(htim->Instance, TIM_CLOCKSOURCE_TI2);
 8003116:	2160      	movs	r1, #96	@ 0x60
 8003118:	6820      	ldr	r0, [r4, #0]
 800311a:	f7ff fdf3 	bl	8002d04 <TIM_ITRx_SetConfig>
  HAL_StatusTypeDef status = HAL_OK;
 800311e:	2000      	movs	r0, #0
      break;
 8003120:	e7be      	b.n	80030a0 <HAL_TIM_ConfigClockSource+0x5a>
      TIM_TI1_ConfigInputStage(htim->Instance,
 8003122:	68ca      	ldr	r2, [r1, #12]
 8003124:	6849      	ldr	r1, [r1, #4]
 8003126:	6800      	ldr	r0, [r0, #0]
 8003128:	f7ff fdc5 	bl	8002cb6 <TIM_TI1_ConfigInputStage>
      TIM_ITRx_SetConfig(htim->Instance, TIM_CLOCKSOURCE_TI1ED);
 800312c:	2140      	movs	r1, #64	@ 0x40
 800312e:	6820      	ldr	r0, [r4, #0]
 8003130:	f7ff fde8 	bl	8002d04 <TIM_ITRx_SetConfig>
  HAL_StatusTypeDef status = HAL_OK;
 8003134:	2000      	movs	r0, #0
      break;
 8003136:	e7b3      	b.n	80030a0 <HAL_TIM_ConfigClockSource+0x5a>
  switch (sClockSourceConfig->ClockSource)
 8003138:	2000      	movs	r0, #0
 800313a:	e7b1      	b.n	80030a0 <HAL_TIM_ConfigClockSource+0x5a>
      status = HAL_ERROR;
 800313c:	2001      	movs	r0, #1
 800313e:	e7af      	b.n	80030a0 <HAL_TIM_ConfigClockSource+0x5a>
  __HAL_LOCK(htim);
 8003140:	2002      	movs	r0, #2
}
 8003142:	4770      	bx	lr

08003144 <HAL_TIMEx_MasterConfigSynchronization>:
  assert_param(IS_TIM_MASTER_INSTANCE(htim->Instance));
  assert_param(IS_TIM_TRGO_SOURCE(sMasterConfig->MasterOutputTrigger));
  assert_param(IS_TIM_MSM_STATE(sMasterConfig->MasterSlaveMode));

  /* Check input state */
  __HAL_LOCK(htim);
 8003144:	f890 203c 	ldrb.w	r2, [r0, #60]	@ 0x3c
 8003148:	2a01      	cmp	r2, #1
 800314a:	d03d      	beq.n	80031c8 <HAL_TIMEx_MasterConfigSynchronization+0x84>
{
 800314c:	b410      	push	{r4}
 800314e:	4603      	mov	r3, r0
  __HAL_LOCK(htim);
 8003150:	2201      	movs	r2, #1
 8003152:	f880 203c 	strb.w	r2, [r0, #60]	@ 0x3c

  /* Change the handler state */
  htim->State = HAL_TIM_STATE_BUSY;
 8003156:	2202      	movs	r2, #2
 8003158:	f880 203d 	strb.w	r2, [r0, #61]	@ 0x3d

  /* Get the TIMx CR2 register value */
  tmpcr2 = htim->Instance->CR2;
 800315c:	6802      	ldr	r2, [r0, #0]
 800315e:	6850      	ldr	r0, [r2, #4]

  /* Get the TIMx SMCR register value */
  tmpsmcr = htim->Instance->SMCR;
 8003160:	6894      	ldr	r4, [r2, #8]

  /* Reset the MMS Bits */
  tmpcr2 &= ~TIM_CR2_MMS;
 8003162:	f020 0c70 	bic.w	ip, r0, #112	@ 0x70
  /* Select the TRGO source */
  tmpcr2 |=  sMasterConfig->MasterOutputTrigger;
 8003166:	6808      	ldr	r0, [r1, #0]
 8003168:	ea40 000c 	orr.w	r0, r0, ip

  /* Update TIMx CR2 */
  htim->Instance->CR2 = tmpcr2;
 800316c:	6050      	str	r0, [r2, #4]

  if (IS_TIM_SLAVE_INSTANCE(htim->Instance))
 800316e:	681a      	ldr	r2, [r3, #0]
 8003170:	4816      	ldr	r0, [pc, #88]	@ (80031cc <HAL_TIMEx_MasterConfigSynchronization+0x88>)
 8003172:	4282      	cmp	r2, r0
 8003174:	d01a      	beq.n	80031ac <HAL_TIMEx_MasterConfigSynchronization+0x68>
 8003176:	f1b2 4f80 	cmp.w	r2, #1073741824	@ 0x40000000
 800317a:	d017      	beq.n	80031ac <HAL_TIMEx_MasterConfigSynchronization+0x68>
 800317c:	f5a0 407c 	sub.w	r0, r0, #64512	@ 0xfc00
 8003180:	4282      	cmp	r2, r0
 8003182:	d013      	beq.n	80031ac <HAL_TIMEx_MasterConfigSynchronization+0x68>
 8003184:	f500 6080 	add.w	r0, r0, #1024	@ 0x400
 8003188:	4282      	cmp	r2, r0
 800318a:	d00f      	beq.n	80031ac <HAL_TIMEx_MasterConfigSynchronization+0x68>
 800318c:	f500 6080 	add.w	r0, r0, #1024	@ 0x400
 8003190:	4282      	cmp	r2, r0
 8003192:	d00b      	beq.n	80031ac <HAL_TIMEx_MasterConfigSynchronization+0x68>
 8003194:	f500 4078 	add.w	r0, r0, #63488	@ 0xf800
 8003198:	4282      	cmp	r2, r0
 800319a:	d007      	beq.n	80031ac <HAL_TIMEx_MasterConfigSynchronization+0x68>
 800319c:	f500 5070 	add.w	r0, r0, #15360	@ 0x3c00
 80031a0:	4282      	cmp	r2, r0
 80031a2:	d003      	beq.n	80031ac <HAL_TIMEx_MasterConfigSynchronization+0x68>
 80031a4:	f5a0 3094 	sub.w	r0, r0, #75776	@ 0x12800
 80031a8:	4282      	cmp	r2, r0
 80031aa:	d104      	bne.n	80031b6 <HAL_TIMEx_MasterConfigSynchronization+0x72>
  {
    /* Reset the MSM Bit */
    tmpsmcr &= ~TIM_SMCR_MSM;
 80031ac:	f024 0480 	bic.w	r4, r4, #128	@ 0x80
    /* Set master mode */
    tmpsmcr |= sMasterConfig->MasterSlaveMode;
 80031b0:	6849      	ldr	r1, [r1, #4]
 80031b2:	4321      	orrs	r1, r4

    /* Update TIMx SMCR */
    htim->Instance->SMCR = tmpsmcr;
 80031b4:	6091      	str	r1, [r2, #8]
  }

  /* Change the htim state */
  htim->State = HAL_TIM_STATE_READY;
 80031b6:	2201      	movs	r2, #1
 80031b8:	f883 203d 	strb.w	r2, [r3, #61]	@ 0x3d

  __HAL_UNLOCK(htim);
 80031bc:	2000      	movs	r0, #0
 80031be:	f883 003c 	strb.w	r0, [r3, #60]	@ 0x3c

  return HAL_OK;
}
 80031c2:	f85d 4b04 	ldr.w	r4, [sp], #4
 80031c6:	4770      	bx	lr
  __HAL_LOCK(htim);
 80031c8:	2002      	movs	r0, #2
}
 80031ca:	4770      	bx	lr
 80031cc:	40010000 	.word	0x40010000

080031d0 <HAL_TIMEx_CommutCallback>:
  UNUSED(htim);

  /* NOTE : This function should not be modified, when the callback is needed,
            the HAL_TIMEx_CommutCallback could be implemented in the user file
   */
}
 80031d0:	4770      	bx	lr

080031d2 <HAL_TIMEx_BreakCallback>:
  UNUSED(htim);

  /* NOTE : This function should not be modified, when the callback is needed,
            the HAL_TIMEx_BreakCallback could be implemented in the user file
   */
}
 80031d2:	4770      	bx	lr

080031d4 <UART_SetConfig>:
  * @param  huart  Pointer to a UART_HandleTypeDef structure that contains
  *                the configuration information for the specified UART module.
  * @retval None
  */
static void UART_SetConfig(UART_HandleTypeDef *huart)
{
 80031d4:	b510      	push	{r4, lr}
 80031d6:	4604      	mov	r4, r0
  assert_param(IS_UART_MODE(huart->Init.Mode));

  /*-------------------------- USART CR2 Configuration -----------------------*/
  /* Configure the UART Stop Bits: Set STOP[13:12] bits
     according to huart->Init.StopBits value */
  MODIFY_REG(huart->Instance->CR2, USART_CR2_STOP, huart->Init.StopBits);
 80031d8:	6802      	ldr	r2, [r0, #0]
 80031da:	6913      	ldr	r3, [r2, #16]
 80031dc:	f423 5340 	bic.w	r3, r3, #12288	@ 0x3000
 80031e0:	68c1      	ldr	r1, [r0, #12]
 80031e2:	430b      	orrs	r3, r1
 80031e4:	6113      	str	r3, [r2, #16]
     Set the M bits according to huart->Init.WordLength value
     Set PCE and PS bits according to huart->Init.Parity value
     Set TE and RE bits according to huart->Init.Mode value
     Set OVER8 bit according to huart->Init.OverSampling value */

  tmpreg = (uint32_t)huart->Init.WordLength | huart->Init.Parity | huart->Init.Mode | huart->Init.OverSampling;
 80031e6:	6883      	ldr	r3, [r0, #8]
 80031e8:	6902      	ldr	r2, [r0, #16]
 80031ea:	431a      	orrs	r2, r3
 80031ec:	6943      	ldr	r3, [r0, #20]
 80031ee:	431a      	orrs	r2, r3
 80031f0:	69c3      	ldr	r3, [r0, #28]
 80031f2:	431a      	orrs	r2, r3
  MODIFY_REG(huart->Instance->CR1,
 80031f4:	6801      	ldr	r1, [r0, #0]
 80031f6:	68cb      	ldr	r3, [r1, #12]
 80031f8:	f423 4316 	bic.w	r3, r3, #38400	@ 0x9600
 80031fc:	f023 030c 	bic.w	r3, r3, #12
 8003200:	4313      	orrs	r3, r2
 8003202:	60cb      	str	r3, [r1, #12]
             (uint32_t)(USART_CR1_M | USART_CR1_PCE | USART_CR1_PS | USART_CR1_TE | USART_CR1_RE | USART_CR1_OVER8),
             tmpreg);

  /*-------------------------- USART CR3 Configuration -----------------------*/
  /* Configure the UART HFC: Set CTSE and RTSE bits according to huart->Init.HwFlowCtl value */
  MODIFY_REG(huart->Instance->CR3, (USART_CR3_RTSE | USART_CR3_CTSE), huart->Init.HwFlowCtl);
 8003204:	6802      	ldr	r2, [r0, #0]
 8003206:	6953      	ldr	r3, [r2, #20]
 8003208:	f423 7340 	bic.w	r3, r3, #768	@ 0x300
 800320c:	6981      	ldr	r1, [r0, #24]
 800320e:	430b      	orrs	r3, r1
 8003210:	6153      	str	r3, [r2, #20]
    if ((huart->Instance == USART1) || (huart->Instance == USART6) || (huart->Instance == UART9) || (huart->Instance == UART10))
    {
      pclk = HAL_RCC_GetPCLK2Freq();
    }
#elif defined(USART6)
    if ((huart->Instance == USART1) || (huart->Instance == USART6))
 8003212:	6803      	ldr	r3, [r0, #0]
 8003214:	4a31      	ldr	r2, [pc, #196]	@ (80032dc <UART_SetConfig+0x108>)
 8003216:	4293      	cmp	r3, r2
 8003218:	d006      	beq.n	8003228 <UART_SetConfig+0x54>
 800321a:	f502 6280 	add.w	r2, r2, #1024	@ 0x400
 800321e:	4293      	cmp	r3, r2
 8003220:	d002      	beq.n	8003228 <UART_SetConfig+0x54>
      pclk = HAL_RCC_GetPCLK2Freq();
    }
#endif /* USART6 */
    else
    {
      pclk = HAL_RCC_GetPCLK1Freq();
 8003222:	f7ff f957 	bl	80024d4 <HAL_RCC_GetPCLK1Freq>
 8003226:	e001      	b.n	800322c <UART_SetConfig+0x58>
      pclk = HAL_RCC_GetPCLK2Freq();
 8003228:	f7ff f964 	bl	80024f4 <HAL_RCC_GetPCLK2Freq>
    }
  /*-------------------------- USART BRR Configuration ---------------------*/
  if (huart->Init.OverSampling == UART_OVERSAMPLING_8)
 800322c:	69e3      	ldr	r3, [r4, #28]
 800322e:	f5b3 4f00 	cmp.w	r3, #32768	@ 0x8000
 8003232:	d029      	beq.n	8003288 <UART_SetConfig+0xb4>
  {
    huart->Instance->BRR = UART_BRR_SAMPLING8(pclk, huart->Init.BaudRate);
  }
  else
  {
    huart->Instance->BRR = UART_BRR_SAMPLING16(pclk, huart->Init.BaudRate);
 8003234:	2100      	movs	r1, #0
 8003236:	1803      	adds	r3, r0, r0
 8003238:	4149      	adcs	r1, r1
 800323a:	181b      	adds	r3, r3, r0
 800323c:	f141 0100 	adc.w	r1, r1, #0
 8003240:	00c9      	lsls	r1, r1, #3
 8003242:	ea41 7153 	orr.w	r1, r1, r3, lsr #29
 8003246:	00db      	lsls	r3, r3, #3
 8003248:	1818      	adds	r0, r3, r0
 800324a:	6863      	ldr	r3, [r4, #4]
 800324c:	ea4f 0283 	mov.w	r2, r3, lsl #2
 8003250:	ea4f 7393 	mov.w	r3, r3, lsr #30
 8003254:	f141 0100 	adc.w	r1, r1, #0
 8003258:	f7fd f802 	bl	8000260 <__aeabi_uldivmod>
 800325c:	4a20      	ldr	r2, [pc, #128]	@ (80032e0 <UART_SetConfig+0x10c>)
 800325e:	fba2 3100 	umull	r3, r1, r2, r0
 8003262:	0949      	lsrs	r1, r1, #5
 8003264:	2364      	movs	r3, #100	@ 0x64
 8003266:	fb03 0311 	mls	r3, r3, r1, r0
 800326a:	011b      	lsls	r3, r3, #4
 800326c:	3332      	adds	r3, #50	@ 0x32
 800326e:	fba2 2303 	umull	r2, r3, r2, r3
 8003272:	095b      	lsrs	r3, r3, #5
 8003274:	f003 02f0 	and.w	r2, r3, #240	@ 0xf0
 8003278:	eb02 1201 	add.w	r2, r2, r1, lsl #4
 800327c:	f003 030f 	and.w	r3, r3, #15
 8003280:	6821      	ldr	r1, [r4, #0]
 8003282:	4413      	add	r3, r2
 8003284:	608b      	str	r3, [r1, #8]
  }
}
 8003286:	bd10      	pop	{r4, pc}
    huart->Instance->BRR = UART_BRR_SAMPLING8(pclk, huart->Init.BaudRate);
 8003288:	2300      	movs	r3, #0
 800328a:	1802      	adds	r2, r0, r0
 800328c:	eb43 0103 	adc.w	r1, r3, r3
 8003290:	1812      	adds	r2, r2, r0
 8003292:	f141 0100 	adc.w	r1, r1, #0
 8003296:	00c9      	lsls	r1, r1, #3
 8003298:	ea41 7152 	orr.w	r1, r1, r2, lsr #29
 800329c:	00d2      	lsls	r2, r2, #3
 800329e:	1810      	adds	r0, r2, r0
 80032a0:	f141 0100 	adc.w	r1, r1, #0
 80032a4:	6862      	ldr	r2, [r4, #4]
 80032a6:	1892      	adds	r2, r2, r2
 80032a8:	415b      	adcs	r3, r3
 80032aa:	f7fc ffd9 	bl	8000260 <__aeabi_uldivmod>
 80032ae:	4a0c      	ldr	r2, [pc, #48]	@ (80032e0 <UART_SetConfig+0x10c>)
 80032b0:	fba2 3100 	umull	r3, r1, r2, r0
 80032b4:	0949      	lsrs	r1, r1, #5
 80032b6:	2364      	movs	r3, #100	@ 0x64
 80032b8:	fb03 0311 	mls	r3, r3, r1, r0
 80032bc:	00db      	lsls	r3, r3, #3
 80032be:	3332      	adds	r3, #50	@ 0x32
 80032c0:	fba2 2303 	umull	r2, r3, r2, r3
 80032c4:	095b      	lsrs	r3, r3, #5
 80032c6:	005a      	lsls	r2, r3, #1
 80032c8:	f402 72f8 	and.w	r2, r2, #496	@ 0x1f0
 80032cc:	eb02 1201 	add.w	r2, r2, r1, lsl #4
 80032d0:	f003 0307 	and.w	r3, r3, #7
 80032d4:	6821      	ldr	r1, [r4, #0]
 80032d6:	4413      	add	r3, r2
 80032d8:	608b      	str	r3, [r1, #8]
 80032da:	e7d4      	b.n	8003286 <UART_SetConfig+0xb2>
 80032dc:	40011000 	.word	0x40011000
 80032e0:	51eb851f 	.word	0x51eb851f

080032e4 <HAL_UART_Init>:
  if (huart == NULL)
 80032e4:	b360      	cbz	r0, 8003340 <HAL_UART_Init+0x5c>
{
 80032e6:	b510      	push	{r4, lr}
 80032e8:	4604      	mov	r4, r0
  if (huart->gState == HAL_UART_STATE_RESET)
 80032ea:	f890 3041 	ldrb.w	r3, [r0, #65]	@ 0x41
 80032ee:	b313      	cbz	r3, 8003336 <HAL_UART_Init+0x52>
  huart->gState = HAL_UART_STATE_BUSY;
 80032f0:	2324      	movs	r3, #36	@ 0x24
 80032f2:	f884 3041 	strb.w	r3, [r4, #65]	@ 0x41
  __HAL_UART_DISABLE(huart);
 80032f6:	6822      	ldr	r2, [r4, #0]
 80032f8:	68d3      	ldr	r3, [r2, #12]
 80032fa:	f423 5300 	bic.w	r3, r3, #8192	@ 0x2000
 80032fe:	60d3      	str	r3, [r2, #12]
  UART_SetConfig(huart);
 8003300:	4620      	mov	r0, r4
 8003302:	f7ff ff67 	bl	80031d4 <UART_SetConfig>
  CLEAR_BIT(huart->Instance->CR2, (USART_CR2_LINEN | USART_CR2_CLKEN));
 8003306:	6822      	ldr	r2, [r4, #0]
 8003308:	6913      	ldr	r3, [r2, #16]
 800330a:	f423 4390 	bic.w	r3, r3, #18432	@ 0x4800
 800330e:	6113      	str	r3, [r2, #16]
  CLEAR_BIT(huart->Instance->CR3, (USART_CR3_SCEN | USART_CR3_HDSEL | USART_CR3_IREN));
 8003310:	6822      	ldr	r2, [r4, #0]
 8003312:	6953      	ldr	r3, [r2, #20]
 8003314:	f023 032a 	bic.w	r3, r3, #42	@ 0x2a
 8003318:	6153      	str	r3, [r2, #20]
  __HAL_UART_ENABLE(huart);
 800331a:	6822      	ldr	r2, [r4, #0]
 800331c:	68d3      	ldr	r3, [r2, #12]
 800331e:	f443 5300 	orr.w	r3, r3, #8192	@ 0x2000
 8003322:	60d3      	str	r3, [r2, #12]
  huart->ErrorCode = HAL_UART_ERROR_NONE;
 8003324:	2000      	movs	r0, #0
 8003326:	6460      	str	r0, [r4, #68]	@ 0x44
  huart->gState = HAL_UART_STATE_READY;
 8003328:	2320      	movs	r3, #32
 800332a:	f884 3041 	strb.w	r3, [r4, #65]	@ 0x41
  huart->RxState = HAL_UART_STATE_READY;
 800332e:	f884 3042 	strb.w	r3, [r4, #66]	@ 0x42
  huart->RxEventType = HAL_UART_RXEVENT_TC;
 8003332:	6360      	str	r0, [r4, #52]	@ 0x34
}
 8003334:	bd10      	pop	{r4, pc}
    huart->Lock = HAL_UNLOCKED;
 8003336:	f880 3040 	strb.w	r3, [r0, #64]	@ 0x40
    HAL_UART_MspInit(huart);
 800333a:	f7fd ff11 	bl	8001160 <HAL_UART_MspInit>
 800333e:	e7d7      	b.n	80032f0 <HAL_UART_Init+0xc>
    return HAL_ERROR;
 8003340:	2001      	movs	r0, #1
}
 8003342:	4770      	bx	lr

08003344 <memset>:
 8003344:	4402      	add	r2, r0
 8003346:	4603      	mov	r3, r0
 8003348:	4293      	cmp	r3, r2
 800334a:	d100      	bne.n	800334e <memset+0xa>
 800334c:	4770      	bx	lr
 800334e:	f803 1b01 	strb.w	r1, [r3], #1
 8003352:	e7f9      	b.n	8003348 <memset+0x4>

08003354 <__libc_init_array>:
 8003354:	b570      	push	{r4, r5, r6, lr}
 8003356:	4d0d      	ldr	r5, [pc, #52]	@ (800338c <__libc_init_array+0x38>)
 8003358:	4c0d      	ldr	r4, [pc, #52]	@ (8003390 <__libc_init_array+0x3c>)
 800335a:	1b64      	subs	r4, r4, r5
 800335c:	10a4      	asrs	r4, r4, #2
 800335e:	2600      	movs	r6, #0
 8003360:	42a6      	cmp	r6, r4
 8003362:	d109      	bne.n	8003378 <__libc_init_array+0x24>
 8003364:	4d0b      	ldr	r5, [pc, #44]	@ (8003394 <__libc_init_array+0x40>)
 8003366:	4c0c      	ldr	r4, [pc, #48]	@ (8003398 <__libc_init_array+0x44>)
 8003368:	f000 f818 	bl	800339c <_init>
 800336c:	1b64      	subs	r4, r4, r5
 800336e:	10a4      	asrs	r4, r4, #2
 8003370:	2600      	movs	r6, #0
 8003372:	42a6      	cmp	r6, r4
 8003374:	d105      	bne.n	8003382 <__libc_init_array+0x2e>
 8003376:	bd70      	pop	{r4, r5, r6, pc}
 8003378:	f855 3b04 	ldr.w	r3, [r5], #4
 800337c:	4798      	blx	r3
 800337e:	3601      	adds	r6, #1
 8003380:	e7ee      	b.n	8003360 <__libc_init_array+0xc>
 8003382:	f855 3b04 	ldr.w	r3, [r5], #4
 8003386:	4798      	blx	r3
 8003388:	3601      	adds	r6, #1
 800338a:	e7f2      	b.n	8003372 <__libc_init_array+0x1e>
 800338c:	080033fc 	.word	0x080033fc
 8003390:	080033fc 	.word	0x080033fc
 8003394:	080033fc 	.word	0x080033fc
 8003398:	08003400 	.word	0x08003400

0800339c <_init>:
 800339c:	b5f8      	push	{r3, r4, r5, r6, r7, lr}
 800339e:	bf00      	nop
 80033a0:	bcf8      	pop	{r3, r4, r5, r6, r7}
 80033a2:	bc08      	pop	{r3}
 80033a4:	469e      	mov	lr, r3
 80033a6:	4770      	bx	lr

080033a8 <_fini>:
 80033a8:	b5f8      	push	{r3, r4, r5, r6, r7, lr}
 80033aa:	bf00      	nop
 80033ac:	bcf8      	pop	{r3, r4, r5, r6, r7}
 80033ae:	bc08      	pop	{r3}
 80033b0:	469e      	mov	lr, r3
 80033b2:	4770      	bx	lr
