
stepperMeasurement.elf:     file format elf32-littlearm

Sections:
Idx Name          Size      VMA       LMA       File off  Algn
  0 .isr_vector   00000424  0800c000  0800c000  00001000  2**2
                  CONTENTS, ALLOC, LOAD, READONLY, DATA
  1 .text         00008ea4  0800c428  0800c428  00001428  2**3
                  CONTENTS, ALLOC, LOAD, READONLY, CODE
  2 .rodata       0000026c  080152cc  080152cc  0000a2cc  2**2
                  CONTENTS, ALLOC, LOAD, READONLY, DATA
  3 .ARM.extab    00000000  08015538  08015538  0000b0f4  2**0
                  CONTENTS
  4 .ARM          00000008  08015538  08015538  0000a538  2**2
                  CONTENTS, ALLOC, LOAD, READONLY, DATA
  5 .preinit_array 00000000  08015540  08015540  0000b0f4  2**0
                  CONTENTS, ALLOC, LOAD, DATA
  6 .init_array   00000004  08015540  08015540  0000a540  2**2
                  CONTENTS, ALLOC, LOAD, READONLY, DATA
  7 .fini_array   00000004  08015544  08015544  0000a544  2**2
                  CONTENTS, ALLOC, LOAD, READONLY, DATA
  8 .data         00000034  200000c0  08015548  0000b0c0  2**2
                  CONTENTS, ALLOC, LOAD, DATA
  9 .bss          0001dfcc  200000f4  0801557c  0000b0f4  2**2
                  ALLOC
 10 ._user_heap_stack 00000600  2001e0c0  0801557c  0000c0c0  2**0
                  ALLOC
 11 .ARM.attributes 00000030  00000000  00000000  0000b0f4  2**0
                  CONTENTS, READONLY
 12 .debug_info   0001bcb8  00000000  00000000  0000b124  2**0
                  CONTENTS, READONLY, DEBUGGING, OCTETS
 13 .debug_abbrev 00004a31  00000000  00000000  00026ddc  2**0
                  CONTENTS, READONLY, DEBUGGING, OCTETS
 14 .debug_aranges 000018a0  00000000  00000000  0002b810  2**3
                  CONTENTS, READONLY, DEBUGGING, OCTETS
 15 .debug_rnglists 00001320  00000000  00000000  0002d0b0  2**0
                  CONTENTS, READONLY, DEBUGGING, OCTETS
 16 .debug_macro  000288d8  00000000  00000000  0002e3d0  2**0
                  CONTENTS, READONLY, DEBUGGING, OCTETS
 17 .debug_line   00023497  00000000  00000000  00056ca8  2**0
                  CONTENTS, READONLY, DEBUGGING, OCTETS
 18 .debug_str    000ef76a  00000000  00000000  0007a13f  2**0
                  CONTENTS, READONLY, DEBUGGING, OCTETS
 19 .comment      00000043  00000000  00000000  001698a9  2**0
                  CONTENTS, READONLY
 20 .debug_frame  000067b4  00000000  00000000  001698ec  2**2
                  CONTENTS, READONLY, DEBUGGING, OCTETS
 21 .debug_line_str 0000007f  00000000  00000000  001700a0  2**0
                  CONTENTS, READONLY, DEBUGGING, OCTETS

Disassembly of section .text:

0800c428 <__do_global_dtors_aux>:
 800c428:	b510      	push	{r4, lr}
 800c42a:	4c05      	ldr	r4, [pc, #20]	@ (800c440 <__do_global_dtors_aux+0x18>)
 800c42c:	7823      	ldrb	r3, [r4, #0]
 800c42e:	b933      	cbnz	r3, 800c43e <__do_global_dtors_aux+0x16>
 800c430:	4b04      	ldr	r3, [pc, #16]	@ (800c444 <__do_global_dtors_aux+0x1c>)
 800c432:	b113      	cbz	r3, 800c43a <__do_global_dtors_aux+0x12>
 800c434:	4804      	ldr	r0, [pc, #16]	@ (800c448 <__do_global_dtors_aux+0x20>)
 800c436:	f3af 8000 	nop.w
 800c43a:	2301      	movs	r3, #1
 800c43c:	7023      	strb	r3, [r4, #0]
 800c43e:	bd10      	pop	{r4, pc}
 800c440:	200000f4 	.word	0x200000f4
 800c444:	00000000 	.word	0x00000000
 800c448:	080152b4 	.word	0x080152b4

0800c44c <frame_dummy>:
 800c44c:	b508      	push	{r3, lr}
 800c44e:	4b03      	ldr	r3, [pc, #12]	@ (800c45c <frame_dummy+0x10>)
 800c450:	b11b      	cbz	r3, 800c45a <frame_dummy+0xe>
 800c452:	4903      	ldr	r1, [pc, #12]	@ (800c460 <frame_dummy+0x14>)
 800c454:	4803      	ldr	r0, [pc, #12]	@ (800c464 <frame_dummy+0x18>)
 800c456:	f3af 8000 	nop.w
 800c45a:	bd08      	pop	{r3, pc}
 800c45c:	00000000 	.word	0x00000000
 800c460:	200000f8 	.word	0x200000f8
 800c464:	080152b4 	.word	0x080152b4

0800c468 <__aeabi_dmul>:
 800c468:	b570      	push	{r4, r5, r6, lr}
 800c46a:	f04f 0cff 	mov.w	ip, #255	@ 0xff
 800c46e:	f44c 6ce0 	orr.w	ip, ip, #1792	@ 0x700
 800c472:	ea1c 5411 	ands.w	r4, ip, r1, lsr #20
 800c476:	bf1d      	ittte	ne
 800c478:	ea1c 5513 	andsne.w	r5, ip, r3, lsr #20
 800c47c:	ea94 0f0c 	teqne	r4, ip
 800c480:	ea95 0f0c 	teqne	r5, ip
 800c484:	f000 f8de 	bleq	800c644 <__aeabi_dmul+0x1dc>
 800c488:	442c      	add	r4, r5
 800c48a:	ea81 0603 	eor.w	r6, r1, r3
 800c48e:	ea21 514c 	bic.w	r1, r1, ip, lsl #21
 800c492:	ea23 534c 	bic.w	r3, r3, ip, lsl #21
 800c496:	ea50 3501 	orrs.w	r5, r0, r1, lsl #12
 800c49a:	bf18      	it	ne
 800c49c:	ea52 3503 	orrsne.w	r5, r2, r3, lsl #12
 800c4a0:	f441 1180 	orr.w	r1, r1, #1048576	@ 0x100000
 800c4a4:	f443 1380 	orr.w	r3, r3, #1048576	@ 0x100000
 800c4a8:	d038      	beq.n	800c51c <__aeabi_dmul+0xb4>
 800c4aa:	fba0 ce02 	umull	ip, lr, r0, r2
 800c4ae:	f04f 0500 	mov.w	r5, #0
 800c4b2:	fbe1 e502 	umlal	lr, r5, r1, r2
 800c4b6:	f006 4200 	and.w	r2, r6, #2147483648	@ 0x80000000
 800c4ba:	fbe0 e503 	umlal	lr, r5, r0, r3
 800c4be:	f04f 0600 	mov.w	r6, #0
 800c4c2:	fbe1 5603 	umlal	r5, r6, r1, r3
 800c4c6:	f09c 0f00 	teq	ip, #0
 800c4ca:	bf18      	it	ne
 800c4cc:	f04e 0e01 	orrne.w	lr, lr, #1
 800c4d0:	f1a4 04ff 	sub.w	r4, r4, #255	@ 0xff
 800c4d4:	f5b6 7f00 	cmp.w	r6, #512	@ 0x200
 800c4d8:	f564 7440 	sbc.w	r4, r4, #768	@ 0x300
 800c4dc:	d204      	bcs.n	800c4e8 <__aeabi_dmul+0x80>
 800c4de:	ea5f 0e4e 	movs.w	lr, lr, lsl #1
 800c4e2:	416d      	adcs	r5, r5
 800c4e4:	eb46 0606 	adc.w	r6, r6, r6
 800c4e8:	ea42 21c6 	orr.w	r1, r2, r6, lsl #11
 800c4ec:	ea41 5155 	orr.w	r1, r1, r5, lsr #21
 800c4f0:	ea4f 20c5 	mov.w	r0, r5, lsl #11
 800c4f4:	ea40 505e 	orr.w	r0, r0, lr, lsr #21
 800c4f8:	ea4f 2ece 	mov.w	lr, lr, lsl #11
 800c4fc:	f1b4 0cfd 	subs.w	ip, r4, #253	@ 0xfd
 800c500:	bf88      	it	hi
 800c502:	f5bc 6fe0 	cmphi.w	ip, #1792	@ 0x700
 800c506:	d81e      	bhi.n	800c546 <__aeabi_dmul+0xde>
 800c508:	f1be 4f00 	cmp.w	lr, #2147483648	@ 0x80000000
 800c50c:	bf08      	it	eq
 800c50e:	ea5f 0e50 	movseq.w	lr, r0, lsr #1
 800c512:	f150 0000 	adcs.w	r0, r0, #0
 800c516:	eb41 5104 	adc.w	r1, r1, r4, lsl #20
 800c51a:	bd70      	pop	{r4, r5, r6, pc}
 800c51c:	f006 4600 	and.w	r6, r6, #2147483648	@ 0x80000000
 800c520:	ea46 0101 	orr.w	r1, r6, r1
 800c524:	ea40 0002 	orr.w	r0, r0, r2
 800c528:	ea81 0103 	eor.w	r1, r1, r3
 800c52c:	ebb4 045c 	subs.w	r4, r4, ip, lsr #1
 800c530:	bfc2      	ittt	gt
 800c532:	ebd4 050c 	rsbsgt	r5, r4, ip
 800c536:	ea41 5104 	orrgt.w	r1, r1, r4, lsl #20
 800c53a:	bd70      	popgt	{r4, r5, r6, pc}
 800c53c:	f441 1180 	orr.w	r1, r1, #1048576	@ 0x100000
 800c540:	f04f 0e00 	mov.w	lr, #0
 800c544:	3c01      	subs	r4, #1
 800c546:	f300 80ab 	bgt.w	800c6a0 <__aeabi_dmul+0x238>
 800c54a:	f114 0f36 	cmn.w	r4, #54	@ 0x36
 800c54e:	bfde      	ittt	le
 800c550:	2000      	movle	r0, #0
 800c552:	f001 4100 	andle.w	r1, r1, #2147483648	@ 0x80000000
 800c556:	bd70      	pople	{r4, r5, r6, pc}
 800c558:	f1c4 0400 	rsb	r4, r4, #0
 800c55c:	3c20      	subs	r4, #32
 800c55e:	da35      	bge.n	800c5cc <__aeabi_dmul+0x164>
 800c560:	340c      	adds	r4, #12
 800c562:	dc1b      	bgt.n	800c59c <__aeabi_dmul+0x134>
 800c564:	f104 0414 	add.w	r4, r4, #20
 800c568:	f1c4 0520 	rsb	r5, r4, #32
 800c56c:	fa00 f305 	lsl.w	r3, r0, r5
 800c570:	fa20 f004 	lsr.w	r0, r0, r4
 800c574:	fa01 f205 	lsl.w	r2, r1, r5
 800c578:	ea40 0002 	orr.w	r0, r0, r2
 800c57c:	f001 4200 	and.w	r2, r1, #2147483648	@ 0x80000000
 800c580:	f021 4100 	bic.w	r1, r1, #2147483648	@ 0x80000000
 800c584:	eb10 70d3 	adds.w	r0, r0, r3, lsr #31
 800c588:	fa21 f604 	lsr.w	r6, r1, r4
 800c58c:	eb42 0106 	adc.w	r1, r2, r6
 800c590:	ea5e 0e43 	orrs.w	lr, lr, r3, lsl #1
 800c594:	bf08      	it	eq
 800c596:	ea20 70d3 	biceq.w	r0, r0, r3, lsr #31
 800c59a:	bd70      	pop	{r4, r5, r6, pc}
 800c59c:	f1c4 040c 	rsb	r4, r4, #12
 800c5a0:	f1c4 0520 	rsb	r5, r4, #32
 800c5a4:	fa00 f304 	lsl.w	r3, r0, r4
 800c5a8:	fa20 f005 	lsr.w	r0, r0, r5
 800c5ac:	fa01 f204 	lsl.w	r2, r1, r4
 800c5b0:	ea40 0002 	orr.w	r0, r0, r2
 800c5b4:	f001 4100 	and.w	r1, r1, #2147483648	@ 0x80000000
 800c5b8:	eb10 70d3 	adds.w	r0, r0, r3, lsr #31
 800c5bc:	f141 0100 	adc.w	r1, r1, #0
 800c5c0:	ea5e 0e43 	orrs.w	lr, lr, r3, lsl #1
 800c5c4:	bf08      	it	eq
 800c5c6:	ea20 70d3 	biceq.w	r0, r0, r3, lsr #31
 800c5ca:	bd70      	pop	{r4, r5, r6, pc}
 800c5cc:	f1c4 0520 	rsb	r5, r4, #32
 800c5d0:	fa00 f205 	lsl.w	r2, r0, r5
 800c5d4:	ea4e 0e02 	orr.w	lr, lr, r2
 800c5d8:	fa20 f304 	lsr.w	r3, r0, r4
 800c5dc:	fa01 f205 	lsl.w	r2, r1, r5
 800c5e0:	ea43 0302 	orr.w	r3, r3, r2
 800c5e4:	fa21 f004 	lsr.w	r0, r1, r4
 800c5e8:	f001 4100 	and.w	r1, r1, #2147483648	@ 0x80000000
 800c5ec:	fa21 f204 	lsr.w	r2, r1, r4
 800c5f0:	ea20 0002 	bic.w	r0, r0, r2
 800c5f4:	eb00 70d3 	add.w	r0, r0, r3, lsr #31
 800c5f8:	ea5e 0e43 	orrs.w	lr, lr, r3, lsl #1
 800c5fc:	bf08      	it	eq
 800c5fe:	ea20 70d3 	biceq.w	r0, r0, r3, lsr #31
 800c602:	bd70      	pop	{r4, r5, r6, pc}
 800c604:	f094 0f00 	teq	r4, #0
 800c608:	d10f      	bne.n	800c62a <__aeabi_dmul+0x1c2>
 800c60a:	f001 4600 	and.w	r6, r1, #2147483648	@ 0x80000000
 800c60e:	0040      	lsls	r0, r0, #1
 800c610:	eb41 0101 	adc.w	r1, r1, r1
 800c614:	f411 1f80 	tst.w	r1, #1048576	@ 0x100000
 800c618:	bf08      	it	eq
 800c61a:	3c01      	subeq	r4, #1
 800c61c:	d0f7      	beq.n	800c60e <__aeabi_dmul+0x1a6>
 800c61e:	ea41 0106 	orr.w	r1, r1, r6
 800c622:	f095 0f00 	teq	r5, #0
 800c626:	bf18      	it	ne
 800c628:	4770      	bxne	lr
 800c62a:	f003 4600 	and.w	r6, r3, #2147483648	@ 0x80000000
 800c62e:	0052      	lsls	r2, r2, #1
 800c630:	eb43 0303 	adc.w	r3, r3, r3
 800c634:	f413 1f80 	tst.w	r3, #1048576	@ 0x100000
 800c638:	bf08      	it	eq
 800c63a:	3d01      	subeq	r5, #1
 800c63c:	d0f7      	beq.n	800c62e <__aeabi_dmul+0x1c6>
 800c63e:	ea43 0306 	orr.w	r3, r3, r6
 800c642:	4770      	bx	lr
 800c644:	ea94 0f0c 	teq	r4, ip
 800c648:	ea0c 5513 	and.w	r5, ip, r3, lsr #20
 800c64c:	bf18      	it	ne
 800c64e:	ea95 0f0c 	teqne	r5, ip
 800c652:	d00c      	beq.n	800c66e <__aeabi_dmul+0x206>
 800c654:	ea50 0641 	orrs.w	r6, r0, r1, lsl #1
 800c658:	bf18      	it	ne
 800c65a:	ea52 0643 	orrsne.w	r6, r2, r3, lsl #1
 800c65e:	d1d1      	bne.n	800c604 <__aeabi_dmul+0x19c>
 800c660:	ea81 0103 	eor.w	r1, r1, r3
 800c664:	f001 4100 	and.w	r1, r1, #2147483648	@ 0x80000000
 800c668:	f04f 0000 	mov.w	r0, #0
 800c66c:	bd70      	pop	{r4, r5, r6, pc}
 800c66e:	ea50 0641 	orrs.w	r6, r0, r1, lsl #1
 800c672:	bf06      	itte	eq
 800c674:	4610      	moveq	r0, r2
 800c676:	4619      	moveq	r1, r3
 800c678:	ea52 0643 	orrsne.w	r6, r2, r3, lsl #1
 800c67c:	d019      	beq.n	800c6b2 <__aeabi_dmul+0x24a>
 800c67e:	ea94 0f0c 	teq	r4, ip
 800c682:	d102      	bne.n	800c68a <__aeabi_dmul+0x222>
 800c684:	ea50 3601 	orrs.w	r6, r0, r1, lsl #12
 800c688:	d113      	bne.n	800c6b2 <__aeabi_dmul+0x24a>
 800c68a:	ea95 0f0c 	teq	r5, ip
 800c68e:	d105      	bne.n	800c69c <__aeabi_dmul+0x234>
 800c690:	ea52 3603 	orrs.w	r6, r2, r3, lsl #12
 800c694:	bf1c      	itt	ne
 800c696:	4610      	movne	r0, r2
 800c698:	4619      	movne	r1, r3
 800c69a:	d10a      	bne.n	800c6b2 <__aeabi_dmul+0x24a>
 800c69c:	ea81 0103 	eor.w	r1, r1, r3
 800c6a0:	f001 4100 	and.w	r1, r1, #2147483648	@ 0x80000000
 800c6a4:	f041 41fe 	orr.w	r1, r1, #2130706432	@ 0x7f000000
 800c6a8:	f441 0170 	orr.w	r1, r1, #15728640	@ 0xf00000
 800c6ac:	f04f 0000 	mov.w	r0, #0
 800c6b0:	bd70      	pop	{r4, r5, r6, pc}
 800c6b2:	f041 41fe 	orr.w	r1, r1, #2130706432	@ 0x7f000000
 800c6b6:	f441 0178 	orr.w	r1, r1, #16252928	@ 0xf80000
 800c6ba:	bd70      	pop	{r4, r5, r6, pc}

0800c6bc <__aeabi_drsub>:
 800c6bc:	f081 4100 	eor.w	r1, r1, #2147483648	@ 0x80000000
 800c6c0:	e002      	b.n	800c6c8 <__adddf3>
 800c6c2:	bf00      	nop

0800c6c4 <__aeabi_dsub>:
 800c6c4:	f083 4300 	eor.w	r3, r3, #2147483648	@ 0x80000000

0800c6c8 <__adddf3>:
 800c6c8:	b530      	push	{r4, r5, lr}
 800c6ca:	ea4f 0441 	mov.w	r4, r1, lsl #1
 800c6ce:	ea4f 0543 	mov.w	r5, r3, lsl #1
 800c6d2:	ea94 0f05 	teq	r4, r5
 800c6d6:	bf08      	it	eq
 800c6d8:	ea90 0f02 	teqeq	r0, r2
 800c6dc:	bf1f      	itttt	ne
 800c6de:	ea54 0c00 	orrsne.w	ip, r4, r0
 800c6e2:	ea55 0c02 	orrsne.w	ip, r5, r2
 800c6e6:	ea7f 5c64 	mvnsne.w	ip, r4, asr #21
 800c6ea:	ea7f 5c65 	mvnsne.w	ip, r5, asr #21
 800c6ee:	f000 80e2 	beq.w	800c8b6 <__adddf3+0x1ee>
 800c6f2:	ea4f 5454 	mov.w	r4, r4, lsr #21
 800c6f6:	ebd4 5555 	rsbs	r5, r4, r5, lsr #21
 800c6fa:	bfb8      	it	lt
 800c6fc:	426d      	neglt	r5, r5
 800c6fe:	dd0c      	ble.n	800c71a <__adddf3+0x52>
 800c700:	442c      	add	r4, r5
 800c702:	ea80 0202 	eor.w	r2, r0, r2
 800c706:	ea81 0303 	eor.w	r3, r1, r3
 800c70a:	ea82 0000 	eor.w	r0, r2, r0
 800c70e:	ea83 0101 	eor.w	r1, r3, r1
 800c712:	ea80 0202 	eor.w	r2, r0, r2
 800c716:	ea81 0303 	eor.w	r3, r1, r3
 800c71a:	2d36      	cmp	r5, #54	@ 0x36
 800c71c:	bf88      	it	hi
 800c71e:	bd30      	pophi	{r4, r5, pc}
 800c720:	f011 4f00 	tst.w	r1, #2147483648	@ 0x80000000
 800c724:	ea4f 3101 	mov.w	r1, r1, lsl #12
 800c728:	f44f 1c80 	mov.w	ip, #1048576	@ 0x100000
 800c72c:	ea4c 3111 	orr.w	r1, ip, r1, lsr #12
 800c730:	d002      	beq.n	800c738 <__adddf3+0x70>
 800c732:	4240      	negs	r0, r0
 800c734:	eb61 0141 	sbc.w	r1, r1, r1, lsl #1
 800c738:	f013 4f00 	tst.w	r3, #2147483648	@ 0x80000000
 800c73c:	ea4f 3303 	mov.w	r3, r3, lsl #12
 800c740:	ea4c 3313 	orr.w	r3, ip, r3, lsr #12
 800c744:	d002      	beq.n	800c74c <__adddf3+0x84>
 800c746:	4252      	negs	r2, r2
 800c748:	eb63 0343 	sbc.w	r3, r3, r3, lsl #1
 800c74c:	ea94 0f05 	teq	r4, r5
 800c750:	f000 80a7 	beq.w	800c8a2 <__adddf3+0x1da>
 800c754:	f1a4 0401 	sub.w	r4, r4, #1
 800c758:	f1d5 0e20 	rsbs	lr, r5, #32
 800c75c:	db0d      	blt.n	800c77a <__adddf3+0xb2>
 800c75e:	fa02 fc0e 	lsl.w	ip, r2, lr
 800c762:	fa22 f205 	lsr.w	r2, r2, r5
 800c766:	1880      	adds	r0, r0, r2
 800c768:	f141 0100 	adc.w	r1, r1, #0
 800c76c:	fa03 f20e 	lsl.w	r2, r3, lr
 800c770:	1880      	adds	r0, r0, r2
 800c772:	fa43 f305 	asr.w	r3, r3, r5
 800c776:	4159      	adcs	r1, r3
 800c778:	e00e      	b.n	800c798 <__adddf3+0xd0>
 800c77a:	f1a5 0520 	sub.w	r5, r5, #32
 800c77e:	f10e 0e20 	add.w	lr, lr, #32
 800c782:	2a01      	cmp	r2, #1
 800c784:	fa03 fc0e 	lsl.w	ip, r3, lr
 800c788:	bf28      	it	cs
 800c78a:	f04c 0c02 	orrcs.w	ip, ip, #2
 800c78e:	fa43 f305 	asr.w	r3, r3, r5
 800c792:	18c0      	adds	r0, r0, r3
 800c794:	eb51 71e3 	adcs.w	r1, r1, r3, asr #31
 800c798:	f001 4500 	and.w	r5, r1, #2147483648	@ 0x80000000
 800c79c:	d507      	bpl.n	800c7ae <__adddf3+0xe6>
 800c79e:	f04f 0e00 	mov.w	lr, #0
 800c7a2:	f1dc 0c00 	rsbs	ip, ip, #0
 800c7a6:	eb7e 0000 	sbcs.w	r0, lr, r0
 800c7aa:	eb6e 0101 	sbc.w	r1, lr, r1
 800c7ae:	f5b1 1f80 	cmp.w	r1, #1048576	@ 0x100000
 800c7b2:	d31b      	bcc.n	800c7ec <__adddf3+0x124>
 800c7b4:	f5b1 1f00 	cmp.w	r1, #2097152	@ 0x200000
 800c7b8:	d30c      	bcc.n	800c7d4 <__adddf3+0x10c>
 800c7ba:	0849      	lsrs	r1, r1, #1
 800c7bc:	ea5f 0030 	movs.w	r0, r0, rrx
 800c7c0:	ea4f 0c3c 	mov.w	ip, ip, rrx
 800c7c4:	f104 0401 	add.w	r4, r4, #1
 800c7c8:	ea4f 5244 	mov.w	r2, r4, lsl #21
 800c7cc:	f512 0f80 	cmn.w	r2, #4194304	@ 0x400000
 800c7d0:	f080 809a 	bcs.w	800c908 <__adddf3+0x240>
 800c7d4:	f1bc 4f00 	cmp.w	ip, #2147483648	@ 0x80000000
 800c7d8:	bf08      	it	eq
 800c7da:	ea5f 0c50 	movseq.w	ip, r0, lsr #1
 800c7de:	f150 0000 	adcs.w	r0, r0, #0
 800c7e2:	eb41 5104 	adc.w	r1, r1, r4, lsl #20
 800c7e6:	ea41 0105 	orr.w	r1, r1, r5
 800c7ea:	bd30      	pop	{r4, r5, pc}
 800c7ec:	ea5f 0c4c 	movs.w	ip, ip, lsl #1
 800c7f0:	4140      	adcs	r0, r0
 800c7f2:	eb41 0101 	adc.w	r1, r1, r1
 800c7f6:	3c01      	subs	r4, #1
 800c7f8:	bf28      	it	cs
 800c7fa:	f5b1 1f80 	cmpcs.w	r1, #1048576	@ 0x100000
 800c7fe:	d2e9      	bcs.n	800c7d4 <__adddf3+0x10c>
 800c800:	f091 0f00 	teq	r1, #0
 800c804:	bf04      	itt	eq
 800c806:	4601      	moveq	r1, r0
 800c808:	2000      	moveq	r0, #0
 800c80a:	fab1 f381 	clz	r3, r1
 800c80e:	bf08      	it	eq
 800c810:	3320      	addeq	r3, #32
 800c812:	f1a3 030b 	sub.w	r3, r3, #11
 800c816:	f1b3 0220 	subs.w	r2, r3, #32
 800c81a:	da0c      	bge.n	800c836 <__adddf3+0x16e>
 800c81c:	320c      	adds	r2, #12
 800c81e:	dd08      	ble.n	800c832 <__adddf3+0x16a>
 800c820:	f102 0c14 	add.w	ip, r2, #20
 800c824:	f1c2 020c 	rsb	r2, r2, #12
 800c828:	fa01 f00c 	lsl.w	r0, r1, ip
 800c82c:	fa21 f102 	lsr.w	r1, r1, r2
 800c830:	e00c      	b.n	800c84c <__adddf3+0x184>
 800c832:	f102 0214 	add.w	r2, r2, #20
 800c836:	bfd8      	it	le
 800c838:	f1c2 0c20 	rsble	ip, r2, #32
 800c83c:	fa01 f102 	lsl.w	r1, r1, r2
 800c840:	fa20 fc0c 	lsr.w	ip, r0, ip
 800c844:	bfdc      	itt	le
 800c846:	ea41 010c 	orrle.w	r1, r1, ip
 800c84a:	4090      	lslle	r0, r2
 800c84c:	1ae4      	subs	r4, r4, r3
 800c84e:	bfa2      	ittt	ge
 800c850:	eb01 5104 	addge.w	r1, r1, r4, lsl #20
 800c854:	4329      	orrge	r1, r5
 800c856:	bd30      	popge	{r4, r5, pc}
 800c858:	ea6f 0404 	mvn.w	r4, r4
 800c85c:	3c1f      	subs	r4, #31
 800c85e:	da1c      	bge.n	800c89a <__adddf3+0x1d2>
 800c860:	340c      	adds	r4, #12
 800c862:	dc0e      	bgt.n	800c882 <__adddf3+0x1ba>
 800c864:	f104 0414 	add.w	r4, r4, #20
 800c868:	f1c4 0220 	rsb	r2, r4, #32
 800c86c:	fa20 f004 	lsr.w	r0, r0, r4
 800c870:	fa01 f302 	lsl.w	r3, r1, r2
 800c874:	ea40 0003 	orr.w	r0, r0, r3
 800c878:	fa21 f304 	lsr.w	r3, r1, r4
 800c87c:	ea45 0103 	orr.w	r1, r5, r3
 800c880:	bd30      	pop	{r4, r5, pc}
 800c882:	f1c4 040c 	rsb	r4, r4, #12
 800c886:	f1c4 0220 	rsb	r2, r4, #32
 800c88a:	fa20 f002 	lsr.w	r0, r0, r2
 800c88e:	fa01 f304 	lsl.w	r3, r1, r4
 800c892:	ea40 0003 	orr.w	r0, r0, r3
 800c896:	4629      	mov	r1, r5
 800c898:	bd30      	pop	{r4, r5, pc}
 800c89a:	fa21 f004 	lsr.w	r0, r1, r4
 800c89e:	4629      	mov	r1, r5
 800c8a0:	bd30      	pop	{r4, r5, pc}
 800c8a2:	f094 0f00 	teq	r4, #0
 800c8a6:	f483 1380 	eor.w	r3, r3, #1048576	@ 0x100000
 800c8aa:	bf06      	itte	eq
 800c8ac:	f481 1180 	eoreq.w	r1, r1, #1048576	@ 0x100000
 800c8b0:	3401      	addeq	r4, #1
 800c8b2:	3d01      	subne	r5, #1
 800c8b4:	e74e      	b.n	800c754 <__adddf3+0x8c>
 800c8b6:	ea7f 5c64 	mvns.w	ip, r4, asr #21
 800c8ba:	bf18      	it	ne
 800c8bc:	ea7f 5c65 	mvnsne.w	ip, r5, asr #21
 800c8c0:	d029      	beq.n	800c916 <__adddf3+0x24e>
 800c8c2:	ea94 0f05 	teq	r4, r5
 800c8c6:	bf08      	it	eq
 800c8c8:	ea90 0f02 	teqeq	r0, r2
 800c8cc:	d005      	beq.n	800c8da <__adddf3+0x212>
 800c8ce:	ea54 0c00 	orrs.w	ip, r4, r0
 800c8d2:	bf04      	itt	eq
 800c8d4:	4619      	moveq	r1, r3
 800c8d6:	4610      	moveq	r0, r2
 800c8d8:	bd30      	pop	{r4, r5, pc}
 800c8da:	ea91 0f03 	teq	r1, r3
 800c8de:	bf1e      	ittt	ne
 800c8e0:	2100      	movne	r1, #0
 800c8e2:	2000      	movne	r0, #0
 800c8e4:	bd30      	popne	{r4, r5, pc}
 800c8e6:	ea5f 5c54 	movs.w	ip, r4, lsr #21
 800c8ea:	d105      	bne.n	800c8f8 <__adddf3+0x230>
 800c8ec:	0040      	lsls	r0, r0, #1
 800c8ee:	4149      	adcs	r1, r1
 800c8f0:	bf28      	it	cs
 800c8f2:	f041 4100 	orrcs.w	r1, r1, #2147483648	@ 0x80000000
 800c8f6:	bd30      	pop	{r4, r5, pc}
 800c8f8:	f514 0480 	adds.w	r4, r4, #4194304	@ 0x400000
 800c8fc:	bf3c      	itt	cc
 800c8fe:	f501 1180 	addcc.w	r1, r1, #1048576	@ 0x100000
 800c902:	bd30      	popcc	{r4, r5, pc}
 800c904:	f001 4500 	and.w	r5, r1, #2147483648	@ 0x80000000
 800c908:	f045 41fe 	orr.w	r1, r5, #2130706432	@ 0x7f000000
 800c90c:	f441 0170 	orr.w	r1, r1, #15728640	@ 0xf00000
 800c910:	f04f 0000 	mov.w	r0, #0
 800c914:	bd30      	pop	{r4, r5, pc}
 800c916:	ea7f 5c64 	mvns.w	ip, r4, asr #21
 800c91a:	bf1a      	itte	ne
 800c91c:	4619      	movne	r1, r3
 800c91e:	4610      	movne	r0, r2
 800c920:	ea7f 5c65 	mvnseq.w	ip, r5, asr #21
 800c924:	bf1c      	itt	ne
 800c926:	460b      	movne	r3, r1
 800c928:	4602      	movne	r2, r0
 800c92a:	ea50 3401 	orrs.w	r4, r0, r1, lsl #12
 800c92e:	bf06      	itte	eq
 800c930:	ea52 3503 	orrseq.w	r5, r2, r3, lsl #12
 800c934:	ea91 0f03 	teqeq	r1, r3
 800c938:	f441 2100 	orrne.w	r1, r1, #524288	@ 0x80000
 800c93c:	bd30      	pop	{r4, r5, pc}
 800c93e:	bf00      	nop

0800c940 <__aeabi_ui2d>:
 800c940:	f090 0f00 	teq	r0, #0
 800c944:	bf04      	itt	eq
 800c946:	2100      	moveq	r1, #0
 800c948:	4770      	bxeq	lr
 800c94a:	b530      	push	{r4, r5, lr}
 800c94c:	f44f 6480 	mov.w	r4, #1024	@ 0x400
 800c950:	f104 0432 	add.w	r4, r4, #50	@ 0x32
 800c954:	f04f 0500 	mov.w	r5, #0
 800c958:	f04f 0100 	mov.w	r1, #0
 800c95c:	e750      	b.n	800c800 <__adddf3+0x138>
 800c95e:	bf00      	nop

0800c960 <__aeabi_i2d>:
 800c960:	f090 0f00 	teq	r0, #0
 800c964:	bf04      	itt	eq
 800c966:	2100      	moveq	r1, #0
 800c968:	4770      	bxeq	lr
 800c96a:	b530      	push	{r4, r5, lr}
 800c96c:	f44f 6480 	mov.w	r4, #1024	@ 0x400
 800c970:	f104 0432 	add.w	r4, r4, #50	@ 0x32
 800c974:	f010 4500 	ands.w	r5, r0, #2147483648	@ 0x80000000
 800c978:	bf48      	it	mi
 800c97a:	4240      	negmi	r0, r0
 800c97c:	f04f 0100 	mov.w	r1, #0
 800c980:	e73e      	b.n	800c800 <__adddf3+0x138>
 800c982:	bf00      	nop

0800c984 <__aeabi_f2d>:
 800c984:	0042      	lsls	r2, r0, #1
 800c986:	ea4f 01e2 	mov.w	r1, r2, asr #3
 800c98a:	ea4f 0131 	mov.w	r1, r1, rrx
 800c98e:	ea4f 7002 	mov.w	r0, r2, lsl #28
 800c992:	bf1f      	itttt	ne
 800c994:	f012 437f 	andsne.w	r3, r2, #4278190080	@ 0xff000000
 800c998:	f093 4f7f 	teqne	r3, #4278190080	@ 0xff000000
 800c99c:	f081 5160 	eorne.w	r1, r1, #939524096	@ 0x38000000
 800c9a0:	4770      	bxne	lr
 800c9a2:	f032 427f 	bics.w	r2, r2, #4278190080	@ 0xff000000
 800c9a6:	bf08      	it	eq
 800c9a8:	4770      	bxeq	lr
 800c9aa:	f093 4f7f 	teq	r3, #4278190080	@ 0xff000000
 800c9ae:	bf04      	itt	eq
 800c9b0:	f441 2100 	orreq.w	r1, r1, #524288	@ 0x80000
 800c9b4:	4770      	bxeq	lr
 800c9b6:	b530      	push	{r4, r5, lr}
 800c9b8:	f44f 7460 	mov.w	r4, #896	@ 0x380
 800c9bc:	f001 4500 	and.w	r5, r1, #2147483648	@ 0x80000000
 800c9c0:	f021 4100 	bic.w	r1, r1, #2147483648	@ 0x80000000
 800c9c4:	e71c      	b.n	800c800 <__adddf3+0x138>
 800c9c6:	bf00      	nop

0800c9c8 <__aeabi_ul2d>:
 800c9c8:	ea50 0201 	orrs.w	r2, r0, r1
 800c9cc:	bf08      	it	eq
 800c9ce:	4770      	bxeq	lr
 800c9d0:	b530      	push	{r4, r5, lr}
 800c9d2:	f04f 0500 	mov.w	r5, #0
 800c9d6:	e00a      	b.n	800c9ee <__aeabi_l2d+0x16>

0800c9d8 <__aeabi_l2d>:
 800c9d8:	ea50 0201 	orrs.w	r2, r0, r1
 800c9dc:	bf08      	it	eq
 800c9de:	4770      	bxeq	lr
 800c9e0:	b530      	push	{r4, r5, lr}
 800c9e2:	f011 4500 	ands.w	r5, r1, #2147483648	@ 0x80000000
 800c9e6:	d502      	bpl.n	800c9ee <__aeabi_l2d+0x16>
 800c9e8:	4240      	negs	r0, r0
 800c9ea:	eb61 0141 	sbc.w	r1, r1, r1, lsl #1
 800c9ee:	f44f 6480 	mov.w	r4, #1024	@ 0x400
 800c9f2:	f104 0432 	add.w	r4, r4, #50	@ 0x32
 800c9f6:	ea5f 5c91 	movs.w	ip, r1, lsr #22
 800c9fa:	f43f aed8 	beq.w	800c7ae <__adddf3+0xe6>
 800c9fe:	f04f 0203 	mov.w	r2, #3
 800ca02:	ea5f 0cdc 	movs.w	ip, ip, lsr #3
 800ca06:	bf18      	it	ne
 800ca08:	3203      	addne	r2, #3
 800ca0a:	ea5f 0cdc 	movs.w	ip, ip, lsr #3
 800ca0e:	bf18      	it	ne
 800ca10:	3203      	addne	r2, #3
 800ca12:	eb02 02dc 	add.w	r2, r2, ip, lsr #3
 800ca16:	f1c2 0320 	rsb	r3, r2, #32
 800ca1a:	fa00 fc03 	lsl.w	ip, r0, r3
 800ca1e:	fa20 f002 	lsr.w	r0, r0, r2
 800ca22:	fa01 fe03 	lsl.w	lr, r1, r3
 800ca26:	ea40 000e 	orr.w	r0, r0, lr
 800ca2a:	fa21 f102 	lsr.w	r1, r1, r2
 800ca2e:	4414      	add	r4, r2
 800ca30:	e6bd      	b.n	800c7ae <__adddf3+0xe6>
 800ca32:	bf00      	nop

0800ca34 <__aeabi_d2iz>:
 800ca34:	ea4f 0241 	mov.w	r2, r1, lsl #1
 800ca38:	f512 1200 	adds.w	r2, r2, #2097152	@ 0x200000
 800ca3c:	d215      	bcs.n	800ca6a <__aeabi_d2iz+0x36>
 800ca3e:	d511      	bpl.n	800ca64 <__aeabi_d2iz+0x30>
 800ca40:	f46f 7378 	mvn.w	r3, #992	@ 0x3e0
 800ca44:	ebb3 5262 	subs.w	r2, r3, r2, asr #21
 800ca48:	d912      	bls.n	800ca70 <__aeabi_d2iz+0x3c>
 800ca4a:	ea4f 23c1 	mov.w	r3, r1, lsl #11
 800ca4e:	f043 4300 	orr.w	r3, r3, #2147483648	@ 0x80000000
 800ca52:	ea43 5350 	orr.w	r3, r3, r0, lsr #21
 800ca56:	f011 4f00 	tst.w	r1, #2147483648	@ 0x80000000
 800ca5a:	fa23 f002 	lsr.w	r0, r3, r2
 800ca5e:	bf18      	it	ne
 800ca60:	4240      	negne	r0, r0
 800ca62:	4770      	bx	lr
 800ca64:	f04f 0000 	mov.w	r0, #0
 800ca68:	4770      	bx	lr
 800ca6a:	ea50 3001 	orrs.w	r0, r0, r1, lsl #12
 800ca6e:	d105      	bne.n	800ca7c <__aeabi_d2iz+0x48>
 800ca70:	f011 4000 	ands.w	r0, r1, #2147483648	@ 0x80000000
 800ca74:	bf08      	it	eq
 800ca76:	f06f 4000 	mvneq.w	r0, #2147483648	@ 0x80000000
 800ca7a:	4770      	bx	lr
 800ca7c:	f04f 0000 	mov.w	r0, #0
 800ca80:	4770      	bx	lr
 800ca82:	bf00      	nop

0800ca84 <__aeabi_uldivmod>:
 800ca84:	b953      	cbnz	r3, 800ca9c <__aeabi_uldivmod+0x18>
 800ca86:	b94a      	cbnz	r2, 800ca9c <__aeabi_uldivmod+0x18>
 800ca88:	2900      	cmp	r1, #0
 800ca8a:	bf08      	it	eq
 800ca8c:	2800      	cmpeq	r0, #0
 800ca8e:	bf1c      	itt	ne
 800ca90:	f04f 31ff 	movne.w	r1, #4294967295
 800ca94:	f04f 30ff 	movne.w	r0, #4294967295
 800ca98:	f000 b96a 	b.w	800cd70 <__aeabi_idiv0>
 800ca9c:	f1ad 0c08 	sub.w	ip, sp, #8
 800caa0:	e96d ce04 	strd	ip, lr, [sp, #-16]!
 800caa4:	f000 f806 	bl	800cab4 <__udivmoddi4>
 800caa8:	f8dd e004 	ldr.w	lr, [sp, #4]
 800caac:	e9dd 2302 	ldrd	r2, r3, [sp, #8]
 800cab0:	b004      	add	sp, #16
 800cab2:	4770      	bx	lr

0800cab4 <__udivmoddi4>:
 800cab4:	e92d 47f0 	stmdb	sp!, {r4, r5, r6, r7, r8, r9, sl, lr}
 800cab8:	9d08      	ldr	r5, [sp, #32]
 800caba:	460c      	mov	r4, r1
 800cabc:	2b00      	cmp	r3, #0
 800cabe:	d14e      	bne.n	800cb5e <__udivmoddi4+0xaa>
 800cac0:	4694      	mov	ip, r2
 800cac2:	458c      	cmp	ip, r1
 800cac4:	4686      	mov	lr, r0
 800cac6:	fab2 f282 	clz	r2, r2
 800caca:	d962      	bls.n	800cb92 <__udivmoddi4+0xde>
 800cacc:	b14a      	cbz	r2, 800cae2 <__udivmoddi4+0x2e>
 800cace:	f1c2 0320 	rsb	r3, r2, #32
 800cad2:	4091      	lsls	r1, r2
 800cad4:	fa20 f303 	lsr.w	r3, r0, r3
 800cad8:	fa0c fc02 	lsl.w	ip, ip, r2
 800cadc:	4319      	orrs	r1, r3
 800cade:	fa00 fe02 	lsl.w	lr, r0, r2
 800cae2:	ea4f 471c 	mov.w	r7, ip, lsr #16
 800cae6:	fa1f f68c 	uxth.w	r6, ip
 800caea:	fbb1 f4f7 	udiv	r4, r1, r7
 800caee:	ea4f 431e 	mov.w	r3, lr, lsr #16
 800caf2:	fb07 1114 	mls	r1, r7, r4, r1
 800caf6:	ea43 4301 	orr.w	r3, r3, r1, lsl #16
 800cafa:	fb04 f106 	mul.w	r1, r4, r6
 800cafe:	4299      	cmp	r1, r3
 800cb00:	d90a      	bls.n	800cb18 <__udivmoddi4+0x64>
 800cb02:	eb1c 0303 	adds.w	r3, ip, r3
 800cb06:	f104 30ff 	add.w	r0, r4, #4294967295
 800cb0a:	f080 8112 	bcs.w	800cd32 <__udivmoddi4+0x27e>
 800cb0e:	4299      	cmp	r1, r3
 800cb10:	f240 810f 	bls.w	800cd32 <__udivmoddi4+0x27e>
 800cb14:	3c02      	subs	r4, #2
 800cb16:	4463      	add	r3, ip
 800cb18:	1a59      	subs	r1, r3, r1
 800cb1a:	fa1f f38e 	uxth.w	r3, lr
 800cb1e:	fbb1 f0f7 	udiv	r0, r1, r7
 800cb22:	fb07 1110 	mls	r1, r7, r0, r1
 800cb26:	ea43 4301 	orr.w	r3, r3, r1, lsl #16
 800cb2a:	fb00 f606 	mul.w	r6, r0, r6
 800cb2e:	429e      	cmp	r6, r3
 800cb30:	d90a      	bls.n	800cb48 <__udivmoddi4+0x94>
 800cb32:	eb1c 0303 	adds.w	r3, ip, r3
 800cb36:	f100 31ff 	add.w	r1, r0, #4294967295
 800cb3a:	f080 80fc 	bcs.w	800cd36 <__udivmoddi4+0x282>
 800cb3e:	429e      	cmp	r6, r3
 800cb40:	f240 80f9 	bls.w	800cd36 <__udivmoddi4+0x282>
 800cb44:	4463      	add	r3, ip
 800cb46:	3802      	subs	r0, #2
 800cb48:	1b9b      	subs	r3, r3, r6
 800cb4a:	ea40 4004 	orr.w	r0, r0, r4, lsl #16
 800cb4e:	2100      	movs	r1, #0
 800cb50:	b11d      	cbz	r5, 800cb5a <__udivmoddi4+0xa6>
 800cb52:	40d3      	lsrs	r3, r2
 800cb54:	2200      	movs	r2, #0
 800cb56:	e9c5 3200 	strd	r3, r2, [r5]
 800cb5a:	e8bd 87f0 	ldmia.w	sp!, {r4, r5, r6, r7, r8, r9, sl, pc}
 800cb5e:	428b      	cmp	r3, r1
 800cb60:	d905      	bls.n	800cb6e <__udivmoddi4+0xba>
 800cb62:	b10d      	cbz	r5, 800cb68 <__udivmoddi4+0xb4>
 800cb64:	e9c5 0100 	strd	r0, r1, [r5]
 800cb68:	2100      	movs	r1, #0
 800cb6a:	4608      	mov	r0, r1
 800cb6c:	e7f5      	b.n	800cb5a <__udivmoddi4+0xa6>
 800cb6e:	fab3 f183 	clz	r1, r3
 800cb72:	2900      	cmp	r1, #0
 800cb74:	d146      	bne.n	800cc04 <__udivmoddi4+0x150>
 800cb76:	42a3      	cmp	r3, r4
 800cb78:	d302      	bcc.n	800cb80 <__udivmoddi4+0xcc>
 800cb7a:	4290      	cmp	r0, r2
 800cb7c:	f0c0 80f0 	bcc.w	800cd60 <__udivmoddi4+0x2ac>
 800cb80:	1a86      	subs	r6, r0, r2
 800cb82:	eb64 0303 	sbc.w	r3, r4, r3
 800cb86:	2001      	movs	r0, #1
 800cb88:	2d00      	cmp	r5, #0
 800cb8a:	d0e6      	beq.n	800cb5a <__udivmoddi4+0xa6>
 800cb8c:	e9c5 6300 	strd	r6, r3, [r5]
 800cb90:	e7e3      	b.n	800cb5a <__udivmoddi4+0xa6>
 800cb92:	2a00      	cmp	r2, #0
 800cb94:	f040 8090 	bne.w	800ccb8 <__udivmoddi4+0x204>
 800cb98:	eba1 040c 	sub.w	r4, r1, ip
 800cb9c:	ea4f 481c 	mov.w	r8, ip, lsr #16
 800cba0:	fa1f f78c 	uxth.w	r7, ip
 800cba4:	2101      	movs	r1, #1
 800cba6:	fbb4 f6f8 	udiv	r6, r4, r8
 800cbaa:	ea4f 431e 	mov.w	r3, lr, lsr #16
 800cbae:	fb08 4416 	mls	r4, r8, r6, r4
 800cbb2:	ea43 4304 	orr.w	r3, r3, r4, lsl #16
 800cbb6:	fb07 f006 	mul.w	r0, r7, r6
 800cbba:	4298      	cmp	r0, r3
 800cbbc:	d908      	bls.n	800cbd0 <__udivmoddi4+0x11c>
 800cbbe:	eb1c 0303 	adds.w	r3, ip, r3
 800cbc2:	f106 34ff 	add.w	r4, r6, #4294967295
 800cbc6:	d202      	bcs.n	800cbce <__udivmoddi4+0x11a>
 800cbc8:	4298      	cmp	r0, r3
 800cbca:	f200 80cd 	bhi.w	800cd68 <__udivmoddi4+0x2b4>
 800cbce:	4626      	mov	r6, r4
 800cbd0:	1a1c      	subs	r4, r3, r0
 800cbd2:	fa1f f38e 	uxth.w	r3, lr
 800cbd6:	fbb4 f0f8 	udiv	r0, r4, r8
 800cbda:	fb08 4410 	mls	r4, r8, r0, r4
 800cbde:	ea43 4304 	orr.w	r3, r3, r4, lsl #16
 800cbe2:	fb00 f707 	mul.w	r7, r0, r7
 800cbe6:	429f      	cmp	r7, r3
 800cbe8:	d908      	bls.n	800cbfc <__udivmoddi4+0x148>
 800cbea:	eb1c 0303 	adds.w	r3, ip, r3
 800cbee:	f100 34ff 	add.w	r4, r0, #4294967295
 800cbf2:	d202      	bcs.n	800cbfa <__udivmoddi4+0x146>
 800cbf4:	429f      	cmp	r7, r3
 800cbf6:	f200 80b0 	bhi.w	800cd5a <__udivmoddi4+0x2a6>
 800cbfa:	4620      	mov	r0, r4
 800cbfc:	1bdb      	subs	r3, r3, r7
 800cbfe:	ea40 4006 	orr.w	r0, r0, r6, lsl #16
 800cc02:	e7a5      	b.n	800cb50 <__udivmoddi4+0x9c>
 800cc04:	f1c1 0620 	rsb	r6, r1, #32
 800cc08:	408b      	lsls	r3, r1
 800cc0a:	fa22 f706 	lsr.w	r7, r2, r6
 800cc0e:	431f      	orrs	r7, r3
 800cc10:	fa20 fc06 	lsr.w	ip, r0, r6
 800cc14:	fa04 f301 	lsl.w	r3, r4, r1
 800cc18:	ea43 030c 	orr.w	r3, r3, ip
 800cc1c:	40f4      	lsrs	r4, r6
 800cc1e:	fa00 f801 	lsl.w	r8, r0, r1
 800cc22:	0c38      	lsrs	r0, r7, #16
 800cc24:	ea4f 4913 	mov.w	r9, r3, lsr #16
 800cc28:	fbb4 fef0 	udiv	lr, r4, r0
 800cc2c:	fa1f fc87 	uxth.w	ip, r7
 800cc30:	fb00 441e 	mls	r4, r0, lr, r4
 800cc34:	ea49 4404 	orr.w	r4, r9, r4, lsl #16
 800cc38:	fb0e f90c 	mul.w	r9, lr, ip
 800cc3c:	45a1      	cmp	r9, r4
 800cc3e:	fa02 f201 	lsl.w	r2, r2, r1
 800cc42:	d90a      	bls.n	800cc5a <__udivmoddi4+0x1a6>
 800cc44:	193c      	adds	r4, r7, r4
 800cc46:	f10e 3aff 	add.w	sl, lr, #4294967295
 800cc4a:	f080 8084 	bcs.w	800cd56 <__udivmoddi4+0x2a2>
 800cc4e:	45a1      	cmp	r9, r4
 800cc50:	f240 8081 	bls.w	800cd56 <__udivmoddi4+0x2a2>
 800cc54:	f1ae 0e02 	sub.w	lr, lr, #2
 800cc58:	443c      	add	r4, r7
 800cc5a:	eba4 0409 	sub.w	r4, r4, r9
 800cc5e:	fa1f f983 	uxth.w	r9, r3
 800cc62:	fbb4 f3f0 	udiv	r3, r4, r0
 800cc66:	fb00 4413 	mls	r4, r0, r3, r4
 800cc6a:	ea49 4404 	orr.w	r4, r9, r4, lsl #16
 800cc6e:	fb03 fc0c 	mul.w	ip, r3, ip
 800cc72:	45a4      	cmp	ip, r4
 800cc74:	d907      	bls.n	800cc86 <__udivmoddi4+0x1d2>
 800cc76:	193c      	adds	r4, r7, r4
 800cc78:	f103 30ff 	add.w	r0, r3, #4294967295
 800cc7c:	d267      	bcs.n	800cd4e <__udivmoddi4+0x29a>
 800cc7e:	45a4      	cmp	ip, r4
 800cc80:	d965      	bls.n	800cd4e <__udivmoddi4+0x29a>
 800cc82:	3b02      	subs	r3, #2
 800cc84:	443c      	add	r4, r7
 800cc86:	ea43 400e 	orr.w	r0, r3, lr, lsl #16
 800cc8a:	fba0 9302 	umull	r9, r3, r0, r2
 800cc8e:	eba4 040c 	sub.w	r4, r4, ip
 800cc92:	429c      	cmp	r4, r3
 800cc94:	46ce      	mov	lr, r9
 800cc96:	469c      	mov	ip, r3
 800cc98:	d351      	bcc.n	800cd3e <__udivmoddi4+0x28a>
 800cc9a:	d04e      	beq.n	800cd3a <__udivmoddi4+0x286>
 800cc9c:	b155      	cbz	r5, 800ccb4 <__udivmoddi4+0x200>
 800cc9e:	ebb8 030e 	subs.w	r3, r8, lr
 800cca2:	eb64 040c 	sbc.w	r4, r4, ip
 800cca6:	fa04 f606 	lsl.w	r6, r4, r6
 800ccaa:	40cb      	lsrs	r3, r1
 800ccac:	431e      	orrs	r6, r3
 800ccae:	40cc      	lsrs	r4, r1
 800ccb0:	e9c5 6400 	strd	r6, r4, [r5]
 800ccb4:	2100      	movs	r1, #0
 800ccb6:	e750      	b.n	800cb5a <__udivmoddi4+0xa6>
 800ccb8:	f1c2 0320 	rsb	r3, r2, #32
 800ccbc:	fa20 f103 	lsr.w	r1, r0, r3
 800ccc0:	fa0c fc02 	lsl.w	ip, ip, r2
 800ccc4:	fa24 f303 	lsr.w	r3, r4, r3
 800ccc8:	4094      	lsls	r4, r2
 800ccca:	430c      	orrs	r4, r1
 800cccc:	ea4f 481c 	mov.w	r8, ip, lsr #16
 800ccd0:	fa00 fe02 	lsl.w	lr, r0, r2
 800ccd4:	fa1f f78c 	uxth.w	r7, ip
 800ccd8:	fbb3 f0f8 	udiv	r0, r3, r8
 800ccdc:	fb08 3110 	mls	r1, r8, r0, r3
 800cce0:	0c23      	lsrs	r3, r4, #16
 800cce2:	ea43 4301 	orr.w	r3, r3, r1, lsl #16
 800cce6:	fb00 f107 	mul.w	r1, r0, r7
 800ccea:	4299      	cmp	r1, r3
 800ccec:	d908      	bls.n	800cd00 <__udivmoddi4+0x24c>
 800ccee:	eb1c 0303 	adds.w	r3, ip, r3
 800ccf2:	f100 36ff 	add.w	r6, r0, #4294967295
 800ccf6:	d22c      	bcs.n	800cd52 <__udivmoddi4+0x29e>
 800ccf8:	4299      	cmp	r1, r3
 800ccfa:	d92a      	bls.n	800cd52 <__udivmoddi4+0x29e>
 800ccfc:	3802      	subs	r0, #2
 800ccfe:	4463      	add	r3, ip
 800cd00:	1a5b      	subs	r3, r3, r1
 800cd02:	b2a4      	uxth	r4, r4
 800cd04:	fbb3 f1f8 	udiv	r1, r3, r8
 800cd08:	fb08 3311 	mls	r3, r8, r1, r3
 800cd0c:	ea44 4403 	orr.w	r4, r4, r3, lsl #16
 800cd10:	fb01 f307 	mul.w	r3, r1, r7
 800cd14:	42a3      	cmp	r3, r4
 800cd16:	d908      	bls.n	800cd2a <__udivmoddi4+0x276>
 800cd18:	eb1c 0404 	adds.w	r4, ip, r4
 800cd1c:	f101 36ff 	add.w	r6, r1, #4294967295
 800cd20:	d213      	bcs.n	800cd4a <__udivmoddi4+0x296>
 800cd22:	42a3      	cmp	r3, r4
 800cd24:	d911      	bls.n	800cd4a <__udivmoddi4+0x296>
 800cd26:	3902      	subs	r1, #2
 800cd28:	4464      	add	r4, ip
 800cd2a:	1ae4      	subs	r4, r4, r3
 800cd2c:	ea41 4100 	orr.w	r1, r1, r0, lsl #16
 800cd30:	e739      	b.n	800cba6 <__udivmoddi4+0xf2>
 800cd32:	4604      	mov	r4, r0
 800cd34:	e6f0      	b.n	800cb18 <__udivmoddi4+0x64>
 800cd36:	4608      	mov	r0, r1
 800cd38:	e706      	b.n	800cb48 <__udivmoddi4+0x94>
 800cd3a:	45c8      	cmp	r8, r9
 800cd3c:	d2ae      	bcs.n	800cc9c <__udivmoddi4+0x1e8>
 800cd3e:	ebb9 0e02 	subs.w	lr, r9, r2
 800cd42:	eb63 0c07 	sbc.w	ip, r3, r7
 800cd46:	3801      	subs	r0, #1
 800cd48:	e7a8      	b.n	800cc9c <__udivmoddi4+0x1e8>
 800cd4a:	4631      	mov	r1, r6
 800cd4c:	e7ed      	b.n	800cd2a <__udivmoddi4+0x276>
 800cd4e:	4603      	mov	r3, r0
 800cd50:	e799      	b.n	800cc86 <__udivmoddi4+0x1d2>
 800cd52:	4630      	mov	r0, r6
 800cd54:	e7d4      	b.n	800cd00 <__udivmoddi4+0x24c>
 800cd56:	46d6      	mov	lr, sl
 800cd58:	e77f      	b.n	800cc5a <__udivmoddi4+0x1a6>
 800cd5a:	4463      	add	r3, ip
 800cd5c:	3802      	subs	r0, #2
 800cd5e:	e74d      	b.n	800cbfc <__udivmoddi4+0x148>
 800cd60:	4606      	mov	r6, r0
 800cd62:	4623      	mov	r3, r4
 800cd64:	4608      	mov	r0, r1
 800cd66:	e70f      	b.n	800cb88 <__udivmoddi4+0xd4>
 800cd68:	3e02      	subs	r6, #2
 800cd6a:	4463      	add	r3, ip
 800cd6c:	e730      	b.n	800cbd0 <__udivmoddi4+0x11c>
 800cd6e:	bf00      	nop

0800cd70 <__aeabi_idiv0>:
 800cd70:	4770      	bx	lr
 800cd72:	bf00      	nop

0800cd74 <Config_AppInit>:
/* Public variables ----------------------------------------------------------*/
/* Private function prototypes -----------------------------------------------*/
/* Functions -----------------------------------------------------------------*/

Status_t Config_AppInit(void)
{
 800cd74:	b480      	push	{r7}
 800cd76:	b083      	sub	sp, #12
 800cd78:	af00      	add	r7, sp, #0
  Status_t ret = STATUS_OK;
 800cd7a:	2300      	movs	r3, #0
 800cd7c:	80fb      	strh	r3, [r7, #6]

  UNUSED(ca);

  return ret;
 800cd7e:	f9b7 3006 	ldrsh.w	r3, [r7, #6]
}
 800cd82:	4618      	mov	r0, r3
 800cd84:	370c      	adds	r7, #12
 800cd86:	46bd      	mov	sp, r7
 800cd88:	f85d 7b04 	ldr.w	r7, [sp], #4
 800cd8c:	4770      	bx	lr

0800cd8e <Config_Callback>:


Status_t Config_Callback(uint32_t id)
{
 800cd8e:	b480      	push	{r7}
 800cd90:	b085      	sub	sp, #20
 800cd92:	af00      	add	r7, sp, #0
 800cd94:	6078      	str	r0, [r7, #4]
  Status_t ret = STATUS_OK;
 800cd96:	2300      	movs	r3, #0
 800cd98:	81fb      	strh	r3, [r7, #14]

  /* Check if some value need further action to propagate */
  switch (CONF_BLOCK_ID(id))
 800cd9a:	687b      	ldr	r3, [r7, #4]
 800cd9c:	0e1b      	lsrs	r3, r3, #24
 800cd9e:	2b03      	cmp	r3, #3
#endif
      break;


    default:
      break;
 800cda0:	bf00      	nop
  }
  return ret;
 800cda2:	f9b7 300e 	ldrsh.w	r3, [r7, #14]
}
 800cda6:	4618      	mov	r0, r3
 800cda8:	3714      	adds	r7, #20
 800cdaa:	46bd      	mov	sp, r7
 800cdac:	f85d 7b04 	ldr.w	r7, [sp], #4
 800cdb0:	4770      	bx	lr

0800cdb2 <Config_Init>:
/* Private function prototypes -----------------------------------------------*/
/* Functions -----------------------------------------------------------------*/


Status_t Config_Init(void)
{
 800cdb2:	b580      	push	{r7, lr}
 800cdb4:	b082      	sub	sp, #8
 800cdb6:	af00      	add	r7, sp, #0
  Status_t ret = STATUS_OK;
 800cdb8:	2300      	movs	r3, #0
 800cdba:	80fb      	strh	r3, [r7, #6]
  {
    Error_Handler();
  }

  /* Use factory default after every power on */
  RegMap_RestoreFactoryValues();
 800cdbc:	f000 fcf2 	bl	800d7a4 <RegMap_RestoreFactoryValues>

  /* Initialize application-specific stuff */
  Config_AppInit();
 800cdc0:	f7ff ffd8 	bl	800cd74 <Config_AppInit>

  return ret;
 800cdc4:	f9b7 3006 	ldrsh.w	r3, [r7, #6]
}
 800cdc8:	4618      	mov	r0, r3
 800cdca:	3708      	adds	r7, #8
 800cdcc:	46bd      	mov	sp, r7
 800cdce:	bd80      	pop	{r7, pc}

0800cdd0 <Config_ApplyConfig>:



Status_t Config_ApplyConfig(uint32_t id)
{
 800cdd0:	b580      	push	{r7, lr}
 800cdd2:	b084      	sub	sp, #16
 800cdd4:	af00      	add	r7, sp, #0
 800cdd6:	6078      	str	r0, [r7, #4]
  Status_t ret = STATUS_OK;
 800cdd8:	2300      	movs	r3, #0
 800cdda:	81fb      	strh	r3, [r7, #14]

  /* Application-specific callback */
  Config_Callback(id);
 800cddc:	6878      	ldr	r0, [r7, #4]
 800cdde:	f7ff ffd6 	bl	800cd8e <Config_Callback>

  /* If this value should be stored in Flash, notify flash task */
  if ((id & 0x070) == 0x070)
 800cde2:	687b      	ldr	r3, [r7, #4]
 800cde4:	f003 0370 	and.w	r3, r3, #112	@ 0x70
 800cde8:	2b70      	cmp	r3, #112	@ 0x70
 800cdea:	d101      	bne.n	800cdf0 <Config_ApplyConfig+0x20>
  {
    FlashApp_RequestConfStorage();
 800cdec:	f000 fa02 	bl	800d1f4 <FlashApp_RequestConfStorage>
  }

  return ret;
 800cdf0:	f9b7 300e 	ldrsh.w	r3, [r7, #14]
}
 800cdf4:	4618      	mov	r0, r3
 800cdf6:	3710      	adds	r7, #16
 800cdf8:	46bd      	mov	sp, r7
 800cdfa:	bd80      	pop	{r7, pc}

0800cdfc <Config_ReadStream>:


Status_t Config_ReadStream(uint8_t *data, uint32_t length)
{
 800cdfc:	b580      	push	{r7, lr}
 800cdfe:	b088      	sub	sp, #32
 800ce00:	af00      	add	r7, sp, #0
 800ce02:	6078      	str	r0, [r7, #4]
 800ce04:	6039      	str	r1, [r7, #0]
  Status_t ret = STATUS_OK;
 800ce06:	2300      	movs	r3, #0
 800ce08:	83fb      	strh	r3, [r7, #30]
  uint32_t reqIdx = 0;
 800ce0a:	2300      	movs	r3, #0
 800ce0c:	61bb      	str	r3, [r7, #24]
  uint32_t sizeReg;
  uint32_t i;
  uint32_t value;

  /* First entry must be CONF_SYS_REGMAP_VERSION with major part equal to our factory set value */
  id = *((uint32_t *) (data));
 800ce0e:	687b      	ldr	r3, [r7, #4]
 800ce10:	681b      	ldr	r3, [r3, #0]
 800ce12:	60bb      	str	r3, [r7, #8]
  value = *((uint32_t *) (data + 4));
 800ce14:	687b      	ldr	r3, [r7, #4]
 800ce16:	685b      	ldr	r3, [r3, #4]
 800ce18:	613b      	str	r3, [r7, #16]

  if ((id != CONF_SYS_REGMAP_VERSION) || (value & 0xFFFF0000) != (CONF_INT(CONF_SYS_REGMAP_VERSION) & 0xFFFF0000) )
 800ce1a:	68bb      	ldr	r3, [r7, #8]
 800ce1c:	f244 1232 	movw	r2, #16690	@ 0x4132
 800ce20:	4293      	cmp	r3, r2
 800ce22:	d108      	bne.n	800ce36 <Config_ReadStream+0x3a>
 800ce24:	4b28      	ldr	r3, [pc, #160]	@ (800cec8 <Config_ReadStream+0xcc>)
 800ce26:	681b      	ldr	r3, [r3, #0]
 800ce28:	3304      	adds	r3, #4
 800ce2a:	681a      	ldr	r2, [r3, #0]
 800ce2c:	693b      	ldr	r3, [r7, #16]
 800ce2e:	4053      	eors	r3, r2
 800ce30:	f5b3 3f80 	cmp.w	r3, #65536	@ 0x10000
 800ce34:	d33e      	bcc.n	800ceb4 <Config_ReadStream+0xb8>
  {
    ret = STATUS_ERROR;
 800ce36:	2301      	movs	r3, #1
 800ce38:	83fb      	strh	r3, [r7, #30]
 800ce3a:	e03f      	b.n	800cebc <Config_ReadStream+0xc0>
  {
    /* Process the whole received stream */
    while ((reqIdx < length))
    {
      /* Take ID */
      memcpy(&id, data + reqIdx, sizeof(id));
 800ce3c:	687a      	ldr	r2, [r7, #4]
 800ce3e:	69bb      	ldr	r3, [r7, #24]
 800ce40:	4413      	add	r3, r2
 800ce42:	681b      	ldr	r3, [r3, #0]
 800ce44:	60bb      	str	r3, [r7, #8]
      reqIdx += sizeof(uint32_t);
 800ce46:	69bb      	ldr	r3, [r7, #24]
 800ce48:	3304      	adds	r3, #4
 800ce4a:	61bb      	str	r3, [r7, #24]
      sizeReg = CONF_BYTE_LEN_ID(id);
 800ce4c:	68bb      	ldr	r3, [r7, #8]
 800ce4e:	f003 030f 	and.w	r3, r3, #15
 800ce52:	4a1e      	ldr	r2, [pc, #120]	@ (800cecc <Config_ReadStream+0xd0>)
 800ce54:	f852 3023 	ldr.w	r3, [r2, r3, lsl #2]
 800ce58:	60fb      	str	r3, [r7, #12]

      /* Check that this ID is known */
      ret = STATUS_ERROR;
 800ce5a:	2301      	movs	r3, #1
 800ce5c:	83fb      	strh	r3, [r7, #30]
      for (i = 0; i < sizeof(CONF_REG_FLASH)/sizeof(uint32_t); i++)
 800ce5e:	2300      	movs	r3, #0
 800ce60:	617b      	str	r3, [r7, #20]
 800ce62:	e00b      	b.n	800ce7c <Config_ReadStream+0x80>
      {
        if (CONF_REG_FLASH[i] == id)
 800ce64:	4a1a      	ldr	r2, [pc, #104]	@ (800ced0 <Config_ReadStream+0xd4>)
 800ce66:	697b      	ldr	r3, [r7, #20]
 800ce68:	f852 2023 	ldr.w	r2, [r2, r3, lsl #2]
 800ce6c:	68bb      	ldr	r3, [r7, #8]
 800ce6e:	429a      	cmp	r2, r3
 800ce70:	d101      	bne.n	800ce76 <Config_ReadStream+0x7a>
        {
          ret = STATUS_OK;
 800ce72:	2300      	movs	r3, #0
 800ce74:	83fb      	strh	r3, [r7, #30]
      for (i = 0; i < sizeof(CONF_REG_FLASH)/sizeof(uint32_t); i++)
 800ce76:	697b      	ldr	r3, [r7, #20]
 800ce78:	3301      	adds	r3, #1
 800ce7a:	617b      	str	r3, [r7, #20]
 800ce7c:	697b      	ldr	r3, [r7, #20]
 800ce7e:	2b04      	cmp	r3, #4
 800ce80:	d9f0      	bls.n	800ce64 <Config_ReadStream+0x68>
        }
      }

      if (ret == STATUS_OK)
 800ce82:	f9b7 301e 	ldrsh.w	r3, [r7, #30]
 800ce86:	2b00      	cmp	r3, #0
 800ce88:	d110      	bne.n	800ceac <Config_ReadStream+0xb0>
      {
        /* Write new value into register storage */
        memcpy(CONF_PTR(id), data + reqIdx, sizeReg);
 800ce8a:	68bb      	ldr	r3, [r7, #8]
 800ce8c:	0e1b      	lsrs	r3, r3, #24
 800ce8e:	4a0e      	ldr	r2, [pc, #56]	@ (800cec8 <Config_ReadStream+0xcc>)
 800ce90:	f852 2023 	ldr.w	r2, [r2, r3, lsl #2]
 800ce94:	68bb      	ldr	r3, [r7, #8]
 800ce96:	0b1b      	lsrs	r3, r3, #12
 800ce98:	f3c3 030b 	ubfx	r3, r3, #0, #12
 800ce9c:	18d0      	adds	r0, r2, r3
 800ce9e:	687a      	ldr	r2, [r7, #4]
 800cea0:	69bb      	ldr	r3, [r7, #24]
 800cea2:	4413      	add	r3, r2
 800cea4:	68fa      	ldr	r2, [r7, #12]
 800cea6:	4619      	mov	r1, r3
 800cea8:	f008 f878 	bl	8014f9c <memcpy>
      }

      reqIdx += sizeReg;
 800ceac:	69ba      	ldr	r2, [r7, #24]
 800ceae:	68fb      	ldr	r3, [r7, #12]
 800ceb0:	4413      	add	r3, r2
 800ceb2:	61bb      	str	r3, [r7, #24]
    while ((reqIdx < length))
 800ceb4:	69ba      	ldr	r2, [r7, #24]
 800ceb6:	683b      	ldr	r3, [r7, #0]
 800ceb8:	429a      	cmp	r2, r3
 800ceba:	d3bf      	bcc.n	800ce3c <Config_ReadStream+0x40>
    }
  }
  return ret;
 800cebc:	f9b7 301e 	ldrsh.w	r3, [r7, #30]
}
 800cec0:	4618      	mov	r0, r3
 800cec2:	3720      	adds	r7, #32
 800cec4:	46bd      	mov	sp, r7
 800cec6:	bd80      	pop	{r7, pc}
 800cec8:	08015310 	.word	0x08015310
 800cecc:	080152cc 	.word	0x080152cc
 800ced0:	08015378 	.word	0x08015378

0800ced4 <Config_FillStream>:

Status_t Config_FillStream(uint8_t *data, uint32_t *length, uint32_t maxLength)
{
 800ced4:	b580      	push	{r7, lr}
 800ced6:	b08a      	sub	sp, #40	@ 0x28
 800ced8:	af00      	add	r7, sp, #0
 800ceda:	60f8      	str	r0, [r7, #12]
 800cedc:	60b9      	str	r1, [r7, #8]
 800cede:	607a      	str	r2, [r7, #4]
  Status_t ret = STATUS_OK;
 800cee0:	2300      	movs	r3, #0
 800cee2:	84fb      	strh	r3, [r7, #38]	@ 0x26
  uint32_t reqIdx = 0;
 800cee4:	2300      	movs	r3, #0
 800cee6:	623b      	str	r3, [r7, #32]
  uint32_t id;
  uint32_t sizeReg;
  uint32_t i;

  /* Go through all the known config ID that need to be stored in flash */
  for (i = 0; i < sizeof(CONF_REG_FLASH)/sizeof(uint32_t); i++)
 800cee8:	2300      	movs	r3, #0
 800ceea:	61fb      	str	r3, [r7, #28]
 800ceec:	e035      	b.n	800cf5a <Config_FillStream+0x86>
  {
    /* Take next ID from the list of known IDs */
    id = CONF_REG_FLASH[i];
 800ceee:	4a21      	ldr	r2, [pc, #132]	@ (800cf74 <Config_FillStream+0xa0>)
 800cef0:	69fb      	ldr	r3, [r7, #28]
 800cef2:	f852 3023 	ldr.w	r3, [r2, r3, lsl #2]
 800cef6:	617b      	str	r3, [r7, #20]
    sizeReg = CONF_BYTE_LEN_ID(id);
 800cef8:	697b      	ldr	r3, [r7, #20]
 800cefa:	f003 030f 	and.w	r3, r3, #15
 800cefe:	4a1e      	ldr	r2, [pc, #120]	@ (800cf78 <Config_FillStream+0xa4>)
 800cf00:	f852 3023 	ldr.w	r3, [r2, r3, lsl #2]
 800cf04:	61bb      	str	r3, [r7, #24]

    if (reqIdx + 4 + sizeReg <= maxLength)
 800cf06:	6a3a      	ldr	r2, [r7, #32]
 800cf08:	69bb      	ldr	r3, [r7, #24]
 800cf0a:	4413      	add	r3, r2
 800cf0c:	3304      	adds	r3, #4
 800cf0e:	687a      	ldr	r2, [r7, #4]
 800cf10:	429a      	cmp	r2, r3
 800cf12:	d31d      	bcc.n	800cf50 <Config_FillStream+0x7c>
    {
      /* Store ID into config stream */
      memcpy(data + reqIdx, &id, sizeof(id));
 800cf14:	68fa      	ldr	r2, [r7, #12]
 800cf16:	6a3b      	ldr	r3, [r7, #32]
 800cf18:	4413      	add	r3, r2
 800cf1a:	697a      	ldr	r2, [r7, #20]
 800cf1c:	601a      	str	r2, [r3, #0]
      reqIdx += sizeof(uint32_t);
 800cf1e:	6a3b      	ldr	r3, [r7, #32]
 800cf20:	3304      	adds	r3, #4
 800cf22:	623b      	str	r3, [r7, #32]

      /* Store config value into stream */
      memcpy(data + reqIdx, CONF_PTR(id), sizeReg);
 800cf24:	68fa      	ldr	r2, [r7, #12]
 800cf26:	6a3b      	ldr	r3, [r7, #32]
 800cf28:	18d0      	adds	r0, r2, r3
 800cf2a:	697b      	ldr	r3, [r7, #20]
 800cf2c:	0e1b      	lsrs	r3, r3, #24
 800cf2e:	4a13      	ldr	r2, [pc, #76]	@ (800cf7c <Config_FillStream+0xa8>)
 800cf30:	f852 2023 	ldr.w	r2, [r2, r3, lsl #2]
 800cf34:	697b      	ldr	r3, [r7, #20]
 800cf36:	0b1b      	lsrs	r3, r3, #12
 800cf38:	f3c3 030b 	ubfx	r3, r3, #0, #12
 800cf3c:	4413      	add	r3, r2
 800cf3e:	69ba      	ldr	r2, [r7, #24]
 800cf40:	4619      	mov	r1, r3
 800cf42:	f008 f82b 	bl	8014f9c <memcpy>
      reqIdx += sizeReg;
 800cf46:	6a3a      	ldr	r2, [r7, #32]
 800cf48:	69bb      	ldr	r3, [r7, #24]
 800cf4a:	4413      	add	r3, r2
 800cf4c:	623b      	str	r3, [r7, #32]
 800cf4e:	e001      	b.n	800cf54 <Config_FillStream+0x80>
    }
    else
    {
      ret = STATUS_ERROR;
 800cf50:	2301      	movs	r3, #1
 800cf52:	84fb      	strh	r3, [r7, #38]	@ 0x26
  for (i = 0; i < sizeof(CONF_REG_FLASH)/sizeof(uint32_t); i++)
 800cf54:	69fb      	ldr	r3, [r7, #28]
 800cf56:	3301      	adds	r3, #1
 800cf58:	61fb      	str	r3, [r7, #28]
 800cf5a:	69fb      	ldr	r3, [r7, #28]
 800cf5c:	2b04      	cmp	r3, #4
 800cf5e:	d9c6      	bls.n	800ceee <Config_FillStream+0x1a>
    }
  }

  *length = reqIdx;
 800cf60:	68bb      	ldr	r3, [r7, #8]
 800cf62:	6a3a      	ldr	r2, [r7, #32]
 800cf64:	601a      	str	r2, [r3, #0]

  return ret;
 800cf66:	f9b7 3026 	ldrsh.w	r3, [r7, #38]	@ 0x26
}
 800cf6a:	4618      	mov	r0, r3
 800cf6c:	3728      	adds	r7, #40	@ 0x28
 800cf6e:	46bd      	mov	sp, r7
 800cf70:	bd80      	pop	{r7, pc}
 800cf72:	bf00      	nop
 800cf74:	08015378 	.word	0x08015378
 800cf78:	080152cc 	.word	0x080152cc
 800cf7c:	08015310 	.word	0x08015310

0800cf80 <Control_Init>:
/* Private variables ---------------------------------------------------------*/
/* Public variables ----------------------------------------------------------*/
/* Private function prototypes -----------------------------------------------*/
/* Functions -----------------------------------------------------------------*/

Status_t Control_Init(void) {
 800cf80:	b480      	push	{r7}
 800cf82:	b083      	sub	sp, #12
 800cf84:	af00      	add	r7, sp, #0
	Status_t ret = STATUS_OK;
 800cf86:	2300      	movs	r3, #0
 800cf88:	80fb      	strh	r3, [r7, #6]

	return ret;
 800cf8a:	f9b7 3006 	ldrsh.w	r3, [r7, #6]
}
 800cf8e:	4618      	mov	r0, r3
 800cf90:	370c      	adds	r7, #12
 800cf92:	46bd      	mov	sp, r7
 800cf94:	f85d 7b04 	ldr.w	r7, [sp], #4
 800cf98:	4770      	bx	lr
	...

0800cf9c <Control_Handle>:

Status_t Control_Handle(void) {
 800cf9c:	b580      	push	{r7, lr}
 800cf9e:	b082      	sub	sp, #8
 800cfa0:	af00      	add	r7, sp, #0
	Status_t ret = STATUS_OK;
 800cfa2:	2300      	movs	r3, #0
 800cfa4:	80fb      	strh	r3, [r7, #6]

	/* Handle Reset commands */
	if (conf.sys.command == CONTROL_RESET) {
 800cfa6:	4b53      	ldr	r3, [pc, #332]	@ (800d0f4 <Control_Handle+0x158>)
 800cfa8:	68db      	ldr	r3, [r3, #12]
 800cfaa:	f242 62ad 	movw	r2, #9901	@ 0x26ad
 800cfae:	4293      	cmp	r3, r2
 800cfb0:	d106      	bne.n	800cfc0 <Control_Handle+0x24>
		//Led_GreenOff();
		//Led_RedOff();
		System_Delay(1000);
 800cfb2:	f44f 707a 	mov.w	r0, #1000	@ 0x3e8
 800cfb6:	f000 fcb9 	bl	800d92c <System_Delay>
		System_Reset();
 800cfba:	f000 fcc3 	bl	800d944 <System_Reset>
 800cfbe:	e032      	b.n	800d026 <Control_Handle+0x8a>
	}
	/* Handle factory reset command */
	else if (conf.sys.command == CONTROL_FACTORY) {
 800cfc0:	4b4c      	ldr	r3, [pc, #304]	@ (800d0f4 <Control_Handle+0x158>)
 800cfc2:	68db      	ldr	r3, [r3, #12]
 800cfc4:	f242 2261 	movw	r2, #8801	@ 0x2261
 800cfc8:	4293      	cmp	r3, r2
 800cfca:	d102      	bne.n	800cfd2 <Control_Handle+0x36>
		FlashApp_RequestFactorySettings();
 800cfcc:	f000 f92c 	bl	800d228 <FlashApp_RequestFactorySettings>
 800cfd0:	e029      	b.n	800d026 <Control_Handle+0x8a>
	} else if (conf.sys.command == CONTROL_WDG_LATCH) {
 800cfd2:	4b48      	ldr	r3, [pc, #288]	@ (800d0f4 <Control_Handle+0x158>)
 800cfd4:	68db      	ldr	r3, [r3, #12]
 800cfd6:	f241 527d 	movw	r2, #5501	@ 0x157d
 800cfda:	4293      	cmp	r3, r2
 800cfdc:	d104      	bne.n	800cfe8 <Control_Handle+0x4c>
		/* The delay below should cause IWDG to restart device */
		System_Delay(4000);
 800cfde:	f44f 607a 	mov.w	r0, #4000	@ 0xfa0
 800cfe2:	f000 fca3 	bl	800d92c <System_Delay>
 800cfe6:	e01e      	b.n	800d026 <Control_Handle+0x8a>
	}
	/* Handle set error command */
	else if (conf.sys.command > CONTROL_ERROR
 800cfe8:	4b42      	ldr	r3, [pc, #264]	@ (800d0f4 <Control_Handle+0x158>)
 800cfea:	68db      	ldr	r3, [r3, #12]
 800cfec:	f641 12c8 	movw	r2, #6600	@ 0x19c8
 800cff0:	4293      	cmp	r3, r2
 800cff2:	d90f      	bls.n	800d014 <Control_Handle+0x78>
			&& conf.sys.command < (CONTROL_ERROR + 100)) {
 800cff4:	4b3f      	ldr	r3, [pc, #252]	@ (800d0f4 <Control_Handle+0x158>)
 800cff6:	68db      	ldr	r3, [r3, #12]
 800cff8:	f641 222b 	movw	r2, #6699	@ 0x1a2b
 800cffc:	4293      	cmp	r3, r2
 800cffe:	d809      	bhi.n	800d014 <Control_Handle+0x78>
		cntrl.localError = conf.sys.command - CONTROL_ERROR;
 800d000:	4b3c      	ldr	r3, [pc, #240]	@ (800d0f4 <Control_Handle+0x158>)
 800d002:	68db      	ldr	r3, [r3, #12]
 800d004:	b29b      	uxth	r3, r3
 800d006:	f5a3 53ce 	sub.w	r3, r3, #6592	@ 0x19c0
 800d00a:	3b08      	subs	r3, #8
 800d00c:	b29a      	uxth	r2, r3
 800d00e:	4b3a      	ldr	r3, [pc, #232]	@ (800d0f8 <Control_Handle+0x15c>)
 800d010:	805a      	strh	r2, [r3, #2]
 800d012:	e008      	b.n	800d026 <Control_Handle+0x8a>
	}
	/* Handle clear error command */
	else if (conf.sys.command == CONTROL_ERROR) {
 800d014:	4b37      	ldr	r3, [pc, #220]	@ (800d0f4 <Control_Handle+0x158>)
 800d016:	68db      	ldr	r3, [r3, #12]
 800d018:	f641 12c8 	movw	r2, #6600	@ 0x19c8
 800d01c:	4293      	cmp	r3, r2
 800d01e:	d102      	bne.n	800d026 <Control_Handle+0x8a>
		cntrl.localError = 0;
 800d020:	4b35      	ldr	r3, [pc, #212]	@ (800d0f8 <Control_Handle+0x15c>)
 800d022:	2200      	movs	r2, #0
 800d024:	805a      	strh	r2, [r3, #2]
	}
	/* Testing mode disables setting of modbus address from DIP */
	if (conf.sys.command == CONTROL_TESTING) {
 800d026:	4b33      	ldr	r3, [pc, #204]	@ (800d0f4 <Control_Handle+0x158>)
 800d028:	68db      	ldr	r3, [r3, #12]
 800d02a:	f641 6215 	movw	r2, #7701	@ 0x1e15
 800d02e:	4293      	cmp	r3, r2
 800d030:	d106      	bne.n	800d040 <Control_Handle+0xa4>
		SET_BIT(conf.sys.status, STAT_BIT_TESTING);
 800d032:	4b30      	ldr	r3, [pc, #192]	@ (800d0f4 <Control_Handle+0x158>)
 800d034:	689b      	ldr	r3, [r3, #8]
 800d036:	f043 0302 	orr.w	r3, r3, #2
 800d03a:	4a2e      	ldr	r2, [pc, #184]	@ (800d0f4 <Control_Handle+0x158>)
 800d03c:	6093      	str	r3, [r2, #8]
 800d03e:	e00e      	b.n	800d05e <Control_Handle+0xc2>
	} else {
		CLEAR_BIT(conf.sys.status, STAT_BIT_TESTING);
 800d040:	4b2c      	ldr	r3, [pc, #176]	@ (800d0f4 <Control_Handle+0x158>)
 800d042:	689b      	ldr	r3, [r3, #8]
 800d044:	f023 0302 	bic.w	r3, r3, #2
 800d048:	4a2a      	ldr	r2, [pc, #168]	@ (800d0f4 <Control_Handle+0x158>)
 800d04a:	6093      	str	r3, [r2, #8]
		conf.com.mb_address = (conf.sys.io_input & 0x1F) + MODBUS_BASE_ADDRESS;
 800d04c:	4b29      	ldr	r3, [pc, #164]	@ (800d0f4 <Control_Handle+0x158>)
 800d04e:	8a9b      	ldrh	r3, [r3, #20]
 800d050:	f003 031f 	and.w	r3, r3, #31
 800d054:	b29b      	uxth	r3, r3
 800d056:	3320      	adds	r3, #32
 800d058:	b29a      	uxth	r2, r3
 800d05a:	4b26      	ldr	r3, [pc, #152]	@ (800d0f4 <Control_Handle+0x158>)
 800d05c:	879a      	strh	r2, [r3, #60]	@ 0x3c
	}

	/* Error flag of status register */
	if (cntrl.localError != 0 || (conf.sys.status & (0x300F0)) != 0) {
 800d05e:	4b26      	ldr	r3, [pc, #152]	@ (800d0f8 <Control_Handle+0x15c>)
 800d060:	885b      	ldrh	r3, [r3, #2]
 800d062:	2b00      	cmp	r3, #0
 800d064:	d105      	bne.n	800d072 <Control_Handle+0xd6>
 800d066:	4b23      	ldr	r3, [pc, #140]	@ (800d0f4 <Control_Handle+0x158>)
 800d068:	689a      	ldr	r2, [r3, #8]
 800d06a:	4b24      	ldr	r3, [pc, #144]	@ (800d0fc <Control_Handle+0x160>)
 800d06c:	4013      	ands	r3, r2
 800d06e:	2b00      	cmp	r3, #0
 800d070:	d006      	beq.n	800d080 <Control_Handle+0xe4>
		SET_BIT(conf.sys.status, STAT_BIT_ERROR);
 800d072:	4b20      	ldr	r3, [pc, #128]	@ (800d0f4 <Control_Handle+0x158>)
 800d074:	689b      	ldr	r3, [r3, #8]
 800d076:	f043 0301 	orr.w	r3, r3, #1
 800d07a:	4a1e      	ldr	r2, [pc, #120]	@ (800d0f4 <Control_Handle+0x158>)
 800d07c:	6093      	str	r3, [r2, #8]
 800d07e:	e005      	b.n	800d08c <Control_Handle+0xf0>
	} else {
		CLEAR_BIT(conf.sys.status, STAT_BIT_ERROR);
 800d080:	4b1c      	ldr	r3, [pc, #112]	@ (800d0f4 <Control_Handle+0x158>)
 800d082:	689b      	ldr	r3, [r3, #8]
 800d084:	f023 0301 	bic.w	r3, r3, #1
 800d088:	4a1a      	ldr	r2, [pc, #104]	@ (800d0f4 <Control_Handle+0x158>)
 800d08a:	6093      	str	r3, [r2, #8]
	}

	/* Led blinking according to status flag */
	if (cntrl.count % LED_PERIOD == 0) {
 800d08c:	4b1a      	ldr	r3, [pc, #104]	@ (800d0f8 <Control_Handle+0x15c>)
 800d08e:	6899      	ldr	r1, [r3, #8]
 800d090:	4b1b      	ldr	r3, [pc, #108]	@ (800d100 <Control_Handle+0x164>)
 800d092:	fba3 2301 	umull	r2, r3, r3, r1
 800d096:	091a      	lsrs	r2, r3, #4
 800d098:	4613      	mov	r3, r2
 800d09a:	009b      	lsls	r3, r3, #2
 800d09c:	4413      	add	r3, r2
 800d09e:	009b      	lsls	r3, r3, #2
 800d0a0:	1aca      	subs	r2, r1, r3
 800d0a2:	2a00      	cmp	r2, #0
 800d0a4:	d104      	bne.n	800d0b0 <Control_Handle+0x114>
		if (conf.sys.status & STAT_BIT_ERROR) {
 800d0a6:	4b13      	ldr	r3, [pc, #76]	@ (800d0f4 <Control_Handle+0x158>)
 800d0a8:	689b      	ldr	r3, [r3, #8]
 800d0aa:	f003 0301 	and.w	r3, r3, #1
 800d0ae:	2b00      	cmp	r3, #0
	} else if (cntrl.count % LED_PERIOD == LED_BLINK) {
		//Led_GreenOff();
		//Led_RedOff();
	}

	if (HAL_GetTick() > cntrl.prevTick) {
 800d0b0:	f002 fd78 	bl	800fba4 <HAL_GetTick>
 800d0b4:	4602      	mov	r2, r0
 800d0b6:	4b10      	ldr	r3, [pc, #64]	@ (800d0f8 <Control_Handle+0x15c>)
 800d0b8:	685b      	ldr	r3, [r3, #4]
 800d0ba:	429a      	cmp	r2, r3
 800d0bc:	d90a      	bls.n	800d0d4 <Control_Handle+0x138>
		cntrl.prevTick += 1000;
 800d0be:	4b0e      	ldr	r3, [pc, #56]	@ (800d0f8 <Control_Handle+0x15c>)
 800d0c0:	685b      	ldr	r3, [r3, #4]
 800d0c2:	f503 737a 	add.w	r3, r3, #1000	@ 0x3e8
 800d0c6:	4a0c      	ldr	r2, [pc, #48]	@ (800d0f8 <Control_Handle+0x15c>)
 800d0c8:	6053      	str	r3, [r2, #4]
		conf.sys.uptime += 1;
 800d0ca:	4b0a      	ldr	r3, [pc, #40]	@ (800d0f4 <Control_Handle+0x158>)
 800d0cc:	681b      	ldr	r3, [r3, #0]
 800d0ce:	3301      	adds	r3, #1
 800d0d0:	4a08      	ldr	r2, [pc, #32]	@ (800d0f4 <Control_Handle+0x158>)
 800d0d2:	6013      	str	r3, [r2, #0]
	}

	/* Store previous command */
	cntrl.prevCmd = conf.sys.command;
 800d0d4:	4b07      	ldr	r3, [pc, #28]	@ (800d0f4 <Control_Handle+0x158>)
 800d0d6:	68db      	ldr	r3, [r3, #12]
 800d0d8:	b29a      	uxth	r2, r3
 800d0da:	4b07      	ldr	r3, [pc, #28]	@ (800d0f8 <Control_Handle+0x15c>)
 800d0dc:	801a      	strh	r2, [r3, #0]
	cntrl.count++;
 800d0de:	4b06      	ldr	r3, [pc, #24]	@ (800d0f8 <Control_Handle+0x15c>)
 800d0e0:	689b      	ldr	r3, [r3, #8]
 800d0e2:	3301      	adds	r3, #1
 800d0e4:	4a04      	ldr	r2, [pc, #16]	@ (800d0f8 <Control_Handle+0x15c>)
 800d0e6:	6093      	str	r3, [r2, #8]

	return ret;
 800d0e8:	f9b7 3006 	ldrsh.w	r3, [r7, #6]
}
 800d0ec:	4618      	mov	r0, r3
 800d0ee:	3708      	adds	r7, #8
 800d0f0:	46bd      	mov	sp, r7
 800d0f2:	bd80      	pop	{r7, pc}
 800d0f4:	20000560 	.word	0x20000560
 800d0f8:	20000110 	.word	0x20000110
 800d0fc:	000300f0 	.word	0x000300f0
 800d100:	cccccccd 	.word	0xcccccccd

0800d104 <FlashApp_Init>:
/* Private variables ---------------------------------------------------------*/
/* Public variables ----------------------------------------------------------*/
/* Private function prototypes -----------------------------------------------*/
/* Functions -----------------------------------------------------------------*/

Status_t FlashApp_Init(void) {
 800d104:	b580      	push	{r7, lr}
 800d106:	b082      	sub	sp, #8
 800d108:	af00      	add	r7, sp, #0
	Status_t ret = STATUS_OK;
 800d10a:	2300      	movs	r3, #0
 800d10c:	80fb      	strh	r3, [r7, #6]

	/* Initialize flash configuration */
	FlashConf_Init();
 800d10e:	f000 f89d 	bl	800d24c <FlashConf_Init>

	/* Read configuration - first attempt */
	ret = FlashConf_Load();
 800d112:	f000 f8a9 	bl	800d268 <FlashConf_Load>
 800d116:	4603      	mov	r3, r0
 800d118:	80fb      	strh	r3, [r7, #6]

	if (ret == STATUS_OK) {
 800d11a:	f9b7 3006 	ldrsh.w	r3, [r7, #6]
 800d11e:	2b00      	cmp	r3, #0
 800d120:	d003      	beq.n	800d12a <FlashApp_Init+0x26>
		/* We have configuration */
	} else {
		/* No success in reading configuration, we store the default values*/
		ret = FlashConf_Store();
 800d122:	f000 f8df 	bl	800d2e4 <FlashConf_Store>
 800d126:	4603      	mov	r3, r0
 800d128:	80fb      	strh	r3, [r7, #6]
	}

	/* FIXME: temporary disabled calibration */
//  Calib_Init();
	return ret;
 800d12a:	f9b7 3006 	ldrsh.w	r3, [r7, #6]
}
 800d12e:	4618      	mov	r0, r3
 800d130:	3708      	adds	r7, #8
 800d132:	46bd      	mov	sp, r7
 800d134:	bd80      	pop	{r7, pc}
	...

0800d138 <FlashApp_Handle>:

Status_t FlashApp_Handle(void) {
 800d138:	b580      	push	{r7, lr}
 800d13a:	b082      	sub	sp, #8
 800d13c:	af00      	add	r7, sp, #0
	Status_t ret = STATUS_OK;
 800d13e:	2300      	movs	r3, #0
 800d140:	80fb      	strh	r3, [r7, #6]

	/* Configuration requested, set dead time */
	if (flashApp.config) {
 800d142:	4b2b      	ldr	r3, [pc, #172]	@ (800d1f0 <FlashApp_Handle+0xb8>)
 800d144:	781b      	ldrb	r3, [r3, #0]
 800d146:	2b00      	cmp	r3, #0
 800d148:	d014      	beq.n	800d174 <FlashApp_Handle+0x3c>
		flashApp.config = 0;
 800d14a:	4b29      	ldr	r3, [pc, #164]	@ (800d1f0 <FlashApp_Handle+0xb8>)
 800d14c:	2200      	movs	r2, #0
 800d14e:	701a      	strb	r2, [r3, #0]
		flashApp.tick = HAL_GetTick() + CONFIG_DEAD_TIME;
 800d150:	f002 fd28 	bl	800fba4 <HAL_GetTick>
 800d154:	4603      	mov	r3, r0
 800d156:	f203 53dc 	addw	r3, r3, #1500	@ 0x5dc
 800d15a:	4a25      	ldr	r2, [pc, #148]	@ (800d1f0 <FlashApp_Handle+0xb8>)
 800d15c:	6053      	str	r3, [r2, #4]
		flashApp.tick = (flashApp.tick == 0) ? (UINT32_MAX) : (flashApp.tick);
 800d15e:	4b24      	ldr	r3, [pc, #144]	@ (800d1f0 <FlashApp_Handle+0xb8>)
 800d160:	685b      	ldr	r3, [r3, #4]
 800d162:	2b00      	cmp	r3, #0
 800d164:	d002      	beq.n	800d16c <FlashApp_Handle+0x34>
 800d166:	4b22      	ldr	r3, [pc, #136]	@ (800d1f0 <FlashApp_Handle+0xb8>)
 800d168:	685b      	ldr	r3, [r3, #4]
 800d16a:	e001      	b.n	800d170 <FlashApp_Handle+0x38>
 800d16c:	f04f 33ff 	mov.w	r3, #4294967295
 800d170:	4a1f      	ldr	r2, [pc, #124]	@ (800d1f0 <FlashApp_Handle+0xb8>)
 800d172:	6053      	str	r3, [r2, #4]
	}

	/* If factory reset was requested */
	if (flashApp.reset == FACTORY_CONFIG) {
 800d174:	4b1e      	ldr	r3, [pc, #120]	@ (800d1f0 <FlashApp_Handle+0xb8>)
 800d176:	785b      	ldrb	r3, [r3, #1]
 800d178:	2b01      	cmp	r3, #1
 800d17a:	d114      	bne.n	800d1a6 <FlashApp_Handle+0x6e>
		/* Load default factory settings */
		RegMap_RestoreFactoryValues();
 800d17c:	f000 fb12 	bl	800d7a4 <RegMap_RestoreFactoryValues>

		/* Request immediate storage and reset */
		flashApp.reset = FACTORY_RESET;
 800d180:	4b1b      	ldr	r3, [pc, #108]	@ (800d1f0 <FlashApp_Handle+0xb8>)
 800d182:	2202      	movs	r2, #2
 800d184:	705a      	strb	r2, [r3, #1]
		flashApp.tick = HAL_GetTick();
 800d186:	f002 fd0d 	bl	800fba4 <HAL_GetTick>
 800d18a:	4603      	mov	r3, r0
 800d18c:	4a18      	ldr	r2, [pc, #96]	@ (800d1f0 <FlashApp_Handle+0xb8>)
 800d18e:	6053      	str	r3, [r2, #4]
		flashApp.tick = (flashApp.tick == 0) ? (UINT32_MAX) : (flashApp.tick);
 800d190:	4b17      	ldr	r3, [pc, #92]	@ (800d1f0 <FlashApp_Handle+0xb8>)
 800d192:	685b      	ldr	r3, [r3, #4]
 800d194:	2b00      	cmp	r3, #0
 800d196:	d002      	beq.n	800d19e <FlashApp_Handle+0x66>
 800d198:	4b15      	ldr	r3, [pc, #84]	@ (800d1f0 <FlashApp_Handle+0xb8>)
 800d19a:	685b      	ldr	r3, [r3, #4]
 800d19c:	e001      	b.n	800d1a2 <FlashApp_Handle+0x6a>
 800d19e:	f04f 33ff 	mov.w	r3, #4294967295
 800d1a2:	4a13      	ldr	r2, [pc, #76]	@ (800d1f0 <FlashApp_Handle+0xb8>)
 800d1a4:	6053      	str	r3, [r2, #4]
	}

	/* Wait on tick expire */
	if (flashApp.tick != 0 && TICK_EXPIRED(flashApp.tick)) {
 800d1a6:	4b12      	ldr	r3, [pc, #72]	@ (800d1f0 <FlashApp_Handle+0xb8>)
 800d1a8:	685b      	ldr	r3, [r3, #4]
 800d1aa:	2b00      	cmp	r3, #0
 800d1ac:	d01a      	beq.n	800d1e4 <FlashApp_Handle+0xac>
 800d1ae:	f002 fcf9 	bl	800fba4 <HAL_GetTick>
 800d1b2:	4602      	mov	r2, r0
 800d1b4:	4b0e      	ldr	r3, [pc, #56]	@ (800d1f0 <FlashApp_Handle+0xb8>)
 800d1b6:	685b      	ldr	r3, [r3, #4]
 800d1b8:	1ad3      	subs	r3, r2, r3
 800d1ba:	f06f 4200 	mvn.w	r2, #2147483648	@ 0x80000000
 800d1be:	4293      	cmp	r3, r2
 800d1c0:	d210      	bcs.n	800d1e4 <FlashApp_Handle+0xac>
		/* Clear tick to prevent tick expire false events */
		flashApp.tick = 0;
 800d1c2:	4b0b      	ldr	r3, [pc, #44]	@ (800d1f0 <FlashApp_Handle+0xb8>)
 800d1c4:	2200      	movs	r2, #0
 800d1c6:	605a      	str	r2, [r3, #4]

		/* Write non-volatile registers to external Flash */
		ret = FlashConf_Store();
 800d1c8:	f000 f88c 	bl	800d2e4 <FlashConf_Store>
 800d1cc:	4603      	mov	r3, r0
 800d1ce:	80fb      	strh	r3, [r7, #6]

		/* System reset */
		if (flashApp.reset == FACTORY_RESET) {
 800d1d0:	4b07      	ldr	r3, [pc, #28]	@ (800d1f0 <FlashApp_Handle+0xb8>)
 800d1d2:	785b      	ldrb	r3, [r3, #1]
 800d1d4:	2b02      	cmp	r3, #2
 800d1d6:	d105      	bne.n	800d1e4 <FlashApp_Handle+0xac>
			HAL_Delay(1000);
 800d1d8:	f44f 707a 	mov.w	r0, #1000	@ 0x3e8
 800d1dc:	f002 fcee 	bl	800fbbc <HAL_Delay>
			System_Reset();
 800d1e0:	f000 fbb0 	bl	800d944 <System_Reset>
		}
	}

	/* FIXME: temporary disabled calibration */
//  Calib_Write();
	return ret;
 800d1e4:	f9b7 3006 	ldrsh.w	r3, [r7, #6]
}
 800d1e8:	4618      	mov	r0, r3
 800d1ea:	3708      	adds	r7, #8
 800d1ec:	46bd      	mov	sp, r7
 800d1ee:	bd80      	pop	{r7, pc}
 800d1f0:	2000011c 	.word	0x2000011c

0800d1f4 <FlashApp_RequestConfStorage>:
	HAL_Delay(100);

	return ret;
}

Status_t FlashApp_RequestConfStorage(void) {
 800d1f4:	b480      	push	{r7}
 800d1f6:	b083      	sub	sp, #12
 800d1f8:	af00      	add	r7, sp, #0
	Status_t ret = STATUS_OK;
 800d1fa:	2300      	movs	r3, #0
 800d1fc:	80fb      	strh	r3, [r7, #6]

	/* Do not store to flash in testing mode */
	if (!(conf.sys.status & STAT_BIT_TESTING)) {
 800d1fe:	4b08      	ldr	r3, [pc, #32]	@ (800d220 <FlashApp_RequestConfStorage+0x2c>)
 800d200:	689b      	ldr	r3, [r3, #8]
 800d202:	f003 0302 	and.w	r3, r3, #2
 800d206:	2b00      	cmp	r3, #0
 800d208:	d102      	bne.n	800d210 <FlashApp_RequestConfStorage+0x1c>
		flashApp.config = CONFIG_STORE;
 800d20a:	4b06      	ldr	r3, [pc, #24]	@ (800d224 <FlashApp_RequestConfStorage+0x30>)
 800d20c:	2201      	movs	r2, #1
 800d20e:	701a      	strb	r2, [r3, #0]
	}

	return ret;
 800d210:	f9b7 3006 	ldrsh.w	r3, [r7, #6]
}
 800d214:	4618      	mov	r0, r3
 800d216:	370c      	adds	r7, #12
 800d218:	46bd      	mov	sp, r7
 800d21a:	f85d 7b04 	ldr.w	r7, [sp], #4
 800d21e:	4770      	bx	lr
 800d220:	20000560 	.word	0x20000560
 800d224:	2000011c 	.word	0x2000011c

0800d228 <FlashApp_RequestFactorySettings>:

Status_t FlashApp_RequestFactorySettings(void) {
 800d228:	b480      	push	{r7}
 800d22a:	b083      	sub	sp, #12
 800d22c:	af00      	add	r7, sp, #0
	Status_t ret = STATUS_OK;
 800d22e:	2300      	movs	r3, #0
 800d230:	80fb      	strh	r3, [r7, #6]

	flashApp.reset = FACTORY_CONFIG;
 800d232:	4b05      	ldr	r3, [pc, #20]	@ (800d248 <FlashApp_RequestFactorySettings+0x20>)
 800d234:	2201      	movs	r2, #1
 800d236:	705a      	strb	r2, [r3, #1]

	return ret;
 800d238:	f9b7 3006 	ldrsh.w	r3, [r7, #6]
}
 800d23c:	4618      	mov	r0, r3
 800d23e:	370c      	adds	r7, #12
 800d240:	46bd      	mov	sp, r7
 800d242:	f85d 7b04 	ldr.w	r7, [sp], #4
 800d246:	4770      	bx	lr
 800d248:	2000011c 	.word	0x2000011c

0800d24c <FlashConf_Init>:

Status_t FlashConf_EraseBlock(uint32_t address);

/* Functions -----------------------------------------------------------------*/

Status_t FlashConf_Init(void) {
 800d24c:	b480      	push	{r7}
 800d24e:	b083      	sub	sp, #12
 800d250:	af00      	add	r7, sp, #0
	Status_t ret = STATUS_OK;
 800d252:	2300      	movs	r3, #0
 800d254:	80fb      	strh	r3, [r7, #6]

	return ret;
 800d256:	f9b7 3006 	ldrsh.w	r3, [r7, #6]
}
 800d25a:	4618      	mov	r0, r3
 800d25c:	370c      	adds	r7, #12
 800d25e:	46bd      	mov	sp, r7
 800d260:	f85d 7b04 	ldr.w	r7, [sp], #4
 800d264:	4770      	bx	lr
	...

0800d268 <FlashConf_Load>:

Status_t FlashConf_Load(void) {
 800d268:	b580      	push	{r7, lr}
 800d26a:	b082      	sub	sp, #8
 800d26c:	af00      	add	r7, sp, #0
	Status_t ret = STATUS_OK;
 800d26e:	2300      	movs	r3, #0
 800d270:	80fb      	strh	r3, [r7, #6]

	/* Read headers */
	ret = FlashConf_FindEntry();
 800d272:	f000 f87f 	bl	800d374 <FlashConf_FindEntry>
 800d276:	4603      	mov	r3, r0
 800d278:	80fb      	strh	r3, [r7, #6]

	if (ret == STATUS_OK) {
 800d27a:	f9b7 3006 	ldrsh.w	r3, [r7, #6]
 800d27e:	2b00      	cmp	r3, #0
 800d280:	d11d      	bne.n	800d2be <FlashConf_Load+0x56>
		/* Read main configuration */
		ret = FlashConf_Read(flCo.configAddr);
 800d282:	4b15      	ldr	r3, [pc, #84]	@ (800d2d8 <FlashConf_Load+0x70>)
 800d284:	681b      	ldr	r3, [r3, #0]
 800d286:	4618      	mov	r0, r3
 800d288:	f000 f9b2 	bl	800d5f0 <FlashConf_Read>
 800d28c:	4603      	mov	r3, r0
 800d28e:	80fb      	strh	r3, [r7, #6]

		if (ret == STATUS_ERROR) {
 800d290:	f9b7 3006 	ldrsh.w	r3, [r7, #6]
 800d294:	2b01      	cmp	r3, #1
 800d296:	d106      	bne.n	800d2a6 <FlashConf_Load+0x3e>
			/* Read backup configuration */
			ret = FlashConf_Read(flCo.backupAddr);
 800d298:	4b0f      	ldr	r3, [pc, #60]	@ (800d2d8 <FlashConf_Load+0x70>)
 800d29a:	685b      	ldr	r3, [r3, #4]
 800d29c:	4618      	mov	r0, r3
 800d29e:	f000 f9a7 	bl	800d5f0 <FlashConf_Read>
 800d2a2:	4603      	mov	r3, r0
 800d2a4:	80fb      	strh	r3, [r7, #6]
		}

		if (ret == STATUS_OK) {
 800d2a6:	f9b7 3006 	ldrsh.w	r3, [r7, #6]
 800d2aa:	2b00      	cmp	r3, #0
 800d2ac:	d109      	bne.n	800d2c2 <FlashConf_Load+0x5a>
			/* Configuration have been read successfully */
			/* Parse and apply config data */
			Config_ReadStream(flCo.data.data,
					flCo.data.header.completeSize - sizeof(FlashConf_Header_t)
 800d2ae:	4b0a      	ldr	r3, [pc, #40]	@ (800d2d8 <FlashConf_Load+0x70>)
 800d2b0:	691b      	ldr	r3, [r3, #16]
			Config_ReadStream(flCo.data.data,
 800d2b2:	3b14      	subs	r3, #20
 800d2b4:	4619      	mov	r1, r3
 800d2b6:	4809      	ldr	r0, [pc, #36]	@ (800d2dc <FlashConf_Load+0x74>)
 800d2b8:	f7ff fda0 	bl	800cdfc <Config_ReadStream>
 800d2bc:	e001      	b.n	800d2c2 <FlashConf_Load+0x5a>
							- sizeof(FLASH_KEY));
		}
	} else {
		/* No configuration found */
		ret = STATUS_ERROR;
 800d2be:	2301      	movs	r3, #1
 800d2c0:	80fb      	strh	r3, [r7, #6]
	}

	conf.dbg.writes_conf = flCo.data.header.writes;
 800d2c2:	4b05      	ldr	r3, [pc, #20]	@ (800d2d8 <FlashConf_Load+0x70>)
 800d2c4:	68db      	ldr	r3, [r3, #12]
 800d2c6:	4a06      	ldr	r2, [pc, #24]	@ (800d2e0 <FlashConf_Load+0x78>)
 800d2c8:	64d3      	str	r3, [r2, #76]	@ 0x4c

	return ret;
 800d2ca:	f9b7 3006 	ldrsh.w	r3, [r7, #6]
}
 800d2ce:	4618      	mov	r0, r3
 800d2d0:	3708      	adds	r7, #8
 800d2d2:	46bd      	mov	sp, r7
 800d2d4:	bd80      	pop	{r7, pc}
 800d2d6:	bf00      	nop
 800d2d8:	20000124 	.word	0x20000124
 800d2dc:	2000013c 	.word	0x2000013c
 800d2e0:	20000560 	.word	0x20000560

0800d2e4 <FlashConf_Store>:

Status_t FlashConf_Store(void) {
 800d2e4:	b580      	push	{r7, lr}
 800d2e6:	b082      	sub	sp, #8
 800d2e8:	af00      	add	r7, sp, #0
	Status_t ret = STATUS_OK;
 800d2ea:	2300      	movs	r3, #0
 800d2ec:	80fb      	strh	r3, [r7, #6]
	uint32_t length = 0;
 800d2ee:	2300      	movs	r3, #0
 800d2f0:	603b      	str	r3, [r7, #0]

	/* Create config data to write*/
	ret = Config_FillStream(flCo.data.data, &length, FLASH_CONF_SIZE - 4);
 800d2f2:	463b      	mov	r3, r7
 800d2f4:	f44f 727f 	mov.w	r2, #1020	@ 0x3fc
 800d2f8:	4619      	mov	r1, r3
 800d2fa:	481a      	ldr	r0, [pc, #104]	@ (800d364 <FlashConf_Store+0x80>)
 800d2fc:	f7ff fdea 	bl	800ced4 <Config_FillStream>
 800d300:	4603      	mov	r3, r0
 800d302:	80fb      	strh	r3, [r7, #6]

	memcpy(flCo.data.data + length, &FLASH_KEY, sizeof(FLASH_KEY));
 800d304:	683b      	ldr	r3, [r7, #0]
 800d306:	4a17      	ldr	r2, [pc, #92]	@ (800d364 <FlashConf_Store+0x80>)
 800d308:	4413      	add	r3, r2
 800d30a:	4a17      	ldr	r2, [pc, #92]	@ (800d368 <FlashConf_Store+0x84>)
 800d30c:	601a      	str	r2, [r3, #0]

	flCo.data.header.completeSize = length + sizeof(FLASH_KEY)
			+ sizeof(FlashConf_Header_t);
 800d30e:	683b      	ldr	r3, [r7, #0]
 800d310:	3314      	adds	r3, #20
	flCo.data.header.completeSize = length + sizeof(FLASH_KEY)
 800d312:	4a16      	ldr	r2, [pc, #88]	@ (800d36c <FlashConf_Store+0x88>)
 800d314:	6113      	str	r3, [r2, #16]
	flCo.data.header.reserved = FLASH_KEY;
 800d316:	4a14      	ldr	r2, [pc, #80]	@ (800d368 <FlashConf_Store+0x84>)
 800d318:	4b14      	ldr	r3, [pc, #80]	@ (800d36c <FlashConf_Store+0x88>)
 800d31a:	615a      	str	r2, [r3, #20]

	/* Write config data into flash */
	ret += FlashConf_Write();
 800d31c:	f000 f9ac 	bl	800d678 <FlashConf_Write>
 800d320:	4603      	mov	r3, r0
 800d322:	b29a      	uxth	r2, r3
 800d324:	88fb      	ldrh	r3, [r7, #6]
 800d326:	4413      	add	r3, r2
 800d328:	b29b      	uxth	r3, r3
 800d32a:	80fb      	strh	r3, [r7, #6]

	conf.dbg.writes_conf = flCo.data.header.writes;
 800d32c:	4b0f      	ldr	r3, [pc, #60]	@ (800d36c <FlashConf_Store+0x88>)
 800d32e:	68db      	ldr	r3, [r3, #12]
 800d330:	4a0f      	ldr	r2, [pc, #60]	@ (800d370 <FlashConf_Store+0x8c>)
 800d332:	64d3      	str	r3, [r2, #76]	@ 0x4c

	if (ret == STATUS_OK) {
 800d334:	f9b7 3006 	ldrsh.w	r3, [r7, #6]
 800d338:	2b00      	cmp	r3, #0
 800d33a:	d106      	bne.n	800d34a <FlashConf_Store+0x66>
		CLEAR_BIT(conf.sys.status, STAT_BIT_CONFIG_FLASH);
 800d33c:	4b0c      	ldr	r3, [pc, #48]	@ (800d370 <FlashConf_Store+0x8c>)
 800d33e:	689b      	ldr	r3, [r3, #8]
 800d340:	f423 3380 	bic.w	r3, r3, #65536	@ 0x10000
 800d344:	4a0a      	ldr	r2, [pc, #40]	@ (800d370 <FlashConf_Store+0x8c>)
 800d346:	6093      	str	r3, [r2, #8]
 800d348:	e005      	b.n	800d356 <FlashConf_Store+0x72>
	} else {
		SET_BIT(conf.sys.status, STAT_BIT_CONFIG_FLASH);
 800d34a:	4b09      	ldr	r3, [pc, #36]	@ (800d370 <FlashConf_Store+0x8c>)
 800d34c:	689b      	ldr	r3, [r3, #8]
 800d34e:	f443 3380 	orr.w	r3, r3, #65536	@ 0x10000
 800d352:	4a07      	ldr	r2, [pc, #28]	@ (800d370 <FlashConf_Store+0x8c>)
 800d354:	6093      	str	r3, [r2, #8]
	}

	return ret;
 800d356:	f9b7 3006 	ldrsh.w	r3, [r7, #6]
}
 800d35a:	4618      	mov	r0, r3
 800d35c:	3708      	adds	r7, #8
 800d35e:	46bd      	mov	sp, r7
 800d360:	bd80      	pop	{r7, pc}
 800d362:	bf00      	nop
 800d364:	2000013c 	.word	0x2000013c
 800d368:	deadbeef 	.word	0xdeadbeef
 800d36c:	20000124 	.word	0x20000124
 800d370:	20000560 	.word	0x20000560

0800d374 <FlashConf_FindEntry>:
	return ret;
}

/* Private Functions ---------------------------------------------------------*/

Status_t FlashConf_FindEntry(void) {
 800d374:	b590      	push	{r4, r7, lr}
 800d376:	b085      	sub	sp, #20
 800d378:	af00      	add	r7, sp, #0
	Status_t ret = STATUS_OK;
 800d37a:	2300      	movs	r3, #0
 800d37c:	81fb      	strh	r3, [r7, #14]
	uint32_t lastHeaderFound = 0;
 800d37e:	2300      	movs	r3, #0
 800d380:	60bb      	str	r3, [r7, #8]
	uint32_t address;

	/* Initial values */
	flCo.data.header.addressNext = FLASH_CONF_ADDR_START;
 800d382:	4a8c      	ldr	r2, [pc, #560]	@ (800d5b4 <FlashConf_FindEntry+0x240>)
 800d384:	4b8c      	ldr	r3, [pc, #560]	@ (800d5b8 <FlashConf_FindEntry+0x244>)
 800d386:	609a      	str	r2, [r3, #8]
	flCo.data.header.writes = 1;
 800d388:	4b8b      	ldr	r3, [pc, #556]	@ (800d5b8 <FlashConf_FindEntry+0x244>)
 800d38a:	2201      	movs	r2, #1
 800d38c:	60da      	str	r2, [r3, #12]
	flCo.data.header.completeSize = sizeof(FlashConf_Header_t);
 800d38e:	4b8a      	ldr	r3, [pc, #552]	@ (800d5b8 <FlashConf_FindEntry+0x244>)
 800d390:	2210      	movs	r2, #16
 800d392:	611a      	str	r2, [r3, #16]
	flCo.data.header.reserved = sizeof(FlashConf_Header_t);
 800d394:	4b88      	ldr	r3, [pc, #544]	@ (800d5b8 <FlashConf_FindEntry+0x244>)
 800d396:	2210      	movs	r2, #16
 800d398:	615a      	str	r2, [r3, #20]
	flCo.invalidAddress = -1;
 800d39a:	4b87      	ldr	r3, [pc, #540]	@ (800d5b8 <FlashConf_FindEntry+0x244>)
 800d39c:	f04f 32ff 	mov.w	r2, #4294967295
 800d3a0:	f8c3 2438 	str.w	r2, [r3, #1080]	@ 0x438
	flCo.configAddr = FLASH_CONF_ADDR_START;
 800d3a4:	4a83      	ldr	r2, [pc, #524]	@ (800d5b4 <FlashConf_FindEntry+0x240>)
 800d3a6:	4b84      	ldr	r3, [pc, #528]	@ (800d5b8 <FlashConf_FindEntry+0x244>)
 800d3a8:	601a      	str	r2, [r3, #0]
	flCo.backupAddr = FLASH_CONF_ADDR_START;
 800d3aa:	4a82      	ldr	r2, [pc, #520]	@ (800d5b4 <FlashConf_FindEntry+0x240>)
 800d3ac:	4b82      	ldr	r3, [pc, #520]	@ (800d5b8 <FlashConf_FindEntry+0x244>)
 800d3ae:	605a      	str	r2, [r3, #4]

	address = FLASH_CONF_ADDR_START;
 800d3b0:	4b80      	ldr	r3, [pc, #512]	@ (800d5b4 <FlashConf_FindEntry+0x240>)
 800d3b2:	607b      	str	r3, [r7, #4]

	/* Find first sector with non-empty values*/
	while ((address < FLASH_CONF_ADDR_END) && (lastHeaderFound == 0)) {
 800d3b4:	e02c      	b.n	800d410 <FlashConf_FindEntry+0x9c>
		/* Read header into temp */
		memcpy(&flCo.tempHead, (uint8_t*) address, sizeof(FlashConf_Header_t));
 800d3b6:	687b      	ldr	r3, [r7, #4]
 800d3b8:	2210      	movs	r2, #16
 800d3ba:	4619      	mov	r1, r3
 800d3bc:	487f      	ldr	r0, [pc, #508]	@ (800d5bc <FlashConf_FindEntry+0x248>)
 800d3be:	f007 fded 	bl	8014f9c <memcpy>

		if (flCo.tempHead.addressNext == 0 && flCo.tempHead.completeSize == 0
 800d3c2:	4b7d      	ldr	r3, [pc, #500]	@ (800d5b8 <FlashConf_FindEntry+0x244>)
 800d3c4:	f8d3 3418 	ldr.w	r3, [r3, #1048]	@ 0x418
 800d3c8:	2b00      	cmp	r3, #0
 800d3ca:	d114      	bne.n	800d3f6 <FlashConf_FindEntry+0x82>
 800d3cc:	4b7a      	ldr	r3, [pc, #488]	@ (800d5b8 <FlashConf_FindEntry+0x244>)
 800d3ce:	f8d3 3420 	ldr.w	r3, [r3, #1056]	@ 0x420
 800d3d2:	2b00      	cmp	r3, #0
 800d3d4:	d10f      	bne.n	800d3f6 <FlashConf_FindEntry+0x82>
				&& flCo.tempHead.reserved != FLASH_KEY) {
 800d3d6:	4b78      	ldr	r3, [pc, #480]	@ (800d5b8 <FlashConf_FindEntry+0x244>)
 800d3d8:	f8d3 3424 	ldr.w	r3, [r3, #1060]	@ 0x424
 800d3dc:	4a78      	ldr	r2, [pc, #480]	@ (800d5c0 <FlashConf_FindEntry+0x24c>)
 800d3de:	4293      	cmp	r3, r2
 800d3e0:	d009      	beq.n	800d3f6 <FlashConf_FindEntry+0x82>
			/* We can erase sector of backup */
			ret = FlashConf_EraseBlock(address);
 800d3e2:	6878      	ldr	r0, [r7, #4]
 800d3e4:	f000 f8f0 	bl	800d5c8 <FlashConf_EraseBlock>
 800d3e8:	4603      	mov	r3, r0
 800d3ea:	81fb      	strh	r3, [r7, #14]

			/* Jump to next sector */
			address += FLASH_MEM_BLOCK_SIZE;
 800d3ec:	687b      	ldr	r3, [r7, #4]
 800d3ee:	f503 6300 	add.w	r3, r3, #2048	@ 0x800
 800d3f2:	607b      	str	r3, [r7, #4]
 800d3f4:	e00c      	b.n	800d410 <FlashConf_FindEntry+0x9c>
		} else if (flCo.tempHead.addressNext != FLASH_EMPTY_VALUE) {
 800d3f6:	4b70      	ldr	r3, [pc, #448]	@ (800d5b8 <FlashConf_FindEntry+0x244>)
 800d3f8:	f8d3 3418 	ldr.w	r3, [r3, #1048]	@ 0x418
 800d3fc:	f1b3 3fff 	cmp.w	r3, #4294967295
 800d400:	d002      	beq.n	800d408 <FlashConf_FindEntry+0x94>
			/* We reached an empty value, so the previous value is final */
			lastHeaderFound = 1;
 800d402:	2301      	movs	r3, #1
 800d404:	60bb      	str	r3, [r7, #8]
 800d406:	e003      	b.n	800d410 <FlashConf_FindEntry+0x9c>
		} else {
			/* Jump to next sector */
			address += FLASH_MEM_BLOCK_SIZE;
 800d408:	687b      	ldr	r3, [r7, #4]
 800d40a:	f503 6300 	add.w	r3, r3, #2048	@ 0x800
 800d40e:	607b      	str	r3, [r7, #4]
	while ((address < FLASH_CONF_ADDR_END) && (lastHeaderFound == 0)) {
 800d410:	4a68      	ldr	r2, [pc, #416]	@ (800d5b4 <FlashConf_FindEntry+0x240>)
 800d412:	4b6c      	ldr	r3, [pc, #432]	@ (800d5c4 <FlashConf_FindEntry+0x250>)
 800d414:	4413      	add	r3, r2
 800d416:	687a      	ldr	r2, [r7, #4]
 800d418:	429a      	cmp	r2, r3
 800d41a:	d202      	bcs.n	800d422 <FlashConf_FindEntry+0xae>
 800d41c:	68bb      	ldr	r3, [r7, #8]
 800d41e:	2b00      	cmp	r3, #0
 800d420:	d0c9      	beq.n	800d3b6 <FlashConf_FindEntry+0x42>
		}
	}

	/* Nothing found in flash */
	if (address == FLASH_CONF_ADDR_END) {
 800d422:	4a64      	ldr	r2, [pc, #400]	@ (800d5b4 <FlashConf_FindEntry+0x240>)
 800d424:	4b67      	ldr	r3, [pc, #412]	@ (800d5c4 <FlashConf_FindEntry+0x250>)
 800d426:	4413      	add	r3, r2
 800d428:	687a      	ldr	r2, [r7, #4]
 800d42a:	429a      	cmp	r2, r3
 800d42c:	d102      	bne.n	800d434 <FlashConf_FindEntry+0xc0>
		ret = STATUS_ERROR;
 800d42e:	2301      	movs	r3, #1
 800d430:	81fb      	strh	r3, [r7, #14]
 800d432:	e0a2      	b.n	800d57a <FlashConf_FindEntry+0x206>
	} else {
		ret = STATUS_OK;
 800d434:	2300      	movs	r3, #0
 800d436:	81fb      	strh	r3, [r7, #14]
		lastHeaderFound = 0;
 800d438:	2300      	movs	r3, #0
 800d43a:	60bb      	str	r3, [r7, #8]

		/* Go through chain list until last non-empty value is found */
		while ((address < FLASH_CONF_ADDR_END) && (lastHeaderFound == 0)) {
 800d43c:	e093      	b.n	800d566 <FlashConf_FindEntry+0x1f2>
			/* Read header into temp */
			memcpy((uint8_t*) &flCo.tempHead, (uint8_t*) address,
 800d43e:	687b      	ldr	r3, [r7, #4]
 800d440:	2210      	movs	r2, #16
 800d442:	4619      	mov	r1, r3
 800d444:	485d      	ldr	r0, [pc, #372]	@ (800d5bc <FlashConf_FindEntry+0x248>)
 800d446:	f007 fda9 	bl	8014f9c <memcpy>
					sizeof(FlashConf_Header_t));

			if (flCo.tempHead.addressNext == FLASH_EMPTY_VALUE) {
 800d44a:	4b5b      	ldr	r3, [pc, #364]	@ (800d5b8 <FlashConf_FindEntry+0x244>)
 800d44c:	f8d3 3418 	ldr.w	r3, [r3, #1048]	@ 0x418
 800d450:	f1b3 3fff 	cmp.w	r3, #4294967295
 800d454:	d12d      	bne.n	800d4b2 <FlashConf_FindEntry+0x13e>
				/* We reached an empty value, try to read next beginning of sector */

				/* This entry is the first */
				if (flCo.configAddr == FLASH_CONF_ADDR_START
 800d456:	4b58      	ldr	r3, [pc, #352]	@ (800d5b8 <FlashConf_FindEntry+0x244>)
 800d458:	681b      	ldr	r3, [r3, #0]
 800d45a:	4a56      	ldr	r2, [pc, #344]	@ (800d5b4 <FlashConf_FindEntry+0x240>)
 800d45c:	4293      	cmp	r3, r2
 800d45e:	d10b      	bne.n	800d478 <FlashConf_FindEntry+0x104>
						&& flCo.backupAddr == FLASH_CONF_ADDR_START) {
 800d460:	4b55      	ldr	r3, [pc, #340]	@ (800d5b8 <FlashConf_FindEntry+0x244>)
 800d462:	685b      	ldr	r3, [r3, #4]
 800d464:	4a53      	ldr	r2, [pc, #332]	@ (800d5b4 <FlashConf_FindEntry+0x240>)
 800d466:	4293      	cmp	r3, r2
 800d468:	d106      	bne.n	800d478 <FlashConf_FindEntry+0x104>
					/* Try the last sector */
					address = FLASH_CONF_ADDR_END - FLASH_MEM_BLOCK_SIZE;
 800d46a:	4a56      	ldr	r2, [pc, #344]	@ (800d5c4 <FlashConf_FindEntry+0x250>)
 800d46c:	4b51      	ldr	r3, [pc, #324]	@ (800d5b4 <FlashConf_FindEntry+0x240>)
 800d46e:	f5a3 6300 	sub.w	r3, r3, #2048	@ 0x800
 800d472:	4413      	add	r3, r2
 800d474:	607b      	str	r3, [r7, #4]
 800d476:	e016      	b.n	800d4a6 <FlashConf_FindEntry+0x132>
				}
				/* Jump to the beginning of sector */
				else if ((address % FLASH_MEM_BLOCK_SIZE)
						>= FLASH_MEM_BLOCK_SIZE / 2) // address & (FLASH_MEM_BLOCK_SIZE - 1) &&
 800d478:	687b      	ldr	r3, [r7, #4]
 800d47a:	f403 6380 	and.w	r3, r3, #1024	@ 0x400
				else if ((address % FLASH_MEM_BLOCK_SIZE)
 800d47e:	2b00      	cmp	r3, #0
 800d480:	d011      	beq.n	800d4a6 <FlashConf_FindEntry+0x132>
								{
					address &= ~(FLASH_MEM_BLOCK_SIZE - 1);
 800d482:	687b      	ldr	r3, [r7, #4]
 800d484:	f423 63ff 	bic.w	r3, r3, #2040	@ 0x7f8
 800d488:	f023 0307 	bic.w	r3, r3, #7
 800d48c:	607b      	str	r3, [r7, #4]
					address += (FLASH_MEM_BLOCK_SIZE);
 800d48e:	687b      	ldr	r3, [r7, #4]
 800d490:	f503 6300 	add.w	r3, r3, #2048	@ 0x800
 800d494:	607b      	str	r3, [r7, #4]

					/* Wrap around the config space */
					if (address == FLASH_CONF_ADDR_END) {
 800d496:	4a47      	ldr	r2, [pc, #284]	@ (800d5b4 <FlashConf_FindEntry+0x240>)
 800d498:	4b4a      	ldr	r3, [pc, #296]	@ (800d5c4 <FlashConf_FindEntry+0x250>)
 800d49a:	4413      	add	r3, r2
 800d49c:	687a      	ldr	r2, [r7, #4]
 800d49e:	429a      	cmp	r2, r3
 800d4a0:	d101      	bne.n	800d4a6 <FlashConf_FindEntry+0x132>
						address = FLASH_CONF_ADDR_START;
 800d4a2:	4b44      	ldr	r3, [pc, #272]	@ (800d5b4 <FlashConf_FindEntry+0x240>)
 800d4a4:	607b      	str	r3, [r7, #4]
					}
				}

				/* Read header into temporary storage */
				memcpy((uint8_t*) &flCo.tempHead, (uint8_t*) address,
 800d4a6:	687b      	ldr	r3, [r7, #4]
 800d4a8:	2210      	movs	r2, #16
 800d4aa:	4619      	mov	r1, r3
 800d4ac:	4843      	ldr	r0, [pc, #268]	@ (800d5bc <FlashConf_FindEntry+0x248>)
 800d4ae:	f007 fd75 	bl	8014f9c <memcpy>
						sizeof(FlashConf_Header_t));
			}

			/* Still empty value */
			if (flCo.tempHead.addressNext == FLASH_EMPTY_VALUE) {
 800d4b2:	4b41      	ldr	r3, [pc, #260]	@ (800d5b8 <FlashConf_FindEntry+0x244>)
 800d4b4:	f8d3 3418 	ldr.w	r3, [r3, #1048]	@ 0x418
 800d4b8:	f1b3 3fff 	cmp.w	r3, #4294967295
 800d4bc:	d102      	bne.n	800d4c4 <FlashConf_FindEntry+0x150>
				/* We reached an empty value, so the previous value is final */
				lastHeaderFound = 1;
 800d4be:	2301      	movs	r3, #1
 800d4c0:	60bb      	str	r3, [r7, #8]
 800d4c2:	e050      	b.n	800d566 <FlashConf_FindEntry+0x1f2>
			}
			/* Check next address on configuration boundaries and page beginning*/
			else if (flCo.tempHead.addressNext > FLASH_CONF_ADDR_END
 800d4c4:	4b3c      	ldr	r3, [pc, #240]	@ (800d5b8 <FlashConf_FindEntry+0x244>)
 800d4c6:	f8d3 2418 	ldr.w	r2, [r3, #1048]	@ 0x418
 800d4ca:	493a      	ldr	r1, [pc, #232]	@ (800d5b4 <FlashConf_FindEntry+0x240>)
 800d4cc:	4b3d      	ldr	r3, [pc, #244]	@ (800d5c4 <FlashConf_FindEntry+0x250>)
 800d4ce:	440b      	add	r3, r1
 800d4d0:	429a      	cmp	r2, r3
 800d4d2:	d806      	bhi.n	800d4e2 <FlashConf_FindEntry+0x16e>
					|| (flCo.tempHead.addressNext & (FLASH_MEM_PAGE_SIZE - 1))) {
 800d4d4:	4b38      	ldr	r3, [pc, #224]	@ (800d5b8 <FlashConf_FindEntry+0x244>)
 800d4d6:	f8d3 3418 	ldr.w	r3, [r3, #1048]	@ 0x418
 800d4da:	f003 030f 	and.w	r3, r3, #15
 800d4de:	2b00      	cmp	r3, #0
 800d4e0:	d016      	beq.n	800d510 <FlashConf_FindEntry+0x19c>
				/* The next address is invalid */
				flCo.invalidAddress = address;
 800d4e2:	4a35      	ldr	r2, [pc, #212]	@ (800d5b8 <FlashConf_FindEntry+0x244>)
 800d4e4:	687b      	ldr	r3, [r7, #4]
 800d4e6:	f8c2 3438 	str.w	r3, [r2, #1080]	@ 0x438

				/* Maybe the erase has failed, try to peek into next sector */
				address &= ~(FLASH_MEM_BLOCK_SIZE - 1);
 800d4ea:	687b      	ldr	r3, [r7, #4]
 800d4ec:	f423 63ff 	bic.w	r3, r3, #2040	@ 0x7f8
 800d4f0:	f023 0307 	bic.w	r3, r3, #7
 800d4f4:	607b      	str	r3, [r7, #4]
				address += (FLASH_MEM_BLOCK_SIZE);
 800d4f6:	687b      	ldr	r3, [r7, #4]
 800d4f8:	f503 6300 	add.w	r3, r3, #2048	@ 0x800
 800d4fc:	607b      	str	r3, [r7, #4]
				/* Wrap around the config space */
				if (address == FLASH_CONF_ADDR_END) {
 800d4fe:	4a2d      	ldr	r2, [pc, #180]	@ (800d5b4 <FlashConf_FindEntry+0x240>)
 800d500:	4b30      	ldr	r3, [pc, #192]	@ (800d5c4 <FlashConf_FindEntry+0x250>)
 800d502:	4413      	add	r3, r2
 800d504:	687a      	ldr	r2, [r7, #4]
 800d506:	429a      	cmp	r2, r3
 800d508:	d12d      	bne.n	800d566 <FlashConf_FindEntry+0x1f2>
					address = FLASH_CONF_ADDR_START;
 800d50a:	4b2a      	ldr	r3, [pc, #168]	@ (800d5b4 <FlashConf_FindEntry+0x240>)
 800d50c:	607b      	str	r3, [r7, #4]
				if (address == FLASH_CONF_ADDR_END) {
 800d50e:	e02a      	b.n	800d566 <FlashConf_FindEntry+0x1f2>
				}
			} else {
				/* Store temp as new valid value */
				memcpy(&flCo.header, &flCo.tempHead,
 800d510:	4a29      	ldr	r2, [pc, #164]	@ (800d5b8 <FlashConf_FindEntry+0x244>)
 800d512:	4b29      	ldr	r3, [pc, #164]	@ (800d5b8 <FlashConf_FindEntry+0x244>)
 800d514:	f502 6485 	add.w	r4, r2, #1064	@ 0x428
 800d518:	f503 6383 	add.w	r3, r3, #1048	@ 0x418
 800d51c:	cb0f      	ldmia	r3, {r0, r1, r2, r3}
 800d51e:	e884 000f 	stmia.w	r4, {r0, r1, r2, r3}
						sizeof(FlashConf_Header_t));

				/* Shift config pointers and find out if some sector is left useless */
				if ((flCo.backupAddr ^ flCo.configAddr)
 800d522:	4b25      	ldr	r3, [pc, #148]	@ (800d5b8 <FlashConf_FindEntry+0x244>)
 800d524:	685a      	ldr	r2, [r3, #4]
 800d526:	4b24      	ldr	r3, [pc, #144]	@ (800d5b8 <FlashConf_FindEntry+0x244>)
 800d528:	681b      	ldr	r3, [r3, #0]
 800d52a:	4053      	eors	r3, r2
 800d52c:	f5b3 6f00 	cmp.w	r3, #2048	@ 0x800
 800d530:	d30e      	bcc.n	800d550 <FlashConf_FindEntry+0x1dc>
						& ~(FLASH_MEM_BLOCK_SIZE - 1)
						&& (flCo.configAddr - flCo.backupAddr
 800d532:	4b21      	ldr	r3, [pc, #132]	@ (800d5b8 <FlashConf_FindEntry+0x244>)
 800d534:	681a      	ldr	r2, [r3, #0]
 800d536:	4b20      	ldr	r3, [pc, #128]	@ (800d5b8 <FlashConf_FindEntry+0x244>)
 800d538:	685b      	ldr	r3, [r3, #4]
 800d53a:	1ad3      	subs	r3, r2, r3
 800d53c:	f5b3 6f00 	cmp.w	r3, #2048	@ 0x800
 800d540:	d206      	bcs.n	800d550 <FlashConf_FindEntry+0x1dc>
								< FLASH_MEM_BLOCK_SIZE)) {
					/* We can erase sector of backup */
					ret = FlashConf_EraseBlock(flCo.backupAddr);
 800d542:	4b1d      	ldr	r3, [pc, #116]	@ (800d5b8 <FlashConf_FindEntry+0x244>)
 800d544:	685b      	ldr	r3, [r3, #4]
 800d546:	4618      	mov	r0, r3
 800d548:	f000 f83e 	bl	800d5c8 <FlashConf_EraseBlock>
 800d54c:	4603      	mov	r3, r0
 800d54e:	81fb      	strh	r3, [r7, #14]
				}

				flCo.backupAddr = flCo.configAddr;
 800d550:	4b19      	ldr	r3, [pc, #100]	@ (800d5b8 <FlashConf_FindEntry+0x244>)
 800d552:	681b      	ldr	r3, [r3, #0]
 800d554:	4a18      	ldr	r2, [pc, #96]	@ (800d5b8 <FlashConf_FindEntry+0x244>)
 800d556:	6053      	str	r3, [r2, #4]
				flCo.configAddr = address;
 800d558:	4a17      	ldr	r2, [pc, #92]	@ (800d5b8 <FlashConf_FindEntry+0x244>)
 800d55a:	687b      	ldr	r3, [r7, #4]
 800d55c:	6013      	str	r3, [r2, #0]
				address = flCo.tempHead.addressNext;
 800d55e:	4b16      	ldr	r3, [pc, #88]	@ (800d5b8 <FlashConf_FindEntry+0x244>)
 800d560:	f8d3 3418 	ldr.w	r3, [r3, #1048]	@ 0x418
 800d564:	607b      	str	r3, [r7, #4]
		while ((address < FLASH_CONF_ADDR_END) && (lastHeaderFound == 0)) {
 800d566:	4a13      	ldr	r2, [pc, #76]	@ (800d5b4 <FlashConf_FindEntry+0x240>)
 800d568:	4b16      	ldr	r3, [pc, #88]	@ (800d5c4 <FlashConf_FindEntry+0x250>)
 800d56a:	4413      	add	r3, r2
 800d56c:	687a      	ldr	r2, [r7, #4]
 800d56e:	429a      	cmp	r2, r3
 800d570:	d203      	bcs.n	800d57a <FlashConf_FindEntry+0x206>
 800d572:	68bb      	ldr	r3, [r7, #8]
 800d574:	2b00      	cmp	r3, #0
 800d576:	f43f af62 	beq.w	800d43e <FlashConf_FindEntry+0xca>
			}
		}
	}

	/* If invalid address was found and backup entry is in different sector, we can erase corrupted sector */
	if (flCo.invalidAddress != -1
 800d57a:	4b0f      	ldr	r3, [pc, #60]	@ (800d5b8 <FlashConf_FindEntry+0x244>)
 800d57c:	f8d3 3438 	ldr.w	r3, [r3, #1080]	@ 0x438
 800d580:	f1b3 3fff 	cmp.w	r3, #4294967295
 800d584:	d010      	beq.n	800d5a8 <FlashConf_FindEntry+0x234>
			&& ((flCo.backupAddr ^ flCo.invalidAddress)
 800d586:	4b0c      	ldr	r3, [pc, #48]	@ (800d5b8 <FlashConf_FindEntry+0x244>)
 800d588:	685a      	ldr	r2, [r3, #4]
 800d58a:	4b0b      	ldr	r3, [pc, #44]	@ (800d5b8 <FlashConf_FindEntry+0x244>)
 800d58c:	f8d3 3438 	ldr.w	r3, [r3, #1080]	@ 0x438
 800d590:	4053      	eors	r3, r2
 800d592:	f5b3 6f00 	cmp.w	r3, #2048	@ 0x800
 800d596:	d307      	bcc.n	800d5a8 <FlashConf_FindEntry+0x234>
					& ~(FLASH_MEM_BLOCK_SIZE - 1)) != 0) {
		/* Erase the corrupted sector */
		ret = FlashConf_EraseBlock(flCo.invalidAddress);
 800d598:	4b07      	ldr	r3, [pc, #28]	@ (800d5b8 <FlashConf_FindEntry+0x244>)
 800d59a:	f8d3 3438 	ldr.w	r3, [r3, #1080]	@ 0x438
 800d59e:	4618      	mov	r0, r3
 800d5a0:	f000 f812 	bl	800d5c8 <FlashConf_EraseBlock>
 800d5a4:	4603      	mov	r3, r0
 800d5a6:	81fb      	strh	r3, [r7, #14]
	}

	return ret;
 800d5a8:	f9b7 300e 	ldrsh.w	r3, [r7, #14]
}
 800d5ac:	4618      	mov	r0, r3
 800d5ae:	3714      	adds	r7, #20
 800d5b0:	46bd      	mov	sp, r7
 800d5b2:	bd90      	pop	{r4, r7, pc}
 800d5b4:	08008000 	.word	0x08008000
 800d5b8:	20000124 	.word	0x20000124
 800d5bc:	2000053c 	.word	0x2000053c
 800d5c0:	deadbeef 	.word	0xdeadbeef
 800d5c4:	00004000 	.word	0x00004000

0800d5c8 <FlashConf_EraseBlock>:

Status_t FlashConf_EraseBlock(uint32_t address) {
 800d5c8:	b580      	push	{r7, lr}
 800d5ca:	b084      	sub	sp, #16
 800d5cc:	af00      	add	r7, sp, #0
 800d5ce:	6078      	str	r0, [r7, #4]
	Status_t ret = STATUS_OK;
 800d5d0:	2300      	movs	r3, #0
 800d5d2:	81fb      	strh	r3, [r7, #14]

	ret = System_FlashErase(address, address + 1);
 800d5d4:	687b      	ldr	r3, [r7, #4]
 800d5d6:	3301      	adds	r3, #1
 800d5d8:	4619      	mov	r1, r3
 800d5da:	6878      	ldr	r0, [r7, #4]
 800d5dc:	f000 fa02 	bl	800d9e4 <System_FlashErase>
 800d5e0:	4603      	mov	r3, r0
 800d5e2:	81fb      	strh	r3, [r7, #14]

	return ret;
 800d5e4:	f9b7 300e 	ldrsh.w	r3, [r7, #14]
}
 800d5e8:	4618      	mov	r0, r3
 800d5ea:	3710      	adds	r7, #16
 800d5ec:	46bd      	mov	sp, r7
 800d5ee:	bd80      	pop	{r7, pc}

0800d5f0 <FlashConf_Read>:

Status_t FlashConf_Read(uint32_t address) {
 800d5f0:	b580      	push	{r7, lr}
 800d5f2:	b084      	sub	sp, #16
 800d5f4:	af00      	add	r7, sp, #0
 800d5f6:	6078      	str	r0, [r7, #4]
	Status_t ret = STATUS_OK;
 800d5f8:	2300      	movs	r3, #0
 800d5fa:	81fb      	strh	r3, [r7, #14]
	uint32_t lengthToRead;

	/* Read header */
	memcpy((uint8_t*) &flCo.data.header, (uint8_t*) address,
 800d5fc:	687b      	ldr	r3, [r7, #4]
 800d5fe:	2210      	movs	r2, #16
 800d600:	4619      	mov	r1, r3
 800d602:	4818      	ldr	r0, [pc, #96]	@ (800d664 <FlashConf_Read+0x74>)
 800d604:	f007 fcca 	bl	8014f9c <memcpy>
			sizeof(FlashConf_Header_t));

	lengthToRead = flCo.data.header.completeSize - sizeof(FlashConf_Header_t);
 800d608:	4b17      	ldr	r3, [pc, #92]	@ (800d668 <FlashConf_Read+0x78>)
 800d60a:	691b      	ldr	r3, [r3, #16]
 800d60c:	3b10      	subs	r3, #16
 800d60e:	60bb      	str	r3, [r7, #8]
	SAT_UP(lengthToRead, FLASH_CONF_SIZE);
 800d610:	68bb      	ldr	r3, [r7, #8]
 800d612:	f5b3 6f80 	cmp.w	r3, #1024	@ 0x400
 800d616:	bf28      	it	cs
 800d618:	f44f 6380 	movcs.w	r3, #1024	@ 0x400
 800d61c:	60bb      	str	r3, [r7, #8]

	/* Read the rest of configuration data */
	memcpy((uint8_t*) &flCo.data.data,
			(uint8_t*) address + sizeof(FlashConf_Header_t), lengthToRead);
 800d61e:	687b      	ldr	r3, [r7, #4]
 800d620:	3310      	adds	r3, #16
	memcpy((uint8_t*) &flCo.data.data,
 800d622:	68ba      	ldr	r2, [r7, #8]
 800d624:	4619      	mov	r1, r3
 800d626:	4811      	ldr	r0, [pc, #68]	@ (800d66c <FlashConf_Read+0x7c>)
 800d628:	f007 fcb8 	bl	8014f9c <memcpy>

	/* Consistency check at reserved field*/
	if (flCo.data.header.reserved != FLASH_KEY) {
 800d62c:	4b0e      	ldr	r3, [pc, #56]	@ (800d668 <FlashConf_Read+0x78>)
 800d62e:	695b      	ldr	r3, [r3, #20]
 800d630:	4a0f      	ldr	r2, [pc, #60]	@ (800d670 <FlashConf_Read+0x80>)
 800d632:	4293      	cmp	r3, r2
 800d634:	d001      	beq.n	800d63a <FlashConf_Read+0x4a>
		ret = STATUS_ERROR;
 800d636:	2301      	movs	r3, #1
 800d638:	81fb      	strh	r3, [r7, #14]
	}

	/* Check consistency at the end of stream */
	if (memcmp(
			flCo.data.data + flCo.data.header.completeSize
 800d63a:	4b0b      	ldr	r3, [pc, #44]	@ (800d668 <FlashConf_Read+0x78>)
 800d63c:	691b      	ldr	r3, [r3, #16]
					- sizeof(FlashConf_Header_t) - sizeof(FLASH_KEY),
 800d63e:	3b14      	subs	r3, #20
	if (memcmp(
 800d640:	4a0a      	ldr	r2, [pc, #40]	@ (800d66c <FlashConf_Read+0x7c>)
 800d642:	4413      	add	r3, r2
 800d644:	2204      	movs	r2, #4
 800d646:	490b      	ldr	r1, [pc, #44]	@ (800d674 <FlashConf_Read+0x84>)
 800d648:	4618      	mov	r0, r3
 800d64a:	f007 fc6b 	bl	8014f24 <memcmp>
 800d64e:	4603      	mov	r3, r0
 800d650:	2b00      	cmp	r3, #0
 800d652:	d001      	beq.n	800d658 <FlashConf_Read+0x68>
			&FLASH_KEY, sizeof(FLASH_KEY)) != 0) {
		ret = STATUS_ERROR;
 800d654:	2301      	movs	r3, #1
 800d656:	81fb      	strh	r3, [r7, #14]
	}

	return ret;
 800d658:	f9b7 300e 	ldrsh.w	r3, [r7, #14]
}
 800d65c:	4618      	mov	r0, r3
 800d65e:	3710      	adds	r7, #16
 800d660:	46bd      	mov	sp, r7
 800d662:	bd80      	pop	{r7, pc}
 800d664:	2000012c 	.word	0x2000012c
 800d668:	20000124 	.word	0x20000124
 800d66c:	2000013c 	.word	0x2000013c
 800d670:	deadbeef 	.word	0xdeadbeef
 800d674:	0801530c 	.word	0x0801530c

0800d678 <FlashConf_Write>:

Status_t FlashConf_Write(void) {
 800d678:	b580      	push	{r7, lr}
 800d67a:	b084      	sub	sp, #16
 800d67c:	af00      	add	r7, sp, #0
	Status_t ret = STATUS_OK;
 800d67e:	2300      	movs	r3, #0
 800d680:	817b      	strh	r3, [r7, #10]
	uint32_t address = flCo.data.header.addressNext; // previous address next become current address
 800d682:	4b44      	ldr	r3, [pc, #272]	@ (800d794 <FlashConf_Write+0x11c>)
 800d684:	689b      	ldr	r3, [r3, #8]
 800d686:	60fb      	str	r3, [r7, #12]
	uint32_t endAddress = (address & ~(FLASH_MEM_BLOCK_SIZE - 1))
 800d688:	68fb      	ldr	r3, [r7, #12]
 800d68a:	f423 63ff 	bic.w	r3, r3, #2040	@ 0x7f8
 800d68e:	f023 0307 	bic.w	r3, r3, #7
 800d692:	f503 6300 	add.w	r3, r3, #2048	@ 0x800
 800d696:	607b      	str	r3, [r7, #4]
			+ FLASH_MEM_BLOCK_SIZE; // end addess of current sector

	/* Increment the writes counter */
	flCo.data.header.writes += 1;
 800d698:	4b3e      	ldr	r3, [pc, #248]	@ (800d794 <FlashConf_Write+0x11c>)
 800d69a:	68db      	ldr	r3, [r3, #12]
 800d69c:	3301      	adds	r3, #1
 800d69e:	4a3d      	ldr	r2, [pc, #244]	@ (800d794 <FlashConf_Write+0x11c>)
 800d6a0:	60d3      	str	r3, [r2, #12]

	/* Compute the next address */
	flCo.data.header.addressNext += flCo.data.header.completeSize;
 800d6a2:	4b3c      	ldr	r3, [pc, #240]	@ (800d794 <FlashConf_Write+0x11c>)
 800d6a4:	689a      	ldr	r2, [r3, #8]
 800d6a6:	4b3b      	ldr	r3, [pc, #236]	@ (800d794 <FlashConf_Write+0x11c>)
 800d6a8:	691b      	ldr	r3, [r3, #16]
 800d6aa:	4413      	add	r3, r2
 800d6ac:	4a39      	ldr	r2, [pc, #228]	@ (800d794 <FlashConf_Write+0x11c>)
 800d6ae:	6093      	str	r3, [r2, #8]
	/* Ceil up to whole pages */
	if (flCo.data.header.addressNext & (FLASH_MEM_PAGE_SIZE - 1)) {
 800d6b0:	4b38      	ldr	r3, [pc, #224]	@ (800d794 <FlashConf_Write+0x11c>)
 800d6b2:	689b      	ldr	r3, [r3, #8]
 800d6b4:	f003 030f 	and.w	r3, r3, #15
 800d6b8:	2b00      	cmp	r3, #0
 800d6ba:	d00a      	beq.n	800d6d2 <FlashConf_Write+0x5a>
		flCo.data.header.addressNext &= ~(FLASH_MEM_PAGE_SIZE - 1);
 800d6bc:	4b35      	ldr	r3, [pc, #212]	@ (800d794 <FlashConf_Write+0x11c>)
 800d6be:	689b      	ldr	r3, [r3, #8]
 800d6c0:	f023 030f 	bic.w	r3, r3, #15
 800d6c4:	4a33      	ldr	r2, [pc, #204]	@ (800d794 <FlashConf_Write+0x11c>)
 800d6c6:	6093      	str	r3, [r2, #8]
		flCo.data.header.addressNext += (FLASH_MEM_PAGE_SIZE);
 800d6c8:	4b32      	ldr	r3, [pc, #200]	@ (800d794 <FlashConf_Write+0x11c>)
 800d6ca:	689b      	ldr	r3, [r3, #8]
 800d6cc:	3310      	adds	r3, #16
 800d6ce:	4a31      	ldr	r2, [pc, #196]	@ (800d794 <FlashConf_Write+0x11c>)
 800d6d0:	6093      	str	r3, [r2, #8]
	}

	if (flCo.data.header.addressNext == FLASH_CONF_ADDR_END) {
 800d6d2:	4b30      	ldr	r3, [pc, #192]	@ (800d794 <FlashConf_Write+0x11c>)
 800d6d4:	689a      	ldr	r2, [r3, #8]
 800d6d6:	4930      	ldr	r1, [pc, #192]	@ (800d798 <FlashConf_Write+0x120>)
 800d6d8:	4b30      	ldr	r3, [pc, #192]	@ (800d79c <FlashConf_Write+0x124>)
 800d6da:	440b      	add	r3, r1
 800d6dc:	429a      	cmp	r2, r3
 800d6de:	d103      	bne.n	800d6e8 <FlashConf_Write+0x70>
		flCo.data.header.addressNext = FLASH_CONF_ADDR_START;
 800d6e0:	4a2d      	ldr	r2, [pc, #180]	@ (800d798 <FlashConf_Write+0x120>)
 800d6e2:	4b2c      	ldr	r3, [pc, #176]	@ (800d794 <FlashConf_Write+0x11c>)
 800d6e4:	609a      	str	r2, [r3, #8]
 800d6e6:	e02e      	b.n	800d746 <FlashConf_Write+0xce>
	} else if (flCo.data.header.addressNext > endAddress) {
 800d6e8:	4b2a      	ldr	r3, [pc, #168]	@ (800d794 <FlashConf_Write+0x11c>)
 800d6ea:	689b      	ldr	r3, [r3, #8]
 800d6ec:	687a      	ldr	r2, [r7, #4]
 800d6ee:	429a      	cmp	r2, r3
 800d6f0:	d229      	bcs.n	800d746 <FlashConf_Write+0xce>
		/* Is this the last sector ? */
		if (endAddress == FLASH_CONF_ADDR_END) {
 800d6f2:	4a29      	ldr	r2, [pc, #164]	@ (800d798 <FlashConf_Write+0x120>)
 800d6f4:	4b29      	ldr	r3, [pc, #164]	@ (800d79c <FlashConf_Write+0x124>)
 800d6f6:	4413      	add	r3, r2
 800d6f8:	687a      	ldr	r2, [r7, #4]
 800d6fa:	429a      	cmp	r2, r3
 800d6fc:	d102      	bne.n	800d704 <FlashConf_Write+0x8c>
			/* Go to first sector */
			address = FLASH_CONF_ADDR_START;
 800d6fe:	4b26      	ldr	r3, [pc, #152]	@ (800d798 <FlashConf_Write+0x120>)
 800d700:	60fb      	str	r3, [r7, #12]
 800d702:	e003      	b.n	800d70c <FlashConf_Write+0x94>
		} else {
			/* Go to next sector */
			address += FLASH_MEM_BLOCK_SIZE;
 800d704:	68fb      	ldr	r3, [r7, #12]
 800d706:	f503 6300 	add.w	r3, r3, #2048	@ 0x800
 800d70a:	60fb      	str	r3, [r7, #12]
		}

		/* Reset the address pointer to the beginning of next sector */
		address = address & ~(FLASH_MEM_BLOCK_SIZE - 1);
 800d70c:	68fb      	ldr	r3, [r7, #12]
 800d70e:	f423 63ff 	bic.w	r3, r3, #2040	@ 0x7f8
 800d712:	f023 0307 	bic.w	r3, r3, #7
 800d716:	60fb      	str	r3, [r7, #12]
		/* Increment Next address pointer */
		flCo.data.header.addressNext = address + flCo.data.header.completeSize;
 800d718:	4b1e      	ldr	r3, [pc, #120]	@ (800d794 <FlashConf_Write+0x11c>)
 800d71a:	691a      	ldr	r2, [r3, #16]
 800d71c:	68fb      	ldr	r3, [r7, #12]
 800d71e:	4413      	add	r3, r2
 800d720:	4a1c      	ldr	r2, [pc, #112]	@ (800d794 <FlashConf_Write+0x11c>)
 800d722:	6093      	str	r3, [r2, #8]
		/* Ceil up to whole pages */
		if (flCo.data.header.addressNext & (FLASH_MEM_PAGE_SIZE - 1)) {
 800d724:	4b1b      	ldr	r3, [pc, #108]	@ (800d794 <FlashConf_Write+0x11c>)
 800d726:	689b      	ldr	r3, [r3, #8]
 800d728:	f003 030f 	and.w	r3, r3, #15
 800d72c:	2b00      	cmp	r3, #0
 800d72e:	d00a      	beq.n	800d746 <FlashConf_Write+0xce>
			flCo.data.header.addressNext &= ~(FLASH_MEM_PAGE_SIZE - 1);
 800d730:	4b18      	ldr	r3, [pc, #96]	@ (800d794 <FlashConf_Write+0x11c>)
 800d732:	689b      	ldr	r3, [r3, #8]
 800d734:	f023 030f 	bic.w	r3, r3, #15
 800d738:	4a16      	ldr	r2, [pc, #88]	@ (800d794 <FlashConf_Write+0x11c>)
 800d73a:	6093      	str	r3, [r2, #8]
			flCo.data.header.addressNext += (FLASH_MEM_PAGE_SIZE);
 800d73c:	4b15      	ldr	r3, [pc, #84]	@ (800d794 <FlashConf_Write+0x11c>)
 800d73e:	689b      	ldr	r3, [r3, #8]
 800d740:	3310      	adds	r3, #16
 800d742:	4a14      	ldr	r2, [pc, #80]	@ (800d794 <FlashConf_Write+0x11c>)
 800d744:	6093      	str	r3, [r2, #8]
		}
	}

	ret = System_FlashProgram(address, (uint8_t*) &flCo.data,
			((flCo.data.header.completeSize + 3) >> 2) * 4);
 800d746:	4b13      	ldr	r3, [pc, #76]	@ (800d794 <FlashConf_Write+0x11c>)
 800d748:	691b      	ldr	r3, [r3, #16]
 800d74a:	3303      	adds	r3, #3
 800d74c:	089b      	lsrs	r3, r3, #2
	ret = System_FlashProgram(address, (uint8_t*) &flCo.data,
 800d74e:	009b      	lsls	r3, r3, #2
 800d750:	461a      	mov	r2, r3
 800d752:	4913      	ldr	r1, [pc, #76]	@ (800d7a0 <FlashConf_Write+0x128>)
 800d754:	68f8      	ldr	r0, [r7, #12]
 800d756:	f000 f97f 	bl	800da58 <System_FlashProgram>
 800d75a:	4603      	mov	r3, r0
 800d75c:	817b      	strh	r3, [r7, #10]

	/* Shift config pointers and find out if some sector is left useless */
	if ((flCo.backupAddr ^ flCo.configAddr) & ~(FLASH_MEM_BLOCK_SIZE - 1)) {
 800d75e:	4b0d      	ldr	r3, [pc, #52]	@ (800d794 <FlashConf_Write+0x11c>)
 800d760:	685a      	ldr	r2, [r3, #4]
 800d762:	4b0c      	ldr	r3, [pc, #48]	@ (800d794 <FlashConf_Write+0x11c>)
 800d764:	681b      	ldr	r3, [r3, #0]
 800d766:	4053      	eors	r3, r2
 800d768:	f5b3 6f00 	cmp.w	r3, #2048	@ 0x800
 800d76c:	d304      	bcc.n	800d778 <FlashConf_Write+0x100>
		/* We can erase sector of backup */
		FlashConf_EraseBlock(flCo.backupAddr);
 800d76e:	4b09      	ldr	r3, [pc, #36]	@ (800d794 <FlashConf_Write+0x11c>)
 800d770:	685b      	ldr	r3, [r3, #4]
 800d772:	4618      	mov	r0, r3
 800d774:	f7ff ff28 	bl	800d5c8 <FlashConf_EraseBlock>
	}

	flCo.backupAddr = flCo.configAddr;
 800d778:	4b06      	ldr	r3, [pc, #24]	@ (800d794 <FlashConf_Write+0x11c>)
 800d77a:	681b      	ldr	r3, [r3, #0]
 800d77c:	4a05      	ldr	r2, [pc, #20]	@ (800d794 <FlashConf_Write+0x11c>)
 800d77e:	6053      	str	r3, [r2, #4]
	flCo.configAddr = address;
 800d780:	4a04      	ldr	r2, [pc, #16]	@ (800d794 <FlashConf_Write+0x11c>)
 800d782:	68fb      	ldr	r3, [r7, #12]
 800d784:	6013      	str	r3, [r2, #0]

	return ret;
 800d786:	f9b7 300a 	ldrsh.w	r3, [r7, #10]
}
 800d78a:	4618      	mov	r0, r3
 800d78c:	3710      	adds	r7, #16
 800d78e:	46bd      	mov	sp, r7
 800d790:	bd80      	pop	{r7, pc}
 800d792:	bf00      	nop
 800d794:	20000124 	.word	0x20000124
 800d798:	08008000 	.word	0x08008000
 800d79c:	00004000 	.word	0x00004000
 800d7a0:	2000012c 	.word	0x2000012c

0800d7a4 <RegMap_RestoreFactoryValues>:
/* Private function prototypes -----------------------------------------------*/
/* Functions -----------------------------------------------------------------*/


Status_t RegMap_RestoreFactoryValues(void)
{
 800d7a4:	b580      	push	{r7, lr}
 800d7a6:	b082      	sub	sp, #8
 800d7a8:	af00      	add	r7, sp, #0
  Status_t ret = STATUS_OK;
 800d7aa:	2300      	movs	r3, #0
 800d7ac:	80fb      	strh	r3, [r7, #6]
  //uint8_t *id = (uint8_t *)0x1FFF7A10;

  /* Copy firmware info */
  memcpy(&conf.firm, CONF_C_APPLICATION_OFFSET + (uint32_t)CONF_FW_INFO_OFFSET, sizeof(conf.firm));
 800d7ae:	4a1b      	ldr	r2, [pc, #108]	@ (800d81c <RegMap_RestoreFactoryValues+0x78>)
 800d7b0:	4b1b      	ldr	r3, [pc, #108]	@ (800d820 <RegMap_RestoreFactoryValues+0x7c>)
 800d7b2:	4413      	add	r3, r2
 800d7b4:	2210      	movs	r2, #16
 800d7b6:	4619      	mov	r1, r3
 800d7b8:	481a      	ldr	r0, [pc, #104]	@ (800d824 <RegMap_RestoreFactoryValues+0x80>)
 800d7ba:	f007 fbef 	bl	8014f9c <memcpy>

  /* Copy Hardware info */
  memcpy(&conf.fact, CONF_C_BOOTLOADER_OFFSET + (uint32_t)CONF_FW_INFO_OFFSET, sizeof(conf.fact));
 800d7be:	4a17      	ldr	r2, [pc, #92]	@ (800d81c <RegMap_RestoreFactoryValues+0x78>)
 800d7c0:	4b19      	ldr	r3, [pc, #100]	@ (800d828 <RegMap_RestoreFactoryValues+0x84>)
 800d7c2:	4413      	add	r3, r2
 800d7c4:	2210      	movs	r2, #16
 800d7c6:	4619      	mov	r1, r3
 800d7c8:	4818      	ldr	r0, [pc, #96]	@ (800d82c <RegMap_RestoreFactoryValues+0x88>)
 800d7ca:	f007 fbe7 	bl	8014f9c <memcpy>

  CONF_INT(CONF_SYS_UPTIME)              = 0;
 800d7ce:	4b18      	ldr	r3, [pc, #96]	@ (800d830 <RegMap_RestoreFactoryValues+0x8c>)
 800d7d0:	2200      	movs	r2, #0
 800d7d2:	601a      	str	r2, [r3, #0]
  CONF_INT(CONF_SYS_REGMAP_VERSION)      = 1001;
 800d7d4:	4b16      	ldr	r3, [pc, #88]	@ (800d830 <RegMap_RestoreFactoryValues+0x8c>)
 800d7d6:	3304      	adds	r3, #4
 800d7d8:	f240 32e9 	movw	r2, #1001	@ 0x3e9
 800d7dc:	601a      	str	r2, [r3, #0]
  CONF_BYTE(CONF_COM_MB_BAUD_RATE)       = 1;
 800d7de:	4b15      	ldr	r3, [pc, #84]	@ (800d834 <RegMap_RestoreFactoryValues+0x90>)
 800d7e0:	2201      	movs	r2, #1
 800d7e2:	701a      	strb	r2, [r3, #0]
  CONF_BYTE(CONF_COM_MB_PARITY)          = 1;
 800d7e4:	4b13      	ldr	r3, [pc, #76]	@ (800d834 <RegMap_RestoreFactoryValues+0x90>)
 800d7e6:	3301      	adds	r3, #1
 800d7e8:	2201      	movs	r2, #1
 800d7ea:	701a      	strb	r2, [r3, #0]
  CONF_BYTE(CONF_COM_MB_STOP_BITS)       = 0;
 800d7ec:	4b11      	ldr	r3, [pc, #68]	@ (800d834 <RegMap_RestoreFactoryValues+0x90>)
 800d7ee:	3302      	adds	r3, #2
 800d7f0:	2200      	movs	r2, #0
 800d7f2:	701a      	strb	r2, [r3, #0]
  CONF_SHORT(CONF_COM_MB_ADDRESS)        = 32;
 800d7f4:	4b0f      	ldr	r3, [pc, #60]	@ (800d834 <RegMap_RestoreFactoryValues+0x90>)
 800d7f6:	3304      	adds	r3, #4
 800d7f8:	2220      	movs	r2, #32
 800d7fa:	801a      	strh	r2, [r3, #0]
  CONF_SHORT(CONF_COM_MB_TIMEOUT)        = 10;
 800d7fc:	4b0d      	ldr	r3, [pc, #52]	@ (800d834 <RegMap_RestoreFactoryValues+0x90>)
 800d7fe:	3308      	adds	r3, #8
 800d800:	220a      	movs	r2, #10
 800d802:	801a      	strh	r2, [r3, #0]
  CONF_SHORT(CONF_STPMEAS_NTC_BETA)      = 3977;
 800d804:	4b0c      	ldr	r3, [pc, #48]	@ (800d838 <RegMap_RestoreFactoryValues+0x94>)
 800d806:	3301      	adds	r3, #1
 800d808:	f640 7289 	movw	r2, #3977	@ 0xf89
 800d80c:	801a      	strh	r2, [r3, #0]


  return ret;
 800d80e:	f9b7 3006 	ldrsh.w	r3, [r7, #6]
}
 800d812:	4618      	mov	r0, r3
 800d814:	3708      	adds	r7, #8
 800d816:	46bd      	mov	sp, r7
 800d818:	bd80      	pop	{r7, pc}
 800d81a:	bf00      	nop
 800d81c:	00000200 	.word	0x00000200
 800d820:	0800c000 	.word	0x0800c000
 800d824:	20000588 	.word	0x20000588
 800d828:	08000000 	.word	0x08000000
 800d82c:	20000578 	.word	0x20000578
 800d830:	20000560 	.word	0x20000560
 800d834:	20000598 	.word	0x20000598
 800d838:	200005a8 	.word	0x200005a8

0800d83c <__NVIC_SystemReset>:
/**
  \brief   System Reset
  \details Initiates a system reset request to reset the MCU.
 */
__NO_RETURN __STATIC_INLINE void __NVIC_SystemReset(void)
{
 800d83c:	b480      	push	{r7}
 800d83e:	af00      	add	r7, sp, #0
  \details Acts as a special kind of Data Memory Barrier.
           It completes when all explicit memory accesses before this instruction complete.
 */
__STATIC_FORCEINLINE void __DSB(void)
{
  __ASM volatile ("dsb 0xF":::"memory");
 800d840:	f3bf 8f4f 	dsb	sy
}
 800d844:	bf00      	nop
  __DSB();                                                          /* Ensure all outstanding memory accesses included
                                                                       buffered write are completed before reset */
  SCB->AIRCR  = (uint32_t)((0x5FAUL << SCB_AIRCR_VECTKEY_Pos)    |
                           (SCB->AIRCR & SCB_AIRCR_PRIGROUP_Msk) |
 800d846:	4b06      	ldr	r3, [pc, #24]	@ (800d860 <__NVIC_SystemReset+0x24>)
 800d848:	68db      	ldr	r3, [r3, #12]
 800d84a:	f403 62e0 	and.w	r2, r3, #1792	@ 0x700
  SCB->AIRCR  = (uint32_t)((0x5FAUL << SCB_AIRCR_VECTKEY_Pos)    |
 800d84e:	4904      	ldr	r1, [pc, #16]	@ (800d860 <__NVIC_SystemReset+0x24>)
 800d850:	4b04      	ldr	r3, [pc, #16]	@ (800d864 <__NVIC_SystemReset+0x28>)
 800d852:	4313      	orrs	r3, r2
 800d854:	60cb      	str	r3, [r1, #12]
  __ASM volatile ("dsb 0xF":::"memory");
 800d856:	f3bf 8f4f 	dsb	sy
}
 800d85a:	bf00      	nop
                            SCB_AIRCR_SYSRESETREQ_Msk    );         /* Keep priority group unchanged */
  __DSB();                                                          /* Ensure completion of memory access */

  for(;;)                                                           /* wait until reset */
  {
    __NOP();
 800d85c:	bf00      	nop
 800d85e:	e7fd      	b.n	800d85c <__NVIC_SystemReset+0x20>
 800d860:	e000ed00 	.word	0xe000ed00
 800d864:	05fa0004 	.word	0x05fa0004

0800d868 <System_CrcInit>:
//
//  /* Freeze IWDG in stop */
//  __HAL_RCC_DBGMCU_CLK_ENABLE();
//  __HAL_DBGMCU_FREEZE_IWDG();
//}
void System_CrcInit(void) {
 800d868:	b580      	push	{r7, lr}
 800d86a:	b082      	sub	sp, #8
 800d86c:	af00      	add	r7, sp, #0
	/* Initialize CRC unit */
	hcrc.Instance = CRC;
 800d86e:	4b12      	ldr	r3, [pc, #72]	@ (800d8b8 <System_CrcInit+0x50>)
 800d870:	4a12      	ldr	r2, [pc, #72]	@ (800d8bc <System_CrcInit+0x54>)
 800d872:	601a      	str	r2, [r3, #0]

	__HAL_RCC_CRC_CLK_ENABLE();
 800d874:	2300      	movs	r3, #0
 800d876:	607b      	str	r3, [r7, #4]
 800d878:	4b11      	ldr	r3, [pc, #68]	@ (800d8c0 <System_CrcInit+0x58>)
 800d87a:	6b1b      	ldr	r3, [r3, #48]	@ 0x30
 800d87c:	4a10      	ldr	r2, [pc, #64]	@ (800d8c0 <System_CrcInit+0x58>)
 800d87e:	f443 5380 	orr.w	r3, r3, #4096	@ 0x1000
 800d882:	6313      	str	r3, [r2, #48]	@ 0x30
 800d884:	4b0e      	ldr	r3, [pc, #56]	@ (800d8c0 <System_CrcInit+0x58>)
 800d886:	6b1b      	ldr	r3, [r3, #48]	@ 0x30
 800d888:	f403 5380 	and.w	r3, r3, #4096	@ 0x1000
 800d88c:	607b      	str	r3, [r7, #4]
 800d88e:	687b      	ldr	r3, [r7, #4]
	if (HAL_CRC_Init(&hcrc) != HAL_OK) {
 800d890:	4809      	ldr	r0, [pc, #36]	@ (800d8b8 <System_CrcInit+0x50>)
 800d892:	f002 ff42 	bl	801071a <HAL_CRC_Init>
 800d896:	4603      	mov	r3, r0
 800d898:	2b00      	cmp	r3, #0
 800d89a:	d001      	beq.n	800d8a0 <System_CrcInit+0x38>
		Error_Handler();
 800d89c:	f001 fe11 	bl	800f4c2 <Error_Handler>
	}

	__HAL_CRC_DR_RESET(&hcrc);
 800d8a0:	4b05      	ldr	r3, [pc, #20]	@ (800d8b8 <System_CrcInit+0x50>)
 800d8a2:	681b      	ldr	r3, [r3, #0]
 800d8a4:	689a      	ldr	r2, [r3, #8]
 800d8a6:	4b04      	ldr	r3, [pc, #16]	@ (800d8b8 <System_CrcInit+0x50>)
 800d8a8:	681b      	ldr	r3, [r3, #0]
 800d8aa:	f042 0201 	orr.w	r2, r2, #1
 800d8ae:	609a      	str	r2, [r3, #8]
}
 800d8b0:	bf00      	nop
 800d8b2:	3708      	adds	r7, #8
 800d8b4:	46bd      	mov	sp, r7
 800d8b6:	bd80      	pop	{r7, pc}
 800d8b8:	200005fc 	.word	0x200005fc
 800d8bc:	40023000 	.word	0x40023000
 800d8c0:	40023800 	.word	0x40023800

0800d8c4 <System_InitWdg>:

uint32_t System_CrcAccumulate(uint32_t *data, uint32_t length) {
	return HAL_CRC_Accumulate(&hcrc, data, length);
}

Status_t System_InitWdg(void) {
 800d8c4:	b580      	push	{r7, lr}
 800d8c6:	b082      	sub	sp, #8
 800d8c8:	af00      	add	r7, sp, #0
	Status_t ret = STATUS_OK;
 800d8ca:	2300      	movs	r3, #0
 800d8cc:	80fb      	strh	r3, [r7, #6]

	/* 32000 Hz / 32 = 1000 counts per second
	 * 3000 = 3 s */
	hiwdg.Instance = IWDG;
 800d8ce:	4b0d      	ldr	r3, [pc, #52]	@ (800d904 <System_InitWdg+0x40>)
 800d8d0:	4a0d      	ldr	r2, [pc, #52]	@ (800d908 <System_InitWdg+0x44>)
 800d8d2:	601a      	str	r2, [r3, #0]
	hiwdg.Init.Prescaler = IWDG_PRESCALER_32;
 800d8d4:	4b0b      	ldr	r3, [pc, #44]	@ (800d904 <System_InitWdg+0x40>)
 800d8d6:	2203      	movs	r2, #3
 800d8d8:	605a      	str	r2, [r3, #4]
	hiwdg.Init.Reload = 3000;
 800d8da:	4b0a      	ldr	r3, [pc, #40]	@ (800d904 <System_InitWdg+0x40>)
 800d8dc:	f640 32b8 	movw	r2, #3000	@ 0xbb8
 800d8e0:	609a      	str	r2, [r3, #8]
	if (HAL_IWDG_Init(&hiwdg) != HAL_OK)
 800d8e2:	4808      	ldr	r0, [pc, #32]	@ (800d904 <System_InitWdg+0x40>)
 800d8e4:	f004 f958 	bl	8011b98 <HAL_IWDG_Init>
 800d8e8:	4603      	mov	r3, r0
 800d8ea:	2b00      	cmp	r3, #0
 800d8ec:	d001      	beq.n	800d8f2 <System_InitWdg+0x2e>
	{
		Error_Handler();
 800d8ee:	f001 fde8 	bl	800f4c2 <Error_Handler>
	}
	System_ReloadWdg();
 800d8f2:	f000 f80b 	bl	800d90c <System_ReloadWdg>

	return ret;
 800d8f6:	f9b7 3006 	ldrsh.w	r3, [r7, #6]
}
 800d8fa:	4618      	mov	r0, r3
 800d8fc:	3708      	adds	r7, #8
 800d8fe:	46bd      	mov	sp, r7
 800d900:	bd80      	pop	{r7, pc}
 800d902:	bf00      	nop
 800d904:	20000604 	.word	0x20000604
 800d908:	40003000 	.word	0x40003000

0800d90c <System_ReloadWdg>:

Status_t System_ReloadWdg(void)
{
 800d90c:	b580      	push	{r7, lr}
 800d90e:	b082      	sub	sp, #8
 800d910:	af00      	add	r7, sp, #0
	Status_t ret = STATUS_OK;
 800d912:	2300      	movs	r3, #0
 800d914:	80fb      	strh	r3, [r7, #6]

	HAL_IWDG_Refresh(&hiwdg);
 800d916:	4804      	ldr	r0, [pc, #16]	@ (800d928 <System_ReloadWdg+0x1c>)
 800d918:	f004 f982 	bl	8011c20 <HAL_IWDG_Refresh>

	return ret;
 800d91c:	f9b7 3006 	ldrsh.w	r3, [r7, #6]
}
 800d920:	4618      	mov	r0, r3
 800d922:	3708      	adds	r7, #8
 800d924:	46bd      	mov	sp, r7
 800d926:	bd80      	pop	{r7, pc}
 800d928:	20000604 	.word	0x20000604

0800d92c <System_Delay>:

uint8_t System_Delay(uint32_t milliseconds) {
 800d92c:	b580      	push	{r7, lr}
 800d92e:	b082      	sub	sp, #8
 800d930:	af00      	add	r7, sp, #0
 800d932:	6078      	str	r0, [r7, #4]
	HAL_Delay(milliseconds);
 800d934:	6878      	ldr	r0, [r7, #4]
 800d936:	f002 f941 	bl	800fbbc <HAL_Delay>
	return 0;
 800d93a:	2300      	movs	r3, #0
}
 800d93c:	4618      	mov	r0, r3
 800d93e:	3708      	adds	r7, #8
 800d940:	46bd      	mov	sp, r7
 800d942:	bd80      	pop	{r7, pc}

0800d944 <System_Reset>:

void System_Reset(void) {
 800d944:	b580      	push	{r7, lr}
 800d946:	af00      	add	r7, sp, #0
	NVIC_SystemReset();
 800d948:	f7ff ff78 	bl	800d83c <__NVIC_SystemReset>

0800d94c <GetSector>:
}

uint32_t GetSector(uint32_t Address) {
 800d94c:	b480      	push	{r7}
 800d94e:	b083      	sub	sp, #12
 800d950:	af00      	add	r7, sp, #0
 800d952:	6078      	str	r0, [r7, #4]
	if (Address < 0x08004000)
 800d954:	687b      	ldr	r3, [r7, #4]
 800d956:	4a1b      	ldr	r2, [pc, #108]	@ (800d9c4 <GetSector+0x78>)
 800d958:	4293      	cmp	r3, r2
 800d95a:	d201      	bcs.n	800d960 <GetSector+0x14>
		return FLASH_SECTOR_0;
 800d95c:	2300      	movs	r3, #0
 800d95e:	e02b      	b.n	800d9b8 <GetSector+0x6c>
	else if (Address < 0x08008000)
 800d960:	687b      	ldr	r3, [r7, #4]
 800d962:	4a19      	ldr	r2, [pc, #100]	@ (800d9c8 <GetSector+0x7c>)
 800d964:	4293      	cmp	r3, r2
 800d966:	d201      	bcs.n	800d96c <GetSector+0x20>
		return FLASH_SECTOR_1;
 800d968:	2301      	movs	r3, #1
 800d96a:	e025      	b.n	800d9b8 <GetSector+0x6c>
	else if (Address < 0x0800C000)
 800d96c:	687b      	ldr	r3, [r7, #4]
 800d96e:	4a17      	ldr	r2, [pc, #92]	@ (800d9cc <GetSector+0x80>)
 800d970:	4293      	cmp	r3, r2
 800d972:	d201      	bcs.n	800d978 <GetSector+0x2c>
		return FLASH_SECTOR_2;
 800d974:	2302      	movs	r3, #2
 800d976:	e01f      	b.n	800d9b8 <GetSector+0x6c>
	else if (Address < 0x08010000)
 800d978:	687b      	ldr	r3, [r7, #4]
 800d97a:	4a15      	ldr	r2, [pc, #84]	@ (800d9d0 <GetSector+0x84>)
 800d97c:	4293      	cmp	r3, r2
 800d97e:	d801      	bhi.n	800d984 <GetSector+0x38>
		return FLASH_SECTOR_3;
 800d980:	2303      	movs	r3, #3
 800d982:	e019      	b.n	800d9b8 <GetSector+0x6c>
	else if (Address < 0x08020000)
 800d984:	687b      	ldr	r3, [r7, #4]
 800d986:	4a13      	ldr	r2, [pc, #76]	@ (800d9d4 <GetSector+0x88>)
 800d988:	4293      	cmp	r3, r2
 800d98a:	d801      	bhi.n	800d990 <GetSector+0x44>
		return FLASH_SECTOR_4;
 800d98c:	2304      	movs	r3, #4
 800d98e:	e013      	b.n	800d9b8 <GetSector+0x6c>
	else if (Address < 0x08040000)
 800d990:	687b      	ldr	r3, [r7, #4]
 800d992:	4a11      	ldr	r2, [pc, #68]	@ (800d9d8 <GetSector+0x8c>)
 800d994:	4293      	cmp	r3, r2
 800d996:	d801      	bhi.n	800d99c <GetSector+0x50>
		return FLASH_SECTOR_5;
 800d998:	2305      	movs	r3, #5
 800d99a:	e00d      	b.n	800d9b8 <GetSector+0x6c>
	else if (Address < 0x08060000)
 800d99c:	687b      	ldr	r3, [r7, #4]
 800d99e:	4a0f      	ldr	r2, [pc, #60]	@ (800d9dc <GetSector+0x90>)
 800d9a0:	4293      	cmp	r3, r2
 800d9a2:	d801      	bhi.n	800d9a8 <GetSector+0x5c>
		return FLASH_SECTOR_6;
 800d9a4:	2306      	movs	r3, #6
 800d9a6:	e007      	b.n	800d9b8 <GetSector+0x6c>
	else if (Address < 0x08080000)
 800d9a8:	687b      	ldr	r3, [r7, #4]
 800d9aa:	4a0d      	ldr	r2, [pc, #52]	@ (800d9e0 <GetSector+0x94>)
 800d9ac:	4293      	cmp	r3, r2
 800d9ae:	d801      	bhi.n	800d9b4 <GetSector+0x68>
		return FLASH_SECTOR_7;
 800d9b0:	2307      	movs	r3, #7
 800d9b2:	e001      	b.n	800d9b8 <GetSector+0x6c>
	else
		return UINT32_MAX;
 800d9b4:	f04f 33ff 	mov.w	r3, #4294967295
}
 800d9b8:	4618      	mov	r0, r3
 800d9ba:	370c      	adds	r7, #12
 800d9bc:	46bd      	mov	sp, r7
 800d9be:	f85d 7b04 	ldr.w	r7, [sp], #4
 800d9c2:	4770      	bx	lr
 800d9c4:	08004000 	.word	0x08004000
 800d9c8:	08008000 	.word	0x08008000
 800d9cc:	0800c000 	.word	0x0800c000
 800d9d0:	0800ffff 	.word	0x0800ffff
 800d9d4:	0801ffff 	.word	0x0801ffff
 800d9d8:	0803ffff 	.word	0x0803ffff
 800d9dc:	0805ffff 	.word	0x0805ffff
 800d9e0:	0807ffff 	.word	0x0807ffff

0800d9e4 <System_FlashErase>:

Status_t System_FlashErase(uint32_t startAddress, uint32_t endAddress)
{
 800d9e4:	b580      	push	{r7, lr}
 800d9e6:	b08c      	sub	sp, #48	@ 0x30
 800d9e8:	af00      	add	r7, sp, #0
 800d9ea:	6078      	str	r0, [r7, #4]
 800d9ec:	6039      	str	r1, [r7, #0]
	Status_t ret = STATUS_OK;
 800d9ee:	2300      	movs	r3, #0
 800d9f0:	85fb      	strh	r3, [r7, #46]	@ 0x2e
	FLASH_EraseInitTypeDef erase;
	uint32_t pageError;
	uint32_t startSector, endSector;

	/* Unlock Flash memory */
	ret = HAL_FLASH_Unlock();
 800d9f2:	f003 fb03 	bl	8010ffc <HAL_FLASH_Unlock>
 800d9f6:	4603      	mov	r3, r0
 800d9f8:	85fb      	strh	r3, [r7, #46]	@ 0x2e

	/* Erase the given flash pages */
	startSector = GetSector(startAddress);
 800d9fa:	6878      	ldr	r0, [r7, #4]
 800d9fc:	f7ff ffa6 	bl	800d94c <GetSector>
 800da00:	62b8      	str	r0, [r7, #40]	@ 0x28
	endSector = GetSector(endAddress);
 800da02:	6838      	ldr	r0, [r7, #0]
 800da04:	f7ff ffa2 	bl	800d94c <GetSector>
 800da08:	6278      	str	r0, [r7, #36]	@ 0x24
	if (startSector >= UINT32_MAX || endSector >= UINT32_MAX)
 800da0a:	6abb      	ldr	r3, [r7, #40]	@ 0x28
 800da0c:	f1b3 3fff 	cmp.w	r3, #4294967295
 800da10:	d003      	beq.n	800da1a <System_FlashErase+0x36>
 800da12:	6a7b      	ldr	r3, [r7, #36]	@ 0x24
 800da14:	f1b3 3fff 	cmp.w	r3, #4294967295
 800da18:	d103      	bne.n	800da22 <System_FlashErase+0x3e>
	{
		HAL_FLASH_Lock();
 800da1a:	f003 fb11 	bl	8011040 <HAL_FLASH_Lock>
		return HAL_ERROR;
 800da1e:	2301      	movs	r3, #1
 800da20:	e016      	b.n	800da50 <System_FlashErase+0x6c>
	}

	// Nastaven struktury pro vymazn
	erase.TypeErase = FLASH_TYPEERASE_SECTORS;  // Vymazn sektor
 800da22:	2300      	movs	r3, #0
 800da24:	613b      	str	r3, [r7, #16]
	erase.Sector = startSector;                 // Nastaven potenho sektoru
 800da26:	6abb      	ldr	r3, [r7, #40]	@ 0x28
 800da28:	61bb      	str	r3, [r7, #24]
	erase.NbSectors = (endSector - startSector) + 1; // Poet sektor k vymazn
 800da2a:	6a7a      	ldr	r2, [r7, #36]	@ 0x24
 800da2c:	6abb      	ldr	r3, [r7, #40]	@ 0x28
 800da2e:	1ad3      	subs	r3, r2, r3
 800da30:	3301      	adds	r3, #1
 800da32:	61fb      	str	r3, [r7, #28]

	// Vymazn Flash pamti
	ret = HAL_FLASHEx_Erase(&erase, &pageError);
 800da34:	f107 020c 	add.w	r2, r7, #12
 800da38:	f107 0310 	add.w	r3, r7, #16
 800da3c:	4611      	mov	r1, r2
 800da3e:	4618      	mov	r0, r3
 800da40:	f003 fc4e 	bl	80112e0 <HAL_FLASHEx_Erase>
 800da44:	4603      	mov	r3, r0
 800da46:	85fb      	strh	r3, [r7, #46]	@ 0x2e

	// Lock Flash memory po operaci
	HAL_FLASH_Lock();
 800da48:	f003 fafa 	bl	8011040 <HAL_FLASH_Lock>

	return ret;
 800da4c:	f9b7 302e 	ldrsh.w	r3, [r7, #46]	@ 0x2e
}
 800da50:	4618      	mov	r0, r3
 800da52:	3730      	adds	r7, #48	@ 0x30
 800da54:	46bd      	mov	sp, r7
 800da56:	bd80      	pop	{r7, pc}

0800da58 <System_FlashProgram>:

Status_t System_FlashProgram(uint32_t addressOffset, uint8_t *data,
		uint32_t length) {
 800da58:	b5b0      	push	{r4, r5, r7, lr}
 800da5a:	b088      	sub	sp, #32
 800da5c:	af00      	add	r7, sp, #0
 800da5e:	60f8      	str	r0, [r7, #12]
 800da60:	60b9      	str	r1, [r7, #8]
 800da62:	607a      	str	r2, [r7, #4]
	Status_t ret = STATUS_OK;
 800da64:	2300      	movs	r3, #0
 800da66:	83fb      	strh	r3, [r7, #30]
	uint32_t bytesWritten = 0;
 800da68:	2300      	movs	r3, #0
 800da6a:	61bb      	str	r3, [r7, #24]
	uint32_t value;

	/* Unlock Flash memory */
	ret = HAL_FLASH_Unlock();
 800da6c:	f003 fac6 	bl	8010ffc <HAL_FLASH_Unlock>
 800da70:	4603      	mov	r3, r0
 800da72:	83fb      	strh	r3, [r7, #30]

	/* Address and data length must be multiple of 4 */
	if (((uint32_t) addressOffset % 4) || (length % 4)) {
 800da74:	68fb      	ldr	r3, [r7, #12]
 800da76:	f003 0303 	and.w	r3, r3, #3
 800da7a:	2b00      	cmp	r3, #0
 800da7c:	d104      	bne.n	800da88 <System_FlashProgram+0x30>
 800da7e:	687b      	ldr	r3, [r7, #4]
 800da80:	f003 0303 	and.w	r3, r3, #3
 800da84:	2b00      	cmp	r3, #0
 800da86:	d02a      	beq.n	800dade <System_FlashProgram+0x86>
		ret = STATUS_ERROR;
 800da88:	2301      	movs	r3, #1
 800da8a:	83fb      	strh	r3, [r7, #30]
	}

	while (ret == STATUS_OK && bytesWritten < length) {
 800da8c:	e027      	b.n	800dade <System_FlashProgram+0x86>
		/* Write a single word */
		value = data[0] + ((uint32_t) data[1] << 8) + ((uint32_t) data[2] << 16)
 800da8e:	68bb      	ldr	r3, [r7, #8]
 800da90:	781b      	ldrb	r3, [r3, #0]
 800da92:	461a      	mov	r2, r3
 800da94:	68bb      	ldr	r3, [r7, #8]
 800da96:	3301      	adds	r3, #1
 800da98:	781b      	ldrb	r3, [r3, #0]
 800da9a:	021b      	lsls	r3, r3, #8
 800da9c:	441a      	add	r2, r3
 800da9e:	68bb      	ldr	r3, [r7, #8]
 800daa0:	3302      	adds	r3, #2
 800daa2:	781b      	ldrb	r3, [r3, #0]
 800daa4:	041b      	lsls	r3, r3, #16
 800daa6:	441a      	add	r2, r3
				+ ((uint32_t) data[3] << 24);
 800daa8:	68bb      	ldr	r3, [r7, #8]
 800daaa:	3303      	adds	r3, #3
 800daac:	781b      	ldrb	r3, [r3, #0]
 800daae:	061b      	lsls	r3, r3, #24
		value = data[0] + ((uint32_t) data[1] << 8) + ((uint32_t) data[2] << 16)
 800dab0:	4413      	add	r3, r2
 800dab2:	617b      	str	r3, [r7, #20]
		ret = HAL_FLASH_Program(FLASH_TYPEPROGRAM_WORD,
 800dab4:	697b      	ldr	r3, [r7, #20]
 800dab6:	2200      	movs	r2, #0
 800dab8:	461c      	mov	r4, r3
 800daba:	4615      	mov	r5, r2
 800dabc:	4622      	mov	r2, r4
 800dabe:	462b      	mov	r3, r5
 800dac0:	68f9      	ldr	r1, [r7, #12]
 800dac2:	2002      	movs	r0, #2
 800dac4:	f003 fa48 	bl	8010f58 <HAL_FLASH_Program>
 800dac8:	4603      	mov	r3, r0
 800daca:	83fb      	strh	r3, [r7, #30]
				(uint32_t) addressOffset, value);
		bytesWritten += 4;
 800dacc:	69bb      	ldr	r3, [r7, #24]
 800dace:	3304      	adds	r3, #4
 800dad0:	61bb      	str	r3, [r7, #24]
		addressOffset += 4;
 800dad2:	68fb      	ldr	r3, [r7, #12]
 800dad4:	3304      	adds	r3, #4
 800dad6:	60fb      	str	r3, [r7, #12]
		data += 4;
 800dad8:	68bb      	ldr	r3, [r7, #8]
 800dada:	3304      	adds	r3, #4
 800dadc:	60bb      	str	r3, [r7, #8]
	while (ret == STATUS_OK && bytesWritten < length) {
 800dade:	f9b7 301e 	ldrsh.w	r3, [r7, #30]
 800dae2:	2b00      	cmp	r3, #0
 800dae4:	d103      	bne.n	800daee <System_FlashProgram+0x96>
 800dae6:	69ba      	ldr	r2, [r7, #24]
 800dae8:	687b      	ldr	r3, [r7, #4]
 800daea:	429a      	cmp	r2, r3
 800daec:	d3cf      	bcc.n	800da8e <System_FlashProgram+0x36>
	}

	/* Lock Flash memory */
	HAL_FLASH_Lock();
 800daee:	f003 faa7 	bl	8011040 <HAL_FLASH_Lock>

	return ret;
 800daf2:	f9b7 301e 	ldrsh.w	r3, [r7, #30]
}
 800daf6:	4618      	mov	r0, r3
 800daf8:	3720      	adds	r7, #32
 800dafa:	46bd      	mov	sp, r7
 800dafc:	bdb0      	pop	{r4, r5, r7, pc}
	...

0800db00 <System_RemapApplicationVector>:
	}

	return ret;
}

void System_RemapApplicationVector(void) {
 800db00:	b480      	push	{r7}
 800db02:	b085      	sub	sp, #20
 800db04:	af00      	add	r7, sp, #0
	volatile uint32_t *VectorTable = (volatile uint32_t*) 0x20000000;
 800db06:	f04f 5300 	mov.w	r3, #536870912	@ 0x20000000
 800db0a:	60bb      	str	r3, [r7, #8]

	/* Copy reset vector from flash into RAM */
	for (int i = 0; i < 48; i++) {
 800db0c:	2300      	movs	r3, #0
 800db0e:	60fb      	str	r3, [r7, #12]
 800db10:	e00e      	b.n	800db30 <System_RemapApplicationVector+0x30>
		VectorTable[i] =
				*(volatile uint32_t*) ((uint32_t) CONF_C_APPLICATION_OFFSET
						+ (i << 2));
 800db12:	68fb      	ldr	r3, [r7, #12]
 800db14:	009b      	lsls	r3, r3, #2
 800db16:	461a      	mov	r2, r3
				*(volatile uint32_t*) ((uint32_t) CONF_C_APPLICATION_OFFSET
 800db18:	4b3c      	ldr	r3, [pc, #240]	@ (800dc0c <System_RemapApplicationVector+0x10c>)
						+ (i << 2));
 800db1a:	4413      	add	r3, r2
				*(volatile uint32_t*) ((uint32_t) CONF_C_APPLICATION_OFFSET
 800db1c:	4619      	mov	r1, r3
		VectorTable[i] =
 800db1e:	68fb      	ldr	r3, [r7, #12]
 800db20:	009b      	lsls	r3, r3, #2
 800db22:	68ba      	ldr	r2, [r7, #8]
 800db24:	4413      	add	r3, r2
				*(volatile uint32_t*) ((uint32_t) CONF_C_APPLICATION_OFFSET
 800db26:	680a      	ldr	r2, [r1, #0]
		VectorTable[i] =
 800db28:	601a      	str	r2, [r3, #0]
	for (int i = 0; i < 48; i++) {
 800db2a:	68fb      	ldr	r3, [r7, #12]
 800db2c:	3301      	adds	r3, #1
 800db2e:	60fb      	str	r3, [r7, #12]
 800db30:	68fb      	ldr	r3, [r7, #12]
 800db32:	2b2f      	cmp	r3, #47	@ 0x2f
 800db34:	dded      	ble.n	800db12 <System_RemapApplicationVector+0x12>
	}

	/* Remap vector from flash into RAM */
	//__HAL_RCC_AHB_FORCE_RESET();
	__HAL_RCC_GPIOA_FORCE_RESET();
 800db36:	4b36      	ldr	r3, [pc, #216]	@ (800dc10 <System_RemapApplicationVector+0x110>)
 800db38:	691b      	ldr	r3, [r3, #16]
 800db3a:	4a35      	ldr	r2, [pc, #212]	@ (800dc10 <System_RemapApplicationVector+0x110>)
 800db3c:	f043 0301 	orr.w	r3, r3, #1
 800db40:	6113      	str	r3, [r2, #16]
	__HAL_RCC_GPIOB_FORCE_RESET();
 800db42:	4b33      	ldr	r3, [pc, #204]	@ (800dc10 <System_RemapApplicationVector+0x110>)
 800db44:	691b      	ldr	r3, [r3, #16]
 800db46:	4a32      	ldr	r2, [pc, #200]	@ (800dc10 <System_RemapApplicationVector+0x110>)
 800db48:	f043 0302 	orr.w	r3, r3, #2
 800db4c:	6113      	str	r3, [r2, #16]
	__HAL_RCC_GPIOC_FORCE_RESET();
 800db4e:	4b30      	ldr	r3, [pc, #192]	@ (800dc10 <System_RemapApplicationVector+0x110>)
 800db50:	691b      	ldr	r3, [r3, #16]
 800db52:	4a2f      	ldr	r2, [pc, #188]	@ (800dc10 <System_RemapApplicationVector+0x110>)
 800db54:	f043 0304 	orr.w	r3, r3, #4
 800db58:	6113      	str	r3, [r2, #16]
	__HAL_RCC_GPIOH_FORCE_RESET();
 800db5a:	4b2d      	ldr	r3, [pc, #180]	@ (800dc10 <System_RemapApplicationVector+0x110>)
 800db5c:	691b      	ldr	r3, [r3, #16]
 800db5e:	4a2c      	ldr	r2, [pc, #176]	@ (800dc10 <System_RemapApplicationVector+0x110>)
 800db60:	f043 0380 	orr.w	r3, r3, #128	@ 0x80
 800db64:	6113      	str	r3, [r2, #16]
	__HAL_RCC_DMA1_FORCE_RESET();
 800db66:	4b2a      	ldr	r3, [pc, #168]	@ (800dc10 <System_RemapApplicationVector+0x110>)
 800db68:	691b      	ldr	r3, [r3, #16]
 800db6a:	4a29      	ldr	r2, [pc, #164]	@ (800dc10 <System_RemapApplicationVector+0x110>)
 800db6c:	f443 1300 	orr.w	r3, r3, #2097152	@ 0x200000
 800db70:	6113      	str	r3, [r2, #16]
	__HAL_RCC_DMA2_FORCE_RESET();
 800db72:	4b27      	ldr	r3, [pc, #156]	@ (800dc10 <System_RemapApplicationVector+0x110>)
 800db74:	691b      	ldr	r3, [r3, #16]
 800db76:	4a26      	ldr	r2, [pc, #152]	@ (800dc10 <System_RemapApplicationVector+0x110>)
 800db78:	f443 0380 	orr.w	r3, r3, #4194304	@ 0x400000
 800db7c:	6113      	str	r3, [r2, #16]

	__HAL_RCC_SYSCFG_CLK_ENABLE();
 800db7e:	2300      	movs	r3, #0
 800db80:	607b      	str	r3, [r7, #4]
 800db82:	4b23      	ldr	r3, [pc, #140]	@ (800dc10 <System_RemapApplicationVector+0x110>)
 800db84:	6c5b      	ldr	r3, [r3, #68]	@ 0x44
 800db86:	4a22      	ldr	r2, [pc, #136]	@ (800dc10 <System_RemapApplicationVector+0x110>)
 800db88:	f443 4380 	orr.w	r3, r3, #16384	@ 0x4000
 800db8c:	6453      	str	r3, [r2, #68]	@ 0x44
 800db8e:	4b20      	ldr	r3, [pc, #128]	@ (800dc10 <System_RemapApplicationVector+0x110>)
 800db90:	6c5b      	ldr	r3, [r3, #68]	@ 0x44
 800db92:	f403 4380 	and.w	r3, r3, #16384	@ 0x4000
 800db96:	607b      	str	r3, [r7, #4]
 800db98:	687b      	ldr	r3, [r7, #4]
	//__HAL_RCC_AHB_RELEASE_RESET();
	__HAL_RCC_AHB1_RELEASE_RESET();
 800db9a:	4b1d      	ldr	r3, [pc, #116]	@ (800dc10 <System_RemapApplicationVector+0x110>)
 800db9c:	2200      	movs	r2, #0
 800db9e:	611a      	str	r2, [r3, #16]
	__HAL_RCC_GPIOA_RELEASE_RESET();
 800dba0:	4b1b      	ldr	r3, [pc, #108]	@ (800dc10 <System_RemapApplicationVector+0x110>)
 800dba2:	691b      	ldr	r3, [r3, #16]
 800dba4:	4a1a      	ldr	r2, [pc, #104]	@ (800dc10 <System_RemapApplicationVector+0x110>)
 800dba6:	f023 0301 	bic.w	r3, r3, #1
 800dbaa:	6113      	str	r3, [r2, #16]
	__HAL_RCC_GPIOB_RELEASE_RESET();
 800dbac:	4b18      	ldr	r3, [pc, #96]	@ (800dc10 <System_RemapApplicationVector+0x110>)
 800dbae:	691b      	ldr	r3, [r3, #16]
 800dbb0:	4a17      	ldr	r2, [pc, #92]	@ (800dc10 <System_RemapApplicationVector+0x110>)
 800dbb2:	f023 0302 	bic.w	r3, r3, #2
 800dbb6:	6113      	str	r3, [r2, #16]
	__HAL_RCC_GPIOC_RELEASE_RESET();
 800dbb8:	4b15      	ldr	r3, [pc, #84]	@ (800dc10 <System_RemapApplicationVector+0x110>)
 800dbba:	691b      	ldr	r3, [r3, #16]
 800dbbc:	4a14      	ldr	r2, [pc, #80]	@ (800dc10 <System_RemapApplicationVector+0x110>)
 800dbbe:	f023 0304 	bic.w	r3, r3, #4
 800dbc2:	6113      	str	r3, [r2, #16]
	__HAL_RCC_GPIOH_RELEASE_RESET();
 800dbc4:	4b12      	ldr	r3, [pc, #72]	@ (800dc10 <System_RemapApplicationVector+0x110>)
 800dbc6:	691b      	ldr	r3, [r3, #16]
 800dbc8:	4a11      	ldr	r2, [pc, #68]	@ (800dc10 <System_RemapApplicationVector+0x110>)
 800dbca:	f023 0380 	bic.w	r3, r3, #128	@ 0x80
 800dbce:	6113      	str	r3, [r2, #16]
	__HAL_RCC_DMA1_RELEASE_RESET();
 800dbd0:	4b0f      	ldr	r3, [pc, #60]	@ (800dc10 <System_RemapApplicationVector+0x110>)
 800dbd2:	691b      	ldr	r3, [r3, #16]
 800dbd4:	4a0e      	ldr	r2, [pc, #56]	@ (800dc10 <System_RemapApplicationVector+0x110>)
 800dbd6:	f423 1300 	bic.w	r3, r3, #2097152	@ 0x200000
 800dbda:	6113      	str	r3, [r2, #16]
	__HAL_RCC_DMA2_RELEASE_RESET();
 800dbdc:	4b0c      	ldr	r3, [pc, #48]	@ (800dc10 <System_RemapApplicationVector+0x110>)
 800dbde:	691b      	ldr	r3, [r3, #16]
 800dbe0:	4a0b      	ldr	r2, [pc, #44]	@ (800dc10 <System_RemapApplicationVector+0x110>)
 800dbe2:	f423 0380 	bic.w	r3, r3, #4194304	@ 0x400000
 800dbe6:	6113      	str	r3, [r2, #16]

	__HAL_SYSCFG_REMAPMEMORY_SRAM();
 800dbe8:	4b0a      	ldr	r3, [pc, #40]	@ (800dc14 <System_RemapApplicationVector+0x114>)
 800dbea:	681b      	ldr	r3, [r3, #0]
 800dbec:	4a09      	ldr	r2, [pc, #36]	@ (800dc14 <System_RemapApplicationVector+0x114>)
 800dbee:	f023 0307 	bic.w	r3, r3, #7
 800dbf2:	6013      	str	r3, [r2, #0]
 800dbf4:	4b07      	ldr	r3, [pc, #28]	@ (800dc14 <System_RemapApplicationVector+0x114>)
 800dbf6:	681b      	ldr	r3, [r3, #0]
 800dbf8:	4a06      	ldr	r2, [pc, #24]	@ (800dc14 <System_RemapApplicationVector+0x114>)
 800dbfa:	f043 0303 	orr.w	r3, r3, #3
 800dbfe:	6013      	str	r3, [r2, #0]
}
 800dc00:	bf00      	nop
 800dc02:	3714      	adds	r7, #20
 800dc04:	46bd      	mov	sp, r7
 800dc06:	f85d 7b04 	ldr.w	r7, [sp], #4
 800dc0a:	4770      	bx	lr
 800dc0c:	0800c000 	.word	0x0800c000
 800dc10:	40023800 	.word	0x40023800
 800dc14:	40013800 	.word	0x40013800

0800dc18 <MbRtu_ReadInputRegCallback>:
/* Private function prototypes -----------------------------------------------*/
/* Functions -----------------------------------------------------------------*/


Status_t MbRtu_ReadInputRegCallback(uint16_t address, uint16_t *value)
{
 800dc18:	b480      	push	{r7}
 800dc1a:	b087      	sub	sp, #28
 800dc1c:	af00      	add	r7, sp, #0
 800dc1e:	4603      	mov	r3, r0
 800dc20:	6039      	str	r1, [r7, #0]
 800dc22:	80fb      	strh	r3, [r7, #6]
  Status_t ret = STATUS_OK;
 800dc24:	2300      	movs	r3, #0
 800dc26:	82fb      	strh	r3, [r7, #22]

  UNUSED(mb);

  switch (address)
 800dc28:	88fb      	ldrh	r3, [r7, #6]
 800dc2a:	2b18      	cmp	r3, #24
 800dc2c:	f200 80cb 	bhi.w	800ddc6 <MbRtu_ReadInputRegCallback+0x1ae>
 800dc30:	a201      	add	r2, pc, #4	@ (adr r2, 800dc38 <MbRtu_ReadInputRegCallback+0x20>)
 800dc32:	f852 f023 	ldr.w	pc, [r2, r3, lsl #2]
 800dc36:	bf00      	nop
 800dc38:	0800dc9d 	.word	0x0800dc9d
 800dc3c:	0800dca9 	.word	0x0800dca9
 800dc40:	0800dcb5 	.word	0x0800dcb5
 800dc44:	0800dcc1 	.word	0x0800dcc1
 800dc48:	0800dccd 	.word	0x0800dccd
 800dc4c:	0800dcd9 	.word	0x0800dcd9
 800dc50:	0800dce5 	.word	0x0800dce5
 800dc54:	0800dcef 	.word	0x0800dcef
 800dc58:	0800dcfb 	.word	0x0800dcfb
 800dc5c:	0800dd07 	.word	0x0800dd07
 800dc60:	0800dd13 	.word	0x0800dd13
 800dc64:	0800dd1f 	.word	0x0800dd1f
 800dc68:	0800dd2b 	.word	0x0800dd2b
 800dc6c:	0800dd37 	.word	0x0800dd37
 800dc70:	0800dd43 	.word	0x0800dd43
 800dc74:	0800dd4f 	.word	0x0800dd4f
 800dc78:	0800dd5b 	.word	0x0800dd5b
 800dc7c:	0800dd67 	.word	0x0800dd67
 800dc80:	0800dd73 	.word	0x0800dd73
 800dc84:	0800dd7f 	.word	0x0800dd7f
 800dc88:	0800dd8b 	.word	0x0800dd8b
 800dc8c:	0800dd97 	.word	0x0800dd97
 800dc90:	0800dda3 	.word	0x0800dda3
 800dc94:	0800ddaf 	.word	0x0800ddaf
 800dc98:	0800ddbb 	.word	0x0800ddbb
  {

    case MB_INPUT_SYS_UPTIME_0:
      *value = *((uint16_t *)CONF_PTR(CONF_SYS_UPTIME) + 0);
 800dc9c:	4b56      	ldr	r3, [pc, #344]	@ (800ddf8 <MbRtu_ReadInputRegCallback+0x1e0>)
 800dc9e:	681b      	ldr	r3, [r3, #0]
 800dca0:	881a      	ldrh	r2, [r3, #0]
 800dca2:	683b      	ldr	r3, [r7, #0]
 800dca4:	801a      	strh	r2, [r3, #0]
      break;
 800dca6:	e095      	b.n	800ddd4 <MbRtu_ReadInputRegCallback+0x1bc>
    case MB_INPUT_SYS_UPTIME_1:
      *value = *((uint16_t *)CONF_PTR(CONF_SYS_UPTIME) + 1);
 800dca8:	4b53      	ldr	r3, [pc, #332]	@ (800ddf8 <MbRtu_ReadInputRegCallback+0x1e0>)
 800dcaa:	681b      	ldr	r3, [r3, #0]
 800dcac:	885a      	ldrh	r2, [r3, #2]
 800dcae:	683b      	ldr	r3, [r7, #0]
 800dcb0:	801a      	strh	r2, [r3, #0]
      break;
 800dcb2:	e08f      	b.n	800ddd4 <MbRtu_ReadInputRegCallback+0x1bc>
    case MB_INPUT_SYS_REGMAP_VERSION_0:
      *value = *((uint16_t *)CONF_PTR(CONF_SYS_REGMAP_VERSION) + 0);
 800dcb4:	4b50      	ldr	r3, [pc, #320]	@ (800ddf8 <MbRtu_ReadInputRegCallback+0x1e0>)
 800dcb6:	681b      	ldr	r3, [r3, #0]
 800dcb8:	889a      	ldrh	r2, [r3, #4]
 800dcba:	683b      	ldr	r3, [r7, #0]
 800dcbc:	801a      	strh	r2, [r3, #0]
      break;
 800dcbe:	e089      	b.n	800ddd4 <MbRtu_ReadInputRegCallback+0x1bc>
    case MB_INPUT_SYS_REGMAP_VERSION_1:
      *value = *((uint16_t *)CONF_PTR(CONF_SYS_REGMAP_VERSION) + 1);
 800dcc0:	4b4d      	ldr	r3, [pc, #308]	@ (800ddf8 <MbRtu_ReadInputRegCallback+0x1e0>)
 800dcc2:	681b      	ldr	r3, [r3, #0]
 800dcc4:	88da      	ldrh	r2, [r3, #6]
 800dcc6:	683b      	ldr	r3, [r7, #0]
 800dcc8:	801a      	strh	r2, [r3, #0]
      break;
 800dcca:	e083      	b.n	800ddd4 <MbRtu_ReadInputRegCallback+0x1bc>
    case MB_INPUT_SYS_STATUS_0:
      *value = *((uint16_t *)CONF_PTR(CONF_SYS_STATUS) + 0);
 800dccc:	4b4a      	ldr	r3, [pc, #296]	@ (800ddf8 <MbRtu_ReadInputRegCallback+0x1e0>)
 800dcce:	681b      	ldr	r3, [r3, #0]
 800dcd0:	891a      	ldrh	r2, [r3, #8]
 800dcd2:	683b      	ldr	r3, [r7, #0]
 800dcd4:	801a      	strh	r2, [r3, #0]
      break;
 800dcd6:	e07d      	b.n	800ddd4 <MbRtu_ReadInputRegCallback+0x1bc>
    case MB_INPUT_SYS_STATUS_1:
      *value = *((uint16_t *)CONF_PTR(CONF_SYS_STATUS) + 1);
 800dcd8:	4b47      	ldr	r3, [pc, #284]	@ (800ddf8 <MbRtu_ReadInputRegCallback+0x1e0>)
 800dcda:	681b      	ldr	r3, [r3, #0]
 800dcdc:	895a      	ldrh	r2, [r3, #10]
 800dcde:	683b      	ldr	r3, [r7, #0]
 800dce0:	801a      	strh	r2, [r3, #0]
      break;
 800dce2:	e077      	b.n	800ddd4 <MbRtu_ReadInputRegCallback+0x1bc>
    case MB_INPUT_SYS_IO_INPUT:
      *value = conf.sys.io_input;
 800dce4:	4b45      	ldr	r3, [pc, #276]	@ (800ddfc <MbRtu_ReadInputRegCallback+0x1e4>)
 800dce6:	8a9a      	ldrh	r2, [r3, #20]
 800dce8:	683b      	ldr	r3, [r7, #0]
 800dcea:	801a      	strh	r2, [r3, #0]
      break;
 800dcec:	e072      	b.n	800ddd4 <MbRtu_ReadInputRegCallback+0x1bc>
    case MB_INPUT_FACT_SERIAL_NUMBER_0:
      *value = *((uint16_t *)CONF_PTR(CONF_FACT_SERIAL_NUMBER) + 0);
 800dcee:	4b42      	ldr	r3, [pc, #264]	@ (800ddf8 <MbRtu_ReadInputRegCallback+0x1e0>)
 800dcf0:	685b      	ldr	r3, [r3, #4]
 800dcf2:	881a      	ldrh	r2, [r3, #0]
 800dcf4:	683b      	ldr	r3, [r7, #0]
 800dcf6:	801a      	strh	r2, [r3, #0]
      break;
 800dcf8:	e06c      	b.n	800ddd4 <MbRtu_ReadInputRegCallback+0x1bc>
    case MB_INPUT_FACT_SERIAL_NUMBER_1:
      *value = *((uint16_t *)CONF_PTR(CONF_FACT_SERIAL_NUMBER) + 1);
 800dcfa:	4b3f      	ldr	r3, [pc, #252]	@ (800ddf8 <MbRtu_ReadInputRegCallback+0x1e0>)
 800dcfc:	685b      	ldr	r3, [r3, #4]
 800dcfe:	885a      	ldrh	r2, [r3, #2]
 800dd00:	683b      	ldr	r3, [r7, #0]
 800dd02:	801a      	strh	r2, [r3, #0]
      break;
 800dd04:	e066      	b.n	800ddd4 <MbRtu_ReadInputRegCallback+0x1bc>
    case MB_INPUT_FACT_DEVICE_ID_0:
      *value = *((uint16_t *)CONF_PTR(CONF_FACT_DEVICE_ID) + 0);
 800dd06:	4b3c      	ldr	r3, [pc, #240]	@ (800ddf8 <MbRtu_ReadInputRegCallback+0x1e0>)
 800dd08:	685b      	ldr	r3, [r3, #4]
 800dd0a:	889a      	ldrh	r2, [r3, #4]
 800dd0c:	683b      	ldr	r3, [r7, #0]
 800dd0e:	801a      	strh	r2, [r3, #0]
      break;
 800dd10:	e060      	b.n	800ddd4 <MbRtu_ReadInputRegCallback+0x1bc>
    case MB_INPUT_FACT_DEVICE_ID_1:
      *value = *((uint16_t *)CONF_PTR(CONF_FACT_DEVICE_ID) + 1);
 800dd12:	4b39      	ldr	r3, [pc, #228]	@ (800ddf8 <MbRtu_ReadInputRegCallback+0x1e0>)
 800dd14:	685b      	ldr	r3, [r3, #4]
 800dd16:	88da      	ldrh	r2, [r3, #6]
 800dd18:	683b      	ldr	r3, [r7, #0]
 800dd1a:	801a      	strh	r2, [r3, #0]
      break;
 800dd1c:	e05a      	b.n	800ddd4 <MbRtu_ReadInputRegCallback+0x1bc>
    case MB_INPUT_FACT_HW_REVISION_0:
      *value = *((uint16_t *)CONF_PTR(CONF_FACT_HW_REVISION) + 0);
 800dd1e:	4b36      	ldr	r3, [pc, #216]	@ (800ddf8 <MbRtu_ReadInputRegCallback+0x1e0>)
 800dd20:	685b      	ldr	r3, [r3, #4]
 800dd22:	891a      	ldrh	r2, [r3, #8]
 800dd24:	683b      	ldr	r3, [r7, #0]
 800dd26:	801a      	strh	r2, [r3, #0]
      break;
 800dd28:	e054      	b.n	800ddd4 <MbRtu_ReadInputRegCallback+0x1bc>
    case MB_INPUT_FACT_HW_REVISION_1:
      *value = *((uint16_t *)CONF_PTR(CONF_FACT_HW_REVISION) + 1);
 800dd2a:	4b33      	ldr	r3, [pc, #204]	@ (800ddf8 <MbRtu_ReadInputRegCallback+0x1e0>)
 800dd2c:	685b      	ldr	r3, [r3, #4]
 800dd2e:	895a      	ldrh	r2, [r3, #10]
 800dd30:	683b      	ldr	r3, [r7, #0]
 800dd32:	801a      	strh	r2, [r3, #0]
      break;
 800dd34:	e04e      	b.n	800ddd4 <MbRtu_ReadInputRegCallback+0x1bc>
    case MB_INPUT_FACT_BOOT_REVISION_0:
      *value = *((uint16_t *)CONF_PTR(CONF_FACT_BOOT_REVISION) + 0);
 800dd36:	4b30      	ldr	r3, [pc, #192]	@ (800ddf8 <MbRtu_ReadInputRegCallback+0x1e0>)
 800dd38:	685b      	ldr	r3, [r3, #4]
 800dd3a:	899a      	ldrh	r2, [r3, #12]
 800dd3c:	683b      	ldr	r3, [r7, #0]
 800dd3e:	801a      	strh	r2, [r3, #0]
      break;
 800dd40:	e048      	b.n	800ddd4 <MbRtu_ReadInputRegCallback+0x1bc>
    case MB_INPUT_FACT_BOOT_REVISION_1:
      *value = *((uint16_t *)CONF_PTR(CONF_FACT_BOOT_REVISION) + 1);
 800dd42:	4b2d      	ldr	r3, [pc, #180]	@ (800ddf8 <MbRtu_ReadInputRegCallback+0x1e0>)
 800dd44:	685b      	ldr	r3, [r3, #4]
 800dd46:	89da      	ldrh	r2, [r3, #14]
 800dd48:	683b      	ldr	r3, [r7, #0]
 800dd4a:	801a      	strh	r2, [r3, #0]
      break;
 800dd4c:	e042      	b.n	800ddd4 <MbRtu_ReadInputRegCallback+0x1bc>
    case MB_INPUT_FIRM_REVISION_0:
      *value = *((uint16_t *)CONF_PTR(CONF_FIRM_REVISION) + 0);
 800dd4e:	4b2a      	ldr	r3, [pc, #168]	@ (800ddf8 <MbRtu_ReadInputRegCallback+0x1e0>)
 800dd50:	689b      	ldr	r3, [r3, #8]
 800dd52:	881a      	ldrh	r2, [r3, #0]
 800dd54:	683b      	ldr	r3, [r7, #0]
 800dd56:	801a      	strh	r2, [r3, #0]
      break;
 800dd58:	e03c      	b.n	800ddd4 <MbRtu_ReadInputRegCallback+0x1bc>
    case MB_INPUT_FIRM_REVISION_1:
      *value = *((uint16_t *)CONF_PTR(CONF_FIRM_REVISION) + 1);
 800dd5a:	4b27      	ldr	r3, [pc, #156]	@ (800ddf8 <MbRtu_ReadInputRegCallback+0x1e0>)
 800dd5c:	689b      	ldr	r3, [r3, #8]
 800dd5e:	885a      	ldrh	r2, [r3, #2]
 800dd60:	683b      	ldr	r3, [r7, #0]
 800dd62:	801a      	strh	r2, [r3, #0]
      break;
 800dd64:	e036      	b.n	800ddd4 <MbRtu_ReadInputRegCallback+0x1bc>
    case MB_INPUT_FIRM_ASSEMBLY_INFO_0:
      *value = *((uint16_t *)CONF_PTR(CONF_FIRM_ASSEMBLY_INFO) + 0);
 800dd66:	4b24      	ldr	r3, [pc, #144]	@ (800ddf8 <MbRtu_ReadInputRegCallback+0x1e0>)
 800dd68:	689b      	ldr	r3, [r3, #8]
 800dd6a:	889a      	ldrh	r2, [r3, #4]
 800dd6c:	683b      	ldr	r3, [r7, #0]
 800dd6e:	801a      	strh	r2, [r3, #0]
      break;
 800dd70:	e030      	b.n	800ddd4 <MbRtu_ReadInputRegCallback+0x1bc>
    case MB_INPUT_FIRM_ASSEMBLY_INFO_1:
      *value = *((uint16_t *)CONF_PTR(CONF_FIRM_ASSEMBLY_INFO) + 1);
 800dd72:	4b21      	ldr	r3, [pc, #132]	@ (800ddf8 <MbRtu_ReadInputRegCallback+0x1e0>)
 800dd74:	689b      	ldr	r3, [r3, #8]
 800dd76:	88da      	ldrh	r2, [r3, #6]
 800dd78:	683b      	ldr	r3, [r7, #0]
 800dd7a:	801a      	strh	r2, [r3, #0]
      break;
 800dd7c:	e02a      	b.n	800ddd4 <MbRtu_ReadInputRegCallback+0x1bc>
    case MB_INPUT_FIRM_APP_CHECKSUM_0:
      *value = *((uint16_t *)CONF_PTR(CONF_FIRM_APP_CHECKSUM) + 0);
 800dd7e:	4b1e      	ldr	r3, [pc, #120]	@ (800ddf8 <MbRtu_ReadInputRegCallback+0x1e0>)
 800dd80:	689b      	ldr	r3, [r3, #8]
 800dd82:	891a      	ldrh	r2, [r3, #8]
 800dd84:	683b      	ldr	r3, [r7, #0]
 800dd86:	801a      	strh	r2, [r3, #0]
      break;
 800dd88:	e024      	b.n	800ddd4 <MbRtu_ReadInputRegCallback+0x1bc>
    case MB_INPUT_FIRM_APP_CHECKSUM_1:
      *value = *((uint16_t *)CONF_PTR(CONF_FIRM_APP_CHECKSUM) + 1);
 800dd8a:	4b1b      	ldr	r3, [pc, #108]	@ (800ddf8 <MbRtu_ReadInputRegCallback+0x1e0>)
 800dd8c:	689b      	ldr	r3, [r3, #8]
 800dd8e:	895a      	ldrh	r2, [r3, #10]
 800dd90:	683b      	ldr	r3, [r7, #0]
 800dd92:	801a      	strh	r2, [r3, #0]
      break;
 800dd94:	e01e      	b.n	800ddd4 <MbRtu_ReadInputRegCallback+0x1bc>
    case MB_INPUT_FIRM_APP_SIZE_0:
      *value = *((uint16_t *)CONF_PTR(CONF_FIRM_APP_SIZE) + 0);
 800dd96:	4b18      	ldr	r3, [pc, #96]	@ (800ddf8 <MbRtu_ReadInputRegCallback+0x1e0>)
 800dd98:	689b      	ldr	r3, [r3, #8]
 800dd9a:	899a      	ldrh	r2, [r3, #12]
 800dd9c:	683b      	ldr	r3, [r7, #0]
 800dd9e:	801a      	strh	r2, [r3, #0]
      break;
 800dda0:	e018      	b.n	800ddd4 <MbRtu_ReadInputRegCallback+0x1bc>
    case MB_INPUT_FIRM_APP_SIZE_1:
      *value = *((uint16_t *)CONF_PTR(CONF_FIRM_APP_SIZE) + 1);
 800dda2:	4b15      	ldr	r3, [pc, #84]	@ (800ddf8 <MbRtu_ReadInputRegCallback+0x1e0>)
 800dda4:	689b      	ldr	r3, [r3, #8]
 800dda6:	89da      	ldrh	r2, [r3, #14]
 800dda8:	683b      	ldr	r3, [r7, #0]
 800ddaa:	801a      	strh	r2, [r3, #0]
      break;
 800ddac:	e012      	b.n	800ddd4 <MbRtu_ReadInputRegCallback+0x1bc>
    case MB_INPUT_DBG_WRITES_CONF_0:
      *value = *((uint16_t *)CONF_PTR(CONF_DBG_WRITES_CONF) + 0);
 800ddae:	4b12      	ldr	r3, [pc, #72]	@ (800ddf8 <MbRtu_ReadInputRegCallback+0x1e0>)
 800ddb0:	699b      	ldr	r3, [r3, #24]
 800ddb2:	881a      	ldrh	r2, [r3, #0]
 800ddb4:	683b      	ldr	r3, [r7, #0]
 800ddb6:	801a      	strh	r2, [r3, #0]
      break;
 800ddb8:	e00c      	b.n	800ddd4 <MbRtu_ReadInputRegCallback+0x1bc>
    case MB_INPUT_DBG_WRITES_CONF_1:
      *value = *((uint16_t *)CONF_PTR(CONF_DBG_WRITES_CONF) + 1);
 800ddba:	4b0f      	ldr	r3, [pc, #60]	@ (800ddf8 <MbRtu_ReadInputRegCallback+0x1e0>)
 800ddbc:	699b      	ldr	r3, [r3, #24]
 800ddbe:	885a      	ldrh	r2, [r3, #2]
 800ddc0:	683b      	ldr	r3, [r7, #0]
 800ddc2:	801a      	strh	r2, [r3, #0]
      break;
 800ddc4:	e006      	b.n	800ddd4 <MbRtu_ReadInputRegCallback+0x1bc>


    default:
      *value = MB_READ_NOT_SUPPORTED;
 800ddc6:	683b      	ldr	r3, [r7, #0]
 800ddc8:	f64f 72ff 	movw	r2, #65535	@ 0xffff
 800ddcc:	801a      	strh	r2, [r3, #0]
      ret = STATUS_ERROR;
 800ddce:	2301      	movs	r3, #1
 800ddd0:	82fb      	strh	r3, [r7, #22]
      break;
 800ddd2:	bf00      	nop
  }

  /* Reverse byte order */
  *value = __REV16(*value);
 800ddd4:	683b      	ldr	r3, [r7, #0]
 800ddd6:	881b      	ldrh	r3, [r3, #0]
 800ddd8:	613b      	str	r3, [r7, #16]
 */
__STATIC_FORCEINLINE uint32_t __REV16(uint32_t value)
{
  uint32_t result;

  __ASM ("rev16 %0, %1" : __CMSIS_GCC_OUT_REG (result) : __CMSIS_GCC_USE_REG (value) );
 800ddda:	693b      	ldr	r3, [r7, #16]
 800dddc:	ba5b      	rev16	r3, r3
 800ddde:	60fb      	str	r3, [r7, #12]
  return result;
 800dde0:	68fb      	ldr	r3, [r7, #12]
 800dde2:	b29a      	uxth	r2, r3
 800dde4:	683b      	ldr	r3, [r7, #0]
 800dde6:	801a      	strh	r2, [r3, #0]

  return ret;
 800dde8:	f9b7 3016 	ldrsh.w	r3, [r7, #22]
}
 800ddec:	4618      	mov	r0, r3
 800ddee:	371c      	adds	r7, #28
 800ddf0:	46bd      	mov	sp, r7
 800ddf2:	f85d 7b04 	ldr.w	r7, [sp], #4
 800ddf6:	4770      	bx	lr
 800ddf8:	08015310 	.word	0x08015310
 800ddfc:	20000560 	.word	0x20000560

0800de00 <MbRtu_ReadHoldingRegCallback>:


Status_t MbRtu_ReadHoldingRegCallback(uint16_t address, uint16_t *value)
{
 800de00:	b480      	push	{r7}
 800de02:	b087      	sub	sp, #28
 800de04:	af00      	add	r7, sp, #0
 800de06:	4603      	mov	r3, r0
 800de08:	6039      	str	r1, [r7, #0]
 800de0a:	80fb      	strh	r3, [r7, #6]
  Status_t ret = STATUS_OK;
 800de0c:	2300      	movs	r3, #0
 800de0e:	82fb      	strh	r3, [r7, #22]

  switch (address)
 800de10:	88fb      	ldrh	r3, [r7, #6]
 800de12:	2b65      	cmp	r3, #101	@ 0x65
 800de14:	d05e      	beq.n	800ded4 <MbRtu_ReadHoldingRegCallback+0xd4>
 800de16:	2b65      	cmp	r3, #101	@ 0x65
 800de18:	dc63      	bgt.n	800dee2 <MbRtu_ReadHoldingRegCallback+0xe2>
 800de1a:	2b08      	cmp	r3, #8
 800de1c:	dc18      	bgt.n	800de50 <MbRtu_ReadHoldingRegCallback+0x50>
 800de1e:	2b00      	cmp	r3, #0
 800de20:	db5f      	blt.n	800dee2 <MbRtu_ReadHoldingRegCallback+0xe2>
 800de22:	2b08      	cmp	r3, #8
 800de24:	d85d      	bhi.n	800dee2 <MbRtu_ReadHoldingRegCallback+0xe2>
 800de26:	a201      	add	r2, pc, #4	@ (adr r2, 800de2c <MbRtu_ReadHoldingRegCallback+0x2c>)
 800de28:	f852 f023 	ldr.w	pc, [r2, r3, lsl #2]
 800de2c:	0800de57 	.word	0x0800de57
 800de30:	0800de63 	.word	0x0800de63
 800de34:	0800de6f 	.word	0x0800de6f
 800de38:	0800de7b 	.word	0x0800de7b
 800de3c:	0800de87 	.word	0x0800de87
 800de40:	0800de95 	.word	0x0800de95
 800de44:	0800dea3 	.word	0x0800dea3
 800de48:	0800deb1 	.word	0x0800deb1
 800de4c:	0800debb 	.word	0x0800debb
 800de50:	2b64      	cmp	r3, #100	@ 0x64
 800de52:	d038      	beq.n	800dec6 <MbRtu_ReadHoldingRegCallback+0xc6>
 800de54:	e045      	b.n	800dee2 <MbRtu_ReadHoldingRegCallback+0xe2>
  {

    case MB_HOLD_SYS_COMMAND_0:
      *value = *((uint16_t *)CONF_PTR(CONF_SYS_COMMAND) + 0);
 800de56:	4b2f      	ldr	r3, [pc, #188]	@ (800df14 <MbRtu_ReadHoldingRegCallback+0x114>)
 800de58:	681b      	ldr	r3, [r3, #0]
 800de5a:	899a      	ldrh	r2, [r3, #12]
 800de5c:	683b      	ldr	r3, [r7, #0]
 800de5e:	801a      	strh	r2, [r3, #0]
      break;
 800de60:	e046      	b.n	800def0 <MbRtu_ReadHoldingRegCallback+0xf0>
    case MB_HOLD_SYS_COMMAND_1:
      *value = *((uint16_t *)CONF_PTR(CONF_SYS_COMMAND) + 1);
 800de62:	4b2c      	ldr	r3, [pc, #176]	@ (800df14 <MbRtu_ReadHoldingRegCallback+0x114>)
 800de64:	681b      	ldr	r3, [r3, #0]
 800de66:	89da      	ldrh	r2, [r3, #14]
 800de68:	683b      	ldr	r3, [r7, #0]
 800de6a:	801a      	strh	r2, [r3, #0]
      break;
 800de6c:	e040      	b.n	800def0 <MbRtu_ReadHoldingRegCallback+0xf0>
    case MB_HOLD_SYS_TEST_0:
      *value = *((uint16_t *)CONF_PTR(CONF_SYS_TEST) + 0);
 800de6e:	4b29      	ldr	r3, [pc, #164]	@ (800df14 <MbRtu_ReadHoldingRegCallback+0x114>)
 800de70:	681b      	ldr	r3, [r3, #0]
 800de72:	8a1a      	ldrh	r2, [r3, #16]
 800de74:	683b      	ldr	r3, [r7, #0]
 800de76:	801a      	strh	r2, [r3, #0]
      break;
 800de78:	e03a      	b.n	800def0 <MbRtu_ReadHoldingRegCallback+0xf0>
    case MB_HOLD_SYS_TEST_1:
      *value = *((uint16_t *)CONF_PTR(CONF_SYS_TEST) + 1);
 800de7a:	4b26      	ldr	r3, [pc, #152]	@ (800df14 <MbRtu_ReadHoldingRegCallback+0x114>)
 800de7c:	681b      	ldr	r3, [r3, #0]
 800de7e:	8a5a      	ldrh	r2, [r3, #18]
 800de80:	683b      	ldr	r3, [r7, #0]
 800de82:	801a      	strh	r2, [r3, #0]
      break;
 800de84:	e034      	b.n	800def0 <MbRtu_ReadHoldingRegCallback+0xf0>
    case MB_HOLD_COM_MB_BAUD_RATE:
      *value = conf.com.mb_baud_rate;
 800de86:	4b24      	ldr	r3, [pc, #144]	@ (800df18 <MbRtu_ReadHoldingRegCallback+0x118>)
 800de88:	f893 3038 	ldrb.w	r3, [r3, #56]	@ 0x38
 800de8c:	461a      	mov	r2, r3
 800de8e:	683b      	ldr	r3, [r7, #0]
 800de90:	801a      	strh	r2, [r3, #0]
      break;
 800de92:	e02d      	b.n	800def0 <MbRtu_ReadHoldingRegCallback+0xf0>
    case MB_HOLD_COM_MB_PARITY:
      *value = conf.com.mb_parity;
 800de94:	4b20      	ldr	r3, [pc, #128]	@ (800df18 <MbRtu_ReadHoldingRegCallback+0x118>)
 800de96:	f893 3039 	ldrb.w	r3, [r3, #57]	@ 0x39
 800de9a:	461a      	mov	r2, r3
 800de9c:	683b      	ldr	r3, [r7, #0]
 800de9e:	801a      	strh	r2, [r3, #0]
      break;
 800dea0:	e026      	b.n	800def0 <MbRtu_ReadHoldingRegCallback+0xf0>
    case MB_HOLD_COM_MB_STOP_BITS:
      *value = conf.com.mb_stop_bits;
 800dea2:	4b1d      	ldr	r3, [pc, #116]	@ (800df18 <MbRtu_ReadHoldingRegCallback+0x118>)
 800dea4:	f893 303a 	ldrb.w	r3, [r3, #58]	@ 0x3a
 800dea8:	461a      	mov	r2, r3
 800deaa:	683b      	ldr	r3, [r7, #0]
 800deac:	801a      	strh	r2, [r3, #0]
      break;
 800deae:	e01f      	b.n	800def0 <MbRtu_ReadHoldingRegCallback+0xf0>
    case MB_HOLD_COM_MB_APPLY:
      *value = conf.com.mb_apply;
 800deb0:	4b19      	ldr	r3, [pc, #100]	@ (800df18 <MbRtu_ReadHoldingRegCallback+0x118>)
 800deb2:	8fda      	ldrh	r2, [r3, #62]	@ 0x3e
 800deb4:	683b      	ldr	r3, [r7, #0]
 800deb6:	801a      	strh	r2, [r3, #0]
      break;
 800deb8:	e01a      	b.n	800def0 <MbRtu_ReadHoldingRegCallback+0xf0>
    case MB_HOLD_COM_MB_TIMEOUT:
      *value = conf.com.mb_timeout;
 800deba:	4b17      	ldr	r3, [pc, #92]	@ (800df18 <MbRtu_ReadHoldingRegCallback+0x118>)
 800debc:	f8b3 2040 	ldrh.w	r2, [r3, #64]	@ 0x40
 800dec0:	683b      	ldr	r3, [r7, #0]
 800dec2:	801a      	strh	r2, [r3, #0]
      break;
 800dec4:	e014      	b.n	800def0 <MbRtu_ReadHoldingRegCallback+0xf0>
    case MB_HOLD_STPMEAS_MODE:
      *value = conf.stpmeas.mode;
 800dec6:	4b14      	ldr	r3, [pc, #80]	@ (800df18 <MbRtu_ReadHoldingRegCallback+0x118>)
 800dec8:	f893 3048 	ldrb.w	r3, [r3, #72]	@ 0x48
 800decc:	461a      	mov	r2, r3
 800dece:	683b      	ldr	r3, [r7, #0]
 800ded0:	801a      	strh	r2, [r3, #0]
      break;
 800ded2:	e00d      	b.n	800def0 <MbRtu_ReadHoldingRegCallback+0xf0>
    case MB_HOLD_STPMEAS_NTC_BETA:
      *value = conf.stpmeas.ntc_beta;
 800ded4:	4b10      	ldr	r3, [pc, #64]	@ (800df18 <MbRtu_ReadHoldingRegCallback+0x118>)
 800ded6:	f8b3 3049 	ldrh.w	r3, [r3, #73]	@ 0x49
 800deda:	b29a      	uxth	r2, r3
 800dedc:	683b      	ldr	r3, [r7, #0]
 800dede:	801a      	strh	r2, [r3, #0]
      break;
 800dee0:	e006      	b.n	800def0 <MbRtu_ReadHoldingRegCallback+0xf0>


    default:
      *value = MB_READ_NOT_SUPPORTED;
 800dee2:	683b      	ldr	r3, [r7, #0]
 800dee4:	f64f 72ff 	movw	r2, #65535	@ 0xffff
 800dee8:	801a      	strh	r2, [r3, #0]
      ret = STATUS_ERROR;
 800deea:	2301      	movs	r3, #1
 800deec:	82fb      	strh	r3, [r7, #22]
      break;
 800deee:	bf00      	nop
  }

  /* Reverse byte order */
  *value = __REV16(*value);
 800def0:	683b      	ldr	r3, [r7, #0]
 800def2:	881b      	ldrh	r3, [r3, #0]
 800def4:	613b      	str	r3, [r7, #16]
  __ASM ("rev16 %0, %1" : __CMSIS_GCC_OUT_REG (result) : __CMSIS_GCC_USE_REG (value) );
 800def6:	693b      	ldr	r3, [r7, #16]
 800def8:	ba5b      	rev16	r3, r3
 800defa:	60fb      	str	r3, [r7, #12]
  return result;
 800defc:	68fb      	ldr	r3, [r7, #12]
 800defe:	b29a      	uxth	r2, r3
 800df00:	683b      	ldr	r3, [r7, #0]
 800df02:	801a      	strh	r2, [r3, #0]

  return ret;
 800df04:	f9b7 3016 	ldrsh.w	r3, [r7, #22]
}
 800df08:	4618      	mov	r0, r3
 800df0a:	371c      	adds	r7, #28
 800df0c:	46bd      	mov	sp, r7
 800df0e:	f85d 7b04 	ldr.w	r7, [sp], #4
 800df12:	4770      	bx	lr
 800df14:	08015310 	.word	0x08015310
 800df18:	20000560 	.word	0x20000560

0800df1c <MbRtu_WriteHoldingRegCallback>:




Status_t MbRtu_WriteHoldingRegCallback(uint16_t address, uint16_t value)
{
 800df1c:	b580      	push	{r7, lr}
 800df1e:	b084      	sub	sp, #16
 800df20:	af00      	add	r7, sp, #0
 800df22:	4603      	mov	r3, r0
 800df24:	460a      	mov	r2, r1
 800df26:	80fb      	strh	r3, [r7, #6]
 800df28:	4613      	mov	r3, r2
 800df2a:	80bb      	strh	r3, [r7, #4]
  Status_t ret = STATUS_OK;
 800df2c:	2300      	movs	r3, #0
 800df2e:	81fb      	strh	r3, [r7, #14]
  uint32_t id = 0;
 800df30:	2300      	movs	r3, #0
 800df32:	60bb      	str	r3, [r7, #8]

  switch (address)
 800df34:	88fb      	ldrh	r3, [r7, #6]
 800df36:	2b65      	cmp	r3, #101	@ 0x65
 800df38:	d069      	beq.n	800e00e <MbRtu_WriteHoldingRegCallback+0xf2>
 800df3a:	2b65      	cmp	r3, #101	@ 0x65
 800df3c:	dc6e      	bgt.n	800e01c <MbRtu_WriteHoldingRegCallback+0x100>
 800df3e:	2b08      	cmp	r3, #8
 800df40:	dc18      	bgt.n	800df74 <MbRtu_WriteHoldingRegCallback+0x58>
 800df42:	2b00      	cmp	r3, #0
 800df44:	db6a      	blt.n	800e01c <MbRtu_WriteHoldingRegCallback+0x100>
 800df46:	2b08      	cmp	r3, #8
 800df48:	d868      	bhi.n	800e01c <MbRtu_WriteHoldingRegCallback+0x100>
 800df4a:	a201      	add	r2, pc, #4	@ (adr r2, 800df50 <MbRtu_WriteHoldingRegCallback+0x34>)
 800df4c:	f852 f023 	ldr.w	pc, [r2, r3, lsl #2]
 800df50:	0800df7b 	.word	0x0800df7b
 800df54:	0800df87 	.word	0x0800df87
 800df58:	0800df99 	.word	0x0800df99
 800df5c:	0800dfa5 	.word	0x0800dfa5
 800df60:	0800dfb5 	.word	0x0800dfb5
 800df64:	0800dfc5 	.word	0x0800dfc5
 800df68:	0800dfd5 	.word	0x0800dfd5
 800df6c:	0800dfe5 	.word	0x0800dfe5
 800df70:	0800dff1 	.word	0x0800dff1
 800df74:	2b64      	cmp	r3, #100	@ 0x64
 800df76:	d042      	beq.n	800dffe <MbRtu_WriteHoldingRegCallback+0xe2>
 800df78:	e050      	b.n	800e01c <MbRtu_WriteHoldingRegCallback+0x100>
  {

    case MB_HOLD_SYS_COMMAND_0:
      *((uint16_t *)CONF_PTR(CONF_SYS_COMMAND) + 0) = value;
 800df7a:	4b30      	ldr	r3, [pc, #192]	@ (800e03c <MbRtu_WriteHoldingRegCallback+0x120>)
 800df7c:	681b      	ldr	r3, [r3, #0]
 800df7e:	330c      	adds	r3, #12
 800df80:	88ba      	ldrh	r2, [r7, #4]
 800df82:	801a      	strh	r2, [r3, #0]
      break;
 800df84:	e04d      	b.n	800e022 <MbRtu_WriteHoldingRegCallback+0x106>
    case MB_HOLD_SYS_COMMAND_1:
      *((uint16_t *)CONF_PTR(CONF_SYS_COMMAND) + 1) = value;
 800df86:	4b2d      	ldr	r3, [pc, #180]	@ (800e03c <MbRtu_WriteHoldingRegCallback+0x120>)
 800df88:	681b      	ldr	r3, [r3, #0]
 800df8a:	330e      	adds	r3, #14
 800df8c:	88ba      	ldrh	r2, [r7, #4]
 800df8e:	801a      	strh	r2, [r3, #0]
      id = CONF_SYS_COMMAND;
 800df90:	f24c 1352 	movw	r3, #49490	@ 0xc152
 800df94:	60bb      	str	r3, [r7, #8]
      break;
 800df96:	e044      	b.n	800e022 <MbRtu_WriteHoldingRegCallback+0x106>
    case MB_HOLD_SYS_TEST_0:
      *((uint16_t *)CONF_PTR(CONF_SYS_TEST) + 0) = value;
 800df98:	4b28      	ldr	r3, [pc, #160]	@ (800e03c <MbRtu_WriteHoldingRegCallback+0x120>)
 800df9a:	681b      	ldr	r3, [r3, #0]
 800df9c:	3310      	adds	r3, #16
 800df9e:	88ba      	ldrh	r2, [r7, #4]
 800dfa0:	801a      	strh	r2, [r3, #0]
      break;
 800dfa2:	e03e      	b.n	800e022 <MbRtu_WriteHoldingRegCallback+0x106>
    case MB_HOLD_SYS_TEST_1:
      *((uint16_t *)CONF_PTR(CONF_SYS_TEST) + 1) = value;
 800dfa4:	4b25      	ldr	r3, [pc, #148]	@ (800e03c <MbRtu_WriteHoldingRegCallback+0x120>)
 800dfa6:	681b      	ldr	r3, [r3, #0]
 800dfa8:	3312      	adds	r3, #18
 800dfaa:	88ba      	ldrh	r2, [r7, #4]
 800dfac:	801a      	strh	r2, [r3, #0]
      id = CONF_SYS_TEST;
 800dfae:	4b24      	ldr	r3, [pc, #144]	@ (800e040 <MbRtu_WriteHoldingRegCallback+0x124>)
 800dfb0:	60bb      	str	r3, [r7, #8]
      break;
 800dfb2:	e036      	b.n	800e022 <MbRtu_WriteHoldingRegCallback+0x106>
    case MB_HOLD_COM_MB_BAUD_RATE:
      conf.com.mb_baud_rate = (com_mb_baud_rate_t)value;
 800dfb4:	88bb      	ldrh	r3, [r7, #4]
 800dfb6:	b2da      	uxtb	r2, r3
 800dfb8:	4b22      	ldr	r3, [pc, #136]	@ (800e044 <MbRtu_WriteHoldingRegCallback+0x128>)
 800dfba:	f883 2038 	strb.w	r2, [r3, #56]	@ 0x38
      id = CONF_COM_MB_BAUD_RATE;
 800dfbe:	4b22      	ldr	r3, [pc, #136]	@ (800e048 <MbRtu_WriteHoldingRegCallback+0x12c>)
 800dfc0:	60bb      	str	r3, [r7, #8]
      break;
 800dfc2:	e02e      	b.n	800e022 <MbRtu_WriteHoldingRegCallback+0x106>
    case MB_HOLD_COM_MB_PARITY:
      conf.com.mb_parity = (com_mb_parity_t)value;
 800dfc4:	88bb      	ldrh	r3, [r7, #4]
 800dfc6:	b2da      	uxtb	r2, r3
 800dfc8:	4b1e      	ldr	r3, [pc, #120]	@ (800e044 <MbRtu_WriteHoldingRegCallback+0x128>)
 800dfca:	f883 2039 	strb.w	r2, [r3, #57]	@ 0x39
      id = CONF_COM_MB_PARITY;
 800dfce:	4b1f      	ldr	r3, [pc, #124]	@ (800e04c <MbRtu_WriteHoldingRegCallback+0x130>)
 800dfd0:	60bb      	str	r3, [r7, #8]
      break;
 800dfd2:	e026      	b.n	800e022 <MbRtu_WriteHoldingRegCallback+0x106>
    case MB_HOLD_COM_MB_STOP_BITS:
      conf.com.mb_stop_bits = (com_mb_stop_bits_t)value;
 800dfd4:	88bb      	ldrh	r3, [r7, #4]
 800dfd6:	b2da      	uxtb	r2, r3
 800dfd8:	4b1a      	ldr	r3, [pc, #104]	@ (800e044 <MbRtu_WriteHoldingRegCallback+0x128>)
 800dfda:	f883 203a 	strb.w	r2, [r3, #58]	@ 0x3a
      id = CONF_COM_MB_STOP_BITS;
 800dfde:	4b1c      	ldr	r3, [pc, #112]	@ (800e050 <MbRtu_WriteHoldingRegCallback+0x134>)
 800dfe0:	60bb      	str	r3, [r7, #8]
      break;
 800dfe2:	e01e      	b.n	800e022 <MbRtu_WriteHoldingRegCallback+0x106>
    case MB_HOLD_COM_MB_APPLY:
      conf.com.mb_apply = value;
 800dfe4:	4a17      	ldr	r2, [pc, #92]	@ (800e044 <MbRtu_WriteHoldingRegCallback+0x128>)
 800dfe6:	88bb      	ldrh	r3, [r7, #4]
 800dfe8:	87d3      	strh	r3, [r2, #62]	@ 0x3e
      id = CONF_COM_MB_APPLY;
 800dfea:	4b1a      	ldr	r3, [pc, #104]	@ (800e054 <MbRtu_WriteHoldingRegCallback+0x138>)
 800dfec:	60bb      	str	r3, [r7, #8]
      break;
 800dfee:	e018      	b.n	800e022 <MbRtu_WriteHoldingRegCallback+0x106>
    case MB_HOLD_COM_MB_TIMEOUT:
      conf.com.mb_timeout = value;
 800dff0:	4a14      	ldr	r2, [pc, #80]	@ (800e044 <MbRtu_WriteHoldingRegCallback+0x128>)
 800dff2:	88bb      	ldrh	r3, [r7, #4]
 800dff4:	f8a2 3040 	strh.w	r3, [r2, #64]	@ 0x40
      id = CONF_COM_MB_TIMEOUT;
 800dff8:	4b17      	ldr	r3, [pc, #92]	@ (800e058 <MbRtu_WriteHoldingRegCallback+0x13c>)
 800dffa:	60bb      	str	r3, [r7, #8]
      break;
 800dffc:	e011      	b.n	800e022 <MbRtu_WriteHoldingRegCallback+0x106>
    case MB_HOLD_STPMEAS_MODE:
      conf.stpmeas.mode = (stpmeas_mode_t)value;
 800dffe:	88bb      	ldrh	r3, [r7, #4]
 800e000:	b2da      	uxtb	r2, r3
 800e002:	4b10      	ldr	r3, [pc, #64]	@ (800e044 <MbRtu_WriteHoldingRegCallback+0x128>)
 800e004:	f883 2048 	strb.w	r2, [r3, #72]	@ 0x48
      id = CONF_STPMEAS_MODE;
 800e008:	4b14      	ldr	r3, [pc, #80]	@ (800e05c <MbRtu_WriteHoldingRegCallback+0x140>)
 800e00a:	60bb      	str	r3, [r7, #8]
      break;
 800e00c:	e009      	b.n	800e022 <MbRtu_WriteHoldingRegCallback+0x106>
    case MB_HOLD_STPMEAS_NTC_BETA:
      conf.stpmeas.ntc_beta = value;
 800e00e:	4b0d      	ldr	r3, [pc, #52]	@ (800e044 <MbRtu_WriteHoldingRegCallback+0x128>)
 800e010:	88ba      	ldrh	r2, [r7, #4]
 800e012:	f8a3 2049 	strh.w	r2, [r3, #73]	@ 0x49
      id = CONF_STPMEAS_NTC_BETA;
 800e016:	4b12      	ldr	r3, [pc, #72]	@ (800e060 <MbRtu_WriteHoldingRegCallback+0x144>)
 800e018:	60bb      	str	r3, [r7, #8]
      break;
 800e01a:	e002      	b.n	800e022 <MbRtu_WriteHoldingRegCallback+0x106>


    default:
      ret = STATUS_ERROR;
 800e01c:	2301      	movs	r3, #1
 800e01e:	81fb      	strh	r3, [r7, #14]
      break;
 800e020:	bf00      	nop
  }

  if (id != 0)
 800e022:	68bb      	ldr	r3, [r7, #8]
 800e024:	2b00      	cmp	r3, #0
 800e026:	d002      	beq.n	800e02e <MbRtu_WriteHoldingRegCallback+0x112>
  {
    Config_ApplyConfig(id);
 800e028:	68b8      	ldr	r0, [r7, #8]
 800e02a:	f7fe fed1 	bl	800cdd0 <Config_ApplyConfig>
  }

  return ret;
 800e02e:	f9b7 300e 	ldrsh.w	r3, [r7, #14]
}
 800e032:	4618      	mov	r0, r3
 800e034:	3710      	adds	r7, #16
 800e036:	46bd      	mov	sp, r7
 800e038:	bd80      	pop	{r7, pc}
 800e03a:	bf00      	nop
 800e03c:	08015310 	.word	0x08015310
 800e040:	00010152 	.word	0x00010152
 800e044:	20000560 	.word	0x20000560
 800e048:	03000570 	.word	0x03000570
 800e04c:	03001570 	.word	0x03001570
 800e050:	03002570 	.word	0x03002570
 800e054:	03006151 	.word	0x03006151
 800e058:	03008171 	.word	0x03008171
 800e05c:	05000550 	.word	0x05000550
 800e060:	05001151 	.word	0x05001151

0800e064 <MbUpgr_Init>:
/* Public variables ----------------------------------------------------------*/
/* Private function prototypes -----------------------------------------------*/
/* Functions -----------------------------------------------------------------*/

Status_t MbUpgr_Init(void)
{
 800e064:	b480      	push	{r7}
 800e066:	b083      	sub	sp, #12
 800e068:	af00      	add	r7, sp, #0
  Status_t ret = STATUS_OK;
 800e06a:	2300      	movs	r3, #0
 800e06c:	80fb      	strh	r3, [r7, #6]

  /* Set status ready */
  mbu.status = MB_UPGR_STATUS_BUSY;
 800e06e:	4b08      	ldr	r3, [pc, #32]	@ (800e090 <MbUpgr_Init+0x2c>)
 800e070:	2200      	movs	r2, #0
 800e072:	f8a3 204e 	strh.w	r2, [r3, #78]	@ 0x4e
  mbu.writeDone = 0;
 800e076:	4b06      	ldr	r3, [pc, #24]	@ (800e090 <MbUpgr_Init+0x2c>)
 800e078:	2200      	movs	r2, #0
 800e07a:	f8a3 2050 	strh.w	r2, [r3, #80]	@ 0x50

  return ret;
 800e07e:	f9b7 3006 	ldrsh.w	r3, [r7, #6]
}
 800e082:	4618      	mov	r0, r3
 800e084:	370c      	adds	r7, #12
 800e086:	46bd      	mov	sp, r7
 800e088:	f85d 7b04 	ldr.w	r7, [sp], #4
 800e08c:	4770      	bx	lr
 800e08e:	bf00      	nop
 800e090:	20000610 	.word	0x20000610

0800e094 <MbUpgr_Handle>:


Status_t MbUpgr_Handle(void)
{
 800e094:	b580      	push	{r7, lr}
 800e096:	b082      	sub	sp, #8
 800e098:	af00      	add	r7, sp, #0
  Status_t ret = STATUS_OK;
 800e09a:	2300      	movs	r3, #0
 800e09c:	80fb      	strh	r3, [r7, #6]

  /* First 4 registers were written? */
  if (mbu.startClb != 0)
 800e09e:	4b35      	ldr	r3, [pc, #212]	@ (800e174 <MbUpgr_Handle+0xe0>)
 800e0a0:	f893 3052 	ldrb.w	r3, [r3, #82]	@ 0x52
 800e0a4:	2b00      	cmp	r3, #0
 800e0a6:	d020      	beq.n	800e0ea <MbUpgr_Handle+0x56>
  {
    mbu.startClb = 0;
 800e0a8:	4b32      	ldr	r3, [pc, #200]	@ (800e174 <MbUpgr_Handle+0xe0>)
 800e0aa:	2200      	movs	r2, #0
 800e0ac:	f883 2052 	strb.w	r2, [r3, #82]	@ 0x52
    /* Start of programming procedure */
    ret = MbUpgr_HeaderClb(mbu.type, mbu.mode, mbu.size);
 800e0b0:	4b30      	ldr	r3, [pc, #192]	@ (800e174 <MbUpgr_Handle+0xe0>)
 800e0b2:	881b      	ldrh	r3, [r3, #0]
 800e0b4:	4a2f      	ldr	r2, [pc, #188]	@ (800e174 <MbUpgr_Handle+0xe0>)
 800e0b6:	8851      	ldrh	r1, [r2, #2]
 800e0b8:	4a2e      	ldr	r2, [pc, #184]	@ (800e174 <MbUpgr_Handle+0xe0>)
 800e0ba:	6852      	ldr	r2, [r2, #4]
 800e0bc:	4618      	mov	r0, r3
 800e0be:	f000 f8e1 	bl	800e284 <MbUpgr_HeaderClb>
 800e0c2:	4603      	mov	r3, r0
 800e0c4:	80fb      	strh	r3, [r7, #6]
    if (mbu.writeDone == 0)
 800e0c6:	4b2b      	ldr	r3, [pc, #172]	@ (800e174 <MbUpgr_Handle+0xe0>)
 800e0c8:	f8b3 3050 	ldrh.w	r3, [r3, #80]	@ 0x50
 800e0cc:	2b00      	cmp	r3, #0
 800e0ce:	d10c      	bne.n	800e0ea <MbUpgr_Handle+0x56>
    {
      if (ret == STATUS_OK)
 800e0d0:	f9b7 3006 	ldrsh.w	r3, [r7, #6]
 800e0d4:	2b00      	cmp	r3, #0
 800e0d6:	d104      	bne.n	800e0e2 <MbUpgr_Handle+0x4e>
      {
        mbu.status = MB_UPGR_STATUS_READY;
 800e0d8:	4b26      	ldr	r3, [pc, #152]	@ (800e174 <MbUpgr_Handle+0xe0>)
 800e0da:	2201      	movs	r2, #1
 800e0dc:	f8a3 204e 	strh.w	r2, [r3, #78]	@ 0x4e
 800e0e0:	e003      	b.n	800e0ea <MbUpgr_Handle+0x56>
      }
      else
      {
        mbu.status = MB_UPGR_STATUS_DONE_ERROR;
 800e0e2:	4b24      	ldr	r3, [pc, #144]	@ (800e174 <MbUpgr_Handle+0xe0>)
 800e0e4:	2203      	movs	r2, #3
 800e0e6:	f8a3 204e 	strh.w	r2, [r3, #78]	@ 0x4e
      }
    }
  }
  /* Write done flag is set */
  if (mbu.writeDone != 0)
 800e0ea:	4b22      	ldr	r3, [pc, #136]	@ (800e174 <MbUpgr_Handle+0xe0>)
 800e0ec:	f8b3 3050 	ldrh.w	r3, [r3, #80]	@ 0x50
 800e0f0:	2b00      	cmp	r3, #0
 800e0f2:	d039      	beq.n	800e168 <MbUpgr_Handle+0xd4>
  {
    /* Call function that writes data into flash */
    ret = MbUpgr_WritePageClb(mbu.offset, mbu.data, mbu.page_size);
 800e0f4:	4b1f      	ldr	r3, [pc, #124]	@ (800e174 <MbUpgr_Handle+0xe0>)
 800e0f6:	f8d3 300a 	ldr.w	r3, [r3, #10]
 800e0fa:	4a1e      	ldr	r2, [pc, #120]	@ (800e174 <MbUpgr_Handle+0xe0>)
 800e0fc:	8912      	ldrh	r2, [r2, #8]
 800e0fe:	491e      	ldr	r1, [pc, #120]	@ (800e178 <MbUpgr_Handle+0xe4>)
 800e100:	4618      	mov	r0, r3
 800e102:	f000 f8da 	bl	800e2ba <MbUpgr_WritePageClb>
 800e106:	4603      	mov	r3, r0
 800e108:	80fb      	strh	r3, [r7, #6]
    if (ret == STATUS_OK)
 800e10a:	f9b7 3006 	ldrsh.w	r3, [r7, #6]
 800e10e:	2b00      	cmp	r3, #0
 800e110:	d104      	bne.n	800e11c <MbUpgr_Handle+0x88>
    {
      mbu.status = MB_UPGR_STATUS_READY;
 800e112:	4b18      	ldr	r3, [pc, #96]	@ (800e174 <MbUpgr_Handle+0xe0>)
 800e114:	2201      	movs	r2, #1
 800e116:	f8a3 204e 	strh.w	r2, [r3, #78]	@ 0x4e
 800e11a:	e003      	b.n	800e124 <MbUpgr_Handle+0x90>
    }
    else
    {
      mbu.status = MB_UPGR_STATUS_DONE_ERROR;
 800e11c:	4b15      	ldr	r3, [pc, #84]	@ (800e174 <MbUpgr_Handle+0xe0>)
 800e11e:	2203      	movs	r2, #3
 800e120:	f8a3 204e 	strh.w	r2, [r3, #78]	@ 0x4e
    }
    /* Did we receive all data? */
    if (mbu.size - mbu.offset <= mbu.page_size)
 800e124:	4b13      	ldr	r3, [pc, #76]	@ (800e174 <MbUpgr_Handle+0xe0>)
 800e126:	685a      	ldr	r2, [r3, #4]
 800e128:	4b12      	ldr	r3, [pc, #72]	@ (800e174 <MbUpgr_Handle+0xe0>)
 800e12a:	f8d3 300a 	ldr.w	r3, [r3, #10]
 800e12e:	1ad3      	subs	r3, r2, r3
 800e130:	4a10      	ldr	r2, [pc, #64]	@ (800e174 <MbUpgr_Handle+0xe0>)
 800e132:	8912      	ldrh	r2, [r2, #8]
 800e134:	4293      	cmp	r3, r2
 800e136:	d813      	bhi.n	800e160 <MbUpgr_Handle+0xcc>
    {
      /* The whole binary has been received, callback */
      ret = MbUpgr_WriteDoneClb(mbu.size);
 800e138:	4b0e      	ldr	r3, [pc, #56]	@ (800e174 <MbUpgr_Handle+0xe0>)
 800e13a:	685b      	ldr	r3, [r3, #4]
 800e13c:	4618      	mov	r0, r3
 800e13e:	f000 f8cd 	bl	800e2dc <MbUpgr_WriteDoneClb>
 800e142:	4603      	mov	r3, r0
 800e144:	80fb      	strh	r3, [r7, #6]
      if (ret == STATUS_OK)
 800e146:	f9b7 3006 	ldrsh.w	r3, [r7, #6]
 800e14a:	2b00      	cmp	r3, #0
 800e14c:	d104      	bne.n	800e158 <MbUpgr_Handle+0xc4>
      {
        mbu.status = MB_UPGR_STATUS_DONE_OK;
 800e14e:	4b09      	ldr	r3, [pc, #36]	@ (800e174 <MbUpgr_Handle+0xe0>)
 800e150:	2202      	movs	r2, #2
 800e152:	f8a3 204e 	strh.w	r2, [r3, #78]	@ 0x4e
 800e156:	e003      	b.n	800e160 <MbUpgr_Handle+0xcc>
      }
      else
      {
        mbu.status = MB_UPGR_STATUS_DONE_ERROR;
 800e158:	4b06      	ldr	r3, [pc, #24]	@ (800e174 <MbUpgr_Handle+0xe0>)
 800e15a:	2203      	movs	r2, #3
 800e15c:	f8a3 204e 	strh.w	r2, [r3, #78]	@ 0x4e
      }
    }
    /* Reset flags */
    mbu.writeDone = 0;
 800e160:	4b04      	ldr	r3, [pc, #16]	@ (800e174 <MbUpgr_Handle+0xe0>)
 800e162:	2200      	movs	r2, #0
 800e164:	f8a3 2050 	strh.w	r2, [r3, #80]	@ 0x50
  }

  return ret;
 800e168:	f9b7 3006 	ldrsh.w	r3, [r7, #6]
}
 800e16c:	4618      	mov	r0, r3
 800e16e:	3708      	adds	r7, #8
 800e170:	46bd      	mov	sp, r7
 800e172:	bd80      	pop	{r7, pc}
 800e174:	20000610 	.word	0x20000610
 800e178:	2000061e 	.word	0x2000061e

0800e17c <MbUpgr_WriteRegisters>:


Status_t MbUpgr_WriteRegisters(uint16_t offset, uint16_t length, uint8_t* data)
{
 800e17c:	b480      	push	{r7}
 800e17e:	b087      	sub	sp, #28
 800e180:	af00      	add	r7, sp, #0
 800e182:	4603      	mov	r3, r0
 800e184:	603a      	str	r2, [r7, #0]
 800e186:	80fb      	strh	r3, [r7, #6]
 800e188:	460b      	mov	r3, r1
 800e18a:	80bb      	strh	r3, [r7, #4]
  Status_t ret = STATUS_OK;
 800e18c:	2300      	movs	r3, #0
 800e18e:	827b      	strh	r3, [r7, #18]
  uint8_t *storage = (uint8_t*)&mbu + (offset - MB_UPGR_BASE_ADDRESS) * 2;
 800e190:	88fb      	ldrh	r3, [r7, #6]
 800e192:	f5a3 737a 	sub.w	r3, r3, #1000	@ 0x3e8
 800e196:	005b      	lsls	r3, r3, #1
 800e198:	461a      	mov	r2, r3
 800e19a:	4b1a      	ldr	r3, [pc, #104]	@ (800e204 <MbUpgr_WriteRegisters+0x88>)
 800e19c:	4413      	add	r3, r2
 800e19e:	60fb      	str	r3, [r7, #12]

  /* Copy and byte reverse */
  for (int i = 0; i < length; i++)
 800e1a0:	2300      	movs	r3, #0
 800e1a2:	617b      	str	r3, [r7, #20]
 800e1a4:	e01a      	b.n	800e1dc <MbUpgr_WriteRegisters+0x60>
  {
    storage[i * 2 + 1] = data[i * 2 + 0];
 800e1a6:	697b      	ldr	r3, [r7, #20]
 800e1a8:	005b      	lsls	r3, r3, #1
 800e1aa:	461a      	mov	r2, r3
 800e1ac:	683b      	ldr	r3, [r7, #0]
 800e1ae:	441a      	add	r2, r3
 800e1b0:	697b      	ldr	r3, [r7, #20]
 800e1b2:	005b      	lsls	r3, r3, #1
 800e1b4:	3301      	adds	r3, #1
 800e1b6:	68f9      	ldr	r1, [r7, #12]
 800e1b8:	440b      	add	r3, r1
 800e1ba:	7812      	ldrb	r2, [r2, #0]
 800e1bc:	701a      	strb	r2, [r3, #0]
    storage[i * 2 + 0] = data[i * 2 + 1];
 800e1be:	697b      	ldr	r3, [r7, #20]
 800e1c0:	005b      	lsls	r3, r3, #1
 800e1c2:	3301      	adds	r3, #1
 800e1c4:	683a      	ldr	r2, [r7, #0]
 800e1c6:	441a      	add	r2, r3
 800e1c8:	697b      	ldr	r3, [r7, #20]
 800e1ca:	005b      	lsls	r3, r3, #1
 800e1cc:	4619      	mov	r1, r3
 800e1ce:	68fb      	ldr	r3, [r7, #12]
 800e1d0:	440b      	add	r3, r1
 800e1d2:	7812      	ldrb	r2, [r2, #0]
 800e1d4:	701a      	strb	r2, [r3, #0]
  for (int i = 0; i < length; i++)
 800e1d6:	697b      	ldr	r3, [r7, #20]
 800e1d8:	3301      	adds	r3, #1
 800e1da:	617b      	str	r3, [r7, #20]
 800e1dc:	88bb      	ldrh	r3, [r7, #4]
 800e1de:	697a      	ldr	r2, [r7, #20]
 800e1e0:	429a      	cmp	r2, r3
 800e1e2:	dbe0      	blt.n	800e1a6 <MbUpgr_WriteRegisters+0x2a>
  }

  /* Write into starting registers */
  if ((offset - MB_UPGR_BASE_ADDRESS) < 4)
 800e1e4:	88fb      	ldrh	r3, [r7, #6]
 800e1e6:	f5b3 7f7b 	cmp.w	r3, #1004	@ 0x3ec
 800e1ea:	d203      	bcs.n	800e1f4 <MbUpgr_WriteRegisters+0x78>
  {
    mbu.startClb = 1;
 800e1ec:	4b05      	ldr	r3, [pc, #20]	@ (800e204 <MbUpgr_WriteRegisters+0x88>)
 800e1ee:	2201      	movs	r2, #1
 800e1f0:	f883 2052 	strb.w	r2, [r3, #82]	@ 0x52
  }

  return ret;
 800e1f4:	f9b7 3012 	ldrsh.w	r3, [r7, #18]
}
 800e1f8:	4618      	mov	r0, r3
 800e1fa:	371c      	adds	r7, #28
 800e1fc:	46bd      	mov	sp, r7
 800e1fe:	f85d 7b04 	ldr.w	r7, [sp], #4
 800e202:	4770      	bx	lr
 800e204:	20000610 	.word	0x20000610

0800e208 <MbUpgr_ReadRegisters>:


Status_t MbUpgr_ReadRegisters(uint16_t offset, uint16_t length, uint8_t* data)
{
 800e208:	b480      	push	{r7}
 800e20a:	b087      	sub	sp, #28
 800e20c:	af00      	add	r7, sp, #0
 800e20e:	4603      	mov	r3, r0
 800e210:	603a      	str	r2, [r7, #0]
 800e212:	80fb      	strh	r3, [r7, #6]
 800e214:	460b      	mov	r3, r1
 800e216:	80bb      	strh	r3, [r7, #4]
  Status_t ret = STATUS_OK;
 800e218:	2300      	movs	r3, #0
 800e21a:	827b      	strh	r3, [r7, #18]
  uint8_t *storage = (uint8_t*)&mbu + (offset - MB_UPGR_BASE_ADDRESS) * 2;
 800e21c:	88fb      	ldrh	r3, [r7, #6]
 800e21e:	f5a3 737a 	sub.w	r3, r3, #1000	@ 0x3e8
 800e222:	005b      	lsls	r3, r3, #1
 800e224:	461a      	mov	r2, r3
 800e226:	4b16      	ldr	r3, [pc, #88]	@ (800e280 <MbUpgr_ReadRegisters+0x78>)
 800e228:	4413      	add	r3, r2
 800e22a:	60fb      	str	r3, [r7, #12]

  /* Copy and byte reverse */
  for (int i = 0; i < length; i++)
 800e22c:	2300      	movs	r3, #0
 800e22e:	617b      	str	r3, [r7, #20]
 800e230:	e01a      	b.n	800e268 <MbUpgr_ReadRegisters+0x60>
  {
    data[i * 2 + 1] = storage[i * 2 + 0];
 800e232:	697b      	ldr	r3, [r7, #20]
 800e234:	005b      	lsls	r3, r3, #1
 800e236:	461a      	mov	r2, r3
 800e238:	68fb      	ldr	r3, [r7, #12]
 800e23a:	441a      	add	r2, r3
 800e23c:	697b      	ldr	r3, [r7, #20]
 800e23e:	005b      	lsls	r3, r3, #1
 800e240:	3301      	adds	r3, #1
 800e242:	6839      	ldr	r1, [r7, #0]
 800e244:	440b      	add	r3, r1
 800e246:	7812      	ldrb	r2, [r2, #0]
 800e248:	701a      	strb	r2, [r3, #0]
    data[i * 2 + 0] = storage[i * 2 + 1];
 800e24a:	697b      	ldr	r3, [r7, #20]
 800e24c:	005b      	lsls	r3, r3, #1
 800e24e:	3301      	adds	r3, #1
 800e250:	68fa      	ldr	r2, [r7, #12]
 800e252:	441a      	add	r2, r3
 800e254:	697b      	ldr	r3, [r7, #20]
 800e256:	005b      	lsls	r3, r3, #1
 800e258:	4619      	mov	r1, r3
 800e25a:	683b      	ldr	r3, [r7, #0]
 800e25c:	440b      	add	r3, r1
 800e25e:	7812      	ldrb	r2, [r2, #0]
 800e260:	701a      	strb	r2, [r3, #0]
  for (int i = 0; i < length; i++)
 800e262:	697b      	ldr	r3, [r7, #20]
 800e264:	3301      	adds	r3, #1
 800e266:	617b      	str	r3, [r7, #20]
 800e268:	88bb      	ldrh	r3, [r7, #4]
 800e26a:	697a      	ldr	r2, [r7, #20]
 800e26c:	429a      	cmp	r2, r3
 800e26e:	dbe0      	blt.n	800e232 <MbUpgr_ReadRegisters+0x2a>
  }

  return ret;
 800e270:	f9b7 3012 	ldrsh.w	r3, [r7, #18]
}
 800e274:	4618      	mov	r0, r3
 800e276:	371c      	adds	r7, #28
 800e278:	46bd      	mov	sp, r7
 800e27a:	f85d 7b04 	ldr.w	r7, [sp], #4
 800e27e:	4770      	bx	lr
 800e280:	20000610 	.word	0x20000610

0800e284 <MbUpgr_HeaderClb>:
}

/* Private Functions ---------------------------------------------------------*/

__weak Status_t MbUpgr_HeaderClb(uint16_t type, uint16_t mode, uint32_t size)
{
 800e284:	b480      	push	{r7}
 800e286:	b085      	sub	sp, #20
 800e288:	af00      	add	r7, sp, #0
 800e28a:	4603      	mov	r3, r0
 800e28c:	603a      	str	r2, [r7, #0]
 800e28e:	80fb      	strh	r3, [r7, #6]
 800e290:	460b      	mov	r3, r1
 800e292:	80bb      	strh	r3, [r7, #4]
  Status_t ret = STATUS_OK;
 800e294:	2300      	movs	r3, #0
 800e296:	81fb      	strh	r3, [r7, #14]

  switch (mode)
 800e298:	88bb      	ldrh	r3, [r7, #4]
 800e29a:	2b01      	cmp	r3, #1
 800e29c:	d002      	beq.n	800e2a4 <MbUpgr_HeaderClb+0x20>
 800e29e:	2b02      	cmp	r3, #2
 800e2a0:	d002      	beq.n	800e2a8 <MbUpgr_HeaderClb+0x24>
      break;
    case MB_UPGR_MODE_APPLY:
//      EventMngr_Event(ATT_SYS_RESTART_REQ, NULL);
      break;
    default:
      break;
 800e2a2:	e002      	b.n	800e2aa <MbUpgr_HeaderClb+0x26>
      break;
 800e2a4:	bf00      	nop
 800e2a6:	e000      	b.n	800e2aa <MbUpgr_HeaderClb+0x26>
      break;
 800e2a8:	bf00      	nop
  }

  return ret;
 800e2aa:	f9b7 300e 	ldrsh.w	r3, [r7, #14]
}
 800e2ae:	4618      	mov	r0, r3
 800e2b0:	3714      	adds	r7, #20
 800e2b2:	46bd      	mov	sp, r7
 800e2b4:	f85d 7b04 	ldr.w	r7, [sp], #4
 800e2b8:	4770      	bx	lr

0800e2ba <MbUpgr_WritePageClb>:


__weak Status_t MbUpgr_WritePageClb(uint32_t offset, uint8_t *data, uint16_t length)
{
 800e2ba:	b480      	push	{r7}
 800e2bc:	b087      	sub	sp, #28
 800e2be:	af00      	add	r7, sp, #0
 800e2c0:	60f8      	str	r0, [r7, #12]
 800e2c2:	60b9      	str	r1, [r7, #8]
 800e2c4:	4613      	mov	r3, r2
 800e2c6:	80fb      	strh	r3, [r7, #6]
  Status_t ret = STATUS_OK;
 800e2c8:	2300      	movs	r3, #0
 800e2ca:	82fb      	strh	r3, [r7, #22]

//  ret = System_FlashProgram((uint32_t)CONF_C_APP_BUFFER_OFFSET + offset, data, length);

  return ret;
 800e2cc:	f9b7 3016 	ldrsh.w	r3, [r7, #22]
}
 800e2d0:	4618      	mov	r0, r3
 800e2d2:	371c      	adds	r7, #28
 800e2d4:	46bd      	mov	sp, r7
 800e2d6:	f85d 7b04 	ldr.w	r7, [sp], #4
 800e2da:	4770      	bx	lr

0800e2dc <MbUpgr_WriteDoneClb>:

__weak Status_t MbUpgr_WriteDoneClb(uint32_t length)
{
 800e2dc:	b480      	push	{r7}
 800e2de:	b085      	sub	sp, #20
 800e2e0:	af00      	add	r7, sp, #0
 800e2e2:	6078      	str	r0, [r7, #4]
  Status_t ret = STATUS_OK;
 800e2e4:	2300      	movs	r3, #0
 800e2e6:	81fb      	strh	r3, [r7, #14]

  /* The very last packet, verify image */
//  ret = System_VerifyImage((uint32_t*) CONF_C_APP_BUFFER_OFFSET);

  return ret;
 800e2e8:	f9b7 300e 	ldrsh.w	r3, [r7, #14]
}
 800e2ec:	4618      	mov	r0, r3
 800e2ee:	3714      	adds	r7, #20
 800e2f0:	46bd      	mov	sp, r7
 800e2f2:	f85d 7b04 	ldr.w	r7, [sp], #4
 800e2f6:	4770      	bx	lr

0800e2f8 <MbSlave_Init>:

static void MbSlave_Rs485DirReceive(void);

/* Functions -----------------------------------------------------------------*/

Status_t MbSlave_Init(void) {
 800e2f8:	b580      	push	{r7, lr}
 800e2fa:	b088      	sub	sp, #32
 800e2fc:	af00      	add	r7, sp, #0
	Status_t ret = STATUS_OK;
 800e2fe:	2300      	movs	r3, #0
 800e300:	83fb      	strh	r3, [r7, #30]
	GPIO_InitTypeDef GPIO_InitStruct;

	MODBUS_CLK_ENABLE();
 800e302:	2300      	movs	r3, #0
 800e304:	607b      	str	r3, [r7, #4]
 800e306:	4b25      	ldr	r3, [pc, #148]	@ (800e39c <MbSlave_Init+0xa4>)
 800e308:	6c5b      	ldr	r3, [r3, #68]	@ 0x44
 800e30a:	4a24      	ldr	r2, [pc, #144]	@ (800e39c <MbSlave_Init+0xa4>)
 800e30c:	f043 0310 	orr.w	r3, r3, #16
 800e310:	6453      	str	r3, [r2, #68]	@ 0x44
 800e312:	4b22      	ldr	r3, [pc, #136]	@ (800e39c <MbSlave_Init+0xa4>)
 800e314:	6c5b      	ldr	r3, [r3, #68]	@ 0x44
 800e316:	f003 0310 	and.w	r3, r3, #16
 800e31a:	607b      	str	r3, [r7, #4]
 800e31c:	687b      	ldr	r3, [r7, #4]
	outFram = 1;
 800e31e:	4b20      	ldr	r3, [pc, #128]	@ (800e3a0 <MbSlave_Init+0xa8>)
 800e320:	2201      	movs	r2, #1
 800e322:	701a      	strb	r2, [r3, #0]

	MbSlave_Rs485DirReceive();
 800e324:	f000 fcc2 	bl	800ecac <MbSlave_Rs485DirReceive>

	/* MODBUS USART DE */
	GPIO_InitStruct.Pin = MODBUS_UART_DE_PIN;
 800e328:	f44f 5380 	mov.w	r3, #4096	@ 0x1000
 800e32c:	60bb      	str	r3, [r7, #8]
	GPIO_InitStruct.Mode = GPIO_MODE_OUTPUT_PP;
 800e32e:	2301      	movs	r3, #1
 800e330:	60fb      	str	r3, [r7, #12]
	GPIO_InitStruct.Pull = GPIO_NOPULL;
 800e332:	2300      	movs	r3, #0
 800e334:	613b      	str	r3, [r7, #16]
	GPIO_InitStruct.Speed = GPIO_SPEED_FREQ_HIGH;
 800e336:	2302      	movs	r3, #2
 800e338:	617b      	str	r3, [r7, #20]
	HAL_GPIO_Init(MODBUS_UART_DE_PORT, &GPIO_InitStruct);
 800e33a:	f107 0308 	add.w	r3, r7, #8
 800e33e:	4619      	mov	r1, r3
 800e340:	4818      	ldr	r0, [pc, #96]	@ (800e3a4 <MbSlave_Init+0xac>)
 800e342:	f003 f8ed 	bl	8011520 <HAL_GPIO_Init>

	/* MODBUS USART RX */
	GPIO_InitStruct.Pin = MODBUS_UART_RX_PIN;
 800e346:	f44f 6380 	mov.w	r3, #1024	@ 0x400
 800e34a:	60bb      	str	r3, [r7, #8]
	GPIO_InitStruct.Mode = GPIO_MODE_AF_PP;
 800e34c:	2302      	movs	r3, #2
 800e34e:	60fb      	str	r3, [r7, #12]
	GPIO_InitStruct.Pull = GPIO_PULLUP;
 800e350:	2301      	movs	r3, #1
 800e352:	613b      	str	r3, [r7, #16]
	GPIO_InitStruct.Speed = GPIO_SPEED_FREQ_HIGH;
 800e354:	2302      	movs	r3, #2
 800e356:	617b      	str	r3, [r7, #20]
	GPIO_InitStruct.Alternate = MODBUS_UART_ALTERNATE;
 800e358:	2307      	movs	r3, #7
 800e35a:	61bb      	str	r3, [r7, #24]
	HAL_GPIO_Init(MODBUS_UART_RX_PORT, &GPIO_InitStruct);
 800e35c:	f107 0308 	add.w	r3, r7, #8
 800e360:	4619      	mov	r1, r3
 800e362:	4810      	ldr	r0, [pc, #64]	@ (800e3a4 <MbSlave_Init+0xac>)
 800e364:	f003 f8dc 	bl	8011520 <HAL_GPIO_Init>

	/* MODBUS USART TX */
	GPIO_InitStruct.Pin = MODBUS_UART_TX_PIN;
 800e368:	f44f 7300 	mov.w	r3, #512	@ 0x200
 800e36c:	60bb      	str	r3, [r7, #8]
	GPIO_InitStruct.Mode = GPIO_MODE_AF_PP;
 800e36e:	2302      	movs	r3, #2
 800e370:	60fb      	str	r3, [r7, #12]
	GPIO_InitStruct.Pull = GPIO_PULLUP;
 800e372:	2301      	movs	r3, #1
 800e374:	613b      	str	r3, [r7, #16]
	GPIO_InitStruct.Speed = GPIO_SPEED_FREQ_HIGH;
 800e376:	2302      	movs	r3, #2
 800e378:	617b      	str	r3, [r7, #20]
	GPIO_InitStruct.Alternate = MODBUS_UART_ALTERNATE;
 800e37a:	2307      	movs	r3, #7
 800e37c:	61bb      	str	r3, [r7, #24]
	HAL_GPIO_Init(MODBUS_UART_TX_PORT, &GPIO_InitStruct);
 800e37e:	f107 0308 	add.w	r3, r7, #8
 800e382:	4619      	mov	r1, r3
 800e384:	4807      	ldr	r0, [pc, #28]	@ (800e3a4 <MbSlave_Init+0xac>)
 800e386:	f003 f8cb 	bl	8011520 <HAL_GPIO_Init>

	/* Initial UART settings */
	MbSlave_SettingsChanged();
 800e38a:	f000 f80d 	bl	800e3a8 <MbSlave_SettingsChanged>

	return ret;
 800e38e:	f9b7 301e 	ldrsh.w	r3, [r7, #30]
}
 800e392:	4618      	mov	r0, r3
 800e394:	3720      	adds	r7, #32
 800e396:	46bd      	mov	sp, r7
 800e398:	bd80      	pop	{r7, pc}
 800e39a:	bf00      	nop
 800e39c:	40023800 	.word	0x40023800
 800e3a0:	200007fe 	.word	0x200007fe
 800e3a4:	40020000 	.word	0x40020000

0800e3a8 <MbSlave_SettingsChanged>:

Status_t MbSlave_SettingsChanged(void) {
 800e3a8:	b580      	push	{r7, lr}
 800e3aa:	b082      	sub	sp, #8
 800e3ac:	af00      	add	r7, sp, #0
	Status_t ret = STATUS_OK;
 800e3ae:	2300      	movs	r3, #0
 800e3b0:	80fb      	strh	r3, [r7, #6]

	/* Disable interrupt */
	HAL_NVIC_DisableIRQ(MODBUS_UART_IRQ_NUMBER);
 800e3b2:	2025      	movs	r0, #37	@ 0x25
 800e3b4:	f002 f989 	bl	80106ca <HAL_NVIC_DisableIRQ>

	/* Set stop bits, parity, word length from configuration register */
	if (conf.com.mb_baud_rate < sizeof(tableSpeed) / sizeof(uint32_t)) {
 800e3b8:	4b53      	ldr	r3, [pc, #332]	@ (800e508 <MbSlave_SettingsChanged+0x160>)
 800e3ba:	f893 3038 	ldrb.w	r3, [r3, #56]	@ 0x38
 800e3be:	2b04      	cmp	r3, #4
 800e3c0:	d809      	bhi.n	800e3d6 <MbSlave_SettingsChanged+0x2e>
		mod.huart.Init.BaudRate = tableSpeed[conf.com.mb_baud_rate];
 800e3c2:	4b51      	ldr	r3, [pc, #324]	@ (800e508 <MbSlave_SettingsChanged+0x160>)
 800e3c4:	f893 3038 	ldrb.w	r3, [r3, #56]	@ 0x38
 800e3c8:	461a      	mov	r2, r3
 800e3ca:	4b50      	ldr	r3, [pc, #320]	@ (800e50c <MbSlave_SettingsChanged+0x164>)
 800e3cc:	f853 3022 	ldr.w	r3, [r3, r2, lsl #2]
 800e3d0:	4a4f      	ldr	r2, [pc, #316]	@ (800e510 <MbSlave_SettingsChanged+0x168>)
 800e3d2:	6053      	str	r3, [r2, #4]
 800e3d4:	e005      	b.n	800e3e2 <MbSlave_SettingsChanged+0x3a>
	} else {
		mod.huart.Init.BaudRate = conf.com.mb_baud_rate;
 800e3d6:	4b4c      	ldr	r3, [pc, #304]	@ (800e508 <MbSlave_SettingsChanged+0x160>)
 800e3d8:	f893 3038 	ldrb.w	r3, [r3, #56]	@ 0x38
 800e3dc:	461a      	mov	r2, r3
 800e3de:	4b4c      	ldr	r3, [pc, #304]	@ (800e510 <MbSlave_SettingsChanged+0x168>)
 800e3e0:	605a      	str	r2, [r3, #4]
	}
	mod.huart.Init.StopBits = tableStopBits[conf.com.mb_stop_bits];
 800e3e2:	4b49      	ldr	r3, [pc, #292]	@ (800e508 <MbSlave_SettingsChanged+0x160>)
 800e3e4:	f893 303a 	ldrb.w	r3, [r3, #58]	@ 0x3a
 800e3e8:	461a      	mov	r2, r3
 800e3ea:	4b4a      	ldr	r3, [pc, #296]	@ (800e514 <MbSlave_SettingsChanged+0x16c>)
 800e3ec:	f853 3022 	ldr.w	r3, [r3, r2, lsl #2]
 800e3f0:	4a47      	ldr	r2, [pc, #284]	@ (800e510 <MbSlave_SettingsChanged+0x168>)
 800e3f2:	60d3      	str	r3, [r2, #12]
	mod.huart.Init.Parity = tableParity[conf.com.mb_parity];
 800e3f4:	4b44      	ldr	r3, [pc, #272]	@ (800e508 <MbSlave_SettingsChanged+0x160>)
 800e3f6:	f893 3039 	ldrb.w	r3, [r3, #57]	@ 0x39
 800e3fa:	461a      	mov	r2, r3
 800e3fc:	4b46      	ldr	r3, [pc, #280]	@ (800e518 <MbSlave_SettingsChanged+0x170>)
 800e3fe:	f853 3022 	ldr.w	r3, [r3, r2, lsl #2]
 800e402:	4a43      	ldr	r2, [pc, #268]	@ (800e510 <MbSlave_SettingsChanged+0x168>)
 800e404:	6113      	str	r3, [r2, #16]
	mod.huart.Init.WordLength = tableLength[conf.com.mb_parity];
 800e406:	4b40      	ldr	r3, [pc, #256]	@ (800e508 <MbSlave_SettingsChanged+0x160>)
 800e408:	f893 3039 	ldrb.w	r3, [r3, #57]	@ 0x39
 800e40c:	461a      	mov	r2, r3
 800e40e:	4b43      	ldr	r3, [pc, #268]	@ (800e51c <MbSlave_SettingsChanged+0x174>)
 800e410:	f853 3022 	ldr.w	r3, [r3, r2, lsl #2]
 800e414:	4a3e      	ldr	r2, [pc, #248]	@ (800e510 <MbSlave_SettingsChanged+0x168>)
 800e416:	6093      	str	r3, [r2, #8]
	//baud rate change
	//mod.huart.Init.BaudRate = 19200;

	/* MODBUS USART init */
	mod.huart.Instance = MODBUS_UART_INSTANCE;
 800e418:	4b3d      	ldr	r3, [pc, #244]	@ (800e510 <MbSlave_SettingsChanged+0x168>)
 800e41a:	4a41      	ldr	r2, [pc, #260]	@ (800e520 <MbSlave_SettingsChanged+0x178>)
 800e41c:	601a      	str	r2, [r3, #0]
	mod.huart.Init.Mode = UART_MODE_TX_RX;
 800e41e:	4b3c      	ldr	r3, [pc, #240]	@ (800e510 <MbSlave_SettingsChanged+0x168>)
 800e420:	220c      	movs	r2, #12
 800e422:	615a      	str	r2, [r3, #20]
	mod.huart.Init.HwFlowCtl = UART_HWCONTROL_NONE;
 800e424:	4b3a      	ldr	r3, [pc, #232]	@ (800e510 <MbSlave_SettingsChanged+0x168>)
 800e426:	2200      	movs	r2, #0
 800e428:	619a      	str	r2, [r3, #24]
	mod.huart.Init.OverSampling = UART_OVERSAMPLING_16;
 800e42a:	4b39      	ldr	r3, [pc, #228]	@ (800e510 <MbSlave_SettingsChanged+0x168>)
 800e42c:	2200      	movs	r2, #0
 800e42e:	61da      	str	r2, [r3, #28]
	//mod.huart.Init.OneBitSampling = UART_ONE_BIT_SAMPLE_DISABLE;
	//mod.huart.AdvancedInit.AdvFeatureInit = UART_ADVFEATURE_NO_INIT;

	HAL_UART_Init(&mod.huart);
 800e430:	4837      	ldr	r0, [pc, #220]	@ (800e510 <MbSlave_SettingsChanged+0x168>)
 800e432:	f004 fedd 	bl	80131f0 <HAL_UART_Init>

	MODBUS_TIM_CLK_ENABLE()
 800e436:	2300      	movs	r3, #0
 800e438:	603b      	str	r3, [r7, #0]
 800e43a:	4b3a      	ldr	r3, [pc, #232]	@ (800e524 <MbSlave_SettingsChanged+0x17c>)
 800e43c:	6c1b      	ldr	r3, [r3, #64]	@ 0x40
 800e43e:	4a39      	ldr	r2, [pc, #228]	@ (800e524 <MbSlave_SettingsChanged+0x17c>)
 800e440:	f043 0302 	orr.w	r3, r3, #2
 800e444:	6413      	str	r3, [r2, #64]	@ 0x40
 800e446:	4b37      	ldr	r3, [pc, #220]	@ (800e524 <MbSlave_SettingsChanged+0x17c>)
 800e448:	6c1b      	ldr	r3, [r3, #64]	@ 0x40
 800e44a:	f003 0302 	and.w	r3, r3, #2
 800e44e:	603b      	str	r3, [r7, #0]
 800e450:	683b      	ldr	r3, [r7, #0]
	;

	/* MODBUS TIM Init */
	mod.htim.Instance = MODBUS_TIM_INSTANCE;
 800e452:	4b2f      	ldr	r3, [pc, #188]	@ (800e510 <MbSlave_SettingsChanged+0x168>)
 800e454:	4a34      	ldr	r2, [pc, #208]	@ (800e528 <MbSlave_SettingsChanged+0x180>)
 800e456:	649a      	str	r2, [r3, #72]	@ 0x48
	mod.htim.Init.Period = 9 * (8 + 2 + 1) * 100000 / 2
			/ mod.huart.Init.BaudRate; /* Timer period in 10 us, considering 8 data, 1 start, 2 stop bits */
 800e458:	4b2d      	ldr	r3, [pc, #180]	@ (800e510 <MbSlave_SettingsChanged+0x168>)
 800e45a:	685b      	ldr	r3, [r3, #4]
 800e45c:	4a33      	ldr	r2, [pc, #204]	@ (800e52c <MbSlave_SettingsChanged+0x184>)
 800e45e:	fbb2 f3f3 	udiv	r3, r2, r3
	mod.htim.Init.Period = 9 * (8 + 2 + 1) * 100000 / 2
 800e462:	4a2b      	ldr	r2, [pc, #172]	@ (800e510 <MbSlave_SettingsChanged+0x168>)
 800e464:	6553      	str	r3, [r2, #84]	@ 0x54
	SAT_DOWN(mod.htim.Init.Period, 175);
 800e466:	4b2a      	ldr	r3, [pc, #168]	@ (800e510 <MbSlave_SettingsChanged+0x168>)
 800e468:	6d5b      	ldr	r3, [r3, #84]	@ 0x54
 800e46a:	2baf      	cmp	r3, #175	@ 0xaf
 800e46c:	bf38      	it	cc
 800e46e:	23af      	movcc	r3, #175	@ 0xaf
 800e470:	4a27      	ldr	r2, [pc, #156]	@ (800e510 <MbSlave_SettingsChanged+0x168>)
 800e472:	6553      	str	r3, [r2, #84]	@ 0x54
	mod.htim.Init.Prescaler = (uint32_t) ((HAL_RCC_GetPCLK1Freq()) / 100000)
 800e474:	f003 fd26 	bl	8011ec4 <HAL_RCC_GetPCLK1Freq>
 800e478:	4603      	mov	r3, r0
 800e47a:	095b      	lsrs	r3, r3, #5
 800e47c:	4a2c      	ldr	r2, [pc, #176]	@ (800e530 <MbSlave_SettingsChanged+0x188>)
 800e47e:	fba2 2303 	umull	r2, r3, r2, r3
 800e482:	09db      	lsrs	r3, r3, #7
			- 1; /* Timer step 10 us */
 800e484:	3b01      	subs	r3, #1
	mod.htim.Init.Prescaler = (uint32_t) ((HAL_RCC_GetPCLK1Freq()) / 100000)
 800e486:	4a22      	ldr	r2, [pc, #136]	@ (800e510 <MbSlave_SettingsChanged+0x168>)
 800e488:	64d3      	str	r3, [r2, #76]	@ 0x4c
	mod.htim.Init.CounterMode = TIM_COUNTERMODE_UP;
 800e48a:	4b21      	ldr	r3, [pc, #132]	@ (800e510 <MbSlave_SettingsChanged+0x168>)
 800e48c:	2200      	movs	r2, #0
 800e48e:	651a      	str	r2, [r3, #80]	@ 0x50
	mod.htim.Init.ClockDivision = TIM_CLOCKDIVISION_DIV1;
 800e490:	4b1f      	ldr	r3, [pc, #124]	@ (800e510 <MbSlave_SettingsChanged+0x168>)
 800e492:	2200      	movs	r2, #0
 800e494:	659a      	str	r2, [r3, #88]	@ 0x58
	HAL_TIM_Base_Init(&mod.htim);
 800e496:	4827      	ldr	r0, [pc, #156]	@ (800e534 <MbSlave_SettingsChanged+0x18c>)
 800e498:	f004 fa0d 	bl	80128b6 <HAL_TIM_Base_Init>

	/* MODBUS USART interrupt Init */
	HAL_NVIC_SetPriority(MODBUS_UART_IRQ_NUMBER, PRIO_IRQ_MODBUS, 0);
 800e49c:	2200      	movs	r2, #0
 800e49e:	2103      	movs	r1, #3
 800e4a0:	2025      	movs	r0, #37	@ 0x25
 800e4a2:	f002 f8e8 	bl	8010676 <HAL_NVIC_SetPriority>
	HAL_NVIC_ClearPendingIRQ(MODBUS_UART_IRQ_NUMBER);
 800e4a6:	2025      	movs	r0, #37	@ 0x25
 800e4a8:	f002 f929 	bl	80106fe <HAL_NVIC_ClearPendingIRQ>
	HAL_NVIC_EnableIRQ(MODBUS_UART_IRQ_NUMBER);
 800e4ac:	2025      	movs	r0, #37	@ 0x25
 800e4ae:	f002 f8fe 	bl	80106ae <HAL_NVIC_EnableIRQ>

	/* MODBUS Timer interrupt Init */
	HAL_NVIC_SetPriority(MODBUS_TIM_IRQ_NUMBER, PRIO_IRQ_MODBUS, 0);
 800e4b2:	2200      	movs	r2, #0
 800e4b4:	2103      	movs	r1, #3
 800e4b6:	201d      	movs	r0, #29
 800e4b8:	f002 f8dd 	bl	8010676 <HAL_NVIC_SetPriority>
	HAL_NVIC_ClearPendingIRQ(MODBUS_TIM_IRQ_NUMBER);
 800e4bc:	201d      	movs	r0, #29
 800e4be:	f002 f91e 	bl	80106fe <HAL_NVIC_ClearPendingIRQ>
	HAL_NVIC_EnableIRQ(MODBUS_TIM_IRQ_NUMBER);
 800e4c2:	201d      	movs	r0, #29
 800e4c4:	f002 f8f3 	bl	80106ae <HAL_NVIC_EnableIRQ>

	MbSlave_UpdateSlaveAddress();
 800e4c8:	f000 f8cc 	bl	800e664 <MbSlave_UpdateSlaveAddress>

	/* default values */
	mod.frameOk = 0;
 800e4cc:	4b10      	ldr	r3, [pc, #64]	@ (800e510 <MbSlave_SettingsChanged+0x168>)
 800e4ce:	2200      	movs	r2, #0
 800e4d0:	f883 2090 	strb.w	r2, [r3, #144]	@ 0x90

	/* reset bus and wait for first packet */
	MbSlave_BusReset();
 800e4d4:	f000 f8f4 	bl	800e6c0 <MbSlave_BusReset>

	/* Set initial timeout */
	mod.tick = HAL_GetTick() + conf.com.mb_timeout * 1000;
 800e4d8:	f001 fb64 	bl	800fba4 <HAL_GetTick>
 800e4dc:	4603      	mov	r3, r0
 800e4de:	4a0a      	ldr	r2, [pc, #40]	@ (800e508 <MbSlave_SettingsChanged+0x160>)
 800e4e0:	f8b2 2040 	ldrh.w	r2, [r2, #64]	@ 0x40
 800e4e4:	4611      	mov	r1, r2
 800e4e6:	f44f 727a 	mov.w	r2, #1000	@ 0x3e8
 800e4ea:	fb01 f202 	mul.w	r2, r1, r2
 800e4ee:	4413      	add	r3, r2
 800e4f0:	4a07      	ldr	r2, [pc, #28]	@ (800e510 <MbSlave_SettingsChanged+0x168>)
 800e4f2:	f8c2 3094 	str.w	r3, [r2, #148]	@ 0x94

#ifdef MODBUS_UPGRADE
	MbUpgr_Init();
 800e4f6:	f7ff fdb5 	bl	800e064 <MbUpgr_Init>
#endif

	return ret;
 800e4fa:	f9b7 3006 	ldrsh.w	r3, [r7, #6]
}
 800e4fe:	4618      	mov	r0, r3
 800e500:	3708      	adds	r7, #8
 800e502:	46bd      	mov	sp, r7
 800e504:	bd80      	pop	{r7, pc}
 800e506:	bf00      	nop
 800e508:	20000560 	.word	0x20000560
 800e50c:	0801548c 	.word	0x0801548c
 800e510:	20000664 	.word	0x20000664
 800e514:	080154b8 	.word	0x080154b8
 800e518:	080154a0 	.word	0x080154a0
 800e51c:	080154ac 	.word	0x080154ac
 800e520:	40011000 	.word	0x40011000
 800e524:	40023800 	.word	0x40023800
 800e528:	40000400 	.word	0x40000400
 800e52c:	004b87f0 	.word	0x004b87f0
 800e530:	0a7c5ac5 	.word	0x0a7c5ac5
 800e534:	200006ac 	.word	0x200006ac

0800e538 <MbSlave_Handle>:

Status_t MbSlave_Handle(void) {
 800e538:	b580      	push	{r7, lr}
 800e53a:	b082      	sub	sp, #8
 800e53c:	af00      	add	r7, sp, #0
	Status_t ret = STATUS_OK;
 800e53e:	2300      	movs	r3, #0
 800e540:	80fb      	strh	r3, [r7, #6]

	if (mod.frameOk) {
 800e542:	4b44      	ldr	r3, [pc, #272]	@ (800e654 <MbSlave_Handle+0x11c>)
 800e544:	f893 3090 	ldrb.w	r3, [r3, #144]	@ 0x90
 800e548:	2b00      	cmp	r3, #0
 800e54a:	d050      	beq.n	800e5ee <MbSlave_Handle+0xb6>
		mod.frameOk = 0;
 800e54c:	4b41      	ldr	r3, [pc, #260]	@ (800e654 <MbSlave_Handle+0x11c>)
 800e54e:	2200      	movs	r2, #0
 800e550:	f883 2090 	strb.w	r2, [r3, #144]	@ 0x90

		/* Process frame */
		MbSlave_ProcessFrame();
 800e554:	f000 f9ce 	bl	800e8f4 <MbSlave_ProcessFrame>

		/* Handle timeout */
		mod.tick = HAL_GetTick() + conf.com.mb_timeout * 1000;
 800e558:	f001 fb24 	bl	800fba4 <HAL_GetTick>
 800e55c:	4603      	mov	r3, r0
 800e55e:	4a3e      	ldr	r2, [pc, #248]	@ (800e658 <MbSlave_Handle+0x120>)
 800e560:	f8b2 2040 	ldrh.w	r2, [r2, #64]	@ 0x40
 800e564:	4611      	mov	r1, r2
 800e566:	f44f 727a 	mov.w	r2, #1000	@ 0x3e8
 800e56a:	fb01 f202 	mul.w	r2, r1, r2
 800e56e:	4413      	add	r3, r2
 800e570:	4a38      	ldr	r2, [pc, #224]	@ (800e654 <MbSlave_Handle+0x11c>)
 800e572:	f8c2 3094 	str.w	r3, [r2, #148]	@ 0x94
		CLEAR_BIT(conf.sys.status, STAT_BIT_MB_TIMEOUT);
 800e576:	4b38      	ldr	r3, [pc, #224]	@ (800e658 <MbSlave_Handle+0x120>)
 800e578:	689b      	ldr	r3, [r3, #8]
 800e57a:	f023 0308 	bic.w	r3, r3, #8
 800e57e:	4a36      	ldr	r2, [pc, #216]	@ (800e658 <MbSlave_Handle+0x120>)
 800e580:	6093      	str	r3, [r2, #8]

		/* Prepare and send response for unicast messages */
		if (inFrame.slaveAddr == mod.myAddress) {
 800e582:	4b36      	ldr	r3, [pc, #216]	@ (800e65c <MbSlave_Handle+0x124>)
 800e584:	781a      	ldrb	r2, [r3, #0]
 800e586:	4b33      	ldr	r3, [pc, #204]	@ (800e654 <MbSlave_Handle+0x11c>)
 800e588:	f893 3091 	ldrb.w	r3, [r3, #145]	@ 0x91
 800e58c:	429a      	cmp	r2, r3
 800e58e:	d12c      	bne.n	800e5ea <MbSlave_Handle+0xb2>
			/* Compose response and send it */
			outFrame.slaveAddr = mod.myAddress;
 800e590:	4b30      	ldr	r3, [pc, #192]	@ (800e654 <MbSlave_Handle+0x11c>)
 800e592:	f893 2091 	ldrb.w	r2, [r3, #145]	@ 0x91
 800e596:	4b32      	ldr	r3, [pc, #200]	@ (800e660 <MbSlave_Handle+0x128>)
 800e598:	701a      	strb	r2, [r3, #0]
			MbSlave_CRC16(&outFrame);
 800e59a:	4831      	ldr	r0, [pc, #196]	@ (800e660 <MbSlave_Handle+0x128>)
 800e59c:	f000 fb0c 	bl	800ebb8 <MbSlave_CRC16>
			outFrame.data[outFrame.size] = outFrame.crc[0];
 800e5a0:	4b2f      	ldr	r3, [pc, #188]	@ (800e660 <MbSlave_Handle+0x128>)
 800e5a2:	f8b3 3100 	ldrh.w	r3, [r3, #256]	@ 0x100
 800e5a6:	4619      	mov	r1, r3
 800e5a8:	4b2d      	ldr	r3, [pc, #180]	@ (800e660 <MbSlave_Handle+0x128>)
 800e5aa:	f893 20fe 	ldrb.w	r2, [r3, #254]	@ 0xfe
 800e5ae:	4b2c      	ldr	r3, [pc, #176]	@ (800e660 <MbSlave_Handle+0x128>)
 800e5b0:	440b      	add	r3, r1
 800e5b2:	709a      	strb	r2, [r3, #2]
			outFrame.data[outFrame.size + 1] = outFrame.crc[1];
 800e5b4:	4b2a      	ldr	r3, [pc, #168]	@ (800e660 <MbSlave_Handle+0x128>)
 800e5b6:	f8b3 3100 	ldrh.w	r3, [r3, #256]	@ 0x100
 800e5ba:	3301      	adds	r3, #1
 800e5bc:	4a28      	ldr	r2, [pc, #160]	@ (800e660 <MbSlave_Handle+0x128>)
 800e5be:	f892 10ff 	ldrb.w	r1, [r2, #255]	@ 0xff
 800e5c2:	4a27      	ldr	r2, [pc, #156]	@ (800e660 <MbSlave_Handle+0x128>)
 800e5c4:	4413      	add	r3, r2
 800e5c6:	460a      	mov	r2, r1
 800e5c8:	709a      	strb	r2, [r3, #2]

			/* send packet response */
			HAL_UART_AbortReceive_IT(&mod.huart);
 800e5ca:	4822      	ldr	r0, [pc, #136]	@ (800e654 <MbSlave_Handle+0x11c>)
 800e5cc:	f004 ffd0 	bl	8013570 <HAL_UART_AbortReceive_IT>
			MbSlave_Rs485DirTransmit();
 800e5d0:	f000 fb60 	bl	800ec94 <MbSlave_Rs485DirTransmit>
			HAL_UART_Transmit_IT(&mod.huart, (uint8_t*) &outFrame,
					outFrame.size + MODBUS_CRC_LENGTH + MODBUS_HEADER_LENGTH);
 800e5d4:	4b22      	ldr	r3, [pc, #136]	@ (800e660 <MbSlave_Handle+0x128>)
 800e5d6:	f8b3 3100 	ldrh.w	r3, [r3, #256]	@ 0x100
			HAL_UART_Transmit_IT(&mod.huart, (uint8_t*) &outFrame,
 800e5da:	3304      	adds	r3, #4
 800e5dc:	b29b      	uxth	r3, r3
 800e5de:	461a      	mov	r2, r3
 800e5e0:	491f      	ldr	r1, [pc, #124]	@ (800e660 <MbSlave_Handle+0x128>)
 800e5e2:	481c      	ldr	r0, [pc, #112]	@ (800e654 <MbSlave_Handle+0x11c>)
 800e5e4:	f004 fe54 	bl	8013290 <HAL_UART_Transmit_IT>
 800e5e8:	e001      	b.n	800e5ee <MbSlave_Handle+0xb6>
		} else {
			/* Prepare for next reception */
			MbSlave_BusReset();
 800e5ea:	f000 f869 	bl	800e6c0 <MbSlave_BusReset>
		}
	}
	/* If apply was set and transmit state is ready, apply settings */
	if (conf.com.mb_apply != 0 && mod.huart.gState == HAL_UART_STATE_READY) {
 800e5ee:	4b1a      	ldr	r3, [pc, #104]	@ (800e658 <MbSlave_Handle+0x120>)
 800e5f0:	8fdb      	ldrh	r3, [r3, #62]	@ 0x3e
 800e5f2:	2b00      	cmp	r3, #0
 800e5f4:	d00a      	beq.n	800e60c <MbSlave_Handle+0xd4>
 800e5f6:	4b17      	ldr	r3, [pc, #92]	@ (800e654 <MbSlave_Handle+0x11c>)
 800e5f8:	f893 3041 	ldrb.w	r3, [r3, #65]	@ 0x41
 800e5fc:	b2db      	uxtb	r3, r3
 800e5fe:	2b20      	cmp	r3, #32
 800e600:	d104      	bne.n	800e60c <MbSlave_Handle+0xd4>
		conf.com.mb_apply = 0;
 800e602:	4b15      	ldr	r3, [pc, #84]	@ (800e658 <MbSlave_Handle+0x120>)
 800e604:	2200      	movs	r2, #0
 800e606:	87da      	strh	r2, [r3, #62]	@ 0x3e
		MbSlave_SettingsChanged();
 800e608:	f7ff fece 	bl	800e3a8 <MbSlave_SettingsChanged>
	}
	/* Timeout management */
	if (conf.com.mb_timeout != 0) {
 800e60c:	4b12      	ldr	r3, [pc, #72]	@ (800e658 <MbSlave_Handle+0x120>)
 800e60e:	f8b3 3040 	ldrh.w	r3, [r3, #64]	@ 0x40
 800e612:	2b00      	cmp	r3, #0
 800e614:	d010      	beq.n	800e638 <MbSlave_Handle+0x100>
		/* Tick expired */
		if (TICK_EXPIRED(mod.tick)) {
 800e616:	f001 fac5 	bl	800fba4 <HAL_GetTick>
 800e61a:	4602      	mov	r2, r0
 800e61c:	4b0d      	ldr	r3, [pc, #52]	@ (800e654 <MbSlave_Handle+0x11c>)
 800e61e:	f8d3 3094 	ldr.w	r3, [r3, #148]	@ 0x94
 800e622:	1ad3      	subs	r3, r2, r3
 800e624:	f06f 4200 	mvn.w	r2, #2147483648	@ 0x80000000
 800e628:	4293      	cmp	r3, r2
 800e62a:	d205      	bcs.n	800e638 <MbSlave_Handle+0x100>
		SET_BIT(conf.sys.status, STAT_BIT_MB_TIMEOUT);
 800e62c:	4b0a      	ldr	r3, [pc, #40]	@ (800e658 <MbSlave_Handle+0x120>)
 800e62e:	689b      	ldr	r3, [r3, #8]
 800e630:	f043 0308 	orr.w	r3, r3, #8
 800e634:	4a08      	ldr	r2, [pc, #32]	@ (800e658 <MbSlave_Handle+0x120>)
 800e636:	6093      	str	r3, [r2, #8]
		}
	}

#ifdef MODBUS_UPGRADE
	if (mod.huart.gState == HAL_UART_STATE_READY) {
 800e638:	4b06      	ldr	r3, [pc, #24]	@ (800e654 <MbSlave_Handle+0x11c>)
 800e63a:	f893 3041 	ldrb.w	r3, [r3, #65]	@ 0x41
 800e63e:	b2db      	uxtb	r3, r3
 800e640:	2b20      	cmp	r3, #32
 800e642:	d101      	bne.n	800e648 <MbSlave_Handle+0x110>
		MbUpgr_Handle();
 800e644:	f7ff fd26 	bl	800e094 <MbUpgr_Handle>
	}
#endif

	return ret;
 800e648:	f9b7 3006 	ldrsh.w	r3, [r7, #6]
}
 800e64c:	4618      	mov	r0, r3
 800e64e:	3708      	adds	r7, #8
 800e650:	46bd      	mov	sp, r7
 800e652:	bd80      	pop	{r7, pc}
 800e654:	20000664 	.word	0x20000664
 800e658:	20000560 	.word	0x20000560
 800e65c:	200006fc 	.word	0x200006fc
 800e660:	20000800 	.word	0x20000800

0800e664 <MbSlave_UpdateSlaveAddress>:
	if (huart->Instance == MODBUS_UART_INSTANCE) {
		MbSlave_BusReset();
	}
}

Status_t MbSlave_UpdateSlaveAddress(void) {
 800e664:	b480      	push	{r7}
 800e666:	b083      	sub	sp, #12
 800e668:	af00      	add	r7, sp, #0
	Status_t ret = STATUS_OK;
 800e66a:	2300      	movs	r3, #0
 800e66c:	80fb      	strh	r3, [r7, #6]

	mod.myAddress = conf.com.mb_address;
 800e66e:	4b12      	ldr	r3, [pc, #72]	@ (800e6b8 <MbSlave_UpdateSlaveAddress+0x54>)
 800e670:	8f9b      	ldrh	r3, [r3, #60]	@ 0x3c
 800e672:	b2da      	uxtb	r2, r3
 800e674:	4b11      	ldr	r3, [pc, #68]	@ (800e6bc <MbSlave_UpdateSlaveAddress+0x58>)
 800e676:	f883 2091 	strb.w	r2, [r3, #145]	@ 0x91
	SAT_DOWN(mod.myAddress, MODBUS_MIN_SLAVE_ADDR);
 800e67a:	4b10      	ldr	r3, [pc, #64]	@ (800e6bc <MbSlave_UpdateSlaveAddress+0x58>)
 800e67c:	f893 3091 	ldrb.w	r3, [r3, #145]	@ 0x91
 800e680:	2b00      	cmp	r3, #0
 800e682:	d003      	beq.n	800e68c <MbSlave_UpdateSlaveAddress+0x28>
 800e684:	4b0d      	ldr	r3, [pc, #52]	@ (800e6bc <MbSlave_UpdateSlaveAddress+0x58>)
 800e686:	f893 3091 	ldrb.w	r3, [r3, #145]	@ 0x91
 800e68a:	e000      	b.n	800e68e <MbSlave_UpdateSlaveAddress+0x2a>
 800e68c:	2301      	movs	r3, #1
 800e68e:	4a0b      	ldr	r2, [pc, #44]	@ (800e6bc <MbSlave_UpdateSlaveAddress+0x58>)
 800e690:	f882 3091 	strb.w	r3, [r2, #145]	@ 0x91
	SAT_UP(mod.myAddress, MODBUS_MAX_SLAVE_ADDR);
 800e694:	4b09      	ldr	r3, [pc, #36]	@ (800e6bc <MbSlave_UpdateSlaveAddress+0x58>)
 800e696:	f893 3091 	ldrb.w	r3, [r3, #145]	@ 0x91
 800e69a:	2bf7      	cmp	r3, #247	@ 0xf7
 800e69c:	bf28      	it	cs
 800e69e:	23f7      	movcs	r3, #247	@ 0xf7
 800e6a0:	b2da      	uxtb	r2, r3
 800e6a2:	4b06      	ldr	r3, [pc, #24]	@ (800e6bc <MbSlave_UpdateSlaveAddress+0x58>)
 800e6a4:	f883 2091 	strb.w	r2, [r3, #145]	@ 0x91

	return ret;
 800e6a8:	f9b7 3006 	ldrsh.w	r3, [r7, #6]
}
 800e6ac:	4618      	mov	r0, r3
 800e6ae:	370c      	adds	r7, #12
 800e6b0:	46bd      	mov	sp, r7
 800e6b2:	f85d 7b04 	ldr.w	r7, [sp], #4
 800e6b6:	4770      	bx	lr
 800e6b8:	20000560 	.word	0x20000560
 800e6bc:	20000664 	.word	0x20000664

0800e6c0 <MbSlave_BusReset>:

Status_t MbSlave_BusReset(void) {
 800e6c0:	b580      	push	{r7, lr}
 800e6c2:	b082      	sub	sp, #8
 800e6c4:	af00      	add	r7, sp, #0
	Status_t ret = STATUS_OK;
 800e6c6:	2300      	movs	r3, #0
 800e6c8:	80fb      	strh	r3, [r7, #6]
	volatile uint16_t outFram;

	/* Stop current transfer */
	HAL_UART_Abort_IT(&mod.huart);
 800e6ca:	480c      	ldr	r0, [pc, #48]	@ (800e6fc <MbSlave_BusReset+0x3c>)
 800e6cc:	f004 fe3c 	bl	8013348 <HAL_UART_Abort_IT>
	/* Read out data register for safety reasons */
	// zmna outFram = mod.huart.Instance->RDR;
	outFram = mod.huart.Instance->DR;
 800e6d0:	4b0a      	ldr	r3, [pc, #40]	@ (800e6fc <MbSlave_BusReset+0x3c>)
 800e6d2:	681b      	ldr	r3, [r3, #0]
 800e6d4:	685b      	ldr	r3, [r3, #4]
 800e6d6:	b29b      	uxth	r3, r3
 800e6d8:	80bb      	strh	r3, [r7, #4]

	UNUSED(outFram);
 800e6da:	88bb      	ldrh	r3, [r7, #4]

	/* wait for next packet */
	MbSlave_Rs485DirReceive();
 800e6dc:	f000 fae6 	bl	800ecac <MbSlave_Rs485DirReceive>
	ret = HAL_UART_Receive_IT(&mod.huart, (uint8_t*) &inFrame,
 800e6e0:	22fe      	movs	r2, #254	@ 0xfe
 800e6e2:	4907      	ldr	r1, [pc, #28]	@ (800e700 <MbSlave_BusReset+0x40>)
 800e6e4:	4805      	ldr	r0, [pc, #20]	@ (800e6fc <MbSlave_BusReset+0x3c>)
 800e6e6:	f004 fe09 	bl	80132fc <HAL_UART_Receive_IT>
 800e6ea:	4603      	mov	r3, r0
 800e6ec:	80fb      	strh	r3, [r7, #6]
	MODBUS_HEADER_LENGTH + MODBUS_DATA_LENGTH);

	return ret;
 800e6ee:	f9b7 3006 	ldrsh.w	r3, [r7, #6]
}
 800e6f2:	4618      	mov	r0, r3
 800e6f4:	3708      	adds	r7, #8
 800e6f6:	46bd      	mov	sp, r7
 800e6f8:	bd80      	pop	{r7, pc}
 800e6fa:	bf00      	nop
 800e6fc:	20000664 	.word	0x20000664
 800e700:	200006fc 	.word	0x200006fc

0800e704 <USART1_IRQHandler>:

void MODBUS_UART_IRQ_HANDLER(void) {
 800e704:	b580      	push	{r7, lr}
 800e706:	af00      	add	r7, sp, #0
	/* If we received byte, restart receive timer */
	if (((mod.huart.Instance->SR & USART_SR_RXNE) != RESET)
 800e708:	4b0f      	ldr	r3, [pc, #60]	@ (800e748 <USART1_IRQHandler+0x44>)
 800e70a:	681b      	ldr	r3, [r3, #0]
 800e70c:	681b      	ldr	r3, [r3, #0]
 800e70e:	f003 0320 	and.w	r3, r3, #32
 800e712:	2b00      	cmp	r3, #0
 800e714:	d012      	beq.n	800e73c <USART1_IRQHandler+0x38>
			&& ((mod.huart.Instance->CR1 & USART_CR1_RXNEIE) != RESET)) {
 800e716:	4b0c      	ldr	r3, [pc, #48]	@ (800e748 <USART1_IRQHandler+0x44>)
 800e718:	681b      	ldr	r3, [r3, #0]
 800e71a:	68db      	ldr	r3, [r3, #12]
 800e71c:	f003 0320 	and.w	r3, r3, #32
 800e720:	2b00      	cmp	r3, #0
 800e722:	d00b      	beq.n	800e73c <USART1_IRQHandler+0x38>
		/* clear timer */
		mod.htim.Instance->CNT = 0;
 800e724:	4b08      	ldr	r3, [pc, #32]	@ (800e748 <USART1_IRQHandler+0x44>)
 800e726:	6c9b      	ldr	r3, [r3, #72]	@ 0x48
 800e728:	2200      	movs	r2, #0
 800e72a:	625a      	str	r2, [r3, #36]	@ 0x24
		__HAL_TIM_CLEAR_IT(&mod.htim, TIM_IT_UPDATE);
 800e72c:	4b06      	ldr	r3, [pc, #24]	@ (800e748 <USART1_IRQHandler+0x44>)
 800e72e:	6c9b      	ldr	r3, [r3, #72]	@ 0x48
 800e730:	f06f 0201 	mvn.w	r2, #1
 800e734:	611a      	str	r2, [r3, #16]
		/* start timer */
		HAL_TIM_Base_Start_IT(&mod.htim);
 800e736:	4805      	ldr	r0, [pc, #20]	@ (800e74c <USART1_IRQHandler+0x48>)
 800e738:	f004 f90c 	bl	8012954 <HAL_TIM_Base_Start_IT>
	}
	HAL_UART_IRQHandler(&mod.huart);
 800e73c:	4802      	ldr	r0, [pc, #8]	@ (800e748 <USART1_IRQHandler+0x44>)
 800e73e:	f004 ffc9 	bl	80136d4 <HAL_UART_IRQHandler>
}
 800e742:	bf00      	nop
 800e744:	bd80      	pop	{r7, pc}
 800e746:	bf00      	nop
 800e748:	20000664 	.word	0x20000664
 800e74c:	200006ac 	.word	0x200006ac

0800e750 <TIM3_IRQHandler>:

void MODBUS_TIM_IRQ_HANDLER(void) {
 800e750:	b580      	push	{r7, lr}
 800e752:	af00      	add	r7, sp, #0
	if (__HAL_TIM_GET_FLAG(&mod.htim, TIM_FLAG_UPDATE) != RESET) {
 800e754:	4b10      	ldr	r3, [pc, #64]	@ (800e798 <TIM3_IRQHandler+0x48>)
 800e756:	6c9b      	ldr	r3, [r3, #72]	@ 0x48
 800e758:	691b      	ldr	r3, [r3, #16]
 800e75a:	f003 0301 	and.w	r3, r3, #1
 800e75e:	2b01      	cmp	r3, #1
 800e760:	d117      	bne.n	800e792 <TIM3_IRQHandler+0x42>
		if (__HAL_TIM_GET_IT_SOURCE(&mod.htim, TIM_IT_UPDATE) != RESET) {
 800e762:	4b0d      	ldr	r3, [pc, #52]	@ (800e798 <TIM3_IRQHandler+0x48>)
 800e764:	6c9b      	ldr	r3, [r3, #72]	@ 0x48
 800e766:	68db      	ldr	r3, [r3, #12]
 800e768:	f003 0301 	and.w	r3, r3, #1
 800e76c:	2b01      	cmp	r3, #1
 800e76e:	d110      	bne.n	800e792 <TIM3_IRQHandler+0x42>
			/* Update event */
			__HAL_TIM_CLEAR_IT(&mod.htim, TIM_IT_UPDATE);
 800e770:	4b09      	ldr	r3, [pc, #36]	@ (800e798 <TIM3_IRQHandler+0x48>)
 800e772:	6c9b      	ldr	r3, [r3, #72]	@ 0x48
 800e774:	f06f 0201 	mvn.w	r2, #1
 800e778:	611a      	str	r2, [r3, #16]
			/* Stop timer */
			HAL_TIM_Base_Stop_IT(&mod.htim);
 800e77a:	4808      	ldr	r0, [pc, #32]	@ (800e79c <TIM3_IRQHandler+0x4c>)
 800e77c:	f004 f95a 	bl	8012a34 <HAL_TIM_Base_Stop_IT>
			/* Check the frame that we need to process it */
			MbSlave_CheckFrame();
 800e780:	f000 f80e 	bl	800e7a0 <MbSlave_CheckFrame>
			if (mod.frameOk == 1) {
 800e784:	4b04      	ldr	r3, [pc, #16]	@ (800e798 <TIM3_IRQHandler+0x48>)
 800e786:	f893 3090 	ldrb.w	r3, [r3, #144]	@ 0x90
 800e78a:	2b01      	cmp	r3, #1
 800e78c:	d001      	beq.n	800e792 <TIM3_IRQHandler+0x42>
				/* Notify the waiting task */
			} else {
				MbSlave_BusReset();
 800e78e:	f7ff ff97 	bl	800e6c0 <MbSlave_BusReset>
			}
		}
	}
}
 800e792:	bf00      	nop
 800e794:	bd80      	pop	{r7, pc}
 800e796:	bf00      	nop
 800e798:	20000664 	.word	0x20000664
 800e79c:	200006ac 	.word	0x200006ac

0800e7a0 <MbSlave_CheckFrame>:

static Status_t MbSlave_CheckFrame(void) {
 800e7a0:	b580      	push	{r7, lr}
 800e7a2:	b082      	sub	sp, #8
 800e7a4:	af00      	add	r7, sp, #0
	Status_t ret = STATUS_OK;
 800e7a6:	2300      	movs	r3, #0
 800e7a8:	80bb      	strh	r3, [r7, #4]
	uint8_t command;
	uint8_t supported = 0;
 800e7aa:	2300      	movs	r3, #0
 800e7ac:	71fb      	strb	r3, [r7, #7]

	/* Check address */
	if (inFrame.slaveAddr
 800e7ae:	4b4f      	ldr	r3, [pc, #316]	@ (800e8ec <MbSlave_CheckFrame+0x14c>)
 800e7b0:	781a      	ldrb	r2, [r3, #0]
			== mod.myAddress|| inFrame.slaveAddr == MODBUS_BROADCAST) {
 800e7b2:	4b4f      	ldr	r3, [pc, #316]	@ (800e8f0 <MbSlave_CheckFrame+0x150>)
 800e7b4:	f893 3091 	ldrb.w	r3, [r3, #145]	@ 0x91
	if (inFrame.slaveAddr
 800e7b8:	429a      	cmp	r2, r3
 800e7ba:	d004      	beq.n	800e7c6 <MbSlave_CheckFrame+0x26>
			== mod.myAddress|| inFrame.slaveAddr == MODBUS_BROADCAST) {
 800e7bc:	4b4b      	ldr	r3, [pc, #300]	@ (800e8ec <MbSlave_CheckFrame+0x14c>)
 800e7be:	781b      	ldrb	r3, [r3, #0]
 800e7c0:	2b00      	cmp	r3, #0
 800e7c2:	f040 808d 	bne.w	800e8e0 <MbSlave_CheckFrame+0x140>
		command = inFrame.funcCode;
 800e7c6:	4b49      	ldr	r3, [pc, #292]	@ (800e8ec <MbSlave_CheckFrame+0x14c>)
 800e7c8:	785b      	ldrb	r3, [r3, #1]
 800e7ca:	70fb      	strb	r3, [r7, #3]
		/* Calculate size of data and check supported operation codes */
		if (command >= MB_READ_COILS && command <= MB_WRITE_SINGLE_REG) {
 800e7cc:	78fb      	ldrb	r3, [r7, #3]
 800e7ce:	2b00      	cmp	r3, #0
 800e7d0:	d009      	beq.n	800e7e6 <MbSlave_CheckFrame+0x46>
 800e7d2:	78fb      	ldrb	r3, [r7, #3]
 800e7d4:	2b06      	cmp	r3, #6
 800e7d6:	d806      	bhi.n	800e7e6 <MbSlave_CheckFrame+0x46>
			inFrame.size = 0;
 800e7d8:	4b44      	ldr	r3, [pc, #272]	@ (800e8ec <MbSlave_CheckFrame+0x14c>)
 800e7da:	2200      	movs	r2, #0
 800e7dc:	f8a3 2100 	strh.w	r2, [r3, #256]	@ 0x100
			supported = 1;
 800e7e0:	2301      	movs	r3, #1
 800e7e2:	71fb      	strb	r3, [r7, #7]
 800e7e4:	e04d      	b.n	800e882 <MbSlave_CheckFrame+0xe2>
		} else if (command == MB_WRITE_MULTIPLE_REGS
 800e7e6:	78fb      	ldrb	r3, [r7, #3]
 800e7e8:	2b10      	cmp	r3, #16
 800e7ea:	d002      	beq.n	800e7f2 <MbSlave_CheckFrame+0x52>
				|| command == MB_WRITE_MULTIPLE_COILS) {
 800e7ec:	78fb      	ldrb	r3, [r7, #3]
 800e7ee:	2b0f      	cmp	r3, #15
 800e7f0:	d147      	bne.n	800e882 <MbSlave_CheckFrame+0xe2>
			inFrame.size = inFrame.data[2];
 800e7f2:	4b3e      	ldr	r3, [pc, #248]	@ (800e8ec <MbSlave_CheckFrame+0x14c>)
 800e7f4:	791b      	ldrb	r3, [r3, #4]
 800e7f6:	461a      	mov	r2, r3
 800e7f8:	4b3c      	ldr	r3, [pc, #240]	@ (800e8ec <MbSlave_CheckFrame+0x14c>)
 800e7fa:	f8a3 2100 	strh.w	r2, [r3, #256]	@ 0x100
			inFrame.size <<= 8;
 800e7fe:	4b3b      	ldr	r3, [pc, #236]	@ (800e8ec <MbSlave_CheckFrame+0x14c>)
 800e800:	f8b3 3100 	ldrh.w	r3, [r3, #256]	@ 0x100
 800e804:	021b      	lsls	r3, r3, #8
 800e806:	b29a      	uxth	r2, r3
 800e808:	4b38      	ldr	r3, [pc, #224]	@ (800e8ec <MbSlave_CheckFrame+0x14c>)
 800e80a:	f8a3 2100 	strh.w	r2, [r3, #256]	@ 0x100
			inFrame.size |= inFrame.data[3];
 800e80e:	4b37      	ldr	r3, [pc, #220]	@ (800e8ec <MbSlave_CheckFrame+0x14c>)
 800e810:	f8b3 3100 	ldrh.w	r3, [r3, #256]	@ 0x100
 800e814:	4a35      	ldr	r2, [pc, #212]	@ (800e8ec <MbSlave_CheckFrame+0x14c>)
 800e816:	7952      	ldrb	r2, [r2, #5]
 800e818:	4313      	orrs	r3, r2
 800e81a:	b29a      	uxth	r2, r3
 800e81c:	4b33      	ldr	r3, [pc, #204]	@ (800e8ec <MbSlave_CheckFrame+0x14c>)
 800e81e:	f8a3 2100 	strh.w	r2, [r3, #256]	@ 0x100

			if (command == MB_WRITE_MULTIPLE_COILS) {
 800e822:	78fb      	ldrb	r3, [r7, #3]
 800e824:	2b0f      	cmp	r3, #15
 800e826:	d11d      	bne.n	800e864 <MbSlave_CheckFrame+0xc4>
				if (inFrame.size % 8) {
 800e828:	4b30      	ldr	r3, [pc, #192]	@ (800e8ec <MbSlave_CheckFrame+0x14c>)
 800e82a:	f8b3 3100 	ldrh.w	r3, [r3, #256]	@ 0x100
 800e82e:	f003 0307 	and.w	r3, r3, #7
 800e832:	b29b      	uxth	r3, r3
 800e834:	2b00      	cmp	r3, #0
 800e836:	d00a      	beq.n	800e84e <MbSlave_CheckFrame+0xae>
					inFrame.size = (inFrame.size / 8) + 2; /* 1 extra byte is for unaligned data, 1 byte for size */
 800e838:	4b2c      	ldr	r3, [pc, #176]	@ (800e8ec <MbSlave_CheckFrame+0x14c>)
 800e83a:	f8b3 3100 	ldrh.w	r3, [r3, #256]	@ 0x100
 800e83e:	08db      	lsrs	r3, r3, #3
 800e840:	b29b      	uxth	r3, r3
 800e842:	3302      	adds	r3, #2
 800e844:	b29a      	uxth	r2, r3
 800e846:	4b29      	ldr	r3, [pc, #164]	@ (800e8ec <MbSlave_CheckFrame+0x14c>)
 800e848:	f8a3 2100 	strh.w	r2, [r3, #256]	@ 0x100
 800e84c:	e017      	b.n	800e87e <MbSlave_CheckFrame+0xde>
				} else {
					inFrame.size = (inFrame.size / 8) + 1; /* 1 byte for size */
 800e84e:	4b27      	ldr	r3, [pc, #156]	@ (800e8ec <MbSlave_CheckFrame+0x14c>)
 800e850:	f8b3 3100 	ldrh.w	r3, [r3, #256]	@ 0x100
 800e854:	08db      	lsrs	r3, r3, #3
 800e856:	b29b      	uxth	r3, r3
 800e858:	3301      	adds	r3, #1
 800e85a:	b29a      	uxth	r2, r3
 800e85c:	4b23      	ldr	r3, [pc, #140]	@ (800e8ec <MbSlave_CheckFrame+0x14c>)
 800e85e:	f8a3 2100 	strh.w	r2, [r3, #256]	@ 0x100
 800e862:	e00c      	b.n	800e87e <MbSlave_CheckFrame+0xde>
				}
			} else if (command == MB_WRITE_MULTIPLE_REGS) {
 800e864:	78fb      	ldrb	r3, [r7, #3]
 800e866:	2b10      	cmp	r3, #16
 800e868:	d109      	bne.n	800e87e <MbSlave_CheckFrame+0xde>
				inFrame.size = (inFrame.size * 2) + 1; /* registers are 16b, 1 byte for size */
 800e86a:	4b20      	ldr	r3, [pc, #128]	@ (800e8ec <MbSlave_CheckFrame+0x14c>)
 800e86c:	f8b3 3100 	ldrh.w	r3, [r3, #256]	@ 0x100
 800e870:	005b      	lsls	r3, r3, #1
 800e872:	b29b      	uxth	r3, r3
 800e874:	3301      	adds	r3, #1
 800e876:	b29a      	uxth	r2, r3
 800e878:	4b1c      	ldr	r3, [pc, #112]	@ (800e8ec <MbSlave_CheckFrame+0x14c>)
 800e87a:	f8a3 2100 	strh.w	r2, [r3, #256]	@ 0x100
			}
			supported = 1;
 800e87e:	2301      	movs	r3, #1
 800e880:	71fb      	strb	r3, [r7, #7]
		}

		/* Add header of command to size variable */
		inFrame.size += MODBUS_MIN_PAYLOAD_LENGTH;
 800e882:	4b1a      	ldr	r3, [pc, #104]	@ (800e8ec <MbSlave_CheckFrame+0x14c>)
 800e884:	f8b3 3100 	ldrh.w	r3, [r3, #256]	@ 0x100
 800e888:	3304      	adds	r3, #4
 800e88a:	b29a      	uxth	r2, r3
 800e88c:	4b17      	ldr	r3, [pc, #92]	@ (800e8ec <MbSlave_CheckFrame+0x14c>)
 800e88e:	f8a3 2100 	strh.w	r2, [r3, #256]	@ 0x100
		/* Check maximal length of modbus frame */
		if (inFrame.size < MODBUS_DATA_LENGTH - 2) // CRC must fit into received data
 800e892:	4b16      	ldr	r3, [pc, #88]	@ (800e8ec <MbSlave_CheckFrame+0x14c>)
 800e894:	f8b3 3100 	ldrh.w	r3, [r3, #256]	@ 0x100
 800e898:	2bf9      	cmp	r3, #249	@ 0xf9
 800e89a:	d821      	bhi.n	800e8e0 <MbSlave_CheckFrame+0x140>
				{
			/* compute CRC16 from received packet */
			MbSlave_CRC16(&inFrame);
 800e89c:	4813      	ldr	r0, [pc, #76]	@ (800e8ec <MbSlave_CheckFrame+0x14c>)
 800e89e:	f000 f98b 	bl	800ebb8 <MbSlave_CRC16>
			/* we have original CRC16 in received data */
			if (inFrame.crc[0] == inFrame.data[inFrame.size]
 800e8a2:	4b12      	ldr	r3, [pc, #72]	@ (800e8ec <MbSlave_CheckFrame+0x14c>)
 800e8a4:	f893 20fe 	ldrb.w	r2, [r3, #254]	@ 0xfe
 800e8a8:	4b10      	ldr	r3, [pc, #64]	@ (800e8ec <MbSlave_CheckFrame+0x14c>)
 800e8aa:	f8b3 3100 	ldrh.w	r3, [r3, #256]	@ 0x100
 800e8ae:	4619      	mov	r1, r3
 800e8b0:	4b0e      	ldr	r3, [pc, #56]	@ (800e8ec <MbSlave_CheckFrame+0x14c>)
 800e8b2:	440b      	add	r3, r1
 800e8b4:	789b      	ldrb	r3, [r3, #2]
 800e8b6:	429a      	cmp	r2, r3
 800e8b8:	d112      	bne.n	800e8e0 <MbSlave_CheckFrame+0x140>
					&& inFrame.crc[1] == inFrame.data[inFrame.size + 1]
 800e8ba:	4b0c      	ldr	r3, [pc, #48]	@ (800e8ec <MbSlave_CheckFrame+0x14c>)
 800e8bc:	f893 20ff 	ldrb.w	r2, [r3, #255]	@ 0xff
 800e8c0:	4b0a      	ldr	r3, [pc, #40]	@ (800e8ec <MbSlave_CheckFrame+0x14c>)
 800e8c2:	f8b3 3100 	ldrh.w	r3, [r3, #256]	@ 0x100
 800e8c6:	3301      	adds	r3, #1
 800e8c8:	4908      	ldr	r1, [pc, #32]	@ (800e8ec <MbSlave_CheckFrame+0x14c>)
 800e8ca:	440b      	add	r3, r1
 800e8cc:	789b      	ldrb	r3, [r3, #2]
 800e8ce:	429a      	cmp	r2, r3
 800e8d0:	d106      	bne.n	800e8e0 <MbSlave_CheckFrame+0x140>
					&& supported) {
 800e8d2:	79fb      	ldrb	r3, [r7, #7]
 800e8d4:	2b00      	cmp	r3, #0
 800e8d6:	d003      	beq.n	800e8e0 <MbSlave_CheckFrame+0x140>
				/* move to next step */
				mod.frameOk = 1;
 800e8d8:	4b05      	ldr	r3, [pc, #20]	@ (800e8f0 <MbSlave_CheckFrame+0x150>)
 800e8da:	2201      	movs	r2, #1
 800e8dc:	f883 2090 	strb.w	r2, [r3, #144]	@ 0x90
			}
		}
	}

	return ret;
 800e8e0:	f9b7 3004 	ldrsh.w	r3, [r7, #4]
}
 800e8e4:	4618      	mov	r0, r3
 800e8e6:	3708      	adds	r7, #8
 800e8e8:	46bd      	mov	sp, r7
 800e8ea:	bd80      	pop	{r7, pc}
 800e8ec:	200006fc 	.word	0x200006fc
 800e8f0:	20000664 	.word	0x20000664

0800e8f4 <MbSlave_ProcessFrame>:

static Status_t MbSlave_ProcessFrame(void) {
 800e8f4:	b580      	push	{r7, lr}
 800e8f6:	b088      	sub	sp, #32
 800e8f8:	af00      	add	r7, sp, #0
	Status_t ret = STATUS_OK;
 800e8fa:	2300      	movs	r3, #0
 800e8fc:	82fb      	strh	r3, [r7, #22]
	uint32_t i;
	uint16_t addr;
	uint16_t count;
	uint16_t size;
	uint16_t offset = 0;
 800e8fe:	2300      	movs	r3, #0
 800e900:	833b      	strh	r3, [r7, #24]
	uint16_t val;

	/* prepare address for outframe */
	outFrame.funcCode = inFrame.funcCode;
 800e902:	4b85      	ldr	r3, [pc, #532]	@ (800eb18 <MbSlave_ProcessFrame+0x224>)
 800e904:	785a      	ldrb	r2, [r3, #1]
 800e906:	4b85      	ldr	r3, [pc, #532]	@ (800eb1c <MbSlave_ProcessFrame+0x228>)
 800e908:	705a      	strb	r2, [r3, #1]
	/* default size for error */
	outFrame.size = 1;
 800e90a:	4b84      	ldr	r3, [pc, #528]	@ (800eb1c <MbSlave_ProcessFrame+0x228>)
 800e90c:	2201      	movs	r2, #1
 800e90e:	f8a3 2100 	strh.w	r2, [r3, #256]	@ 0x100
	/* parse start address and count */
	addr = inFrame.data[0];
 800e912:	4b81      	ldr	r3, [pc, #516]	@ (800eb18 <MbSlave_ProcessFrame+0x224>)
 800e914:	789b      	ldrb	r3, [r3, #2]
 800e916:	82bb      	strh	r3, [r7, #20]
	addr <<= 8;
 800e918:	8abb      	ldrh	r3, [r7, #20]
 800e91a:	021b      	lsls	r3, r3, #8
 800e91c:	82bb      	strh	r3, [r7, #20]
	addr |= inFrame.data[1];
 800e91e:	4b7e      	ldr	r3, [pc, #504]	@ (800eb18 <MbSlave_ProcessFrame+0x224>)
 800e920:	78db      	ldrb	r3, [r3, #3]
 800e922:	461a      	mov	r2, r3
 800e924:	8abb      	ldrh	r3, [r7, #20]
 800e926:	4313      	orrs	r3, r2
 800e928:	82bb      	strh	r3, [r7, #20]
	count = inFrame.data[2];
 800e92a:	4b7b      	ldr	r3, [pc, #492]	@ (800eb18 <MbSlave_ProcessFrame+0x224>)
 800e92c:	791b      	ldrb	r3, [r3, #4]
 800e92e:	827b      	strh	r3, [r7, #18]
	count <<= 8;
 800e930:	8a7b      	ldrh	r3, [r7, #18]
 800e932:	021b      	lsls	r3, r3, #8
 800e934:	827b      	strh	r3, [r7, #18]
	count |= inFrame.data[3];
 800e936:	4b78      	ldr	r3, [pc, #480]	@ (800eb18 <MbSlave_ProcessFrame+0x224>)
 800e938:	795b      	ldrb	r3, [r3, #5]
 800e93a:	461a      	mov	r2, r3
 800e93c:	8a7b      	ldrh	r3, [r7, #18]
 800e93e:	4313      	orrs	r3, r2
 800e940:	827b      	strh	r3, [r7, #18]

	switch (inFrame.funcCode) {
 800e942:	4b75      	ldr	r3, [pc, #468]	@ (800eb18 <MbSlave_ProcessFrame+0x224>)
 800e944:	785b      	ldrb	r3, [r3, #1]
 800e946:	2b10      	cmp	r3, #16
 800e948:	d010      	beq.n	800e96c <MbSlave_ProcessFrame+0x78>
 800e94a:	2b10      	cmp	r3, #16
 800e94c:	dc13      	bgt.n	800e976 <MbSlave_ProcessFrame+0x82>
 800e94e:	2b03      	cmp	r3, #3
 800e950:	d002      	beq.n	800e958 <MbSlave_ProcessFrame+0x64>
 800e952:	2b04      	cmp	r3, #4
 800e954:	d005      	beq.n	800e962 <MbSlave_ProcessFrame+0x6e>
 800e956:	e00e      	b.n	800e976 <MbSlave_ProcessFrame+0x82>
	case MB_READ_HOLDING_REGS:
		offset = MODBUS_OFFSET_HOLDING;
 800e958:	2300      	movs	r3, #0
 800e95a:	833b      	strh	r3, [r7, #24]
		size = MB_HOLD_LAST;
 800e95c:	2365      	movs	r3, #101	@ 0x65
 800e95e:	837b      	strh	r3, [r7, #26]
		break;
 800e960:	e015      	b.n	800e98e <MbSlave_ProcessFrame+0x9a>
	case MB_READ_INPUT_REGS:
		offset = MODBUS_OFFSET_INPUT;
 800e962:	2300      	movs	r3, #0
 800e964:	833b      	strh	r3, [r7, #24]
		size = MB_INPUT_LAST;
 800e966:	2318      	movs	r3, #24
 800e968:	837b      	strh	r3, [r7, #26]
		break;
 800e96a:	e010      	b.n	800e98e <MbSlave_ProcessFrame+0x9a>
	case MB_WRITE_MULTIPLE_REGS:
		offset = MODBUS_OFFSET_HOLDING;
 800e96c:	2300      	movs	r3, #0
 800e96e:	833b      	strh	r3, [r7, #24]
		size = MB_HOLD_LAST;
 800e970:	2365      	movs	r3, #101	@ 0x65
 800e972:	837b      	strh	r3, [r7, #26]
		break;
 800e974:	e00b      	b.n	800e98e <MbSlave_ProcessFrame+0x9a>
	default:
		/* prepare exception */
		size = 0;
 800e976:	2300      	movs	r3, #0
 800e978:	837b      	strh	r3, [r7, #26]
		outFrame.funcCode = inFrame.funcCode + MODBUS_EXCEPTION_MASK;
 800e97a:	4b67      	ldr	r3, [pc, #412]	@ (800eb18 <MbSlave_ProcessFrame+0x224>)
 800e97c:	785b      	ldrb	r3, [r3, #1]
 800e97e:	3b80      	subs	r3, #128	@ 0x80
 800e980:	b2da      	uxtb	r2, r3
 800e982:	4b66      	ldr	r3, [pc, #408]	@ (800eb1c <MbSlave_ProcessFrame+0x228>)
 800e984:	705a      	strb	r2, [r3, #1]
		outFrame.data[0] = MODBUS_EXCEPT_INVALID_COMMAND; /* invalid function code */
 800e986:	4b65      	ldr	r3, [pc, #404]	@ (800eb1c <MbSlave_ProcessFrame+0x228>)
 800e988:	2201      	movs	r2, #1
 800e98a:	709a      	strb	r2, [r3, #2]
		break;
 800e98c:	bf00      	nop
	}

	/* some value checking */
	if (outFrame.funcCode < MODBUS_EXCEPTION_MASK
 800e98e:	4b63      	ldr	r3, [pc, #396]	@ (800eb1c <MbSlave_ProcessFrame+0x228>)
 800e990:	785b      	ldrb	r3, [r3, #1]
 800e992:	b25b      	sxtb	r3, r3
 800e994:	2b00      	cmp	r3, #0
 800e996:	db0e      	blt.n	800e9b6 <MbSlave_ProcessFrame+0xc2>
			&& (count < 1 || count > 0x7b)) {
 800e998:	8a7b      	ldrh	r3, [r7, #18]
 800e99a:	2b00      	cmp	r3, #0
 800e99c:	d002      	beq.n	800e9a4 <MbSlave_ProcessFrame+0xb0>
 800e99e:	8a7b      	ldrh	r3, [r7, #18]
 800e9a0:	2b7b      	cmp	r3, #123	@ 0x7b
 800e9a2:	d908      	bls.n	800e9b6 <MbSlave_ProcessFrame+0xc2>
		outFrame.funcCode = inFrame.funcCode + MODBUS_EXCEPTION_MASK;
 800e9a4:	4b5c      	ldr	r3, [pc, #368]	@ (800eb18 <MbSlave_ProcessFrame+0x224>)
 800e9a6:	785b      	ldrb	r3, [r3, #1]
 800e9a8:	3b80      	subs	r3, #128	@ 0x80
 800e9aa:	b2da      	uxtb	r2, r3
 800e9ac:	4b5b      	ldr	r3, [pc, #364]	@ (800eb1c <MbSlave_ProcessFrame+0x228>)
 800e9ae:	705a      	strb	r2, [r3, #1]
		outFrame.data[0] = MODBUS_EXCEPT_INVALID_SIZE; /* invalid size/value */
 800e9b0:	4b5a      	ldr	r3, [pc, #360]	@ (800eb1c <MbSlave_ProcessFrame+0x228>)
 800e9b2:	2203      	movs	r2, #3
 800e9b4:	709a      	strb	r2, [r3, #2]
	}

	if (outFrame.funcCode < MODBUS_EXCEPTION_MASK
 800e9b6:	4b59      	ldr	r3, [pc, #356]	@ (800eb1c <MbSlave_ProcessFrame+0x228>)
 800e9b8:	785b      	ldrb	r3, [r3, #1]
 800e9ba:	b25b      	sxtb	r3, r3
 800e9bc:	2b00      	cmp	r3, #0
 800e9be:	db26      	blt.n	800ea0e <MbSlave_ProcessFrame+0x11a>
			&& (addr > (offset + size) || (addr) < offset
 800e9c0:	8aba      	ldrh	r2, [r7, #20]
 800e9c2:	8b39      	ldrh	r1, [r7, #24]
 800e9c4:	8b7b      	ldrh	r3, [r7, #26]
 800e9c6:	440b      	add	r3, r1
 800e9c8:	429a      	cmp	r2, r3
 800e9ca:	dc0c      	bgt.n	800e9e6 <MbSlave_ProcessFrame+0xf2>
 800e9cc:	8aba      	ldrh	r2, [r7, #20]
 800e9ce:	8b3b      	ldrh	r3, [r7, #24]
 800e9d0:	429a      	cmp	r2, r3
 800e9d2:	d308      	bcc.n	800e9e6 <MbSlave_ProcessFrame+0xf2>
					|| (addr + count) > (offset + size + 1))) {
 800e9d4:	8aba      	ldrh	r2, [r7, #20]
 800e9d6:	8a7b      	ldrh	r3, [r7, #18]
 800e9d8:	441a      	add	r2, r3
 800e9da:	8b39      	ldrh	r1, [r7, #24]
 800e9dc:	8b7b      	ldrh	r3, [r7, #26]
 800e9de:	440b      	add	r3, r1
 800e9e0:	3301      	adds	r3, #1
 800e9e2:	429a      	cmp	r2, r3
 800e9e4:	dd13      	ble.n	800ea0e <MbSlave_ProcessFrame+0x11a>
#ifdef MODBUS_UPGRADE
		if (addr < MB_UPGR_BASE_ADDRESS
 800e9e6:	8abb      	ldrh	r3, [r7, #20]
 800e9e8:	f5b3 7f7a 	cmp.w	r3, #1000	@ 0x3e8
 800e9ec:	d306      	bcc.n	800e9fc <MbSlave_ProcessFrame+0x108>
				|| addr + count > MB_UPGR_END_ADDRESS + 1)
 800e9ee:	8aba      	ldrh	r2, [r7, #20]
 800e9f0:	8a7b      	ldrh	r3, [r7, #18]
 800e9f2:	4413      	add	r3, r2
 800e9f4:	f240 4212 	movw	r2, #1042	@ 0x412
 800e9f8:	4293      	cmp	r3, r2
 800e9fa:	dd08      	ble.n	800ea0e <MbSlave_ProcessFrame+0x11a>
#endif
						{
			outFrame.funcCode = inFrame.funcCode + MODBUS_EXCEPTION_MASK;
 800e9fc:	4b46      	ldr	r3, [pc, #280]	@ (800eb18 <MbSlave_ProcessFrame+0x224>)
 800e9fe:	785b      	ldrb	r3, [r3, #1]
 800ea00:	3b80      	subs	r3, #128	@ 0x80
 800ea02:	b2da      	uxtb	r2, r3
 800ea04:	4b45      	ldr	r3, [pc, #276]	@ (800eb1c <MbSlave_ProcessFrame+0x228>)
 800ea06:	705a      	strb	r2, [r3, #1]
			outFrame.data[0] = MODBUS_EXCEPT_INVALID_ADDRESS; /* invalid address */
 800ea08:	4b44      	ldr	r3, [pc, #272]	@ (800eb1c <MbSlave_ProcessFrame+0x228>)
 800ea0a:	2202      	movs	r2, #2
 800ea0c:	709a      	strb	r2, [r3, #2]
		}
	}

	/* it looks ok so far */
	if (outFrame.funcCode < MODBUS_EXCEPTION_MASK) {
 800ea0e:	4b43      	ldr	r3, [pc, #268]	@ (800eb1c <MbSlave_ProcessFrame+0x228>)
 800ea10:	785b      	ldrb	r3, [r3, #1]
 800ea12:	b25b      	sxtb	r3, r3
 800ea14:	2b00      	cmp	r3, #0
 800ea16:	f2c0 80c5 	blt.w	800eba4 <MbSlave_ProcessFrame+0x2b0>
		/* Subtract offset from address */
		addr -= offset;
 800ea1a:	8aba      	ldrh	r2, [r7, #20]
 800ea1c:	8b3b      	ldrh	r3, [r7, #24]
 800ea1e:	1ad3      	subs	r3, r2, r3
 800ea20:	82bb      	strh	r3, [r7, #20]

		/* do the register stuff */
		switch (inFrame.funcCode) {
 800ea22:	4b3d      	ldr	r3, [pc, #244]	@ (800eb18 <MbSlave_ProcessFrame+0x224>)
 800ea24:	785b      	ldrb	r3, [r3, #1]
 800ea26:	2b10      	cmp	r3, #16
 800ea28:	d064      	beq.n	800eaf4 <MbSlave_ProcessFrame+0x200>
 800ea2a:	2b10      	cmp	r3, #16
 800ea2c:	f300 80ba 	bgt.w	800eba4 <MbSlave_ProcessFrame+0x2b0>
 800ea30:	2b03      	cmp	r3, #3
 800ea32:	d002      	beq.n	800ea3a <MbSlave_ProcessFrame+0x146>
 800ea34:	2b04      	cmp	r3, #4
 800ea36:	d034      	beq.n	800eaa2 <MbSlave_ProcessFrame+0x1ae>
 800ea38:	e0b4      	b.n	800eba4 <MbSlave_ProcessFrame+0x2b0>
		case MB_READ_HOLDING_REGS:
			outFrame.data[0] = count * 2;
 800ea3a:	8a7b      	ldrh	r3, [r7, #18]
 800ea3c:	b2db      	uxtb	r3, r3
 800ea3e:	005b      	lsls	r3, r3, #1
 800ea40:	b2da      	uxtb	r2, r3
 800ea42:	4b36      	ldr	r3, [pc, #216]	@ (800eb1c <MbSlave_ProcessFrame+0x228>)
 800ea44:	709a      	strb	r2, [r3, #2]
			outFrame.size = outFrame.data[0] + 1;
 800ea46:	4b35      	ldr	r3, [pc, #212]	@ (800eb1c <MbSlave_ProcessFrame+0x228>)
 800ea48:	789b      	ldrb	r3, [r3, #2]
 800ea4a:	3301      	adds	r3, #1
 800ea4c:	b29a      	uxth	r2, r3
 800ea4e:	4b33      	ldr	r3, [pc, #204]	@ (800eb1c <MbSlave_ProcessFrame+0x228>)
 800ea50:	f8a3 2100 	strh.w	r2, [r3, #256]	@ 0x100
#ifdef MODBUS_UPGRADE
			if (addr >= MB_UPGR_BASE_ADDRESS) {
 800ea54:	8abb      	ldrh	r3, [r7, #20]
 800ea56:	f5b3 7f7a 	cmp.w	r3, #1000	@ 0x3e8
 800ea5a:	d306      	bcc.n	800ea6a <MbSlave_ProcessFrame+0x176>
				MbUpgr_ReadRegisters(addr, count, outFrame.data + 1);
 800ea5c:	4a30      	ldr	r2, [pc, #192]	@ (800eb20 <MbSlave_ProcessFrame+0x22c>)
 800ea5e:	8a79      	ldrh	r1, [r7, #18]
 800ea60:	8abb      	ldrh	r3, [r7, #20]
 800ea62:	4618      	mov	r0, r3
 800ea64:	f7ff fbd0 	bl	800e208 <MbUpgr_ReadRegisters>
				for (i = 0; i < count; i++) {
					MbRtu_ReadHoldingRegCallback(addr + i, &val);
					memcpy((outFrame.data + i * 2 + 1), &val, 2);
				}
			}
			break;
 800ea68:	e09c      	b.n	800eba4 <MbSlave_ProcessFrame+0x2b0>
				for (i = 0; i < count; i++) {
 800ea6a:	2300      	movs	r3, #0
 800ea6c:	61fb      	str	r3, [r7, #28]
 800ea6e:	e013      	b.n	800ea98 <MbSlave_ProcessFrame+0x1a4>
					MbRtu_ReadHoldingRegCallback(addr + i, &val);
 800ea70:	69fb      	ldr	r3, [r7, #28]
 800ea72:	b29a      	uxth	r2, r3
 800ea74:	8abb      	ldrh	r3, [r7, #20]
 800ea76:	4413      	add	r3, r2
 800ea78:	b29b      	uxth	r3, r3
 800ea7a:	1dba      	adds	r2, r7, #6
 800ea7c:	4611      	mov	r1, r2
 800ea7e:	4618      	mov	r0, r3
 800ea80:	f7ff f9be 	bl	800de00 <MbRtu_ReadHoldingRegCallback>
					memcpy((outFrame.data + i * 2 + 1), &val, 2);
 800ea84:	69fb      	ldr	r3, [r7, #28]
 800ea86:	005b      	lsls	r3, r3, #1
 800ea88:	3301      	adds	r3, #1
 800ea8a:	4a26      	ldr	r2, [pc, #152]	@ (800eb24 <MbSlave_ProcessFrame+0x230>)
 800ea8c:	4413      	add	r3, r2
 800ea8e:	88fa      	ldrh	r2, [r7, #6]
 800ea90:	801a      	strh	r2, [r3, #0]
				for (i = 0; i < count; i++) {
 800ea92:	69fb      	ldr	r3, [r7, #28]
 800ea94:	3301      	adds	r3, #1
 800ea96:	61fb      	str	r3, [r7, #28]
 800ea98:	8a7b      	ldrh	r3, [r7, #18]
 800ea9a:	69fa      	ldr	r2, [r7, #28]
 800ea9c:	429a      	cmp	r2, r3
 800ea9e:	d3e7      	bcc.n	800ea70 <MbSlave_ProcessFrame+0x17c>
			break;
 800eaa0:	e080      	b.n	800eba4 <MbSlave_ProcessFrame+0x2b0>

		case MB_READ_INPUT_REGS:
			outFrame.data[0] = count * 2;
 800eaa2:	8a7b      	ldrh	r3, [r7, #18]
 800eaa4:	b2db      	uxtb	r3, r3
 800eaa6:	005b      	lsls	r3, r3, #1
 800eaa8:	b2da      	uxtb	r2, r3
 800eaaa:	4b1c      	ldr	r3, [pc, #112]	@ (800eb1c <MbSlave_ProcessFrame+0x228>)
 800eaac:	709a      	strb	r2, [r3, #2]
			outFrame.size = outFrame.data[0] + 1;
 800eaae:	4b1b      	ldr	r3, [pc, #108]	@ (800eb1c <MbSlave_ProcessFrame+0x228>)
 800eab0:	789b      	ldrb	r3, [r3, #2]
 800eab2:	3301      	adds	r3, #1
 800eab4:	b29a      	uxth	r2, r3
 800eab6:	4b19      	ldr	r3, [pc, #100]	@ (800eb1c <MbSlave_ProcessFrame+0x228>)
 800eab8:	f8a3 2100 	strh.w	r2, [r3, #256]	@ 0x100
			for (i = 0; i < count; i++) {
 800eabc:	2300      	movs	r3, #0
 800eabe:	61fb      	str	r3, [r7, #28]
 800eac0:	e013      	b.n	800eaea <MbSlave_ProcessFrame+0x1f6>
				MbRtu_ReadInputRegCallback(addr + i, &val);
 800eac2:	69fb      	ldr	r3, [r7, #28]
 800eac4:	b29a      	uxth	r2, r3
 800eac6:	8abb      	ldrh	r3, [r7, #20]
 800eac8:	4413      	add	r3, r2
 800eaca:	b29b      	uxth	r3, r3
 800eacc:	1dba      	adds	r2, r7, #6
 800eace:	4611      	mov	r1, r2
 800ead0:	4618      	mov	r0, r3
 800ead2:	f7ff f8a1 	bl	800dc18 <MbRtu_ReadInputRegCallback>
				memcpy((outFrame.data + i * 2 + 1), &val, 2);
 800ead6:	69fb      	ldr	r3, [r7, #28]
 800ead8:	005b      	lsls	r3, r3, #1
 800eada:	3301      	adds	r3, #1
 800eadc:	4a11      	ldr	r2, [pc, #68]	@ (800eb24 <MbSlave_ProcessFrame+0x230>)
 800eade:	4413      	add	r3, r2
 800eae0:	88fa      	ldrh	r2, [r7, #6]
 800eae2:	801a      	strh	r2, [r3, #0]
			for (i = 0; i < count; i++) {
 800eae4:	69fb      	ldr	r3, [r7, #28]
 800eae6:	3301      	adds	r3, #1
 800eae8:	61fb      	str	r3, [r7, #28]
 800eaea:	8a7b      	ldrh	r3, [r7, #18]
 800eaec:	69fa      	ldr	r2, [r7, #28]
 800eaee:	429a      	cmp	r2, r3
 800eaf0:	d3e7      	bcc.n	800eac2 <MbSlave_ProcessFrame+0x1ce>
			}

			break;
 800eaf2:	e057      	b.n	800eba4 <MbSlave_ProcessFrame+0x2b0>

		case MB_WRITE_MULTIPLE_REGS:
			size = addr + count;
 800eaf4:	8aba      	ldrh	r2, [r7, #20]
 800eaf6:	8a7b      	ldrh	r3, [r7, #18]
 800eaf8:	4413      	add	r3, r2
 800eafa:	837b      	strh	r3, [r7, #26]
#ifdef MODBUS_UPGRADE
			if (addr >= MB_UPGR_BASE_ADDRESS) {
 800eafc:	8abb      	ldrh	r3, [r7, #20]
 800eafe:	f5b3 7f7a 	cmp.w	r3, #1000	@ 0x3e8
 800eb02:	d306      	bcc.n	800eb12 <MbSlave_ProcessFrame+0x21e>
				MbUpgr_WriteRegisters(addr, count, inFrame.data + 5);
 800eb04:	4a08      	ldr	r2, [pc, #32]	@ (800eb28 <MbSlave_ProcessFrame+0x234>)
 800eb06:	8a79      	ldrh	r1, [r7, #18]
 800eb08:	8abb      	ldrh	r3, [r7, #20]
 800eb0a:	4618      	mov	r0, r3
 800eb0c:	f7ff fb36 	bl	800e17c <MbUpgr_WriteRegisters>
 800eb10:	e02b      	b.n	800eb6a <MbSlave_ProcessFrame+0x276>
			} else
#endif
			{
				for (i = 0; i < count; i++) {
 800eb12:	2300      	movs	r3, #0
 800eb14:	61fb      	str	r3, [r7, #28]
 800eb16:	e024      	b.n	800eb62 <MbSlave_ProcessFrame+0x26e>
 800eb18:	200006fc 	.word	0x200006fc
 800eb1c:	20000800 	.word	0x20000800
 800eb20:	20000803 	.word	0x20000803
 800eb24:	20000802 	.word	0x20000802
 800eb28:	20000703 	.word	0x20000703
					memcpy(&val,
							(inFrame.data + i * 2 + 1
 800eb2c:	69fb      	ldr	r3, [r7, #28]
 800eb2e:	005b      	lsls	r3, r3, #1
									+ MODBUS_MIN_PAYLOAD_LENGTH), 2);
 800eb30:	3305      	adds	r3, #5
					memcpy(&val,
 800eb32:	4a1f      	ldr	r2, [pc, #124]	@ (800ebb0 <MbSlave_ProcessFrame+0x2bc>)
 800eb34:	4413      	add	r3, r2
 800eb36:	881b      	ldrh	r3, [r3, #0]
 800eb38:	b29b      	uxth	r3, r3
 800eb3a:	80fb      	strh	r3, [r7, #6]
					MbRtu_WriteHoldingRegCallback(addr + i, __REV16(val));
 800eb3c:	69fb      	ldr	r3, [r7, #28]
 800eb3e:	b29a      	uxth	r2, r3
 800eb40:	8abb      	ldrh	r3, [r7, #20]
 800eb42:	4413      	add	r3, r2
 800eb44:	b29a      	uxth	r2, r3
 800eb46:	88fb      	ldrh	r3, [r7, #6]
 800eb48:	60fb      	str	r3, [r7, #12]
  __ASM ("rev16 %0, %1" : __CMSIS_GCC_OUT_REG (result) : __CMSIS_GCC_USE_REG (value) );
 800eb4a:	68fb      	ldr	r3, [r7, #12]
 800eb4c:	ba5b      	rev16	r3, r3
 800eb4e:	60bb      	str	r3, [r7, #8]
  return result;
 800eb50:	68bb      	ldr	r3, [r7, #8]
 800eb52:	b29b      	uxth	r3, r3
 800eb54:	4619      	mov	r1, r3
 800eb56:	4610      	mov	r0, r2
 800eb58:	f7ff f9e0 	bl	800df1c <MbRtu_WriteHoldingRegCallback>
				for (i = 0; i < count; i++) {
 800eb5c:	69fb      	ldr	r3, [r7, #28]
 800eb5e:	3301      	adds	r3, #1
 800eb60:	61fb      	str	r3, [r7, #28]
 800eb62:	8a7b      	ldrh	r3, [r7, #18]
 800eb64:	69fa      	ldr	r2, [r7, #28]
 800eb66:	429a      	cmp	r2, r3
 800eb68:	d3e0      	bcc.n	800eb2c <MbSlave_ProcessFrame+0x238>
				}
			}

			addr += offset;
 800eb6a:	8aba      	ldrh	r2, [r7, #20]
 800eb6c:	8b3b      	ldrh	r3, [r7, #24]
 800eb6e:	4413      	add	r3, r2
 800eb70:	82bb      	strh	r3, [r7, #20]
			outFrame.data[0] = (addr >> 8) & 0xff;
 800eb72:	8abb      	ldrh	r3, [r7, #20]
 800eb74:	0a1b      	lsrs	r3, r3, #8
 800eb76:	b29b      	uxth	r3, r3
 800eb78:	b2da      	uxtb	r2, r3
 800eb7a:	4b0e      	ldr	r3, [pc, #56]	@ (800ebb4 <MbSlave_ProcessFrame+0x2c0>)
 800eb7c:	709a      	strb	r2, [r3, #2]
			outFrame.data[1] = addr & 0xff;
 800eb7e:	8abb      	ldrh	r3, [r7, #20]
 800eb80:	b2da      	uxtb	r2, r3
 800eb82:	4b0c      	ldr	r3, [pc, #48]	@ (800ebb4 <MbSlave_ProcessFrame+0x2c0>)
 800eb84:	70da      	strb	r2, [r3, #3]
			outFrame.data[2] = (count >> 8) & 0xff;
 800eb86:	8a7b      	ldrh	r3, [r7, #18]
 800eb88:	0a1b      	lsrs	r3, r3, #8
 800eb8a:	b29b      	uxth	r3, r3
 800eb8c:	b2da      	uxtb	r2, r3
 800eb8e:	4b09      	ldr	r3, [pc, #36]	@ (800ebb4 <MbSlave_ProcessFrame+0x2c0>)
 800eb90:	711a      	strb	r2, [r3, #4]
			outFrame.data[3] = count & 0xff;
 800eb92:	8a7b      	ldrh	r3, [r7, #18]
 800eb94:	b2da      	uxtb	r2, r3
 800eb96:	4b07      	ldr	r3, [pc, #28]	@ (800ebb4 <MbSlave_ProcessFrame+0x2c0>)
 800eb98:	715a      	strb	r2, [r3, #5]
			outFrame.size = 4;
 800eb9a:	4b06      	ldr	r3, [pc, #24]	@ (800ebb4 <MbSlave_ProcessFrame+0x2c0>)
 800eb9c:	2204      	movs	r2, #4
 800eb9e:	f8a3 2100 	strh.w	r2, [r3, #256]	@ 0x100
			break;
 800eba2:	bf00      	nop
		}
	}

	return ret;
 800eba4:	f9b7 3016 	ldrsh.w	r3, [r7, #22]
}
 800eba8:	4618      	mov	r0, r3
 800ebaa:	3720      	adds	r7, #32
 800ebac:	46bd      	mov	sp, r7
 800ebae:	bd80      	pop	{r7, pc}
 800ebb0:	200006fe 	.word	0x200006fe
 800ebb4:	20000800 	.word	0x20000800

0800ebb8 <MbSlave_CRC16>:
 * Computation of CRC16 using pre-computed tables.
 *
 * @param frame - data frame
 * @return Status - standard status code (0 - OK)
 */
static Status_t MbSlave_CRC16(MbSlave_Frame_t *frame) {
 800ebb8:	b480      	push	{r7}
 800ebba:	b085      	sub	sp, #20
 800ebbc:	af00      	add	r7, sp, #0
 800ebbe:	6078      	str	r0, [r7, #4]
	uint8_t index;
	frame->crc[0] = 0xFF;
 800ebc0:	687b      	ldr	r3, [r7, #4]
 800ebc2:	22ff      	movs	r2, #255	@ 0xff
 800ebc4:	f883 20fe 	strb.w	r2, [r3, #254]	@ 0xfe
	frame->crc[1] = 0xFF;
 800ebc8:	687b      	ldr	r3, [r7, #4]
 800ebca:	22ff      	movs	r2, #255	@ 0xff
 800ebcc:	f883 20ff 	strb.w	r2, [r3, #255]	@ 0xff
	uint16_t i;

	/* calculate the CRC */
	index = frame->crc[0] ^ frame->slaveAddr;
 800ebd0:	687b      	ldr	r3, [r7, #4]
 800ebd2:	f893 20fe 	ldrb.w	r2, [r3, #254]	@ 0xfe
 800ebd6:	687b      	ldr	r3, [r7, #4]
 800ebd8:	781b      	ldrb	r3, [r3, #0]
 800ebda:	4053      	eors	r3, r2
 800ebdc:	737b      	strb	r3, [r7, #13]
	frame->crc[0] = frame->crc[1] ^ tableCrcHi[index];
 800ebde:	687b      	ldr	r3, [r7, #4]
 800ebe0:	f893 20ff 	ldrb.w	r2, [r3, #255]	@ 0xff
 800ebe4:	7b7b      	ldrb	r3, [r7, #13]
 800ebe6:	4929      	ldr	r1, [pc, #164]	@ (800ec8c <MbSlave_CRC16+0xd4>)
 800ebe8:	5ccb      	ldrb	r3, [r1, r3]
 800ebea:	4053      	eors	r3, r2
 800ebec:	b2da      	uxtb	r2, r3
 800ebee:	687b      	ldr	r3, [r7, #4]
 800ebf0:	f883 20fe 	strb.w	r2, [r3, #254]	@ 0xfe
	frame->crc[1] = tableCrcLo[index];
 800ebf4:	7b7b      	ldrb	r3, [r7, #13]
 800ebf6:	4a26      	ldr	r2, [pc, #152]	@ (800ec90 <MbSlave_CRC16+0xd8>)
 800ebf8:	5cd2      	ldrb	r2, [r2, r3]
 800ebfa:	687b      	ldr	r3, [r7, #4]
 800ebfc:	f883 20ff 	strb.w	r2, [r3, #255]	@ 0xff
	index = frame->crc[0] ^ frame->funcCode;
 800ec00:	687b      	ldr	r3, [r7, #4]
 800ec02:	f893 20fe 	ldrb.w	r2, [r3, #254]	@ 0xfe
 800ec06:	687b      	ldr	r3, [r7, #4]
 800ec08:	785b      	ldrb	r3, [r3, #1]
 800ec0a:	4053      	eors	r3, r2
 800ec0c:	737b      	strb	r3, [r7, #13]
	frame->crc[0] = frame->crc[1] ^ tableCrcHi[index];
 800ec0e:	687b      	ldr	r3, [r7, #4]
 800ec10:	f893 20ff 	ldrb.w	r2, [r3, #255]	@ 0xff
 800ec14:	7b7b      	ldrb	r3, [r7, #13]
 800ec16:	491d      	ldr	r1, [pc, #116]	@ (800ec8c <MbSlave_CRC16+0xd4>)
 800ec18:	5ccb      	ldrb	r3, [r1, r3]
 800ec1a:	4053      	eors	r3, r2
 800ec1c:	b2da      	uxtb	r2, r3
 800ec1e:	687b      	ldr	r3, [r7, #4]
 800ec20:	f883 20fe 	strb.w	r2, [r3, #254]	@ 0xfe
	frame->crc[1] = tableCrcLo[index];
 800ec24:	7b7b      	ldrb	r3, [r7, #13]
 800ec26:	4a1a      	ldr	r2, [pc, #104]	@ (800ec90 <MbSlave_CRC16+0xd8>)
 800ec28:	5cd2      	ldrb	r2, [r2, r3]
 800ec2a:	687b      	ldr	r3, [r7, #4]
 800ec2c:	f883 20ff 	strb.w	r2, [r3, #255]	@ 0xff

	for (i = 0; i < frame->size; i++) {
 800ec30:	2300      	movs	r3, #0
 800ec32:	81fb      	strh	r3, [r7, #14]
 800ec34:	e01c      	b.n	800ec70 <MbSlave_CRC16+0xb8>
		index = frame->crc[0] ^ frame->data[i];
 800ec36:	687b      	ldr	r3, [r7, #4]
 800ec38:	f893 20fe 	ldrb.w	r2, [r3, #254]	@ 0xfe
 800ec3c:	89fb      	ldrh	r3, [r7, #14]
 800ec3e:	6879      	ldr	r1, [r7, #4]
 800ec40:	440b      	add	r3, r1
 800ec42:	789b      	ldrb	r3, [r3, #2]
 800ec44:	4053      	eors	r3, r2
 800ec46:	737b      	strb	r3, [r7, #13]
		frame->crc[0] = frame->crc[1] ^ tableCrcHi[index];
 800ec48:	687b      	ldr	r3, [r7, #4]
 800ec4a:	f893 20ff 	ldrb.w	r2, [r3, #255]	@ 0xff
 800ec4e:	7b7b      	ldrb	r3, [r7, #13]
 800ec50:	490e      	ldr	r1, [pc, #56]	@ (800ec8c <MbSlave_CRC16+0xd4>)
 800ec52:	5ccb      	ldrb	r3, [r1, r3]
 800ec54:	4053      	eors	r3, r2
 800ec56:	b2da      	uxtb	r2, r3
 800ec58:	687b      	ldr	r3, [r7, #4]
 800ec5a:	f883 20fe 	strb.w	r2, [r3, #254]	@ 0xfe
		frame->crc[1] = tableCrcLo[index];
 800ec5e:	7b7b      	ldrb	r3, [r7, #13]
 800ec60:	4a0b      	ldr	r2, [pc, #44]	@ (800ec90 <MbSlave_CRC16+0xd8>)
 800ec62:	5cd2      	ldrb	r2, [r2, r3]
 800ec64:	687b      	ldr	r3, [r7, #4]
 800ec66:	f883 20ff 	strb.w	r2, [r3, #255]	@ 0xff
	for (i = 0; i < frame->size; i++) {
 800ec6a:	89fb      	ldrh	r3, [r7, #14]
 800ec6c:	3301      	adds	r3, #1
 800ec6e:	81fb      	strh	r3, [r7, #14]
 800ec70:	687b      	ldr	r3, [r7, #4]
 800ec72:	f8b3 3100 	ldrh.w	r3, [r3, #256]	@ 0x100
 800ec76:	89fa      	ldrh	r2, [r7, #14]
 800ec78:	429a      	cmp	r2, r3
 800ec7a:	d3dc      	bcc.n	800ec36 <MbSlave_CRC16+0x7e>
	}

	return STATUS_OK;
 800ec7c:	2300      	movs	r3, #0
}
 800ec7e:	4618      	mov	r0, r3
 800ec80:	3714      	adds	r7, #20
 800ec82:	46bd      	mov	sp, r7
 800ec84:	f85d 7b04 	ldr.w	r7, [sp], #4
 800ec88:	4770      	bx	lr
 800ec8a:	bf00      	nop
 800ec8c:	0800c1c4 	.word	0x0800c1c4
 800ec90:	0801538c 	.word	0x0801538c

0800ec94 <MbSlave_Rs485DirTransmit>:

static void MbSlave_Rs485DirTransmit(void) {
 800ec94:	b580      	push	{r7, lr}
 800ec96:	af00      	add	r7, sp, #0
	HAL_GPIO_WritePin(MODBUS_UART_DE_PORT, MODBUS_UART_DE_PIN, GPIO_PIN_SET);
 800ec98:	2201      	movs	r2, #1
 800ec9a:	f44f 5180 	mov.w	r1, #4096	@ 0x1000
 800ec9e:	4802      	ldr	r0, [pc, #8]	@ (800eca8 <MbSlave_Rs485DirTransmit+0x14>)
 800eca0:	f002 fdea 	bl	8011878 <HAL_GPIO_WritePin>
}
 800eca4:	bf00      	nop
 800eca6:	bd80      	pop	{r7, pc}
 800eca8:	40020000 	.word	0x40020000

0800ecac <MbSlave_Rs485DirReceive>:

static void MbSlave_Rs485DirReceive(void) {
 800ecac:	b580      	push	{r7, lr}
 800ecae:	af00      	add	r7, sp, #0
	HAL_GPIO_WritePin(MODBUS_UART_DE_PORT, MODBUS_UART_DE_PIN, GPIO_PIN_RESET);
 800ecb0:	2200      	movs	r2, #0
 800ecb2:	f44f 5180 	mov.w	r1, #4096	@ 0x1000
 800ecb6:	4802      	ldr	r0, [pc, #8]	@ (800ecc0 <MbSlave_Rs485DirReceive+0x14>)
 800ecb8:	f002 fdde 	bl	8011878 <HAL_GPIO_WritePin>
}
 800ecbc:	bf00      	nop
 800ecbe:	bd80      	pop	{r7, pc}
 800ecc0:	40020000 	.word	0x40020000

0800ecc4 <main>:
/**
  * @brief  The application entry point.
  * @retval int
  */
int main(void)
{
 800ecc4:	b580      	push	{r7, lr}
 800ecc6:	b084      	sub	sp, #16
 800ecc8:	af00      	add	r7, sp, #0

  /* USER CODE BEGIN 1 */
    Status_t ret = STATUS_OK;
 800ecca:	2300      	movs	r3, #0
 800eccc:	81fb      	strh	r3, [r7, #14]
    uint32_t tick_med = 0;
 800ecce:	2300      	movs	r3, #0
 800ecd0:	60bb      	str	r3, [r7, #8]
    uint32_t tick_slow = 0;
 800ecd2:	2300      	movs	r3, #0
 800ecd4:	607b      	str	r3, [r7, #4]
    uint32_t start = 0;
 800ecd6:	2300      	movs	r3, #0
 800ecd8:	603b      	str	r3, [r7, #0]

    /* Remap reset vector and enable interrupts */
    System_RemapApplicationVector();
 800ecda:	f7fe ff11 	bl	800db00 <System_RemapApplicationVector>
  \details Enables IRQ interrupts by clearing special-purpose register PRIMASK.
           Can only be executed in Privileged modes.
 */
__STATIC_FORCEINLINE void __enable_irq(void)
{
  __ASM volatile ("cpsie i" : : : "memory");
 800ecde:	b662      	cpsie	i
}
 800ece0:	bf00      	nop
  /* USER CODE END 1 */

  /* MCU Configuration--------------------------------------------------------*/

  /* Reset of all peripherals, Initializes the Flash interface and the Systick. */
  HAL_Init();
 800ece2:	f000 fef9 	bl	800fad8 <HAL_Init>
  /* USER CODE BEGIN Init */

  /* USER CODE END Init */

  /* Configure the system clock */
  SystemClock_Config();
 800ece6:	f000 f8cf 	bl	800ee88 <SystemClock_Config>

  /* USER CODE BEGIN SysInit */
    MX_USART1_UART_Init();
 800ecea:	f000 fac5 	bl	800f278 <MX_USART1_UART_Init>

  /* USER CODE END SysInit */

  /* Initialize all configured peripherals */
  MX_GPIO_Init();
 800ecee:	f000 fb0d 	bl	800f30c <MX_GPIO_Init>
  MX_DMA_Init();
 800ecf2:	f000 faeb 	bl	800f2cc <MX_DMA_Init>
  MX_USART1_UART_Init();
 800ecf6:	f000 fabf 	bl	800f278 <MX_USART1_UART_Init>
  MX_I2C1_Init();
 800ecfa:	f000 f9c9 	bl	800f090 <MX_I2C1_Init>
  MX_SPI2_Init();
 800ecfe:	f000 fa0f 	bl	800f120 <MX_SPI2_Init>
  MX_UART5_Init();
 800ed02:	f000 fa8f 	bl	800f224 <MX_UART5_Init>
  MX_CRC_Init();
 800ed06:	f000 f9af 	bl	800f068 <MX_CRC_Init>
  MX_TIM2_Init();
 800ed0a:	f000 fa3f 	bl	800f18c <MX_TIM2_Init>
  MX_IWDG_Init();
 800ed0e:	f000 f9ed 	bl	800f0ec <MX_IWDG_Init>
  MX_ADC1_Init();
 800ed12:	f000 f92d 	bl	800ef70 <MX_ADC1_Init>
  /* USER CODE BEGIN 2 */

    /* Initialize system modules */
    ret |= System_InitWdg();
 800ed16:	f7fe fdd5 	bl	800d8c4 <System_InitWdg>
 800ed1a:	4603      	mov	r3, r0
 800ed1c:	461a      	mov	r2, r3
 800ed1e:	89fb      	ldrh	r3, [r7, #14]
 800ed20:	4313      	orrs	r3, r2
 800ed22:	81fb      	strh	r3, [r7, #14]
    ret |= System_ReloadWdg();
 800ed24:	f7fe fdf2 	bl	800d90c <System_ReloadWdg>
 800ed28:	4603      	mov	r3, r0
 800ed2a:	461a      	mov	r2, r3
 800ed2c:	89fb      	ldrh	r3, [r7, #14]
 800ed2e:	4313      	orrs	r3, r2
 800ed30:	81fb      	strh	r3, [r7, #14]
    System_CrcInit();
 800ed32:	f7fe fd99 	bl	800d868 <System_CrcInit>
    ret |= Config_Init();
 800ed36:	f7fe f83c 	bl	800cdb2 <Config_Init>
 800ed3a:	4603      	mov	r3, r0
 800ed3c:	461a      	mov	r2, r3
 800ed3e:	89fb      	ldrh	r3, [r7, #14]
 800ed40:	4313      	orrs	r3, r2
 800ed42:	81fb      	strh	r3, [r7, #14]
    ret |= Control_Init();
 800ed44:	f7fe f91c 	bl	800cf80 <Control_Init>
 800ed48:	4603      	mov	r3, r0
 800ed4a:	461a      	mov	r2, r3
 800ed4c:	89fb      	ldrh	r3, [r7, #14]
 800ed4e:	4313      	orrs	r3, r2
 800ed50:	81fb      	strh	r3, [r7, #14]

    /* Initialize flash memory module */
    ret |= FlashApp_Init();
 800ed52:	f7fe f9d7 	bl	800d104 <FlashApp_Init>
 800ed56:	4603      	mov	r3, r0
 800ed58:	461a      	mov	r2, r3
 800ed5a:	89fb      	ldrh	r3, [r7, #14]
 800ed5c:	4313      	orrs	r3, r2
 800ed5e:	81fb      	strh	r3, [r7, #14]

    /* Initialize communication modules */
    ret |= MbSlave_Init();
 800ed60:	f7ff faca 	bl	800e2f8 <MbSlave_Init>
 800ed64:	4603      	mov	r3, r0
 800ed66:	461a      	mov	r2, r3
 800ed68:	89fb      	ldrh	r3, [r7, #14]
 800ed6a:	4313      	orrs	r3, r2
 800ed6c:	81fb      	strh	r3, [r7, #14]

    /* Initialize test modules */
    /* TODO */
    Probe_Init();
 800ed6e:	f005 fc59 	bl	8014624 <Probe_Init>
    /* Reload watchdog and check for errors in the initialization process */
    ret |= System_ReloadWdg();
 800ed72:	f7fe fdcb 	bl	800d90c <System_ReloadWdg>
 800ed76:	4603      	mov	r3, r0
 800ed78:	461a      	mov	r2, r3
 800ed7a:	89fb      	ldrh	r3, [r7, #14]
 800ed7c:	4313      	orrs	r3, r2
 800ed7e:	81fb      	strh	r3, [r7, #14]

    Switch_Init();
 800ed80:	f006 f83a 	bl	8014df8 <Switch_Init>

    // CHECK_ERROR(ret, ERROR_CODE_init);
    tick_med = HAL_GetTick();
 800ed84:	f000 ff0e 	bl	800fba4 <HAL_GetTick>
 800ed88:	60b8      	str	r0, [r7, #8]
    tick_slow = HAL_GetTick();
 800ed8a:	f000 ff0b 	bl	800fba4 <HAL_GetTick>
 800ed8e:	6078      	str	r0, [r7, #4]
  /* Infinite loop */
  /* USER CODE BEGIN WHILE */
    while (1)
    {
        /* High priority - real-time handles */
        MbSlave_Handle();
 800ed90:	f7ff fbd2 	bl	800e538 <MbSlave_Handle>
        Probe_Handle();
 800ed94:	f005 fc56 	bl	8014644 <Probe_Handle>

        /* Medium priority - fast handles */
        if (TICK_EXPIRED(tick_med))
 800ed98:	f000 ff04 	bl	800fba4 <HAL_GetTick>
 800ed9c:	4602      	mov	r2, r0
 800ed9e:	68bb      	ldr	r3, [r7, #8]
 800eda0:	1ad3      	subs	r3, r2, r3
 800eda2:	f06f 4200 	mvn.w	r2, #2147483648	@ 0x80000000
 800eda6:	4293      	cmp	r3, r2
 800eda8:	d218      	bcs.n	800eddc <main+0x118>
        {
            tick_med += PERIOD_HANDLE_MED_PRIO;
 800edaa:	68bb      	ldr	r3, [r7, #8]
 800edac:	3305      	adds	r3, #5
 800edae:	60bb      	str	r3, [r7, #8]
            start = HAL_GetTick();
 800edb0:	f000 fef8 	bl	800fba4 <HAL_GetTick>
 800edb4:	6038      	str	r0, [r7, #0]

            /* Test modules handles */
            /* TODO */

            /* Medium priority time measurement */
            max_med = MAX(max_med, HAL_GetTick() - start);
 800edb6:	f000 fef5 	bl	800fba4 <HAL_GetTick>
 800edba:	4602      	mov	r2, r0
 800edbc:	683b      	ldr	r3, [r7, #0]
 800edbe:	1ad2      	subs	r2, r2, r3
 800edc0:	4b2d      	ldr	r3, [pc, #180]	@ (800ee78 <main+0x1b4>)
 800edc2:	681b      	ldr	r3, [r3, #0]
 800edc4:	429a      	cmp	r2, r3
 800edc6:	d905      	bls.n	800edd4 <main+0x110>
 800edc8:	f000 feec 	bl	800fba4 <HAL_GetTick>
 800edcc:	4602      	mov	r2, r0
 800edce:	683b      	ldr	r3, [r7, #0]
 800edd0:	1ad3      	subs	r3, r2, r3
 800edd2:	e001      	b.n	800edd8 <main+0x114>
 800edd4:	4b28      	ldr	r3, [pc, #160]	@ (800ee78 <main+0x1b4>)
 800edd6:	681b      	ldr	r3, [r3, #0]
 800edd8:	4a27      	ldr	r2, [pc, #156]	@ (800ee78 <main+0x1b4>)
 800edda:	6013      	str	r3, [r2, #0]
        }

        /* Low priority - slow handles */
        if (TICK_EXPIRED(tick_slow))
 800eddc:	f000 fee2 	bl	800fba4 <HAL_GetTick>
 800ede0:	4602      	mov	r2, r0
 800ede2:	687b      	ldr	r3, [r7, #4]
 800ede4:	1ad3      	subs	r3, r2, r3
 800ede6:	f06f 4200 	mvn.w	r2, #2147483648	@ 0x80000000
 800edea:	4293      	cmp	r3, r2
 800edec:	d2d0      	bcs.n	800ed90 <main+0xcc>
//            if (HAL_ADC_Start_DMA(&hadc1, (uint32_t*) &adc_valuess, 1) != HAL_OK)
//            {
//                Error_Handler();
//            }

            tick_slow = HAL_GetTick() + PERIOD_HANDLE_LOW_PRIO;
 800edee:	f000 fed9 	bl	800fba4 <HAL_GetTick>
 800edf2:	4603      	mov	r3, r0
 800edf4:	3332      	adds	r3, #50	@ 0x32
 800edf6:	607b      	str	r3, [r7, #4]
            start = HAL_GetTick();
 800edf8:	f000 fed4 	bl	800fba4 <HAL_GetTick>
 800edfc:	6038      	str	r0, [r7, #0]

            /* Communication handles */
            ret |= Control_Handle();
 800edfe:	f7fe f8cd 	bl	800cf9c <Control_Handle>
 800ee02:	4603      	mov	r3, r0
 800ee04:	461a      	mov	r2, r3
 800ee06:	89fb      	ldrh	r3, [r7, #14]
 800ee08:	4313      	orrs	r3, r2
 800ee0a:	81fb      	strh	r3, [r7, #14]
            ret |= MbSlave_UpdateSlaveAddress();
 800ee0c:	f7ff fc2a 	bl	800e664 <MbSlave_UpdateSlaveAddress>
 800ee10:	4603      	mov	r3, r0
 800ee12:	461a      	mov	r2, r3
 800ee14:	89fb      	ldrh	r3, [r7, #14]
 800ee16:	4313      	orrs	r3, r2
 800ee18:	81fb      	strh	r3, [r7, #14]

            /* Flash memory handle */
            ret |= FlashApp_Handle();
 800ee1a:	f7fe f98d 	bl	800d138 <FlashApp_Handle>
 800ee1e:	4603      	mov	r3, r0
 800ee20:	461a      	mov	r2, r3
 800ee22:	89fb      	ldrh	r3, [r7, #14]
 800ee24:	4313      	orrs	r3, r2
 800ee26:	81fb      	strh	r3, [r7, #14]

            /* Test modules handles */
            /* TODO */

            /* Low-priority time measurement */
            max_low = MAX(max_low, HAL_GetTick() - start);
 800ee28:	f000 febc 	bl	800fba4 <HAL_GetTick>
 800ee2c:	4602      	mov	r2, r0
 800ee2e:	683b      	ldr	r3, [r7, #0]
 800ee30:	1ad2      	subs	r2, r2, r3
 800ee32:	4b12      	ldr	r3, [pc, #72]	@ (800ee7c <main+0x1b8>)
 800ee34:	681b      	ldr	r3, [r3, #0]
 800ee36:	429a      	cmp	r2, r3
 800ee38:	d905      	bls.n	800ee46 <main+0x182>
 800ee3a:	f000 feb3 	bl	800fba4 <HAL_GetTick>
 800ee3e:	4602      	mov	r2, r0
 800ee40:	683b      	ldr	r3, [r7, #0]
 800ee42:	1ad3      	subs	r3, r2, r3
 800ee44:	e001      	b.n	800ee4a <main+0x186>
 800ee46:	4b0d      	ldr	r3, [pc, #52]	@ (800ee7c <main+0x1b8>)
 800ee48:	681b      	ldr	r3, [r3, #0]
 800ee4a:	4a0c      	ldr	r2, [pc, #48]	@ (800ee7c <main+0x1b8>)
 800ee4c:	6013      	str	r3, [r2, #0]

            /* Watchdog reload */
            ret |= System_ReloadWdg();
 800ee4e:	f7fe fd5d 	bl	800d90c <System_ReloadWdg>
 800ee52:	4603      	mov	r3, r0
 800ee54:	461a      	mov	r2, r3
 800ee56:	89fb      	ldrh	r3, [r7, #14]
 800ee58:	4313      	orrs	r3, r2
 800ee5a:	81fb      	strh	r3, [r7, #14]
            HAL_GPIO_TogglePin(led_GPIO_Port, led_Pin);
 800ee5c:	f44f 5180 	mov.w	r1, #4096	@ 0x1000
 800ee60:	4807      	ldr	r0, [pc, #28]	@ (800ee80 <main+0x1bc>)
 800ee62:	f002 fd22 	bl	80118aa <HAL_GPIO_TogglePin>
            conf.sys.io_input = Switch_GetAll();
 800ee66:	f005 fff5 	bl	8014e54 <Switch_GetAll>
 800ee6a:	4603      	mov	r3, r0
 800ee6c:	461a      	mov	r2, r3
 800ee6e:	4b05      	ldr	r3, [pc, #20]	@ (800ee84 <main+0x1c0>)
 800ee70:	829a      	strh	r2, [r3, #20]
            MbSlave_UpdateSlaveAddress();
 800ee72:	f7ff fbf7 	bl	800e664 <MbSlave_UpdateSlaveAddress>
        MbSlave_Handle();
 800ee76:	e78b      	b.n	800ed90 <main+0xcc>
 800ee78:	20000b48 	.word	0x20000b48
 800ee7c:	20000b44 	.word	0x20000b44
 800ee80:	40020400 	.word	0x40020400
 800ee84:	20000560 	.word	0x20000560

0800ee88 <SystemClock_Config>:
/**
  * @brief System Clock Configuration
  * @retval None
  */
void SystemClock_Config(void)
{
 800ee88:	b580      	push	{r7, lr}
 800ee8a:	b094      	sub	sp, #80	@ 0x50
 800ee8c:	af00      	add	r7, sp, #0
  RCC_OscInitTypeDef RCC_OscInitStruct = {0};
 800ee8e:	f107 031c 	add.w	r3, r7, #28
 800ee92:	2234      	movs	r2, #52	@ 0x34
 800ee94:	2100      	movs	r1, #0
 800ee96:	4618      	mov	r0, r3
 800ee98:	f006 f854 	bl	8014f44 <memset>
  RCC_ClkInitTypeDef RCC_ClkInitStruct = {0};
 800ee9c:	f107 0308 	add.w	r3, r7, #8
 800eea0:	2200      	movs	r2, #0
 800eea2:	601a      	str	r2, [r3, #0]
 800eea4:	605a      	str	r2, [r3, #4]
 800eea6:	609a      	str	r2, [r3, #8]
 800eea8:	60da      	str	r2, [r3, #12]
 800eeaa:	611a      	str	r2, [r3, #16]

  /** Configure the main internal regulator output voltage
  */
  __HAL_RCC_PWR_CLK_ENABLE();
 800eeac:	2300      	movs	r3, #0
 800eeae:	607b      	str	r3, [r7, #4]
 800eeb0:	4b2d      	ldr	r3, [pc, #180]	@ (800ef68 <SystemClock_Config+0xe0>)
 800eeb2:	6c1b      	ldr	r3, [r3, #64]	@ 0x40
 800eeb4:	4a2c      	ldr	r2, [pc, #176]	@ (800ef68 <SystemClock_Config+0xe0>)
 800eeb6:	f043 5380 	orr.w	r3, r3, #268435456	@ 0x10000000
 800eeba:	6413      	str	r3, [r2, #64]	@ 0x40
 800eebc:	4b2a      	ldr	r3, [pc, #168]	@ (800ef68 <SystemClock_Config+0xe0>)
 800eebe:	6c1b      	ldr	r3, [r3, #64]	@ 0x40
 800eec0:	f003 5380 	and.w	r3, r3, #268435456	@ 0x10000000
 800eec4:	607b      	str	r3, [r7, #4]
 800eec6:	687b      	ldr	r3, [r7, #4]
  __HAL_PWR_VOLTAGESCALING_CONFIG(PWR_REGULATOR_VOLTAGE_SCALE1);
 800eec8:	2300      	movs	r3, #0
 800eeca:	603b      	str	r3, [r7, #0]
 800eecc:	4b27      	ldr	r3, [pc, #156]	@ (800ef6c <SystemClock_Config+0xe4>)
 800eece:	681b      	ldr	r3, [r3, #0]
 800eed0:	4a26      	ldr	r2, [pc, #152]	@ (800ef6c <SystemClock_Config+0xe4>)
 800eed2:	f443 4340 	orr.w	r3, r3, #49152	@ 0xc000
 800eed6:	6013      	str	r3, [r2, #0]
 800eed8:	4b24      	ldr	r3, [pc, #144]	@ (800ef6c <SystemClock_Config+0xe4>)
 800eeda:	681b      	ldr	r3, [r3, #0]
 800eedc:	f403 4340 	and.w	r3, r3, #49152	@ 0xc000
 800eee0:	603b      	str	r3, [r7, #0]
 800eee2:	683b      	ldr	r3, [r7, #0]

  /** Initializes the RCC Oscillators according to the specified parameters
  * in the RCC_OscInitTypeDef structure.
  */
  RCC_OscInitStruct.OscillatorType = RCC_OSCILLATORTYPE_HSI|RCC_OSCILLATORTYPE_LSI;
 800eee4:	230a      	movs	r3, #10
 800eee6:	61fb      	str	r3, [r7, #28]
  RCC_OscInitStruct.HSIState = RCC_HSI_ON;
 800eee8:	2301      	movs	r3, #1
 800eeea:	62bb      	str	r3, [r7, #40]	@ 0x28
  RCC_OscInitStruct.HSICalibrationValue = RCC_HSICALIBRATION_DEFAULT;
 800eeec:	2310      	movs	r3, #16
 800eeee:	62fb      	str	r3, [r7, #44]	@ 0x2c
  RCC_OscInitStruct.LSIState = RCC_LSI_ON;
 800eef0:	2301      	movs	r3, #1
 800eef2:	633b      	str	r3, [r7, #48]	@ 0x30
  RCC_OscInitStruct.PLL.PLLState = RCC_PLL_ON;
 800eef4:	2302      	movs	r3, #2
 800eef6:	637b      	str	r3, [r7, #52]	@ 0x34
  RCC_OscInitStruct.PLL.PLLSource = RCC_PLLSOURCE_HSI;
 800eef8:	2300      	movs	r3, #0
 800eefa:	63bb      	str	r3, [r7, #56]	@ 0x38
  RCC_OscInitStruct.PLL.PLLM = 8;
 800eefc:	2308      	movs	r3, #8
 800eefe:	63fb      	str	r3, [r7, #60]	@ 0x3c
  RCC_OscInitStruct.PLL.PLLN = 180;
 800ef00:	23b4      	movs	r3, #180	@ 0xb4
 800ef02:	643b      	str	r3, [r7, #64]	@ 0x40
  RCC_OscInitStruct.PLL.PLLP = RCC_PLLP_DIV2;
 800ef04:	2302      	movs	r3, #2
 800ef06:	647b      	str	r3, [r7, #68]	@ 0x44
  RCC_OscInitStruct.PLL.PLLQ = 2;
 800ef08:	2302      	movs	r3, #2
 800ef0a:	64bb      	str	r3, [r7, #72]	@ 0x48
  RCC_OscInitStruct.PLL.PLLR = 2;
 800ef0c:	2302      	movs	r3, #2
 800ef0e:	64fb      	str	r3, [r7, #76]	@ 0x4c
  if (HAL_RCC_OscConfig(&RCC_OscInitStruct) != HAL_OK)
 800ef10:	f107 031c 	add.w	r3, r7, #28
 800ef14:	4618      	mov	r0, r3
 800ef16:	f003 f9a7 	bl	8012268 <HAL_RCC_OscConfig>
 800ef1a:	4603      	mov	r3, r0
 800ef1c:	2b00      	cmp	r3, #0
 800ef1e:	d001      	beq.n	800ef24 <SystemClock_Config+0x9c>
  {
    Error_Handler();
 800ef20:	f000 facf 	bl	800f4c2 <Error_Handler>
  }

  /** Activate the Over-Drive mode
  */
  if (HAL_PWREx_EnableOverDrive() != HAL_OK)
 800ef24:	f002 fe8c 	bl	8011c40 <HAL_PWREx_EnableOverDrive>
 800ef28:	4603      	mov	r3, r0
 800ef2a:	2b00      	cmp	r3, #0
 800ef2c:	d001      	beq.n	800ef32 <SystemClock_Config+0xaa>
  {
    Error_Handler();
 800ef2e:	f000 fac8 	bl	800f4c2 <Error_Handler>
  }

  /** Initializes the CPU, AHB and APB buses clocks
  */
  RCC_ClkInitStruct.ClockType = RCC_CLOCKTYPE_HCLK|RCC_CLOCKTYPE_SYSCLK
 800ef32:	230f      	movs	r3, #15
 800ef34:	60bb      	str	r3, [r7, #8]
                              |RCC_CLOCKTYPE_PCLK1|RCC_CLOCKTYPE_PCLK2;
  RCC_ClkInitStruct.SYSCLKSource = RCC_SYSCLKSOURCE_PLLCLK;
 800ef36:	2302      	movs	r3, #2
 800ef38:	60fb      	str	r3, [r7, #12]
  RCC_ClkInitStruct.AHBCLKDivider = RCC_SYSCLK_DIV1;
 800ef3a:	2300      	movs	r3, #0
 800ef3c:	613b      	str	r3, [r7, #16]
  RCC_ClkInitStruct.APB1CLKDivider = RCC_HCLK_DIV4;
 800ef3e:	f44f 53a0 	mov.w	r3, #5120	@ 0x1400
 800ef42:	617b      	str	r3, [r7, #20]
  RCC_ClkInitStruct.APB2CLKDivider = RCC_HCLK_DIV2;
 800ef44:	f44f 5380 	mov.w	r3, #4096	@ 0x1000
 800ef48:	61bb      	str	r3, [r7, #24]

  if (HAL_RCC_ClockConfig(&RCC_ClkInitStruct, FLASH_LATENCY_5) != HAL_OK)
 800ef4a:	f107 0308 	add.w	r3, r7, #8
 800ef4e:	2105      	movs	r1, #5
 800ef50:	4618      	mov	r0, r3
 800ef52:	f002 fec5 	bl	8011ce0 <HAL_RCC_ClockConfig>
 800ef56:	4603      	mov	r3, r0
 800ef58:	2b00      	cmp	r3, #0
 800ef5a:	d001      	beq.n	800ef60 <SystemClock_Config+0xd8>
  {
    Error_Handler();
 800ef5c:	f000 fab1 	bl	800f4c2 <Error_Handler>
  }
}
 800ef60:	bf00      	nop
 800ef62:	3750      	adds	r7, #80	@ 0x50
 800ef64:	46bd      	mov	sp, r7
 800ef66:	bd80      	pop	{r7, pc}
 800ef68:	40023800 	.word	0x40023800
 800ef6c:	40007000 	.word	0x40007000

0800ef70 <MX_ADC1_Init>:
  * @brief ADC1 Initialization Function
  * @param None
  * @retval None
  */
static void MX_ADC1_Init(void)
{
 800ef70:	b580      	push	{r7, lr}
 800ef72:	b084      	sub	sp, #16
 800ef74:	af00      	add	r7, sp, #0

  /* USER CODE BEGIN ADC1_Init 0 */

  /* USER CODE END ADC1_Init 0 */

  ADC_ChannelConfTypeDef sConfig = {0};
 800ef76:	463b      	mov	r3, r7
 800ef78:	2200      	movs	r2, #0
 800ef7a:	601a      	str	r2, [r3, #0]
 800ef7c:	605a      	str	r2, [r3, #4]
 800ef7e:	609a      	str	r2, [r3, #8]
 800ef80:	60da      	str	r2, [r3, #12]

  /* USER CODE END ADC1_Init 1 */

  /** Configure the global features of the ADC (Clock, Resolution, Data Alignment and number of conversion)
  */
  hadc1.Instance = ADC1;
 800ef82:	4b36      	ldr	r3, [pc, #216]	@ (800f05c <MX_ADC1_Init+0xec>)
 800ef84:	4a36      	ldr	r2, [pc, #216]	@ (800f060 <MX_ADC1_Init+0xf0>)
 800ef86:	601a      	str	r2, [r3, #0]
  hadc1.Init.ClockPrescaler = ADC_CLOCK_SYNC_PCLK_DIV4;
 800ef88:	4b34      	ldr	r3, [pc, #208]	@ (800f05c <MX_ADC1_Init+0xec>)
 800ef8a:	f44f 3280 	mov.w	r2, #65536	@ 0x10000
 800ef8e:	605a      	str	r2, [r3, #4]
  hadc1.Init.Resolution = ADC_RESOLUTION_12B;
 800ef90:	4b32      	ldr	r3, [pc, #200]	@ (800f05c <MX_ADC1_Init+0xec>)
 800ef92:	2200      	movs	r2, #0
 800ef94:	609a      	str	r2, [r3, #8]
  hadc1.Init.ScanConvMode = ENABLE;
 800ef96:	4b31      	ldr	r3, [pc, #196]	@ (800f05c <MX_ADC1_Init+0xec>)
 800ef98:	2201      	movs	r2, #1
 800ef9a:	611a      	str	r2, [r3, #16]
  hadc1.Init.ContinuousConvMode = DISABLE;
 800ef9c:	4b2f      	ldr	r3, [pc, #188]	@ (800f05c <MX_ADC1_Init+0xec>)
 800ef9e:	2200      	movs	r2, #0
 800efa0:	761a      	strb	r2, [r3, #24]
  hadc1.Init.DiscontinuousConvMode = DISABLE;
 800efa2:	4b2e      	ldr	r3, [pc, #184]	@ (800f05c <MX_ADC1_Init+0xec>)
 800efa4:	2200      	movs	r2, #0
 800efa6:	f883 2020 	strb.w	r2, [r3, #32]
  hadc1.Init.ExternalTrigConvEdge = ADC_EXTERNALTRIGCONVEDGE_NONE;
 800efaa:	4b2c      	ldr	r3, [pc, #176]	@ (800f05c <MX_ADC1_Init+0xec>)
 800efac:	2200      	movs	r2, #0
 800efae:	62da      	str	r2, [r3, #44]	@ 0x2c
  hadc1.Init.ExternalTrigConv = ADC_SOFTWARE_START;
 800efb0:	4b2a      	ldr	r3, [pc, #168]	@ (800f05c <MX_ADC1_Init+0xec>)
 800efb2:	4a2c      	ldr	r2, [pc, #176]	@ (800f064 <MX_ADC1_Init+0xf4>)
 800efb4:	629a      	str	r2, [r3, #40]	@ 0x28
  hadc1.Init.DataAlign = ADC_DATAALIGN_RIGHT;
 800efb6:	4b29      	ldr	r3, [pc, #164]	@ (800f05c <MX_ADC1_Init+0xec>)
 800efb8:	2200      	movs	r2, #0
 800efba:	60da      	str	r2, [r3, #12]
  hadc1.Init.NbrOfConversion = 4;
 800efbc:	4b27      	ldr	r3, [pc, #156]	@ (800f05c <MX_ADC1_Init+0xec>)
 800efbe:	2204      	movs	r2, #4
 800efc0:	61da      	str	r2, [r3, #28]
  hadc1.Init.DMAContinuousRequests = DISABLE;
 800efc2:	4b26      	ldr	r3, [pc, #152]	@ (800f05c <MX_ADC1_Init+0xec>)
 800efc4:	2200      	movs	r2, #0
 800efc6:	f883 2030 	strb.w	r2, [r3, #48]	@ 0x30
  hadc1.Init.EOCSelection = ADC_EOC_SINGLE_CONV;
 800efca:	4b24      	ldr	r3, [pc, #144]	@ (800f05c <MX_ADC1_Init+0xec>)
 800efcc:	2201      	movs	r2, #1
 800efce:	615a      	str	r2, [r3, #20]
  if (HAL_ADC_Init(&hadc1) != HAL_OK)
 800efd0:	4822      	ldr	r0, [pc, #136]	@ (800f05c <MX_ADC1_Init+0xec>)
 800efd2:	f000 fe17 	bl	800fc04 <HAL_ADC_Init>
 800efd6:	4603      	mov	r3, r0
 800efd8:	2b00      	cmp	r3, #0
 800efda:	d001      	beq.n	800efe0 <MX_ADC1_Init+0x70>
  {
    Error_Handler();
 800efdc:	f000 fa71 	bl	800f4c2 <Error_Handler>
  }

  /** Configure for the selected ADC regular channel its corresponding rank in the sequencer and its sample time.
  */
  sConfig.Channel = ADC_CHANNEL_5;
 800efe0:	2305      	movs	r3, #5
 800efe2:	603b      	str	r3, [r7, #0]
  sConfig.Rank = 1;
 800efe4:	2301      	movs	r3, #1
 800efe6:	607b      	str	r3, [r7, #4]
  sConfig.SamplingTime = ADC_SAMPLETIME_3CYCLES;
 800efe8:	2300      	movs	r3, #0
 800efea:	60bb      	str	r3, [r7, #8]
  if (HAL_ADC_ConfigChannel(&hadc1, &sConfig) != HAL_OK)
 800efec:	463b      	mov	r3, r7
 800efee:	4619      	mov	r1, r3
 800eff0:	481a      	ldr	r0, [pc, #104]	@ (800f05c <MX_ADC1_Init+0xec>)
 800eff2:	f000 ff73 	bl	800fedc <HAL_ADC_ConfigChannel>
 800eff6:	4603      	mov	r3, r0
 800eff8:	2b00      	cmp	r3, #0
 800effa:	d001      	beq.n	800f000 <MX_ADC1_Init+0x90>
  {
    Error_Handler();
 800effc:	f000 fa61 	bl	800f4c2 <Error_Handler>
  }

  /** Configure for the selected ADC regular channel its corresponding rank in the sequencer and its sample time.
  */
  sConfig.Channel = ADC_CHANNEL_6;
 800f000:	2306      	movs	r3, #6
 800f002:	603b      	str	r3, [r7, #0]
  sConfig.Rank = 2;
 800f004:	2302      	movs	r3, #2
 800f006:	607b      	str	r3, [r7, #4]
  if (HAL_ADC_ConfigChannel(&hadc1, &sConfig) != HAL_OK)
 800f008:	463b      	mov	r3, r7
 800f00a:	4619      	mov	r1, r3
 800f00c:	4813      	ldr	r0, [pc, #76]	@ (800f05c <MX_ADC1_Init+0xec>)
 800f00e:	f000 ff65 	bl	800fedc <HAL_ADC_ConfigChannel>
 800f012:	4603      	mov	r3, r0
 800f014:	2b00      	cmp	r3, #0
 800f016:	d001      	beq.n	800f01c <MX_ADC1_Init+0xac>
  {
    Error_Handler();
 800f018:	f000 fa53 	bl	800f4c2 <Error_Handler>
  }

  /** Configure for the selected ADC regular channel its corresponding rank in the sequencer and its sample time.
  */
  sConfig.Channel = ADC_CHANNEL_7;
 800f01c:	2307      	movs	r3, #7
 800f01e:	603b      	str	r3, [r7, #0]
  sConfig.Rank = 3;
 800f020:	2303      	movs	r3, #3
 800f022:	607b      	str	r3, [r7, #4]
  if (HAL_ADC_ConfigChannel(&hadc1, &sConfig) != HAL_OK)
 800f024:	463b      	mov	r3, r7
 800f026:	4619      	mov	r1, r3
 800f028:	480c      	ldr	r0, [pc, #48]	@ (800f05c <MX_ADC1_Init+0xec>)
 800f02a:	f000 ff57 	bl	800fedc <HAL_ADC_ConfigChannel>
 800f02e:	4603      	mov	r3, r0
 800f030:	2b00      	cmp	r3, #0
 800f032:	d001      	beq.n	800f038 <MX_ADC1_Init+0xc8>
  {
    Error_Handler();
 800f034:	f000 fa45 	bl	800f4c2 <Error_Handler>
  }

  /** Configure for the selected ADC regular channel its corresponding rank in the sequencer and its sample time.
  */
  sConfig.Channel = ADC_CHANNEL_8;
 800f038:	2308      	movs	r3, #8
 800f03a:	603b      	str	r3, [r7, #0]
  sConfig.Rank = 4;
 800f03c:	2304      	movs	r3, #4
 800f03e:	607b      	str	r3, [r7, #4]
  if (HAL_ADC_ConfigChannel(&hadc1, &sConfig) != HAL_OK)
 800f040:	463b      	mov	r3, r7
 800f042:	4619      	mov	r1, r3
 800f044:	4805      	ldr	r0, [pc, #20]	@ (800f05c <MX_ADC1_Init+0xec>)
 800f046:	f000 ff49 	bl	800fedc <HAL_ADC_ConfigChannel>
 800f04a:	4603      	mov	r3, r0
 800f04c:	2b00      	cmp	r3, #0
 800f04e:	d001      	beq.n	800f054 <MX_ADC1_Init+0xe4>
  {
    Error_Handler();
 800f050:	f000 fa37 	bl	800f4c2 <Error_Handler>
  }
  /* USER CODE BEGIN ADC1_Init 2 */

  /* USER CODE END ADC1_Init 2 */

}
 800f054:	bf00      	nop
 800f056:	3710      	adds	r7, #16
 800f058:	46bd      	mov	sp, r7
 800f05a:	bd80      	pop	{r7, pc}
 800f05c:	20000904 	.word	0x20000904
 800f060:	40012000 	.word	0x40012000
 800f064:	0f000001 	.word	0x0f000001

0800f068 <MX_CRC_Init>:
  * @brief CRC Initialization Function
  * @param None
  * @retval None
  */
static void MX_CRC_Init(void)
{
 800f068:	b580      	push	{r7, lr}
 800f06a:	af00      	add	r7, sp, #0
  /* USER CODE END CRC_Init 0 */

  /* USER CODE BEGIN CRC_Init 1 */

  /* USER CODE END CRC_Init 1 */
  hcrc.Instance = CRC;
 800f06c:	4b06      	ldr	r3, [pc, #24]	@ (800f088 <MX_CRC_Init+0x20>)
 800f06e:	4a07      	ldr	r2, [pc, #28]	@ (800f08c <MX_CRC_Init+0x24>)
 800f070:	601a      	str	r2, [r3, #0]
  if (HAL_CRC_Init(&hcrc) != HAL_OK)
 800f072:	4805      	ldr	r0, [pc, #20]	@ (800f088 <MX_CRC_Init+0x20>)
 800f074:	f001 fb51 	bl	801071a <HAL_CRC_Init>
 800f078:	4603      	mov	r3, r0
 800f07a:	2b00      	cmp	r3, #0
 800f07c:	d001      	beq.n	800f082 <MX_CRC_Init+0x1a>
  {
    Error_Handler();
 800f07e:	f000 fa20 	bl	800f4c2 <Error_Handler>
  }
  /* USER CODE BEGIN CRC_Init 2 */

  /* USER CODE END CRC_Init 2 */

}
 800f082:	bf00      	nop
 800f084:	bd80      	pop	{r7, pc}
 800f086:	bf00      	nop
 800f088:	200009ac 	.word	0x200009ac
 800f08c:	40023000 	.word	0x40023000

0800f090 <MX_I2C1_Init>:
  * @brief I2C1 Initialization Function
  * @param None
  * @retval None
  */
static void MX_I2C1_Init(void)
{
 800f090:	b580      	push	{r7, lr}
 800f092:	af00      	add	r7, sp, #0
  /* USER CODE END I2C1_Init 0 */

  /* USER CODE BEGIN I2C1_Init 1 */

  /* USER CODE END I2C1_Init 1 */
  hi2c1.Instance = I2C1;
 800f094:	4b12      	ldr	r3, [pc, #72]	@ (800f0e0 <MX_I2C1_Init+0x50>)
 800f096:	4a13      	ldr	r2, [pc, #76]	@ (800f0e4 <MX_I2C1_Init+0x54>)
 800f098:	601a      	str	r2, [r3, #0]
  hi2c1.Init.ClockSpeed = 100000;
 800f09a:	4b11      	ldr	r3, [pc, #68]	@ (800f0e0 <MX_I2C1_Init+0x50>)
 800f09c:	4a12      	ldr	r2, [pc, #72]	@ (800f0e8 <MX_I2C1_Init+0x58>)
 800f09e:	605a      	str	r2, [r3, #4]
  hi2c1.Init.DutyCycle = I2C_DUTYCYCLE_2;
 800f0a0:	4b0f      	ldr	r3, [pc, #60]	@ (800f0e0 <MX_I2C1_Init+0x50>)
 800f0a2:	2200      	movs	r2, #0
 800f0a4:	609a      	str	r2, [r3, #8]
  hi2c1.Init.OwnAddress1 = 0;
 800f0a6:	4b0e      	ldr	r3, [pc, #56]	@ (800f0e0 <MX_I2C1_Init+0x50>)
 800f0a8:	2200      	movs	r2, #0
 800f0aa:	60da      	str	r2, [r3, #12]
  hi2c1.Init.AddressingMode = I2C_ADDRESSINGMODE_7BIT;
 800f0ac:	4b0c      	ldr	r3, [pc, #48]	@ (800f0e0 <MX_I2C1_Init+0x50>)
 800f0ae:	f44f 4280 	mov.w	r2, #16384	@ 0x4000
 800f0b2:	611a      	str	r2, [r3, #16]
  hi2c1.Init.DualAddressMode = I2C_DUALADDRESS_DISABLE;
 800f0b4:	4b0a      	ldr	r3, [pc, #40]	@ (800f0e0 <MX_I2C1_Init+0x50>)
 800f0b6:	2200      	movs	r2, #0
 800f0b8:	615a      	str	r2, [r3, #20]
  hi2c1.Init.OwnAddress2 = 0;
 800f0ba:	4b09      	ldr	r3, [pc, #36]	@ (800f0e0 <MX_I2C1_Init+0x50>)
 800f0bc:	2200      	movs	r2, #0
 800f0be:	619a      	str	r2, [r3, #24]
  hi2c1.Init.GeneralCallMode = I2C_GENERALCALL_DISABLE;
 800f0c0:	4b07      	ldr	r3, [pc, #28]	@ (800f0e0 <MX_I2C1_Init+0x50>)
 800f0c2:	2200      	movs	r2, #0
 800f0c4:	61da      	str	r2, [r3, #28]
  hi2c1.Init.NoStretchMode = I2C_NOSTRETCH_DISABLE;
 800f0c6:	4b06      	ldr	r3, [pc, #24]	@ (800f0e0 <MX_I2C1_Init+0x50>)
 800f0c8:	2200      	movs	r2, #0
 800f0ca:	621a      	str	r2, [r3, #32]
  if (HAL_I2C_Init(&hi2c1) != HAL_OK)
 800f0cc:	4804      	ldr	r0, [pc, #16]	@ (800f0e0 <MX_I2C1_Init+0x50>)
 800f0ce:	f002 fc1f 	bl	8011910 <HAL_I2C_Init>
 800f0d2:	4603      	mov	r3, r0
 800f0d4:	2b00      	cmp	r3, #0
 800f0d6:	d001      	beq.n	800f0dc <MX_I2C1_Init+0x4c>
  {
    Error_Handler();
 800f0d8:	f000 f9f3 	bl	800f4c2 <Error_Handler>
  }
  /* USER CODE BEGIN I2C1_Init 2 */

  /* USER CODE END I2C1_Init 2 */

}
 800f0dc:	bf00      	nop
 800f0de:	bd80      	pop	{r7, pc}
 800f0e0:	200009b4 	.word	0x200009b4
 800f0e4:	40005400 	.word	0x40005400
 800f0e8:	000186a0 	.word	0x000186a0

0800f0ec <MX_IWDG_Init>:
  * @brief IWDG Initialization Function
  * @param None
  * @retval None
  */
static void MX_IWDG_Init(void)
{
 800f0ec:	b580      	push	{r7, lr}
 800f0ee:	af00      	add	r7, sp, #0
  /* USER CODE END IWDG_Init 0 */

  /* USER CODE BEGIN IWDG_Init 1 */

  /* USER CODE END IWDG_Init 1 */
  hiwdg.Instance = IWDG;
 800f0f0:	4b09      	ldr	r3, [pc, #36]	@ (800f118 <MX_IWDG_Init+0x2c>)
 800f0f2:	4a0a      	ldr	r2, [pc, #40]	@ (800f11c <MX_IWDG_Init+0x30>)
 800f0f4:	601a      	str	r2, [r3, #0]
  hiwdg.Init.Prescaler = IWDG_PRESCALER_4;
 800f0f6:	4b08      	ldr	r3, [pc, #32]	@ (800f118 <MX_IWDG_Init+0x2c>)
 800f0f8:	2200      	movs	r2, #0
 800f0fa:	605a      	str	r2, [r3, #4]
  hiwdg.Init.Reload = 4095;
 800f0fc:	4b06      	ldr	r3, [pc, #24]	@ (800f118 <MX_IWDG_Init+0x2c>)
 800f0fe:	f640 72ff 	movw	r2, #4095	@ 0xfff
 800f102:	609a      	str	r2, [r3, #8]
  if (HAL_IWDG_Init(&hiwdg) != HAL_OK)
 800f104:	4804      	ldr	r0, [pc, #16]	@ (800f118 <MX_IWDG_Init+0x2c>)
 800f106:	f002 fd47 	bl	8011b98 <HAL_IWDG_Init>
 800f10a:	4603      	mov	r3, r0
 800f10c:	2b00      	cmp	r3, #0
 800f10e:	d001      	beq.n	800f114 <MX_IWDG_Init+0x28>
  {
    Error_Handler();
 800f110:	f000 f9d7 	bl	800f4c2 <Error_Handler>
  }
  /* USER CODE BEGIN IWDG_Init 2 */

  /* USER CODE END IWDG_Init 2 */

}
 800f114:	bf00      	nop
 800f116:	bd80      	pop	{r7, pc}
 800f118:	20000a08 	.word	0x20000a08
 800f11c:	40003000 	.word	0x40003000

0800f120 <MX_SPI2_Init>:
  * @brief SPI2 Initialization Function
  * @param None
  * @retval None
  */
static void MX_SPI2_Init(void)
{
 800f120:	b580      	push	{r7, lr}
 800f122:	af00      	add	r7, sp, #0

  /* USER CODE BEGIN SPI2_Init 1 */

  /* USER CODE END SPI2_Init 1 */
  /* SPI2 parameter configuration*/
  hspi2.Instance = SPI2;
 800f124:	4b17      	ldr	r3, [pc, #92]	@ (800f184 <MX_SPI2_Init+0x64>)
 800f126:	4a18      	ldr	r2, [pc, #96]	@ (800f188 <MX_SPI2_Init+0x68>)
 800f128:	601a      	str	r2, [r3, #0]
  hspi2.Init.Mode = SPI_MODE_MASTER;
 800f12a:	4b16      	ldr	r3, [pc, #88]	@ (800f184 <MX_SPI2_Init+0x64>)
 800f12c:	f44f 7282 	mov.w	r2, #260	@ 0x104
 800f130:	605a      	str	r2, [r3, #4]
  hspi2.Init.Direction = SPI_DIRECTION_2LINES;
 800f132:	4b14      	ldr	r3, [pc, #80]	@ (800f184 <MX_SPI2_Init+0x64>)
 800f134:	2200      	movs	r2, #0
 800f136:	609a      	str	r2, [r3, #8]
  hspi2.Init.DataSize = SPI_DATASIZE_8BIT;
 800f138:	4b12      	ldr	r3, [pc, #72]	@ (800f184 <MX_SPI2_Init+0x64>)
 800f13a:	2200      	movs	r2, #0
 800f13c:	60da      	str	r2, [r3, #12]
  hspi2.Init.CLKPolarity = SPI_POLARITY_LOW;
 800f13e:	4b11      	ldr	r3, [pc, #68]	@ (800f184 <MX_SPI2_Init+0x64>)
 800f140:	2200      	movs	r2, #0
 800f142:	611a      	str	r2, [r3, #16]
  hspi2.Init.CLKPhase = SPI_PHASE_1EDGE;
 800f144:	4b0f      	ldr	r3, [pc, #60]	@ (800f184 <MX_SPI2_Init+0x64>)
 800f146:	2200      	movs	r2, #0
 800f148:	615a      	str	r2, [r3, #20]
  hspi2.Init.NSS = SPI_NSS_SOFT;
 800f14a:	4b0e      	ldr	r3, [pc, #56]	@ (800f184 <MX_SPI2_Init+0x64>)
 800f14c:	f44f 7200 	mov.w	r2, #512	@ 0x200
 800f150:	619a      	str	r2, [r3, #24]
  hspi2.Init.BaudRatePrescaler = SPI_BAUDRATEPRESCALER_2;
 800f152:	4b0c      	ldr	r3, [pc, #48]	@ (800f184 <MX_SPI2_Init+0x64>)
 800f154:	2200      	movs	r2, #0
 800f156:	61da      	str	r2, [r3, #28]
  hspi2.Init.FirstBit = SPI_FIRSTBIT_MSB;
 800f158:	4b0a      	ldr	r3, [pc, #40]	@ (800f184 <MX_SPI2_Init+0x64>)
 800f15a:	2200      	movs	r2, #0
 800f15c:	621a      	str	r2, [r3, #32]
  hspi2.Init.TIMode = SPI_TIMODE_DISABLE;
 800f15e:	4b09      	ldr	r3, [pc, #36]	@ (800f184 <MX_SPI2_Init+0x64>)
 800f160:	2200      	movs	r2, #0
 800f162:	625a      	str	r2, [r3, #36]	@ 0x24
  hspi2.Init.CRCCalculation = SPI_CRCCALCULATION_DISABLE;
 800f164:	4b07      	ldr	r3, [pc, #28]	@ (800f184 <MX_SPI2_Init+0x64>)
 800f166:	2200      	movs	r2, #0
 800f168:	629a      	str	r2, [r3, #40]	@ 0x28
  hspi2.Init.CRCPolynomial = 10;
 800f16a:	4b06      	ldr	r3, [pc, #24]	@ (800f184 <MX_SPI2_Init+0x64>)
 800f16c:	220a      	movs	r2, #10
 800f16e:	62da      	str	r2, [r3, #44]	@ 0x2c
  if (HAL_SPI_Init(&hspi2) != HAL_OK)
 800f170:	4804      	ldr	r0, [pc, #16]	@ (800f184 <MX_SPI2_Init+0x64>)
 800f172:	f003 fb17 	bl	80127a4 <HAL_SPI_Init>
 800f176:	4603      	mov	r3, r0
 800f178:	2b00      	cmp	r3, #0
 800f17a:	d001      	beq.n	800f180 <MX_SPI2_Init+0x60>
  {
    Error_Handler();
 800f17c:	f000 f9a1 	bl	800f4c2 <Error_Handler>
  }
  /* USER CODE BEGIN SPI2_Init 2 */

  /* USER CODE END SPI2_Init 2 */

}
 800f180:	bf00      	nop
 800f182:	bd80      	pop	{r7, pc}
 800f184:	20000a14 	.word	0x20000a14
 800f188:	40003800 	.word	0x40003800

0800f18c <MX_TIM2_Init>:
  * @brief TIM2 Initialization Function
  * @param None
  * @retval None
  */
static void MX_TIM2_Init(void)
{
 800f18c:	b580      	push	{r7, lr}
 800f18e:	b086      	sub	sp, #24
 800f190:	af00      	add	r7, sp, #0

  /* USER CODE BEGIN TIM2_Init 0 */

  /* USER CODE END TIM2_Init 0 */

  TIM_ClockConfigTypeDef sClockSourceConfig = {0};
 800f192:	f107 0308 	add.w	r3, r7, #8
 800f196:	2200      	movs	r2, #0
 800f198:	601a      	str	r2, [r3, #0]
 800f19a:	605a      	str	r2, [r3, #4]
 800f19c:	609a      	str	r2, [r3, #8]
 800f19e:	60da      	str	r2, [r3, #12]
  TIM_MasterConfigTypeDef sMasterConfig = {0};
 800f1a0:	463b      	mov	r3, r7
 800f1a2:	2200      	movs	r2, #0
 800f1a4:	601a      	str	r2, [r3, #0]
 800f1a6:	605a      	str	r2, [r3, #4]

  /* USER CODE BEGIN TIM2_Init 1 */

  /* USER CODE END TIM2_Init 1 */
  htim2.Instance = TIM2;
 800f1a8:	4b1d      	ldr	r3, [pc, #116]	@ (800f220 <MX_TIM2_Init+0x94>)
 800f1aa:	f04f 4280 	mov.w	r2, #1073741824	@ 0x40000000
 800f1ae:	601a      	str	r2, [r3, #0]
  htim2.Init.Prescaler = 45-1;
 800f1b0:	4b1b      	ldr	r3, [pc, #108]	@ (800f220 <MX_TIM2_Init+0x94>)
 800f1b2:	222c      	movs	r2, #44	@ 0x2c
 800f1b4:	605a      	str	r2, [r3, #4]
  htim2.Init.CounterMode = TIM_COUNTERMODE_UP;
 800f1b6:	4b1a      	ldr	r3, [pc, #104]	@ (800f220 <MX_TIM2_Init+0x94>)
 800f1b8:	2200      	movs	r2, #0
 800f1ba:	609a      	str	r2, [r3, #8]
  htim2.Init.Period = 45-1;
 800f1bc:	4b18      	ldr	r3, [pc, #96]	@ (800f220 <MX_TIM2_Init+0x94>)
 800f1be:	222c      	movs	r2, #44	@ 0x2c
 800f1c0:	60da      	str	r2, [r3, #12]
  htim2.Init.ClockDivision = TIM_CLOCKDIVISION_DIV1;
 800f1c2:	4b17      	ldr	r3, [pc, #92]	@ (800f220 <MX_TIM2_Init+0x94>)
 800f1c4:	2200      	movs	r2, #0
 800f1c6:	611a      	str	r2, [r3, #16]
  htim2.Init.AutoReloadPreload = TIM_AUTORELOAD_PRELOAD_DISABLE;
 800f1c8:	4b15      	ldr	r3, [pc, #84]	@ (800f220 <MX_TIM2_Init+0x94>)
 800f1ca:	2200      	movs	r2, #0
 800f1cc:	619a      	str	r2, [r3, #24]
  if (HAL_TIM_Base_Init(&htim2) != HAL_OK)
 800f1ce:	4814      	ldr	r0, [pc, #80]	@ (800f220 <MX_TIM2_Init+0x94>)
 800f1d0:	f003 fb71 	bl	80128b6 <HAL_TIM_Base_Init>
 800f1d4:	4603      	mov	r3, r0
 800f1d6:	2b00      	cmp	r3, #0
 800f1d8:	d001      	beq.n	800f1de <MX_TIM2_Init+0x52>
  {
    Error_Handler();
 800f1da:	f000 f972 	bl	800f4c2 <Error_Handler>
  }
  sClockSourceConfig.ClockSource = TIM_CLOCKSOURCE_INTERNAL;
 800f1de:	f44f 5380 	mov.w	r3, #4096	@ 0x1000
 800f1e2:	60bb      	str	r3, [r7, #8]
  if (HAL_TIM_ConfigClockSource(&htim2, &sClockSourceConfig) != HAL_OK)
 800f1e4:	f107 0308 	add.w	r3, r7, #8
 800f1e8:	4619      	mov	r1, r3
 800f1ea:	480d      	ldr	r0, [pc, #52]	@ (800f220 <MX_TIM2_Init+0x94>)
 800f1ec:	f003 fd41 	bl	8012c72 <HAL_TIM_ConfigClockSource>
 800f1f0:	4603      	mov	r3, r0
 800f1f2:	2b00      	cmp	r3, #0
 800f1f4:	d001      	beq.n	800f1fa <MX_TIM2_Init+0x6e>
  {
    Error_Handler();
 800f1f6:	f000 f964 	bl	800f4c2 <Error_Handler>
  }
  sMasterConfig.MasterOutputTrigger = TIM_TRGO_RESET;
 800f1fa:	2300      	movs	r3, #0
 800f1fc:	603b      	str	r3, [r7, #0]
  sMasterConfig.MasterSlaveMode = TIM_MASTERSLAVEMODE_DISABLE;
 800f1fe:	2300      	movs	r3, #0
 800f200:	607b      	str	r3, [r7, #4]
  if (HAL_TIMEx_MasterConfigSynchronization(&htim2, &sMasterConfig) != HAL_OK)
 800f202:	463b      	mov	r3, r7
 800f204:	4619      	mov	r1, r3
 800f206:	4806      	ldr	r0, [pc, #24]	@ (800f220 <MX_TIM2_Init+0x94>)
 800f208:	f003 ff62 	bl	80130d0 <HAL_TIMEx_MasterConfigSynchronization>
 800f20c:	4603      	mov	r3, r0
 800f20e:	2b00      	cmp	r3, #0
 800f210:	d001      	beq.n	800f216 <MX_TIM2_Init+0x8a>
  {
    Error_Handler();
 800f212:	f000 f956 	bl	800f4c2 <Error_Handler>
  }
  /* USER CODE BEGIN TIM2_Init 2 */

  /* USER CODE END TIM2_Init 2 */

}
 800f216:	bf00      	nop
 800f218:	3718      	adds	r7, #24
 800f21a:	46bd      	mov	sp, r7
 800f21c:	bd80      	pop	{r7, pc}
 800f21e:	bf00      	nop
 800f220:	20000a6c 	.word	0x20000a6c

0800f224 <MX_UART5_Init>:
  * @brief UART5 Initialization Function
  * @param None
  * @retval None
  */
static void MX_UART5_Init(void)
{
 800f224:	b580      	push	{r7, lr}
 800f226:	af00      	add	r7, sp, #0
  /* USER CODE END UART5_Init 0 */

  /* USER CODE BEGIN UART5_Init 1 */

  /* USER CODE END UART5_Init 1 */
  huart5.Instance = UART5;
 800f228:	4b11      	ldr	r3, [pc, #68]	@ (800f270 <MX_UART5_Init+0x4c>)
 800f22a:	4a12      	ldr	r2, [pc, #72]	@ (800f274 <MX_UART5_Init+0x50>)
 800f22c:	601a      	str	r2, [r3, #0]
  huart5.Init.BaudRate = 115200;
 800f22e:	4b10      	ldr	r3, [pc, #64]	@ (800f270 <MX_UART5_Init+0x4c>)
 800f230:	f44f 32e1 	mov.w	r2, #115200	@ 0x1c200
 800f234:	605a      	str	r2, [r3, #4]
  huart5.Init.WordLength = UART_WORDLENGTH_8B;
 800f236:	4b0e      	ldr	r3, [pc, #56]	@ (800f270 <MX_UART5_Init+0x4c>)
 800f238:	2200      	movs	r2, #0
 800f23a:	609a      	str	r2, [r3, #8]
  huart5.Init.StopBits = UART_STOPBITS_1;
 800f23c:	4b0c      	ldr	r3, [pc, #48]	@ (800f270 <MX_UART5_Init+0x4c>)
 800f23e:	2200      	movs	r2, #0
 800f240:	60da      	str	r2, [r3, #12]
  huart5.Init.Parity = UART_PARITY_NONE;
 800f242:	4b0b      	ldr	r3, [pc, #44]	@ (800f270 <MX_UART5_Init+0x4c>)
 800f244:	2200      	movs	r2, #0
 800f246:	611a      	str	r2, [r3, #16]
  huart5.Init.Mode = UART_MODE_TX_RX;
 800f248:	4b09      	ldr	r3, [pc, #36]	@ (800f270 <MX_UART5_Init+0x4c>)
 800f24a:	220c      	movs	r2, #12
 800f24c:	615a      	str	r2, [r3, #20]
  huart5.Init.HwFlowCtl = UART_HWCONTROL_NONE;
 800f24e:	4b08      	ldr	r3, [pc, #32]	@ (800f270 <MX_UART5_Init+0x4c>)
 800f250:	2200      	movs	r2, #0
 800f252:	619a      	str	r2, [r3, #24]
  huart5.Init.OverSampling = UART_OVERSAMPLING_16;
 800f254:	4b06      	ldr	r3, [pc, #24]	@ (800f270 <MX_UART5_Init+0x4c>)
 800f256:	2200      	movs	r2, #0
 800f258:	61da      	str	r2, [r3, #28]
  if (HAL_UART_Init(&huart5) != HAL_OK)
 800f25a:	4805      	ldr	r0, [pc, #20]	@ (800f270 <MX_UART5_Init+0x4c>)
 800f25c:	f003 ffc8 	bl	80131f0 <HAL_UART_Init>
 800f260:	4603      	mov	r3, r0
 800f262:	2b00      	cmp	r3, #0
 800f264:	d001      	beq.n	800f26a <MX_UART5_Init+0x46>
  {
    Error_Handler();
 800f266:	f000 f92c 	bl	800f4c2 <Error_Handler>
  }
  /* USER CODE BEGIN UART5_Init 2 */

  /* USER CODE END UART5_Init 2 */

}
 800f26a:	bf00      	nop
 800f26c:	bd80      	pop	{r7, pc}
 800f26e:	bf00      	nop
 800f270:	20000ab4 	.word	0x20000ab4
 800f274:	40005000 	.word	0x40005000

0800f278 <MX_USART1_UART_Init>:
  * @brief USART1 Initialization Function
  * @param None
  * @retval None
  */
static void MX_USART1_UART_Init(void)
{
 800f278:	b580      	push	{r7, lr}
 800f27a:	af00      	add	r7, sp, #0
  /* USER CODE END USART1_Init 0 */

  /* USER CODE BEGIN USART1_Init 1 */

  /* USER CODE END USART1_Init 1 */
  huart1.Instance = USART1;
 800f27c:	4b11      	ldr	r3, [pc, #68]	@ (800f2c4 <MX_USART1_UART_Init+0x4c>)
 800f27e:	4a12      	ldr	r2, [pc, #72]	@ (800f2c8 <MX_USART1_UART_Init+0x50>)
 800f280:	601a      	str	r2, [r3, #0]
  huart1.Init.BaudRate = 115200;
 800f282:	4b10      	ldr	r3, [pc, #64]	@ (800f2c4 <MX_USART1_UART_Init+0x4c>)
 800f284:	f44f 32e1 	mov.w	r2, #115200	@ 0x1c200
 800f288:	605a      	str	r2, [r3, #4]
  huart1.Init.WordLength = UART_WORDLENGTH_8B;
 800f28a:	4b0e      	ldr	r3, [pc, #56]	@ (800f2c4 <MX_USART1_UART_Init+0x4c>)
 800f28c:	2200      	movs	r2, #0
 800f28e:	609a      	str	r2, [r3, #8]
  huart1.Init.StopBits = UART_STOPBITS_1;
 800f290:	4b0c      	ldr	r3, [pc, #48]	@ (800f2c4 <MX_USART1_UART_Init+0x4c>)
 800f292:	2200      	movs	r2, #0
 800f294:	60da      	str	r2, [r3, #12]
  huart1.Init.Parity = UART_PARITY_NONE;
 800f296:	4b0b      	ldr	r3, [pc, #44]	@ (800f2c4 <MX_USART1_UART_Init+0x4c>)
 800f298:	2200      	movs	r2, #0
 800f29a:	611a      	str	r2, [r3, #16]
  huart1.Init.Mode = UART_MODE_TX_RX;
 800f29c:	4b09      	ldr	r3, [pc, #36]	@ (800f2c4 <MX_USART1_UART_Init+0x4c>)
 800f29e:	220c      	movs	r2, #12
 800f2a0:	615a      	str	r2, [r3, #20]
  huart1.Init.HwFlowCtl = UART_HWCONTROL_NONE;
 800f2a2:	4b08      	ldr	r3, [pc, #32]	@ (800f2c4 <MX_USART1_UART_Init+0x4c>)
 800f2a4:	2200      	movs	r2, #0
 800f2a6:	619a      	str	r2, [r3, #24]
  huart1.Init.OverSampling = UART_OVERSAMPLING_16;
 800f2a8:	4b06      	ldr	r3, [pc, #24]	@ (800f2c4 <MX_USART1_UART_Init+0x4c>)
 800f2aa:	2200      	movs	r2, #0
 800f2ac:	61da      	str	r2, [r3, #28]
  if (HAL_UART_Init(&huart1) != HAL_OK)
 800f2ae:	4805      	ldr	r0, [pc, #20]	@ (800f2c4 <MX_USART1_UART_Init+0x4c>)
 800f2b0:	f003 ff9e 	bl	80131f0 <HAL_UART_Init>
 800f2b4:	4603      	mov	r3, r0
 800f2b6:	2b00      	cmp	r3, #0
 800f2b8:	d001      	beq.n	800f2be <MX_USART1_UART_Init+0x46>
  {
    Error_Handler();
 800f2ba:	f000 f902 	bl	800f4c2 <Error_Handler>
  }
  /* USER CODE BEGIN USART1_Init 2 */

  /* USER CODE END USART1_Init 2 */

}
 800f2be:	bf00      	nop
 800f2c0:	bd80      	pop	{r7, pc}
 800f2c2:	bf00      	nop
 800f2c4:	20000afc 	.word	0x20000afc
 800f2c8:	40011000 	.word	0x40011000

0800f2cc <MX_DMA_Init>:

/**
  * Enable DMA controller clock
  */
static void MX_DMA_Init(void)
{
 800f2cc:	b580      	push	{r7, lr}
 800f2ce:	b082      	sub	sp, #8
 800f2d0:	af00      	add	r7, sp, #0

  /* DMA controller clock enable */
  __HAL_RCC_DMA2_CLK_ENABLE();
 800f2d2:	2300      	movs	r3, #0
 800f2d4:	607b      	str	r3, [r7, #4]
 800f2d6:	4b0c      	ldr	r3, [pc, #48]	@ (800f308 <MX_DMA_Init+0x3c>)
 800f2d8:	6b1b      	ldr	r3, [r3, #48]	@ 0x30
 800f2da:	4a0b      	ldr	r2, [pc, #44]	@ (800f308 <MX_DMA_Init+0x3c>)
 800f2dc:	f443 0380 	orr.w	r3, r3, #4194304	@ 0x400000
 800f2e0:	6313      	str	r3, [r2, #48]	@ 0x30
 800f2e2:	4b09      	ldr	r3, [pc, #36]	@ (800f308 <MX_DMA_Init+0x3c>)
 800f2e4:	6b1b      	ldr	r3, [r3, #48]	@ 0x30
 800f2e6:	f403 0380 	and.w	r3, r3, #4194304	@ 0x400000
 800f2ea:	607b      	str	r3, [r7, #4]
 800f2ec:	687b      	ldr	r3, [r7, #4]

  /* DMA interrupt init */
  /* DMA2_Stream0_IRQn interrupt configuration */
  HAL_NVIC_SetPriority(DMA2_Stream0_IRQn, 0, 0);
 800f2ee:	2200      	movs	r2, #0
 800f2f0:	2100      	movs	r1, #0
 800f2f2:	2038      	movs	r0, #56	@ 0x38
 800f2f4:	f001 f9bf 	bl	8010676 <HAL_NVIC_SetPriority>
  HAL_NVIC_EnableIRQ(DMA2_Stream0_IRQn);
 800f2f8:	2038      	movs	r0, #56	@ 0x38
 800f2fa:	f001 f9d8 	bl	80106ae <HAL_NVIC_EnableIRQ>

}
 800f2fe:	bf00      	nop
 800f300:	3708      	adds	r7, #8
 800f302:	46bd      	mov	sp, r7
 800f304:	bd80      	pop	{r7, pc}
 800f306:	bf00      	nop
 800f308:	40023800 	.word	0x40023800

0800f30c <MX_GPIO_Init>:
  * @brief GPIO Initialization Function
  * @param None
  * @retval None
  */
static void MX_GPIO_Init(void)
{
 800f30c:	b580      	push	{r7, lr}
 800f30e:	b08a      	sub	sp, #40	@ 0x28
 800f310:	af00      	add	r7, sp, #0
  GPIO_InitTypeDef GPIO_InitStruct = {0};
 800f312:	f107 0314 	add.w	r3, r7, #20
 800f316:	2200      	movs	r2, #0
 800f318:	601a      	str	r2, [r3, #0]
 800f31a:	605a      	str	r2, [r3, #4]
 800f31c:	609a      	str	r2, [r3, #8]
 800f31e:	60da      	str	r2, [r3, #12]
 800f320:	611a      	str	r2, [r3, #16]
/* USER CODE BEGIN MX_GPIO_Init_1 */
/* USER CODE END MX_GPIO_Init_1 */

  /* GPIO Ports Clock Enable */
  __HAL_RCC_GPIOC_CLK_ENABLE();
 800f322:	2300      	movs	r3, #0
 800f324:	613b      	str	r3, [r7, #16]
 800f326:	4b5b      	ldr	r3, [pc, #364]	@ (800f494 <MX_GPIO_Init+0x188>)
 800f328:	6b1b      	ldr	r3, [r3, #48]	@ 0x30
 800f32a:	4a5a      	ldr	r2, [pc, #360]	@ (800f494 <MX_GPIO_Init+0x188>)
 800f32c:	f043 0304 	orr.w	r3, r3, #4
 800f330:	6313      	str	r3, [r2, #48]	@ 0x30
 800f332:	4b58      	ldr	r3, [pc, #352]	@ (800f494 <MX_GPIO_Init+0x188>)
 800f334:	6b1b      	ldr	r3, [r3, #48]	@ 0x30
 800f336:	f003 0304 	and.w	r3, r3, #4
 800f33a:	613b      	str	r3, [r7, #16]
 800f33c:	693b      	ldr	r3, [r7, #16]
  __HAL_RCC_GPIOH_CLK_ENABLE();
 800f33e:	2300      	movs	r3, #0
 800f340:	60fb      	str	r3, [r7, #12]
 800f342:	4b54      	ldr	r3, [pc, #336]	@ (800f494 <MX_GPIO_Init+0x188>)
 800f344:	6b1b      	ldr	r3, [r3, #48]	@ 0x30
 800f346:	4a53      	ldr	r2, [pc, #332]	@ (800f494 <MX_GPIO_Init+0x188>)
 800f348:	f043 0380 	orr.w	r3, r3, #128	@ 0x80
 800f34c:	6313      	str	r3, [r2, #48]	@ 0x30
 800f34e:	4b51      	ldr	r3, [pc, #324]	@ (800f494 <MX_GPIO_Init+0x188>)
 800f350:	6b1b      	ldr	r3, [r3, #48]	@ 0x30
 800f352:	f003 0380 	and.w	r3, r3, #128	@ 0x80
 800f356:	60fb      	str	r3, [r7, #12]
 800f358:	68fb      	ldr	r3, [r7, #12]
  __HAL_RCC_GPIOA_CLK_ENABLE();
 800f35a:	2300      	movs	r3, #0
 800f35c:	60bb      	str	r3, [r7, #8]
 800f35e:	4b4d      	ldr	r3, [pc, #308]	@ (800f494 <MX_GPIO_Init+0x188>)
 800f360:	6b1b      	ldr	r3, [r3, #48]	@ 0x30
 800f362:	4a4c      	ldr	r2, [pc, #304]	@ (800f494 <MX_GPIO_Init+0x188>)
 800f364:	f043 0301 	orr.w	r3, r3, #1
 800f368:	6313      	str	r3, [r2, #48]	@ 0x30
 800f36a:	4b4a      	ldr	r3, [pc, #296]	@ (800f494 <MX_GPIO_Init+0x188>)
 800f36c:	6b1b      	ldr	r3, [r3, #48]	@ 0x30
 800f36e:	f003 0301 	and.w	r3, r3, #1
 800f372:	60bb      	str	r3, [r7, #8]
 800f374:	68bb      	ldr	r3, [r7, #8]
  __HAL_RCC_GPIOB_CLK_ENABLE();
 800f376:	2300      	movs	r3, #0
 800f378:	607b      	str	r3, [r7, #4]
 800f37a:	4b46      	ldr	r3, [pc, #280]	@ (800f494 <MX_GPIO_Init+0x188>)
 800f37c:	6b1b      	ldr	r3, [r3, #48]	@ 0x30
 800f37e:	4a45      	ldr	r2, [pc, #276]	@ (800f494 <MX_GPIO_Init+0x188>)
 800f380:	f043 0302 	orr.w	r3, r3, #2
 800f384:	6313      	str	r3, [r2, #48]	@ 0x30
 800f386:	4b43      	ldr	r3, [pc, #268]	@ (800f494 <MX_GPIO_Init+0x188>)
 800f388:	6b1b      	ldr	r3, [r3, #48]	@ 0x30
 800f38a:	f003 0302 	and.w	r3, r3, #2
 800f38e:	607b      	str	r3, [r7, #4]
 800f390:	687b      	ldr	r3, [r7, #4]
  __HAL_RCC_GPIOD_CLK_ENABLE();
 800f392:	2300      	movs	r3, #0
 800f394:	603b      	str	r3, [r7, #0]
 800f396:	4b3f      	ldr	r3, [pc, #252]	@ (800f494 <MX_GPIO_Init+0x188>)
 800f398:	6b1b      	ldr	r3, [r3, #48]	@ 0x30
 800f39a:	4a3e      	ldr	r2, [pc, #248]	@ (800f494 <MX_GPIO_Init+0x188>)
 800f39c:	f043 0308 	orr.w	r3, r3, #8
 800f3a0:	6313      	str	r3, [r2, #48]	@ 0x30
 800f3a2:	4b3c      	ldr	r3, [pc, #240]	@ (800f494 <MX_GPIO_Init+0x188>)
 800f3a4:	6b1b      	ldr	r3, [r3, #48]	@ 0x30
 800f3a6:	f003 0308 	and.w	r3, r3, #8
 800f3aa:	603b      	str	r3, [r7, #0]
 800f3ac:	683b      	ldr	r3, [r7, #0]

  /*Configure GPIO pin Output Level */
  HAL_GPIO_WritePin(GPIOC, GPIO_PIN_13|GPIO_PIN_14|GPIO_PIN_15, GPIO_PIN_RESET);
 800f3ae:	2200      	movs	r2, #0
 800f3b0:	f44f 4160 	mov.w	r1, #57344	@ 0xe000
 800f3b4:	4838      	ldr	r0, [pc, #224]	@ (800f498 <MX_GPIO_Init+0x18c>)
 800f3b6:	f002 fa5f 	bl	8011878 <HAL_GPIO_WritePin>

  /*Configure GPIO pin Output Level */
  HAL_GPIO_WritePin(led_GPIO_Port, led_Pin, GPIO_PIN_SET);
 800f3ba:	2201      	movs	r2, #1
 800f3bc:	f44f 5180 	mov.w	r1, #4096	@ 0x1000
 800f3c0:	4836      	ldr	r0, [pc, #216]	@ (800f49c <MX_GPIO_Init+0x190>)
 800f3c2:	f002 fa59 	bl	8011878 <HAL_GPIO_WritePin>

  /*Configure GPIO pin Output Level */
  HAL_GPIO_WritePin(GPIOA, GPIO_PIN_12, GPIO_PIN_RESET);
 800f3c6:	2200      	movs	r2, #0
 800f3c8:	f44f 5180 	mov.w	r1, #4096	@ 0x1000
 800f3cc:	4834      	ldr	r0, [pc, #208]	@ (800f4a0 <MX_GPIO_Init+0x194>)
 800f3ce:	f002 fa53 	bl	8011878 <HAL_GPIO_WritePin>

  /*Configure GPIO pins : PC13 PC14 PC15 */
  GPIO_InitStruct.Pin = GPIO_PIN_13|GPIO_PIN_14|GPIO_PIN_15;
 800f3d2:	f44f 4360 	mov.w	r3, #57344	@ 0xe000
 800f3d6:	617b      	str	r3, [r7, #20]
  GPIO_InitStruct.Mode = GPIO_MODE_OUTPUT_PP;
 800f3d8:	2301      	movs	r3, #1
 800f3da:	61bb      	str	r3, [r7, #24]
  GPIO_InitStruct.Pull = GPIO_NOPULL;
 800f3dc:	2300      	movs	r3, #0
 800f3de:	61fb      	str	r3, [r7, #28]
  GPIO_InitStruct.Speed = GPIO_SPEED_FREQ_LOW;
 800f3e0:	2300      	movs	r3, #0
 800f3e2:	623b      	str	r3, [r7, #32]
  HAL_GPIO_Init(GPIOC, &GPIO_InitStruct);
 800f3e4:	f107 0314 	add.w	r3, r7, #20
 800f3e8:	4619      	mov	r1, r3
 800f3ea:	482b      	ldr	r0, [pc, #172]	@ (800f498 <MX_GPIO_Init+0x18c>)
 800f3ec:	f002 f898 	bl	8011520 <HAL_GPIO_Init>

  /*Configure GPIO pin : led_Pin */
  GPIO_InitStruct.Pin = led_Pin;
 800f3f0:	f44f 5380 	mov.w	r3, #4096	@ 0x1000
 800f3f4:	617b      	str	r3, [r7, #20]
  GPIO_InitStruct.Mode = GPIO_MODE_OUTPUT_PP;
 800f3f6:	2301      	movs	r3, #1
 800f3f8:	61bb      	str	r3, [r7, #24]
  GPIO_InitStruct.Pull = GPIO_NOPULL;
 800f3fa:	2300      	movs	r3, #0
 800f3fc:	61fb      	str	r3, [r7, #28]
  GPIO_InitStruct.Speed = GPIO_SPEED_FREQ_LOW;
 800f3fe:	2300      	movs	r3, #0
 800f400:	623b      	str	r3, [r7, #32]
  HAL_GPIO_Init(led_GPIO_Port, &GPIO_InitStruct);
 800f402:	f107 0314 	add.w	r3, r7, #20
 800f406:	4619      	mov	r1, r3
 800f408:	4824      	ldr	r0, [pc, #144]	@ (800f49c <MX_GPIO_Init+0x190>)
 800f40a:	f002 f889 	bl	8011520 <HAL_GPIO_Init>

  /*Configure GPIO pin : button_Pin */
  GPIO_InitStruct.Pin = button_Pin;
 800f40e:	f44f 5300 	mov.w	r3, #8192	@ 0x2000
 800f412:	617b      	str	r3, [r7, #20]
  GPIO_InitStruct.Mode = GPIO_MODE_IT_RISING_FALLING;
 800f414:	f44f 1344 	mov.w	r3, #3211264	@ 0x310000
 800f418:	61bb      	str	r3, [r7, #24]
  GPIO_InitStruct.Pull = GPIO_NOPULL;
 800f41a:	2300      	movs	r3, #0
 800f41c:	61fb      	str	r3, [r7, #28]
  HAL_GPIO_Init(button_GPIO_Port, &GPIO_InitStruct);
 800f41e:	f107 0314 	add.w	r3, r7, #20
 800f422:	4619      	mov	r1, r3
 800f424:	481d      	ldr	r0, [pc, #116]	@ (800f49c <MX_GPIO_Init+0x190>)
 800f426:	f002 f87b 	bl	8011520 <HAL_GPIO_Init>

  /*Configure GPIO pin : PB15 */
  GPIO_InitStruct.Pin = GPIO_PIN_15;
 800f42a:	f44f 4300 	mov.w	r3, #32768	@ 0x8000
 800f42e:	617b      	str	r3, [r7, #20]
  GPIO_InitStruct.Mode = GPIO_MODE_INPUT;
 800f430:	2300      	movs	r3, #0
 800f432:	61bb      	str	r3, [r7, #24]
  GPIO_InitStruct.Pull = GPIO_NOPULL;
 800f434:	2300      	movs	r3, #0
 800f436:	61fb      	str	r3, [r7, #28]
  HAL_GPIO_Init(GPIOB, &GPIO_InitStruct);
 800f438:	f107 0314 	add.w	r3, r7, #20
 800f43c:	4619      	mov	r1, r3
 800f43e:	4817      	ldr	r0, [pc, #92]	@ (800f49c <MX_GPIO_Init+0x190>)
 800f440:	f002 f86e 	bl	8011520 <HAL_GPIO_Init>

  /*Configure GPIO pins : PC6 PC7 PC8 PC9 */
  GPIO_InitStruct.Pin = GPIO_PIN_6|GPIO_PIN_7|GPIO_PIN_8|GPIO_PIN_9;
 800f444:	f44f 7370 	mov.w	r3, #960	@ 0x3c0
 800f448:	617b      	str	r3, [r7, #20]
  GPIO_InitStruct.Mode = GPIO_MODE_INPUT;
 800f44a:	2300      	movs	r3, #0
 800f44c:	61bb      	str	r3, [r7, #24]
  GPIO_InitStruct.Pull = GPIO_NOPULL;
 800f44e:	2300      	movs	r3, #0
 800f450:	61fb      	str	r3, [r7, #28]
  HAL_GPIO_Init(GPIOC, &GPIO_InitStruct);
 800f452:	f107 0314 	add.w	r3, r7, #20
 800f456:	4619      	mov	r1, r3
 800f458:	480f      	ldr	r0, [pc, #60]	@ (800f498 <MX_GPIO_Init+0x18c>)
 800f45a:	f002 f861 	bl	8011520 <HAL_GPIO_Init>

  /*Configure GPIO pin : PA12 */
  GPIO_InitStruct.Pin = GPIO_PIN_12;
 800f45e:	f44f 5380 	mov.w	r3, #4096	@ 0x1000
 800f462:	617b      	str	r3, [r7, #20]
  GPIO_InitStruct.Mode = GPIO_MODE_OUTPUT_PP;
 800f464:	2301      	movs	r3, #1
 800f466:	61bb      	str	r3, [r7, #24]
  GPIO_InitStruct.Pull = GPIO_NOPULL;
 800f468:	2300      	movs	r3, #0
 800f46a:	61fb      	str	r3, [r7, #28]
  GPIO_InitStruct.Speed = GPIO_SPEED_FREQ_LOW;
 800f46c:	2300      	movs	r3, #0
 800f46e:	623b      	str	r3, [r7, #32]
  HAL_GPIO_Init(GPIOA, &GPIO_InitStruct);
 800f470:	f107 0314 	add.w	r3, r7, #20
 800f474:	4619      	mov	r1, r3
 800f476:	480a      	ldr	r0, [pc, #40]	@ (800f4a0 <MX_GPIO_Init+0x194>)
 800f478:	f002 f852 	bl	8011520 <HAL_GPIO_Init>

  /* EXTI interrupt init*/
  HAL_NVIC_SetPriority(EXTI15_10_IRQn, 0, 0);
 800f47c:	2200      	movs	r2, #0
 800f47e:	2100      	movs	r1, #0
 800f480:	2028      	movs	r0, #40	@ 0x28
 800f482:	f001 f8f8 	bl	8010676 <HAL_NVIC_SetPriority>
  HAL_NVIC_EnableIRQ(EXTI15_10_IRQn);
 800f486:	2028      	movs	r0, #40	@ 0x28
 800f488:	f001 f911 	bl	80106ae <HAL_NVIC_EnableIRQ>

/* USER CODE BEGIN MX_GPIO_Init_2 */
/* USER CODE END MX_GPIO_Init_2 */
}
 800f48c:	bf00      	nop
 800f48e:	3728      	adds	r7, #40	@ 0x28
 800f490:	46bd      	mov	sp, r7
 800f492:	bd80      	pop	{r7, pc}
 800f494:	40023800 	.word	0x40023800
 800f498:	40020800 	.word	0x40020800
 800f49c:	40020400 	.word	0x40020400
 800f4a0:	40020000 	.word	0x40020000

0800f4a4 <HAL_TIM_PeriodElapsedCallback>:
/* USER CODE BEGIN 4 */
/**
 * @brief  Callback funkce po dokonen ADC konverze (DMA).
 */
void HAL_TIM_PeriodElapsedCallback(TIM_HandleTypeDef *htim)
{
 800f4a4:	b580      	push	{r7, lr}
 800f4a6:	b082      	sub	sp, #8
 800f4a8:	af00      	add	r7, sp, #0
 800f4aa:	6078      	str	r0, [r7, #4]
    if (htim->Instance == TIM2)
 800f4ac:	687b      	ldr	r3, [r7, #4]
 800f4ae:	681b      	ldr	r3, [r3, #0]
 800f4b0:	f1b3 4f80 	cmp.w	r3, #1073741824	@ 0x40000000
 800f4b4:	d101      	bne.n	800f4ba <HAL_TIM_PeriodElapsedCallback+0x16>
    {

        StartAdcMeasurement();
 800f4b6:	f005 fa2d 	bl	8014914 <StartAdcMeasurement>

    }
}
 800f4ba:	bf00      	nop
 800f4bc:	3708      	adds	r7, #8
 800f4be:	46bd      	mov	sp, r7
 800f4c0:	bd80      	pop	{r7, pc}

0800f4c2 <Error_Handler>:
/**
  * @brief  This function is executed in case of error occurrence.
  * @retval None
  */
void Error_Handler(void)
{
 800f4c2:	b480      	push	{r7}
 800f4c4:	af00      	add	r7, sp, #0
  \details Disables IRQ interrupts by setting special-purpose register PRIMASK.
           Can only be executed in Privileged modes.
 */
__STATIC_FORCEINLINE void __disable_irq(void)
{
  __ASM volatile ("cpsid i" : : : "memory");
 800f4c6:	b672      	cpsid	i
}
 800f4c8:	bf00      	nop
  /* USER CODE BEGIN Error_Handler_Debug */
    /* User can add his own implementation to report the HAL error return state */
    __disable_irq();
    while (1)
 800f4ca:	bf00      	nop
 800f4cc:	e7fd      	b.n	800f4ca <Error_Handler+0x8>
	...

0800f4d0 <HAL_MspInit>:
/* USER CODE END 0 */
/**
  * Initializes the Global MSP.
  */
void HAL_MspInit(void)
{
 800f4d0:	b480      	push	{r7}
 800f4d2:	b083      	sub	sp, #12
 800f4d4:	af00      	add	r7, sp, #0

  /* USER CODE BEGIN MspInit 0 */

  /* USER CODE END MspInit 0 */

  __HAL_RCC_SYSCFG_CLK_ENABLE();
 800f4d6:	2300      	movs	r3, #0
 800f4d8:	607b      	str	r3, [r7, #4]
 800f4da:	4b10      	ldr	r3, [pc, #64]	@ (800f51c <HAL_MspInit+0x4c>)
 800f4dc:	6c5b      	ldr	r3, [r3, #68]	@ 0x44
 800f4de:	4a0f      	ldr	r2, [pc, #60]	@ (800f51c <HAL_MspInit+0x4c>)
 800f4e0:	f443 4380 	orr.w	r3, r3, #16384	@ 0x4000
 800f4e4:	6453      	str	r3, [r2, #68]	@ 0x44
 800f4e6:	4b0d      	ldr	r3, [pc, #52]	@ (800f51c <HAL_MspInit+0x4c>)
 800f4e8:	6c5b      	ldr	r3, [r3, #68]	@ 0x44
 800f4ea:	f403 4380 	and.w	r3, r3, #16384	@ 0x4000
 800f4ee:	607b      	str	r3, [r7, #4]
 800f4f0:	687b      	ldr	r3, [r7, #4]
  __HAL_RCC_PWR_CLK_ENABLE();
 800f4f2:	2300      	movs	r3, #0
 800f4f4:	603b      	str	r3, [r7, #0]
 800f4f6:	4b09      	ldr	r3, [pc, #36]	@ (800f51c <HAL_MspInit+0x4c>)
 800f4f8:	6c1b      	ldr	r3, [r3, #64]	@ 0x40
 800f4fa:	4a08      	ldr	r2, [pc, #32]	@ (800f51c <HAL_MspInit+0x4c>)
 800f4fc:	f043 5380 	orr.w	r3, r3, #268435456	@ 0x10000000
 800f500:	6413      	str	r3, [r2, #64]	@ 0x40
 800f502:	4b06      	ldr	r3, [pc, #24]	@ (800f51c <HAL_MspInit+0x4c>)
 800f504:	6c1b      	ldr	r3, [r3, #64]	@ 0x40
 800f506:	f003 5380 	and.w	r3, r3, #268435456	@ 0x10000000
 800f50a:	603b      	str	r3, [r7, #0]
 800f50c:	683b      	ldr	r3, [r7, #0]
  /* System interrupt init*/

  /* USER CODE BEGIN MspInit 1 */

  /* USER CODE END MspInit 1 */
}
 800f50e:	bf00      	nop
 800f510:	370c      	adds	r7, #12
 800f512:	46bd      	mov	sp, r7
 800f514:	f85d 7b04 	ldr.w	r7, [sp], #4
 800f518:	4770      	bx	lr
 800f51a:	bf00      	nop
 800f51c:	40023800 	.word	0x40023800

0800f520 <HAL_ADC_MspInit>:
* This function configures the hardware resources used in this example
* @param hadc: ADC handle pointer
* @retval None
*/
void HAL_ADC_MspInit(ADC_HandleTypeDef* hadc)
{
 800f520:	b580      	push	{r7, lr}
 800f522:	b08a      	sub	sp, #40	@ 0x28
 800f524:	af00      	add	r7, sp, #0
 800f526:	6078      	str	r0, [r7, #4]
  GPIO_InitTypeDef GPIO_InitStruct = {0};
 800f528:	f107 0314 	add.w	r3, r7, #20
 800f52c:	2200      	movs	r2, #0
 800f52e:	601a      	str	r2, [r3, #0]
 800f530:	605a      	str	r2, [r3, #4]
 800f532:	609a      	str	r2, [r3, #8]
 800f534:	60da      	str	r2, [r3, #12]
 800f536:	611a      	str	r2, [r3, #16]
  if(hadc->Instance==ADC1)
 800f538:	687b      	ldr	r3, [r7, #4]
 800f53a:	681b      	ldr	r3, [r3, #0]
 800f53c:	4a3b      	ldr	r2, [pc, #236]	@ (800f62c <HAL_ADC_MspInit+0x10c>)
 800f53e:	4293      	cmp	r3, r2
 800f540:	d170      	bne.n	800f624 <HAL_ADC_MspInit+0x104>
  {
  /* USER CODE BEGIN ADC1_MspInit 0 */

  /* USER CODE END ADC1_MspInit 0 */
    /* Peripheral clock enable */
    __HAL_RCC_ADC1_CLK_ENABLE();
 800f542:	2300      	movs	r3, #0
 800f544:	613b      	str	r3, [r7, #16]
 800f546:	4b3a      	ldr	r3, [pc, #232]	@ (800f630 <HAL_ADC_MspInit+0x110>)
 800f548:	6c5b      	ldr	r3, [r3, #68]	@ 0x44
 800f54a:	4a39      	ldr	r2, [pc, #228]	@ (800f630 <HAL_ADC_MspInit+0x110>)
 800f54c:	f443 7380 	orr.w	r3, r3, #256	@ 0x100
 800f550:	6453      	str	r3, [r2, #68]	@ 0x44
 800f552:	4b37      	ldr	r3, [pc, #220]	@ (800f630 <HAL_ADC_MspInit+0x110>)
 800f554:	6c5b      	ldr	r3, [r3, #68]	@ 0x44
 800f556:	f403 7380 	and.w	r3, r3, #256	@ 0x100
 800f55a:	613b      	str	r3, [r7, #16]
 800f55c:	693b      	ldr	r3, [r7, #16]

    __HAL_RCC_GPIOA_CLK_ENABLE();
 800f55e:	2300      	movs	r3, #0
 800f560:	60fb      	str	r3, [r7, #12]
 800f562:	4b33      	ldr	r3, [pc, #204]	@ (800f630 <HAL_ADC_MspInit+0x110>)
 800f564:	6b1b      	ldr	r3, [r3, #48]	@ 0x30
 800f566:	4a32      	ldr	r2, [pc, #200]	@ (800f630 <HAL_ADC_MspInit+0x110>)
 800f568:	f043 0301 	orr.w	r3, r3, #1
 800f56c:	6313      	str	r3, [r2, #48]	@ 0x30
 800f56e:	4b30      	ldr	r3, [pc, #192]	@ (800f630 <HAL_ADC_MspInit+0x110>)
 800f570:	6b1b      	ldr	r3, [r3, #48]	@ 0x30
 800f572:	f003 0301 	and.w	r3, r3, #1
 800f576:	60fb      	str	r3, [r7, #12]
 800f578:	68fb      	ldr	r3, [r7, #12]
    __HAL_RCC_GPIOB_CLK_ENABLE();
 800f57a:	2300      	movs	r3, #0
 800f57c:	60bb      	str	r3, [r7, #8]
 800f57e:	4b2c      	ldr	r3, [pc, #176]	@ (800f630 <HAL_ADC_MspInit+0x110>)
 800f580:	6b1b      	ldr	r3, [r3, #48]	@ 0x30
 800f582:	4a2b      	ldr	r2, [pc, #172]	@ (800f630 <HAL_ADC_MspInit+0x110>)
 800f584:	f043 0302 	orr.w	r3, r3, #2
 800f588:	6313      	str	r3, [r2, #48]	@ 0x30
 800f58a:	4b29      	ldr	r3, [pc, #164]	@ (800f630 <HAL_ADC_MspInit+0x110>)
 800f58c:	6b1b      	ldr	r3, [r3, #48]	@ 0x30
 800f58e:	f003 0302 	and.w	r3, r3, #2
 800f592:	60bb      	str	r3, [r7, #8]
 800f594:	68bb      	ldr	r3, [r7, #8]
    PA5     ------> ADC1_IN5
    PA6     ------> ADC1_IN6
    PA7     ------> ADC1_IN7
    PB0     ------> ADC1_IN8
    */
    GPIO_InitStruct.Pin = GPIO_PIN_1|GPIO_PIN_2|GPIO_PIN_3|GPIO_PIN_4
 800f596:	23fe      	movs	r3, #254	@ 0xfe
 800f598:	617b      	str	r3, [r7, #20]
                          |GPIO_PIN_5|GPIO_PIN_6|GPIO_PIN_7;
    GPIO_InitStruct.Mode = GPIO_MODE_ANALOG;
 800f59a:	2303      	movs	r3, #3
 800f59c:	61bb      	str	r3, [r7, #24]
    GPIO_InitStruct.Pull = GPIO_NOPULL;
 800f59e:	2300      	movs	r3, #0
 800f5a0:	61fb      	str	r3, [r7, #28]
    HAL_GPIO_Init(GPIOA, &GPIO_InitStruct);
 800f5a2:	f107 0314 	add.w	r3, r7, #20
 800f5a6:	4619      	mov	r1, r3
 800f5a8:	4822      	ldr	r0, [pc, #136]	@ (800f634 <HAL_ADC_MspInit+0x114>)
 800f5aa:	f001 ffb9 	bl	8011520 <HAL_GPIO_Init>

    GPIO_InitStruct.Pin = GPIO_PIN_0;
 800f5ae:	2301      	movs	r3, #1
 800f5b0:	617b      	str	r3, [r7, #20]
    GPIO_InitStruct.Mode = GPIO_MODE_ANALOG;
 800f5b2:	2303      	movs	r3, #3
 800f5b4:	61bb      	str	r3, [r7, #24]
    GPIO_InitStruct.Pull = GPIO_NOPULL;
 800f5b6:	2300      	movs	r3, #0
 800f5b8:	61fb      	str	r3, [r7, #28]
    HAL_GPIO_Init(GPIOB, &GPIO_InitStruct);
 800f5ba:	f107 0314 	add.w	r3, r7, #20
 800f5be:	4619      	mov	r1, r3
 800f5c0:	481d      	ldr	r0, [pc, #116]	@ (800f638 <HAL_ADC_MspInit+0x118>)
 800f5c2:	f001 ffad 	bl	8011520 <HAL_GPIO_Init>

    /* ADC1 DMA Init */
    /* ADC1 Init */
    hdma_adc1.Instance = DMA2_Stream0;
 800f5c6:	4b1d      	ldr	r3, [pc, #116]	@ (800f63c <HAL_ADC_MspInit+0x11c>)
 800f5c8:	4a1d      	ldr	r2, [pc, #116]	@ (800f640 <HAL_ADC_MspInit+0x120>)
 800f5ca:	601a      	str	r2, [r3, #0]
    hdma_adc1.Init.Channel = DMA_CHANNEL_0;
 800f5cc:	4b1b      	ldr	r3, [pc, #108]	@ (800f63c <HAL_ADC_MspInit+0x11c>)
 800f5ce:	2200      	movs	r2, #0
 800f5d0:	605a      	str	r2, [r3, #4]
    hdma_adc1.Init.Direction = DMA_PERIPH_TO_MEMORY;
 800f5d2:	4b1a      	ldr	r3, [pc, #104]	@ (800f63c <HAL_ADC_MspInit+0x11c>)
 800f5d4:	2200      	movs	r2, #0
 800f5d6:	609a      	str	r2, [r3, #8]
    hdma_adc1.Init.PeriphInc = DMA_PINC_DISABLE;
 800f5d8:	4b18      	ldr	r3, [pc, #96]	@ (800f63c <HAL_ADC_MspInit+0x11c>)
 800f5da:	2200      	movs	r2, #0
 800f5dc:	60da      	str	r2, [r3, #12]
    hdma_adc1.Init.MemInc = DMA_MINC_ENABLE;
 800f5de:	4b17      	ldr	r3, [pc, #92]	@ (800f63c <HAL_ADC_MspInit+0x11c>)
 800f5e0:	f44f 6280 	mov.w	r2, #1024	@ 0x400
 800f5e4:	611a      	str	r2, [r3, #16]
    hdma_adc1.Init.PeriphDataAlignment = DMA_PDATAALIGN_HALFWORD;
 800f5e6:	4b15      	ldr	r3, [pc, #84]	@ (800f63c <HAL_ADC_MspInit+0x11c>)
 800f5e8:	f44f 6200 	mov.w	r2, #2048	@ 0x800
 800f5ec:	615a      	str	r2, [r3, #20]
    hdma_adc1.Init.MemDataAlignment = DMA_MDATAALIGN_HALFWORD;
 800f5ee:	4b13      	ldr	r3, [pc, #76]	@ (800f63c <HAL_ADC_MspInit+0x11c>)
 800f5f0:	f44f 5200 	mov.w	r2, #8192	@ 0x2000
 800f5f4:	619a      	str	r2, [r3, #24]
    hdma_adc1.Init.Mode = DMA_NORMAL;
 800f5f6:	4b11      	ldr	r3, [pc, #68]	@ (800f63c <HAL_ADC_MspInit+0x11c>)
 800f5f8:	2200      	movs	r2, #0
 800f5fa:	61da      	str	r2, [r3, #28]
    hdma_adc1.Init.Priority = DMA_PRIORITY_LOW;
 800f5fc:	4b0f      	ldr	r3, [pc, #60]	@ (800f63c <HAL_ADC_MspInit+0x11c>)
 800f5fe:	2200      	movs	r2, #0
 800f600:	621a      	str	r2, [r3, #32]
    hdma_adc1.Init.FIFOMode = DMA_FIFOMODE_DISABLE;
 800f602:	4b0e      	ldr	r3, [pc, #56]	@ (800f63c <HAL_ADC_MspInit+0x11c>)
 800f604:	2200      	movs	r2, #0
 800f606:	625a      	str	r2, [r3, #36]	@ 0x24
    if (HAL_DMA_Init(&hdma_adc1) != HAL_OK)
 800f608:	480c      	ldr	r0, [pc, #48]	@ (800f63c <HAL_ADC_MspInit+0x11c>)
 800f60a:	f001 f8a3 	bl	8010754 <HAL_DMA_Init>
 800f60e:	4603      	mov	r3, r0
 800f610:	2b00      	cmp	r3, #0
 800f612:	d001      	beq.n	800f618 <HAL_ADC_MspInit+0xf8>
    {
      Error_Handler();
 800f614:	f7ff ff55 	bl	800f4c2 <Error_Handler>
    }

    __HAL_LINKDMA(hadc,DMA_Handle,hdma_adc1);
 800f618:	687b      	ldr	r3, [r7, #4]
 800f61a:	4a08      	ldr	r2, [pc, #32]	@ (800f63c <HAL_ADC_MspInit+0x11c>)
 800f61c:	639a      	str	r2, [r3, #56]	@ 0x38
 800f61e:	4a07      	ldr	r2, [pc, #28]	@ (800f63c <HAL_ADC_MspInit+0x11c>)
 800f620:	687b      	ldr	r3, [r7, #4]
 800f622:	6393      	str	r3, [r2, #56]	@ 0x38

  /* USER CODE END ADC1_MspInit 1 */

  }

}
 800f624:	bf00      	nop
 800f626:	3728      	adds	r7, #40	@ 0x28
 800f628:	46bd      	mov	sp, r7
 800f62a:	bd80      	pop	{r7, pc}
 800f62c:	40012000 	.word	0x40012000
 800f630:	40023800 	.word	0x40023800
 800f634:	40020000 	.word	0x40020000
 800f638:	40020400 	.word	0x40020400
 800f63c:	2000094c 	.word	0x2000094c
 800f640:	40026410 	.word	0x40026410

0800f644 <HAL_CRC_MspInit>:
* This function configures the hardware resources used in this example
* @param hcrc: CRC handle pointer
* @retval None
*/
void HAL_CRC_MspInit(CRC_HandleTypeDef* hcrc)
{
 800f644:	b480      	push	{r7}
 800f646:	b085      	sub	sp, #20
 800f648:	af00      	add	r7, sp, #0
 800f64a:	6078      	str	r0, [r7, #4]
  if(hcrc->Instance==CRC)
 800f64c:	687b      	ldr	r3, [r7, #4]
 800f64e:	681b      	ldr	r3, [r3, #0]
 800f650:	4a0b      	ldr	r2, [pc, #44]	@ (800f680 <HAL_CRC_MspInit+0x3c>)
 800f652:	4293      	cmp	r3, r2
 800f654:	d10d      	bne.n	800f672 <HAL_CRC_MspInit+0x2e>
  {
  /* USER CODE BEGIN CRC_MspInit 0 */

  /* USER CODE END CRC_MspInit 0 */
    /* Peripheral clock enable */
    __HAL_RCC_CRC_CLK_ENABLE();
 800f656:	2300      	movs	r3, #0
 800f658:	60fb      	str	r3, [r7, #12]
 800f65a:	4b0a      	ldr	r3, [pc, #40]	@ (800f684 <HAL_CRC_MspInit+0x40>)
 800f65c:	6b1b      	ldr	r3, [r3, #48]	@ 0x30
 800f65e:	4a09      	ldr	r2, [pc, #36]	@ (800f684 <HAL_CRC_MspInit+0x40>)
 800f660:	f443 5380 	orr.w	r3, r3, #4096	@ 0x1000
 800f664:	6313      	str	r3, [r2, #48]	@ 0x30
 800f666:	4b07      	ldr	r3, [pc, #28]	@ (800f684 <HAL_CRC_MspInit+0x40>)
 800f668:	6b1b      	ldr	r3, [r3, #48]	@ 0x30
 800f66a:	f403 5380 	and.w	r3, r3, #4096	@ 0x1000
 800f66e:	60fb      	str	r3, [r7, #12]
 800f670:	68fb      	ldr	r3, [r7, #12]

  /* USER CODE END CRC_MspInit 1 */

  }

}
 800f672:	bf00      	nop
 800f674:	3714      	adds	r7, #20
 800f676:	46bd      	mov	sp, r7
 800f678:	f85d 7b04 	ldr.w	r7, [sp], #4
 800f67c:	4770      	bx	lr
 800f67e:	bf00      	nop
 800f680:	40023000 	.word	0x40023000
 800f684:	40023800 	.word	0x40023800

0800f688 <HAL_I2C_MspInit>:
* This function configures the hardware resources used in this example
* @param hi2c: I2C handle pointer
* @retval None
*/
void HAL_I2C_MspInit(I2C_HandleTypeDef* hi2c)
{
 800f688:	b580      	push	{r7, lr}
 800f68a:	b08a      	sub	sp, #40	@ 0x28
 800f68c:	af00      	add	r7, sp, #0
 800f68e:	6078      	str	r0, [r7, #4]
  GPIO_InitTypeDef GPIO_InitStruct = {0};
 800f690:	f107 0314 	add.w	r3, r7, #20
 800f694:	2200      	movs	r2, #0
 800f696:	601a      	str	r2, [r3, #0]
 800f698:	605a      	str	r2, [r3, #4]
 800f69a:	609a      	str	r2, [r3, #8]
 800f69c:	60da      	str	r2, [r3, #12]
 800f69e:	611a      	str	r2, [r3, #16]
  if(hi2c->Instance==I2C1)
 800f6a0:	687b      	ldr	r3, [r7, #4]
 800f6a2:	681b      	ldr	r3, [r3, #0]
 800f6a4:	4a19      	ldr	r2, [pc, #100]	@ (800f70c <HAL_I2C_MspInit+0x84>)
 800f6a6:	4293      	cmp	r3, r2
 800f6a8:	d12b      	bne.n	800f702 <HAL_I2C_MspInit+0x7a>
  {
  /* USER CODE BEGIN I2C1_MspInit 0 */

  /* USER CODE END I2C1_MspInit 0 */

    __HAL_RCC_GPIOB_CLK_ENABLE();
 800f6aa:	2300      	movs	r3, #0
 800f6ac:	613b      	str	r3, [r7, #16]
 800f6ae:	4b18      	ldr	r3, [pc, #96]	@ (800f710 <HAL_I2C_MspInit+0x88>)
 800f6b0:	6b1b      	ldr	r3, [r3, #48]	@ 0x30
 800f6b2:	4a17      	ldr	r2, [pc, #92]	@ (800f710 <HAL_I2C_MspInit+0x88>)
 800f6b4:	f043 0302 	orr.w	r3, r3, #2
 800f6b8:	6313      	str	r3, [r2, #48]	@ 0x30
 800f6ba:	4b15      	ldr	r3, [pc, #84]	@ (800f710 <HAL_I2C_MspInit+0x88>)
 800f6bc:	6b1b      	ldr	r3, [r3, #48]	@ 0x30
 800f6be:	f003 0302 	and.w	r3, r3, #2
 800f6c2:	613b      	str	r3, [r7, #16]
 800f6c4:	693b      	ldr	r3, [r7, #16]
    /**I2C1 GPIO Configuration
    PB6     ------> I2C1_SCL
    PB7     ------> I2C1_SDA
    */
    GPIO_InitStruct.Pin = GPIO_PIN_6|GPIO_PIN_7;
 800f6c6:	23c0      	movs	r3, #192	@ 0xc0
 800f6c8:	617b      	str	r3, [r7, #20]
    GPIO_InitStruct.Mode = GPIO_MODE_AF_OD;
 800f6ca:	2312      	movs	r3, #18
 800f6cc:	61bb      	str	r3, [r7, #24]
    GPIO_InitStruct.Pull = GPIO_NOPULL;
 800f6ce:	2300      	movs	r3, #0
 800f6d0:	61fb      	str	r3, [r7, #28]
    GPIO_InitStruct.Speed = GPIO_SPEED_FREQ_VERY_HIGH;
 800f6d2:	2303      	movs	r3, #3
 800f6d4:	623b      	str	r3, [r7, #32]
    GPIO_InitStruct.Alternate = GPIO_AF4_I2C1;
 800f6d6:	2304      	movs	r3, #4
 800f6d8:	627b      	str	r3, [r7, #36]	@ 0x24
    HAL_GPIO_Init(GPIOB, &GPIO_InitStruct);
 800f6da:	f107 0314 	add.w	r3, r7, #20
 800f6de:	4619      	mov	r1, r3
 800f6e0:	480c      	ldr	r0, [pc, #48]	@ (800f714 <HAL_I2C_MspInit+0x8c>)
 800f6e2:	f001 ff1d 	bl	8011520 <HAL_GPIO_Init>

    /* Peripheral clock enable */
    __HAL_RCC_I2C1_CLK_ENABLE();
 800f6e6:	2300      	movs	r3, #0
 800f6e8:	60fb      	str	r3, [r7, #12]
 800f6ea:	4b09      	ldr	r3, [pc, #36]	@ (800f710 <HAL_I2C_MspInit+0x88>)
 800f6ec:	6c1b      	ldr	r3, [r3, #64]	@ 0x40
 800f6ee:	4a08      	ldr	r2, [pc, #32]	@ (800f710 <HAL_I2C_MspInit+0x88>)
 800f6f0:	f443 1300 	orr.w	r3, r3, #2097152	@ 0x200000
 800f6f4:	6413      	str	r3, [r2, #64]	@ 0x40
 800f6f6:	4b06      	ldr	r3, [pc, #24]	@ (800f710 <HAL_I2C_MspInit+0x88>)
 800f6f8:	6c1b      	ldr	r3, [r3, #64]	@ 0x40
 800f6fa:	f403 1300 	and.w	r3, r3, #2097152	@ 0x200000
 800f6fe:	60fb      	str	r3, [r7, #12]
 800f700:	68fb      	ldr	r3, [r7, #12]

  /* USER CODE END I2C1_MspInit 1 */

  }

}
 800f702:	bf00      	nop
 800f704:	3728      	adds	r7, #40	@ 0x28
 800f706:	46bd      	mov	sp, r7
 800f708:	bd80      	pop	{r7, pc}
 800f70a:	bf00      	nop
 800f70c:	40005400 	.word	0x40005400
 800f710:	40023800 	.word	0x40023800
 800f714:	40020400 	.word	0x40020400

0800f718 <HAL_SPI_MspInit>:
* This function configures the hardware resources used in this example
* @param hspi: SPI handle pointer
* @retval None
*/
void HAL_SPI_MspInit(SPI_HandleTypeDef* hspi)
{
 800f718:	b580      	push	{r7, lr}
 800f71a:	b08a      	sub	sp, #40	@ 0x28
 800f71c:	af00      	add	r7, sp, #0
 800f71e:	6078      	str	r0, [r7, #4]
  GPIO_InitTypeDef GPIO_InitStruct = {0};
 800f720:	f107 0314 	add.w	r3, r7, #20
 800f724:	2200      	movs	r2, #0
 800f726:	601a      	str	r2, [r3, #0]
 800f728:	605a      	str	r2, [r3, #4]
 800f72a:	609a      	str	r2, [r3, #8]
 800f72c:	60da      	str	r2, [r3, #12]
 800f72e:	611a      	str	r2, [r3, #16]
  if(hspi->Instance==SPI2)
 800f730:	687b      	ldr	r3, [r7, #4]
 800f732:	681b      	ldr	r3, [r3, #0]
 800f734:	4a30      	ldr	r2, [pc, #192]	@ (800f7f8 <HAL_SPI_MspInit+0xe0>)
 800f736:	4293      	cmp	r3, r2
 800f738:	d15a      	bne.n	800f7f0 <HAL_SPI_MspInit+0xd8>
  {
  /* USER CODE BEGIN SPI2_MspInit 0 */

  /* USER CODE END SPI2_MspInit 0 */
    /* Peripheral clock enable */
    __HAL_RCC_SPI2_CLK_ENABLE();
 800f73a:	2300      	movs	r3, #0
 800f73c:	613b      	str	r3, [r7, #16]
 800f73e:	4b2f      	ldr	r3, [pc, #188]	@ (800f7fc <HAL_SPI_MspInit+0xe4>)
 800f740:	6c1b      	ldr	r3, [r3, #64]	@ 0x40
 800f742:	4a2e      	ldr	r2, [pc, #184]	@ (800f7fc <HAL_SPI_MspInit+0xe4>)
 800f744:	f443 4380 	orr.w	r3, r3, #16384	@ 0x4000
 800f748:	6413      	str	r3, [r2, #64]	@ 0x40
 800f74a:	4b2c      	ldr	r3, [pc, #176]	@ (800f7fc <HAL_SPI_MspInit+0xe4>)
 800f74c:	6c1b      	ldr	r3, [r3, #64]	@ 0x40
 800f74e:	f403 4380 	and.w	r3, r3, #16384	@ 0x4000
 800f752:	613b      	str	r3, [r7, #16]
 800f754:	693b      	ldr	r3, [r7, #16]

    __HAL_RCC_GPIOC_CLK_ENABLE();
 800f756:	2300      	movs	r3, #0
 800f758:	60fb      	str	r3, [r7, #12]
 800f75a:	4b28      	ldr	r3, [pc, #160]	@ (800f7fc <HAL_SPI_MspInit+0xe4>)
 800f75c:	6b1b      	ldr	r3, [r3, #48]	@ 0x30
 800f75e:	4a27      	ldr	r2, [pc, #156]	@ (800f7fc <HAL_SPI_MspInit+0xe4>)
 800f760:	f043 0304 	orr.w	r3, r3, #4
 800f764:	6313      	str	r3, [r2, #48]	@ 0x30
 800f766:	4b25      	ldr	r3, [pc, #148]	@ (800f7fc <HAL_SPI_MspInit+0xe4>)
 800f768:	6b1b      	ldr	r3, [r3, #48]	@ 0x30
 800f76a:	f003 0304 	and.w	r3, r3, #4
 800f76e:	60fb      	str	r3, [r7, #12]
 800f770:	68fb      	ldr	r3, [r7, #12]
    __HAL_RCC_GPIOB_CLK_ENABLE();
 800f772:	2300      	movs	r3, #0
 800f774:	60bb      	str	r3, [r7, #8]
 800f776:	4b21      	ldr	r3, [pc, #132]	@ (800f7fc <HAL_SPI_MspInit+0xe4>)
 800f778:	6b1b      	ldr	r3, [r3, #48]	@ 0x30
 800f77a:	4a20      	ldr	r2, [pc, #128]	@ (800f7fc <HAL_SPI_MspInit+0xe4>)
 800f77c:	f043 0302 	orr.w	r3, r3, #2
 800f780:	6313      	str	r3, [r2, #48]	@ 0x30
 800f782:	4b1e      	ldr	r3, [pc, #120]	@ (800f7fc <HAL_SPI_MspInit+0xe4>)
 800f784:	6b1b      	ldr	r3, [r3, #48]	@ 0x30
 800f786:	f003 0302 	and.w	r3, r3, #2
 800f78a:	60bb      	str	r3, [r7, #8]
 800f78c:	68bb      	ldr	r3, [r7, #8]
    /**SPI2 GPIO Configuration
    PC1     ------> SPI2_MOSI
    PC2     ------> SPI2_MISO
    PB10     ------> SPI2_SCK
    */
    GPIO_InitStruct.Pin = GPIO_PIN_1;
 800f78e:	2302      	movs	r3, #2
 800f790:	617b      	str	r3, [r7, #20]
    GPIO_InitStruct.Mode = GPIO_MODE_AF_PP;
 800f792:	2302      	movs	r3, #2
 800f794:	61bb      	str	r3, [r7, #24]
    GPIO_InitStruct.Pull = GPIO_NOPULL;
 800f796:	2300      	movs	r3, #0
 800f798:	61fb      	str	r3, [r7, #28]
    GPIO_InitStruct.Speed = GPIO_SPEED_FREQ_VERY_HIGH;
 800f79a:	2303      	movs	r3, #3
 800f79c:	623b      	str	r3, [r7, #32]
    GPIO_InitStruct.Alternate = GPIO_AF7_SPI2;
 800f79e:	2307      	movs	r3, #7
 800f7a0:	627b      	str	r3, [r7, #36]	@ 0x24
    HAL_GPIO_Init(GPIOC, &GPIO_InitStruct);
 800f7a2:	f107 0314 	add.w	r3, r7, #20
 800f7a6:	4619      	mov	r1, r3
 800f7a8:	4815      	ldr	r0, [pc, #84]	@ (800f800 <HAL_SPI_MspInit+0xe8>)
 800f7aa:	f001 feb9 	bl	8011520 <HAL_GPIO_Init>

    GPIO_InitStruct.Pin = GPIO_PIN_2;
 800f7ae:	2304      	movs	r3, #4
 800f7b0:	617b      	str	r3, [r7, #20]
    GPIO_InitStruct.Mode = GPIO_MODE_AF_PP;
 800f7b2:	2302      	movs	r3, #2
 800f7b4:	61bb      	str	r3, [r7, #24]
    GPIO_InitStruct.Pull = GPIO_NOPULL;
 800f7b6:	2300      	movs	r3, #0
 800f7b8:	61fb      	str	r3, [r7, #28]
    GPIO_InitStruct.Speed = GPIO_SPEED_FREQ_VERY_HIGH;
 800f7ba:	2303      	movs	r3, #3
 800f7bc:	623b      	str	r3, [r7, #32]
    GPIO_InitStruct.Alternate = GPIO_AF5_SPI2;
 800f7be:	2305      	movs	r3, #5
 800f7c0:	627b      	str	r3, [r7, #36]	@ 0x24
    HAL_GPIO_Init(GPIOC, &GPIO_InitStruct);
 800f7c2:	f107 0314 	add.w	r3, r7, #20
 800f7c6:	4619      	mov	r1, r3
 800f7c8:	480d      	ldr	r0, [pc, #52]	@ (800f800 <HAL_SPI_MspInit+0xe8>)
 800f7ca:	f001 fea9 	bl	8011520 <HAL_GPIO_Init>

    GPIO_InitStruct.Pin = GPIO_PIN_10;
 800f7ce:	f44f 6380 	mov.w	r3, #1024	@ 0x400
 800f7d2:	617b      	str	r3, [r7, #20]
    GPIO_InitStruct.Mode = GPIO_MODE_AF_PP;
 800f7d4:	2302      	movs	r3, #2
 800f7d6:	61bb      	str	r3, [r7, #24]
    GPIO_InitStruct.Pull = GPIO_NOPULL;
 800f7d8:	2300      	movs	r3, #0
 800f7da:	61fb      	str	r3, [r7, #28]
    GPIO_InitStruct.Speed = GPIO_SPEED_FREQ_VERY_HIGH;
 800f7dc:	2303      	movs	r3, #3
 800f7de:	623b      	str	r3, [r7, #32]
    GPIO_InitStruct.Alternate = GPIO_AF5_SPI2;
 800f7e0:	2305      	movs	r3, #5
 800f7e2:	627b      	str	r3, [r7, #36]	@ 0x24
    HAL_GPIO_Init(GPIOB, &GPIO_InitStruct);
 800f7e4:	f107 0314 	add.w	r3, r7, #20
 800f7e8:	4619      	mov	r1, r3
 800f7ea:	4806      	ldr	r0, [pc, #24]	@ (800f804 <HAL_SPI_MspInit+0xec>)
 800f7ec:	f001 fe98 	bl	8011520 <HAL_GPIO_Init>

  /* USER CODE END SPI2_MspInit 1 */

  }

}
 800f7f0:	bf00      	nop
 800f7f2:	3728      	adds	r7, #40	@ 0x28
 800f7f4:	46bd      	mov	sp, r7
 800f7f6:	bd80      	pop	{r7, pc}
 800f7f8:	40003800 	.word	0x40003800
 800f7fc:	40023800 	.word	0x40023800
 800f800:	40020800 	.word	0x40020800
 800f804:	40020400 	.word	0x40020400

0800f808 <HAL_TIM_Base_MspInit>:
* This function configures the hardware resources used in this example
* @param htim_base: TIM_Base handle pointer
* @retval None
*/
void HAL_TIM_Base_MspInit(TIM_HandleTypeDef* htim_base)
{
 800f808:	b580      	push	{r7, lr}
 800f80a:	b084      	sub	sp, #16
 800f80c:	af00      	add	r7, sp, #0
 800f80e:	6078      	str	r0, [r7, #4]
  if(htim_base->Instance==TIM2)
 800f810:	687b      	ldr	r3, [r7, #4]
 800f812:	681b      	ldr	r3, [r3, #0]
 800f814:	f1b3 4f80 	cmp.w	r3, #1073741824	@ 0x40000000
 800f818:	d115      	bne.n	800f846 <HAL_TIM_Base_MspInit+0x3e>
  {
  /* USER CODE BEGIN TIM2_MspInit 0 */

  /* USER CODE END TIM2_MspInit 0 */
    /* Peripheral clock enable */
    __HAL_RCC_TIM2_CLK_ENABLE();
 800f81a:	2300      	movs	r3, #0
 800f81c:	60fb      	str	r3, [r7, #12]
 800f81e:	4b0c      	ldr	r3, [pc, #48]	@ (800f850 <HAL_TIM_Base_MspInit+0x48>)
 800f820:	6c1b      	ldr	r3, [r3, #64]	@ 0x40
 800f822:	4a0b      	ldr	r2, [pc, #44]	@ (800f850 <HAL_TIM_Base_MspInit+0x48>)
 800f824:	f043 0301 	orr.w	r3, r3, #1
 800f828:	6413      	str	r3, [r2, #64]	@ 0x40
 800f82a:	4b09      	ldr	r3, [pc, #36]	@ (800f850 <HAL_TIM_Base_MspInit+0x48>)
 800f82c:	6c1b      	ldr	r3, [r3, #64]	@ 0x40
 800f82e:	f003 0301 	and.w	r3, r3, #1
 800f832:	60fb      	str	r3, [r7, #12]
 800f834:	68fb      	ldr	r3, [r7, #12]
    /* TIM2 interrupt Init */
    HAL_NVIC_SetPriority(TIM2_IRQn, 0, 0);
 800f836:	2200      	movs	r2, #0
 800f838:	2100      	movs	r1, #0
 800f83a:	201c      	movs	r0, #28
 800f83c:	f000 ff1b 	bl	8010676 <HAL_NVIC_SetPriority>
    HAL_NVIC_EnableIRQ(TIM2_IRQn);
 800f840:	201c      	movs	r0, #28
 800f842:	f000 ff34 	bl	80106ae <HAL_NVIC_EnableIRQ>

  /* USER CODE END TIM2_MspInit 1 */

  }

}
 800f846:	bf00      	nop
 800f848:	3710      	adds	r7, #16
 800f84a:	46bd      	mov	sp, r7
 800f84c:	bd80      	pop	{r7, pc}
 800f84e:	bf00      	nop
 800f850:	40023800 	.word	0x40023800

0800f854 <HAL_UART_MspInit>:
* This function configures the hardware resources used in this example
* @param huart: UART handle pointer
* @retval None
*/
void HAL_UART_MspInit(UART_HandleTypeDef* huart)
{
 800f854:	b580      	push	{r7, lr}
 800f856:	b08c      	sub	sp, #48	@ 0x30
 800f858:	af00      	add	r7, sp, #0
 800f85a:	6078      	str	r0, [r7, #4]
  GPIO_InitTypeDef GPIO_InitStruct = {0};
 800f85c:	f107 031c 	add.w	r3, r7, #28
 800f860:	2200      	movs	r2, #0
 800f862:	601a      	str	r2, [r3, #0]
 800f864:	605a      	str	r2, [r3, #4]
 800f866:	609a      	str	r2, [r3, #8]
 800f868:	60da      	str	r2, [r3, #12]
 800f86a:	611a      	str	r2, [r3, #16]
  if(huart->Instance==UART5)
 800f86c:	687b      	ldr	r3, [r7, #4]
 800f86e:	681b      	ldr	r3, [r3, #0]
 800f870:	4a46      	ldr	r2, [pc, #280]	@ (800f98c <HAL_UART_MspInit+0x138>)
 800f872:	4293      	cmp	r3, r2
 800f874:	d153      	bne.n	800f91e <HAL_UART_MspInit+0xca>
  {
  /* USER CODE BEGIN UART5_MspInit 0 */

  /* USER CODE END UART5_MspInit 0 */
    /* Peripheral clock enable */
    __HAL_RCC_UART5_CLK_ENABLE();
 800f876:	2300      	movs	r3, #0
 800f878:	61bb      	str	r3, [r7, #24]
 800f87a:	4b45      	ldr	r3, [pc, #276]	@ (800f990 <HAL_UART_MspInit+0x13c>)
 800f87c:	6c1b      	ldr	r3, [r3, #64]	@ 0x40
 800f87e:	4a44      	ldr	r2, [pc, #272]	@ (800f990 <HAL_UART_MspInit+0x13c>)
 800f880:	f443 1380 	orr.w	r3, r3, #1048576	@ 0x100000
 800f884:	6413      	str	r3, [r2, #64]	@ 0x40
 800f886:	4b42      	ldr	r3, [pc, #264]	@ (800f990 <HAL_UART_MspInit+0x13c>)
 800f888:	6c1b      	ldr	r3, [r3, #64]	@ 0x40
 800f88a:	f403 1380 	and.w	r3, r3, #1048576	@ 0x100000
 800f88e:	61bb      	str	r3, [r7, #24]
 800f890:	69bb      	ldr	r3, [r7, #24]

    __HAL_RCC_GPIOC_CLK_ENABLE();
 800f892:	2300      	movs	r3, #0
 800f894:	617b      	str	r3, [r7, #20]
 800f896:	4b3e      	ldr	r3, [pc, #248]	@ (800f990 <HAL_UART_MspInit+0x13c>)
 800f898:	6b1b      	ldr	r3, [r3, #48]	@ 0x30
 800f89a:	4a3d      	ldr	r2, [pc, #244]	@ (800f990 <HAL_UART_MspInit+0x13c>)
 800f89c:	f043 0304 	orr.w	r3, r3, #4
 800f8a0:	6313      	str	r3, [r2, #48]	@ 0x30
 800f8a2:	4b3b      	ldr	r3, [pc, #236]	@ (800f990 <HAL_UART_MspInit+0x13c>)
 800f8a4:	6b1b      	ldr	r3, [r3, #48]	@ 0x30
 800f8a6:	f003 0304 	and.w	r3, r3, #4
 800f8aa:	617b      	str	r3, [r7, #20]
 800f8ac:	697b      	ldr	r3, [r7, #20]
    __HAL_RCC_GPIOD_CLK_ENABLE();
 800f8ae:	2300      	movs	r3, #0
 800f8b0:	613b      	str	r3, [r7, #16]
 800f8b2:	4b37      	ldr	r3, [pc, #220]	@ (800f990 <HAL_UART_MspInit+0x13c>)
 800f8b4:	6b1b      	ldr	r3, [r3, #48]	@ 0x30
 800f8b6:	4a36      	ldr	r2, [pc, #216]	@ (800f990 <HAL_UART_MspInit+0x13c>)
 800f8b8:	f043 0308 	orr.w	r3, r3, #8
 800f8bc:	6313      	str	r3, [r2, #48]	@ 0x30
 800f8be:	4b34      	ldr	r3, [pc, #208]	@ (800f990 <HAL_UART_MspInit+0x13c>)
 800f8c0:	6b1b      	ldr	r3, [r3, #48]	@ 0x30
 800f8c2:	f003 0308 	and.w	r3, r3, #8
 800f8c6:	613b      	str	r3, [r7, #16]
 800f8c8:	693b      	ldr	r3, [r7, #16]
    /**UART5 GPIO Configuration
    PC12     ------> UART5_TX
    PD2     ------> UART5_RX
    */
    GPIO_InitStruct.Pin = GPIO_PIN_12;
 800f8ca:	f44f 5380 	mov.w	r3, #4096	@ 0x1000
 800f8ce:	61fb      	str	r3, [r7, #28]
    GPIO_InitStruct.Mode = GPIO_MODE_AF_PP;
 800f8d0:	2302      	movs	r3, #2
 800f8d2:	623b      	str	r3, [r7, #32]
    GPIO_InitStruct.Pull = GPIO_NOPULL;
 800f8d4:	2300      	movs	r3, #0
 800f8d6:	627b      	str	r3, [r7, #36]	@ 0x24
    GPIO_InitStruct.Speed = GPIO_SPEED_FREQ_VERY_HIGH;
 800f8d8:	2303      	movs	r3, #3
 800f8da:	62bb      	str	r3, [r7, #40]	@ 0x28
    GPIO_InitStruct.Alternate = GPIO_AF8_UART5;
 800f8dc:	2308      	movs	r3, #8
 800f8de:	62fb      	str	r3, [r7, #44]	@ 0x2c
    HAL_GPIO_Init(GPIOC, &GPIO_InitStruct);
 800f8e0:	f107 031c 	add.w	r3, r7, #28
 800f8e4:	4619      	mov	r1, r3
 800f8e6:	482b      	ldr	r0, [pc, #172]	@ (800f994 <HAL_UART_MspInit+0x140>)
 800f8e8:	f001 fe1a 	bl	8011520 <HAL_GPIO_Init>

    GPIO_InitStruct.Pin = GPIO_PIN_2;
 800f8ec:	2304      	movs	r3, #4
 800f8ee:	61fb      	str	r3, [r7, #28]
    GPIO_InitStruct.Mode = GPIO_MODE_AF_PP;
 800f8f0:	2302      	movs	r3, #2
 800f8f2:	623b      	str	r3, [r7, #32]
    GPIO_InitStruct.Pull = GPIO_NOPULL;
 800f8f4:	2300      	movs	r3, #0
 800f8f6:	627b      	str	r3, [r7, #36]	@ 0x24
    GPIO_InitStruct.Speed = GPIO_SPEED_FREQ_VERY_HIGH;
 800f8f8:	2303      	movs	r3, #3
 800f8fa:	62bb      	str	r3, [r7, #40]	@ 0x28
    GPIO_InitStruct.Alternate = GPIO_AF8_UART5;
 800f8fc:	2308      	movs	r3, #8
 800f8fe:	62fb      	str	r3, [r7, #44]	@ 0x2c
    HAL_GPIO_Init(GPIOD, &GPIO_InitStruct);
 800f900:	f107 031c 	add.w	r3, r7, #28
 800f904:	4619      	mov	r1, r3
 800f906:	4824      	ldr	r0, [pc, #144]	@ (800f998 <HAL_UART_MspInit+0x144>)
 800f908:	f001 fe0a 	bl	8011520 <HAL_GPIO_Init>

    /* UART5 interrupt Init */
    HAL_NVIC_SetPriority(UART5_IRQn, 0, 0);
 800f90c:	2200      	movs	r2, #0
 800f90e:	2100      	movs	r1, #0
 800f910:	2035      	movs	r0, #53	@ 0x35
 800f912:	f000 feb0 	bl	8010676 <HAL_NVIC_SetPriority>
    HAL_NVIC_EnableIRQ(UART5_IRQn);
 800f916:	2035      	movs	r0, #53	@ 0x35
 800f918:	f000 fec9 	bl	80106ae <HAL_NVIC_EnableIRQ>
  /* USER CODE BEGIN USART1_MspInit 1 */

  /* USER CODE END USART1_MspInit 1 */
  }

}
 800f91c:	e031      	b.n	800f982 <HAL_UART_MspInit+0x12e>
  else if(huart->Instance==USART1)
 800f91e:	687b      	ldr	r3, [r7, #4]
 800f920:	681b      	ldr	r3, [r3, #0]
 800f922:	4a1e      	ldr	r2, [pc, #120]	@ (800f99c <HAL_UART_MspInit+0x148>)
 800f924:	4293      	cmp	r3, r2
 800f926:	d12c      	bne.n	800f982 <HAL_UART_MspInit+0x12e>
    __HAL_RCC_USART1_CLK_ENABLE();
 800f928:	2300      	movs	r3, #0
 800f92a:	60fb      	str	r3, [r7, #12]
 800f92c:	4b18      	ldr	r3, [pc, #96]	@ (800f990 <HAL_UART_MspInit+0x13c>)
 800f92e:	6c5b      	ldr	r3, [r3, #68]	@ 0x44
 800f930:	4a17      	ldr	r2, [pc, #92]	@ (800f990 <HAL_UART_MspInit+0x13c>)
 800f932:	f043 0310 	orr.w	r3, r3, #16
 800f936:	6453      	str	r3, [r2, #68]	@ 0x44
 800f938:	4b15      	ldr	r3, [pc, #84]	@ (800f990 <HAL_UART_MspInit+0x13c>)
 800f93a:	6c5b      	ldr	r3, [r3, #68]	@ 0x44
 800f93c:	f003 0310 	and.w	r3, r3, #16
 800f940:	60fb      	str	r3, [r7, #12]
 800f942:	68fb      	ldr	r3, [r7, #12]
    __HAL_RCC_GPIOA_CLK_ENABLE();
 800f944:	2300      	movs	r3, #0
 800f946:	60bb      	str	r3, [r7, #8]
 800f948:	4b11      	ldr	r3, [pc, #68]	@ (800f990 <HAL_UART_MspInit+0x13c>)
 800f94a:	6b1b      	ldr	r3, [r3, #48]	@ 0x30
 800f94c:	4a10      	ldr	r2, [pc, #64]	@ (800f990 <HAL_UART_MspInit+0x13c>)
 800f94e:	f043 0301 	orr.w	r3, r3, #1
 800f952:	6313      	str	r3, [r2, #48]	@ 0x30
 800f954:	4b0e      	ldr	r3, [pc, #56]	@ (800f990 <HAL_UART_MspInit+0x13c>)
 800f956:	6b1b      	ldr	r3, [r3, #48]	@ 0x30
 800f958:	f003 0301 	and.w	r3, r3, #1
 800f95c:	60bb      	str	r3, [r7, #8]
 800f95e:	68bb      	ldr	r3, [r7, #8]
    GPIO_InitStruct.Pin = GPIO_PIN_9|GPIO_PIN_10;
 800f960:	f44f 63c0 	mov.w	r3, #1536	@ 0x600
 800f964:	61fb      	str	r3, [r7, #28]
    GPIO_InitStruct.Mode = GPIO_MODE_AF_PP;
 800f966:	2302      	movs	r3, #2
 800f968:	623b      	str	r3, [r7, #32]
    GPIO_InitStruct.Pull = GPIO_NOPULL;
 800f96a:	2300      	movs	r3, #0
 800f96c:	627b      	str	r3, [r7, #36]	@ 0x24
    GPIO_InitStruct.Speed = GPIO_SPEED_FREQ_VERY_HIGH;
 800f96e:	2303      	movs	r3, #3
 800f970:	62bb      	str	r3, [r7, #40]	@ 0x28
    GPIO_InitStruct.Alternate = GPIO_AF7_USART1;
 800f972:	2307      	movs	r3, #7
 800f974:	62fb      	str	r3, [r7, #44]	@ 0x2c
    HAL_GPIO_Init(GPIOA, &GPIO_InitStruct);
 800f976:	f107 031c 	add.w	r3, r7, #28
 800f97a:	4619      	mov	r1, r3
 800f97c:	4808      	ldr	r0, [pc, #32]	@ (800f9a0 <HAL_UART_MspInit+0x14c>)
 800f97e:	f001 fdcf 	bl	8011520 <HAL_GPIO_Init>
}
 800f982:	bf00      	nop
 800f984:	3730      	adds	r7, #48	@ 0x30
 800f986:	46bd      	mov	sp, r7
 800f988:	bd80      	pop	{r7, pc}
 800f98a:	bf00      	nop
 800f98c:	40005000 	.word	0x40005000
 800f990:	40023800 	.word	0x40023800
 800f994:	40020800 	.word	0x40020800
 800f998:	40020c00 	.word	0x40020c00
 800f99c:	40011000 	.word	0x40011000
 800f9a0:	40020000 	.word	0x40020000

0800f9a4 <NMI_Handler>:
/******************************************************************************/
/**
  * @brief This function handles Non maskable interrupt.
  */
void NMI_Handler(void)
{
 800f9a4:	b480      	push	{r7}
 800f9a6:	af00      	add	r7, sp, #0
  /* USER CODE BEGIN NonMaskableInt_IRQn 0 */
  /* USER CODE END NonMaskableInt_IRQn 0 */
  /* USER CODE BEGIN NonMaskableInt_IRQn 1 */
  while (1) { }
 800f9a8:	bf00      	nop
 800f9aa:	e7fd      	b.n	800f9a8 <NMI_Handler+0x4>

0800f9ac <HardFault_Handler>:
void HardFault_Handler(void)
{
  /* USER CODE BEGIN HardFault_IRQn 0 */

  /* USER CODE END HardFault_IRQn 0 */
  while (1)
 800f9ac:	bf00      	nop
 800f9ae:	e7fd      	b.n	800f9ac <HardFault_Handler>

0800f9b0 <MemManage_Handler>:

/**
  * @brief This function handles Memory management fault.
  */
void MemManage_Handler(void)
{
 800f9b0:	b580      	push	{r7, lr}
 800f9b2:	af00      	add	r7, sp, #0
  /* USER CODE BEGIN MemoryManagement_IRQn 0 */
  /* Pesmruj do HardFault pro konzistentn log (vtina projekt stejn resetuje). */
  HardFault_Handler();
 800f9b4:	f7ff fffa 	bl	800f9ac <HardFault_Handler>
  /* USER CODE END MemoryManagement_IRQn 0 */
  while (1)
 800f9b8:	bf00      	nop
 800f9ba:	e7fd      	b.n	800f9b8 <MemManage_Handler+0x8>

0800f9bc <BusFault_Handler>:

/**
  * @brief This function handles Pre-fetch fault, memory access fault.
  */
void BusFault_Handler(void)
{
 800f9bc:	b580      	push	{r7, lr}
 800f9be:	af00      	add	r7, sp, #0
  /* USER CODE BEGIN BusFault_IRQn 0 */
  HardFault_Handler();
 800f9c0:	f7ff fff4 	bl	800f9ac <HardFault_Handler>
  /* USER CODE END BusFault_IRQn 0 */
  while (1)
 800f9c4:	bf00      	nop
 800f9c6:	e7fd      	b.n	800f9c4 <BusFault_Handler+0x8>

0800f9c8 <UsageFault_Handler>:

/**
  * @brief This function handles Undefined instruction or illegal state.
  */
void UsageFault_Handler(void)
{
 800f9c8:	b580      	push	{r7, lr}
 800f9ca:	af00      	add	r7, sp, #0
  /* USER CODE BEGIN UsageFault_IRQn 0 */
  HardFault_Handler();
 800f9cc:	f7ff ffee 	bl	800f9ac <HardFault_Handler>
  /* USER CODE END UsageFault_IRQn 0 */
  while (1)
 800f9d0:	bf00      	nop
 800f9d2:	e7fd      	b.n	800f9d0 <UsageFault_Handler+0x8>

0800f9d4 <SVC_Handler>:

/**
  * @brief This function handles System service call via SWI instruction.
  */
void SVC_Handler(void)
{
 800f9d4:	b480      	push	{r7}
 800f9d6:	af00      	add	r7, sp, #0
  /* USER CODE BEGIN SVCall_IRQn 0 */
  /* USER CODE END SVCall_IRQn 0 */
  /* USER CODE BEGIN SVCall_IRQn 1 */
  /* USER CODE END SVCall_IRQn 1 */
}
 800f9d8:	bf00      	nop
 800f9da:	46bd      	mov	sp, r7
 800f9dc:	f85d 7b04 	ldr.w	r7, [sp], #4
 800f9e0:	4770      	bx	lr

0800f9e2 <DebugMon_Handler>:

/**
  * @brief This function handles Debug monitor.
  */
void DebugMon_Handler(void)
{
 800f9e2:	b480      	push	{r7}
 800f9e4:	af00      	add	r7, sp, #0
  /* USER CODE BEGIN DebugMonitor_IRQn 0 */
  /* USER CODE END DebugMonitor_IRQn 0 */
  /* USER CODE BEGIN DebugMonitor_IRQn 1 */
  /* USER CODE END DebugMonitor_IRQn 1 */
}
 800f9e6:	bf00      	nop
 800f9e8:	46bd      	mov	sp, r7
 800f9ea:	f85d 7b04 	ldr.w	r7, [sp], #4
 800f9ee:	4770      	bx	lr

0800f9f0 <PendSV_Handler>:

/**
  * @brief This function handles Pendable request for system service.
  */
void PendSV_Handler(void)
{
 800f9f0:	b480      	push	{r7}
 800f9f2:	af00      	add	r7, sp, #0
  /* USER CODE BEGIN PendSV_IRQn 0 */
  /* USER CODE END PendSV_IRQn 0 */
  /* USER CODE BEGIN PendSV_IRQn 1 */
  /* USER CODE END PendSV_IRQn 1 */
}
 800f9f4:	bf00      	nop
 800f9f6:	46bd      	mov	sp, r7
 800f9f8:	f85d 7b04 	ldr.w	r7, [sp], #4
 800f9fc:	4770      	bx	lr

0800f9fe <SysTick_Handler>:

/**
  * @brief This function handles System tick timer.
  */
void SysTick_Handler(void)
{
 800f9fe:	b580      	push	{r7, lr}
 800fa00:	af00      	add	r7, sp, #0
  /* USER CODE BEGIN SysTick_IRQn 0 */
  /* USER CODE END SysTick_IRQn 0 */
  HAL_IncTick();
 800fa02:	f000 f8bb 	bl	800fb7c <HAL_IncTick>
  /* USER CODE BEGIN SysTick_IRQn 1 */
  /* USER CODE END SysTick_IRQn 1 */
}
 800fa06:	bf00      	nop
 800fa08:	bd80      	pop	{r7, pc}
	...

0800fa0c <TIM2_IRQHandler>:

/**
  * @brief This function handles TIM2 global interrupt.
  */
void TIM2_IRQHandler(void)
{
 800fa0c:	b580      	push	{r7, lr}
 800fa0e:	af00      	add	r7, sp, #0
  /* USER CODE BEGIN TIM2_IRQn 0 */
  /* USER CODE END TIM2_IRQn 0 */
  HAL_TIM_IRQHandler(&htim2);
 800fa10:	4802      	ldr	r0, [pc, #8]	@ (800fa1c <TIM2_IRQHandler+0x10>)
 800fa12:	f003 f83e 	bl	8012a92 <HAL_TIM_IRQHandler>
  /* USER CODE BEGIN TIM2_IRQn 1 */
  /* USER CODE END TIM2_IRQn 1 */
}
 800fa16:	bf00      	nop
 800fa18:	bd80      	pop	{r7, pc}
 800fa1a:	bf00      	nop
 800fa1c:	20000a6c 	.word	0x20000a6c

0800fa20 <EXTI15_10_IRQHandler>:

/**
  * @brief This function handles EXTI line[15:10] interrupts.
  */
void EXTI15_10_IRQHandler(void)
{
 800fa20:	b580      	push	{r7, lr}
 800fa22:	af00      	add	r7, sp, #0
  /* USER CODE BEGIN EXTI15_10_IRQn 0 */

  /* USER CODE END EXTI15_10_IRQn 0 */
  HAL_GPIO_EXTI_IRQHandler(button_Pin);
 800fa24:	f44f 5000 	mov.w	r0, #8192	@ 0x2000
 800fa28:	f001 ff5a 	bl	80118e0 <HAL_GPIO_EXTI_IRQHandler>
  /* USER CODE BEGIN EXTI15_10_IRQn 1 */

  /* USER CODE END EXTI15_10_IRQn 1 */
}
 800fa2c:	bf00      	nop
 800fa2e:	bd80      	pop	{r7, pc}

0800fa30 <UART5_IRQHandler>:

/**
  * @brief This function handles UART5 global interrupt.
  */
void UART5_IRQHandler(void)
{
 800fa30:	b580      	push	{r7, lr}
 800fa32:	af00      	add	r7, sp, #0
  /* USER CODE BEGIN UART5_IRQn 0 */
  /* USER CODE END UART5_IRQn 0 */
  HAL_UART_IRQHandler(&huart5);
 800fa34:	4802      	ldr	r0, [pc, #8]	@ (800fa40 <UART5_IRQHandler+0x10>)
 800fa36:	f003 fe4d 	bl	80136d4 <HAL_UART_IRQHandler>
  /* USER CODE BEGIN UART5_IRQn 1 */
  /* USER CODE END UART5_IRQn 1 */
}
 800fa3a:	bf00      	nop
 800fa3c:	bd80      	pop	{r7, pc}
 800fa3e:	bf00      	nop
 800fa40:	20000ab4 	.word	0x20000ab4

0800fa44 <DMA2_Stream0_IRQHandler>:

/**
  * @brief This function handles DMA2 stream0 global interrupt.
  */
void DMA2_Stream0_IRQHandler(void)
{
 800fa44:	b580      	push	{r7, lr}
 800fa46:	af00      	add	r7, sp, #0
  /* USER CODE BEGIN DMA2_Stream0_IRQn 0 */
  /* USER CODE END DMA2_Stream0_IRQn 0 */
  HAL_DMA_IRQHandler(&hdma_adc1);
 800fa48:	4802      	ldr	r0, [pc, #8]	@ (800fa54 <DMA2_Stream0_IRQHandler+0x10>)
 800fa4a:	f001 f81b 	bl	8010a84 <HAL_DMA_IRQHandler>
  /* USER CODE BEGIN DMA2_Stream0_IRQn 1 */
  /* USER CODE END DMA2_Stream0_IRQn 1 */
}
 800fa4e:	bf00      	nop
 800fa50:	bd80      	pop	{r7, pc}
 800fa52:	bf00      	nop
 800fa54:	2000094c 	.word	0x2000094c

0800fa58 <SystemInit>:
 *         configuration.
 * @param  None
 * @retval None
 */
void SystemInit(void)
{
 800fa58:	b480      	push	{r7}
 800fa5a:	af00      	add	r7, sp, #0
    /* FPU settings ------------------------------------------------------------*/
#if (__FPU_PRESENT == 1) && (__FPU_USED == 1)
    SCB->CPACR |= ((3UL << 10 * 2) | (3UL << 11 * 2)); /* set CP10 and CP11 Full Access */
 800fa5c:	4b07      	ldr	r3, [pc, #28]	@ (800fa7c <SystemInit+0x24>)
 800fa5e:	f8d3 3088 	ldr.w	r3, [r3, #136]	@ 0x88
 800fa62:	4a06      	ldr	r2, [pc, #24]	@ (800fa7c <SystemInit+0x24>)
 800fa64:	f443 0370 	orr.w	r3, r3, #15728640	@ 0xf00000
 800fa68:	f8c2 3088 	str.w	r3, [r2, #136]	@ 0x88
  SystemInit_ExtMemCtl(); 
#endif /* DATA_IN_ExtSRAM || DATA_IN_ExtSDRAM */

    /* Configure the Vector Table location -------------------------------------*/
#if defined(USER_VECT_TAB_ADDRESS)
    SCB->VTOR = VECT_TAB_BASE_ADDRESS | VECT_TAB_OFFSET; /* Vector Table Relocation in Internal SRAM */
 800fa6c:	4b03      	ldr	r3, [pc, #12]	@ (800fa7c <SystemInit+0x24>)
 800fa6e:	4a04      	ldr	r2, [pc, #16]	@ (800fa80 <SystemInit+0x28>)
 800fa70:	609a      	str	r2, [r3, #8]
#endif /* USER_VECT_TAB_ADDRESS */
}
 800fa72:	bf00      	nop
 800fa74:	46bd      	mov	sp, r7
 800fa76:	f85d 7b04 	ldr.w	r7, [sp], #4
 800fa7a:	4770      	bx	lr
 800fa7c:	e000ed00 	.word	0xe000ed00
 800fa80:	0800c000 	.word	0x0800c000

0800fa84 <Reset_Handler>:

    .section  .text.Reset_Handler
  .weak  Reset_Handler
  .type  Reset_Handler, %function
Reset_Handler:  
  ldr   sp, =_estack      /* set stack pointer */
 800fa84:	f8df d034 	ldr.w	sp, [pc, #52]	@ 800fabc <LoopFillZerobss+0xe>
  
/* Call the clock system initialization function.*/
  bl  SystemInit  
 800fa88:	f7ff ffe6 	bl	800fa58 <SystemInit>

/* Copy the data segment initializers from flash to SRAM */  
  ldr r0, =_sdata
 800fa8c:	480c      	ldr	r0, [pc, #48]	@ (800fac0 <LoopFillZerobss+0x12>)
  ldr r1, =_edata
 800fa8e:	490d      	ldr	r1, [pc, #52]	@ (800fac4 <LoopFillZerobss+0x16>)
  ldr r2, =_sidata
 800fa90:	4a0d      	ldr	r2, [pc, #52]	@ (800fac8 <LoopFillZerobss+0x1a>)
  movs r3, #0
 800fa92:	2300      	movs	r3, #0
  b LoopCopyDataInit
 800fa94:	e002      	b.n	800fa9c <LoopCopyDataInit>

0800fa96 <CopyDataInit>:

CopyDataInit:
  ldr r4, [r2, r3]
 800fa96:	58d4      	ldr	r4, [r2, r3]
  str r4, [r0, r3]
 800fa98:	50c4      	str	r4, [r0, r3]
  adds r3, r3, #4
 800fa9a:	3304      	adds	r3, #4

0800fa9c <LoopCopyDataInit>:

LoopCopyDataInit:
  adds r4, r0, r3
 800fa9c:	18c4      	adds	r4, r0, r3
  cmp r4, r1
 800fa9e:	428c      	cmp	r4, r1
  bcc CopyDataInit
 800faa0:	d3f9      	bcc.n	800fa96 <CopyDataInit>
  
/* Zero fill the bss segment. */
  ldr r2, =_sbss
 800faa2:	4a0a      	ldr	r2, [pc, #40]	@ (800facc <LoopFillZerobss+0x1e>)
  ldr r4, =_ebss
 800faa4:	4c0a      	ldr	r4, [pc, #40]	@ (800fad0 <LoopFillZerobss+0x22>)
  movs r3, #0
 800faa6:	2300      	movs	r3, #0
  b LoopFillZerobss
 800faa8:	e001      	b.n	800faae <LoopFillZerobss>

0800faaa <FillZerobss>:

FillZerobss:
  str  r3, [r2]
 800faaa:	6013      	str	r3, [r2, #0]
  adds r2, r2, #4
 800faac:	3204      	adds	r2, #4

0800faae <LoopFillZerobss>:

LoopFillZerobss:
  cmp r2, r4
 800faae:	42a2      	cmp	r2, r4
  bcc FillZerobss
 800fab0:	d3fb      	bcc.n	800faaa <FillZerobss>
  
/* Call static constructors */
    bl __libc_init_array
 800fab2:	f005 fa4f 	bl	8014f54 <__libc_init_array>
/* Call the application's entry point.*/
  bl  main
 800fab6:	f7ff f905 	bl	800ecc4 <main>
  bx  lr    
 800faba:	4770      	bx	lr
  ldr   sp, =_estack      /* set stack pointer */
 800fabc:	20020000 	.word	0x20020000
  ldr r0, =_sdata
 800fac0:	200000c0 	.word	0x200000c0
  ldr r1, =_edata
 800fac4:	200000f4 	.word	0x200000f4
  ldr r2, =_sidata
 800fac8:	08015548 	.word	0x08015548
  ldr r2, =_sbss
 800facc:	200000f4 	.word	0x200000f4
  ldr r4, =_ebss
 800fad0:	2001e0c0 	.word	0x2001e0c0

0800fad4 <ADC_IRQHandler>:
 * @retval None       
*/
    .section  .text.Default_Handler,"ax",%progbits
Default_Handler:
Infinite_Loop:
  b  Infinite_Loop
 800fad4:	e7fe      	b.n	800fad4 <ADC_IRQHandler>
	...

0800fad8 <HAL_Init>:
  *         need to ensure that the SysTick time base is always set to 1 millisecond
  *         to have correct HAL operation.
  * @retval HAL status
  */
HAL_StatusTypeDef HAL_Init(void)
{
 800fad8:	b580      	push	{r7, lr}
 800fada:	af00      	add	r7, sp, #0
  /* Configure Flash prefetch, Instruction cache, Data cache */ 
#if (INSTRUCTION_CACHE_ENABLE != 0U)
  __HAL_FLASH_INSTRUCTION_CACHE_ENABLE();
 800fadc:	4b0e      	ldr	r3, [pc, #56]	@ (800fb18 <HAL_Init+0x40>)
 800fade:	681b      	ldr	r3, [r3, #0]
 800fae0:	4a0d      	ldr	r2, [pc, #52]	@ (800fb18 <HAL_Init+0x40>)
 800fae2:	f443 7300 	orr.w	r3, r3, #512	@ 0x200
 800fae6:	6013      	str	r3, [r2, #0]
#endif /* INSTRUCTION_CACHE_ENABLE */

#if (DATA_CACHE_ENABLE != 0U)
  __HAL_FLASH_DATA_CACHE_ENABLE();
 800fae8:	4b0b      	ldr	r3, [pc, #44]	@ (800fb18 <HAL_Init+0x40>)
 800faea:	681b      	ldr	r3, [r3, #0]
 800faec:	4a0a      	ldr	r2, [pc, #40]	@ (800fb18 <HAL_Init+0x40>)
 800faee:	f443 6380 	orr.w	r3, r3, #1024	@ 0x400
 800faf2:	6013      	str	r3, [r2, #0]
#endif /* DATA_CACHE_ENABLE */

#if (PREFETCH_ENABLE != 0U)
  __HAL_FLASH_PREFETCH_BUFFER_ENABLE();
 800faf4:	4b08      	ldr	r3, [pc, #32]	@ (800fb18 <HAL_Init+0x40>)
 800faf6:	681b      	ldr	r3, [r3, #0]
 800faf8:	4a07      	ldr	r2, [pc, #28]	@ (800fb18 <HAL_Init+0x40>)
 800fafa:	f443 7380 	orr.w	r3, r3, #256	@ 0x100
 800fafe:	6013      	str	r3, [r2, #0]
#endif /* PREFETCH_ENABLE */

  /* Set Interrupt Group Priority */
  HAL_NVIC_SetPriorityGrouping(NVIC_PRIORITYGROUP_4);
 800fb00:	2003      	movs	r0, #3
 800fb02:	f000 fdad 	bl	8010660 <HAL_NVIC_SetPriorityGrouping>

  /* Use systick as time base source and configure 1ms tick (default clock after Reset is HSI) */
  HAL_InitTick(TICK_INT_PRIORITY);
 800fb06:	200f      	movs	r0, #15
 800fb08:	f000 f808 	bl	800fb1c <HAL_InitTick>

  /* Init the low level hardware */
  HAL_MspInit();
 800fb0c:	f7ff fce0 	bl	800f4d0 <HAL_MspInit>

  /* Return function status */
  return HAL_OK;
 800fb10:	2300      	movs	r3, #0
}
 800fb12:	4618      	mov	r0, r3
 800fb14:	bd80      	pop	{r7, pc}
 800fb16:	bf00      	nop
 800fb18:	40023c00 	.word	0x40023c00

0800fb1c <HAL_InitTick>:
  *       implementation  in user file.
  * @param TickPriority Tick interrupt priority.
  * @retval HAL status
  */
__weak HAL_StatusTypeDef HAL_InitTick(uint32_t TickPriority)
{
 800fb1c:	b580      	push	{r7, lr}
 800fb1e:	b082      	sub	sp, #8
 800fb20:	af00      	add	r7, sp, #0
 800fb22:	6078      	str	r0, [r7, #4]
  /* Configure the SysTick to have interrupt in 1ms time basis*/
  if (HAL_SYSTICK_Config(SystemCoreClock / (1000U / uwTickFreq)) > 0U)
 800fb24:	4b12      	ldr	r3, [pc, #72]	@ (800fb70 <HAL_InitTick+0x54>)
 800fb26:	681a      	ldr	r2, [r3, #0]
 800fb28:	4b12      	ldr	r3, [pc, #72]	@ (800fb74 <HAL_InitTick+0x58>)
 800fb2a:	781b      	ldrb	r3, [r3, #0]
 800fb2c:	4619      	mov	r1, r3
 800fb2e:	f44f 737a 	mov.w	r3, #1000	@ 0x3e8
 800fb32:	fbb3 f3f1 	udiv	r3, r3, r1
 800fb36:	fbb2 f3f3 	udiv	r3, r2, r3
 800fb3a:	4618      	mov	r0, r3
 800fb3c:	f000 fdd3 	bl	80106e6 <HAL_SYSTICK_Config>
 800fb40:	4603      	mov	r3, r0
 800fb42:	2b00      	cmp	r3, #0
 800fb44:	d001      	beq.n	800fb4a <HAL_InitTick+0x2e>
  {
    return HAL_ERROR;
 800fb46:	2301      	movs	r3, #1
 800fb48:	e00e      	b.n	800fb68 <HAL_InitTick+0x4c>
  }

  /* Configure the SysTick IRQ priority */
  if (TickPriority < (1UL << __NVIC_PRIO_BITS))
 800fb4a:	687b      	ldr	r3, [r7, #4]
 800fb4c:	2b0f      	cmp	r3, #15
 800fb4e:	d80a      	bhi.n	800fb66 <HAL_InitTick+0x4a>
  {
    HAL_NVIC_SetPriority(SysTick_IRQn, TickPriority, 0U);
 800fb50:	2200      	movs	r2, #0
 800fb52:	6879      	ldr	r1, [r7, #4]
 800fb54:	f04f 30ff 	mov.w	r0, #4294967295
 800fb58:	f000 fd8d 	bl	8010676 <HAL_NVIC_SetPriority>
    uwTickPrio = TickPriority;
 800fb5c:	4a06      	ldr	r2, [pc, #24]	@ (800fb78 <HAL_InitTick+0x5c>)
 800fb5e:	687b      	ldr	r3, [r7, #4]
 800fb60:	6013      	str	r3, [r2, #0]
  {
    return HAL_ERROR;
  }

  /* Return function status */
  return HAL_OK;
 800fb62:	2300      	movs	r3, #0
 800fb64:	e000      	b.n	800fb68 <HAL_InitTick+0x4c>
    return HAL_ERROR;
 800fb66:	2301      	movs	r3, #1
}
 800fb68:	4618      	mov	r0, r3
 800fb6a:	3708      	adds	r7, #8
 800fb6c:	46bd      	mov	sp, r7
 800fb6e:	bd80      	pop	{r7, pc}
 800fb70:	200000c0 	.word	0x200000c0
 800fb74:	200000c8 	.word	0x200000c8
 800fb78:	200000c4 	.word	0x200000c4

0800fb7c <HAL_IncTick>:
 * @note This function is declared as __weak to be overwritten in case of other 
  *      implementations in user file.
  * @retval None
  */
__weak void HAL_IncTick(void)
{
 800fb7c:	b480      	push	{r7}
 800fb7e:	af00      	add	r7, sp, #0
  uwTick += uwTickFreq;
 800fb80:	4b06      	ldr	r3, [pc, #24]	@ (800fb9c <HAL_IncTick+0x20>)
 800fb82:	781b      	ldrb	r3, [r3, #0]
 800fb84:	461a      	mov	r2, r3
 800fb86:	4b06      	ldr	r3, [pc, #24]	@ (800fba0 <HAL_IncTick+0x24>)
 800fb88:	681b      	ldr	r3, [r3, #0]
 800fb8a:	4413      	add	r3, r2
 800fb8c:	4a04      	ldr	r2, [pc, #16]	@ (800fba0 <HAL_IncTick+0x24>)
 800fb8e:	6013      	str	r3, [r2, #0]
}
 800fb90:	bf00      	nop
 800fb92:	46bd      	mov	sp, r7
 800fb94:	f85d 7b04 	ldr.w	r7, [sp], #4
 800fb98:	4770      	bx	lr
 800fb9a:	bf00      	nop
 800fb9c:	200000c8 	.word	0x200000c8
 800fba0:	20000b4c 	.word	0x20000b4c

0800fba4 <HAL_GetTick>:
  * @note This function is declared as __weak to be overwritten in case of other 
  *       implementations in user file.
  * @retval tick value
  */
__weak uint32_t HAL_GetTick(void)
{
 800fba4:	b480      	push	{r7}
 800fba6:	af00      	add	r7, sp, #0
  return uwTick;
 800fba8:	4b03      	ldr	r3, [pc, #12]	@ (800fbb8 <HAL_GetTick+0x14>)
 800fbaa:	681b      	ldr	r3, [r3, #0]
}
 800fbac:	4618      	mov	r0, r3
 800fbae:	46bd      	mov	sp, r7
 800fbb0:	f85d 7b04 	ldr.w	r7, [sp], #4
 800fbb4:	4770      	bx	lr
 800fbb6:	bf00      	nop
 800fbb8:	20000b4c 	.word	0x20000b4c

0800fbbc <HAL_Delay>:
  *       implementations in user file.
  * @param Delay specifies the delay time length, in milliseconds.
  * @retval None
  */
__weak void HAL_Delay(uint32_t Delay)
{
 800fbbc:	b580      	push	{r7, lr}
 800fbbe:	b084      	sub	sp, #16
 800fbc0:	af00      	add	r7, sp, #0
 800fbc2:	6078      	str	r0, [r7, #4]
  uint32_t tickstart = HAL_GetTick();
 800fbc4:	f7ff ffee 	bl	800fba4 <HAL_GetTick>
 800fbc8:	60b8      	str	r0, [r7, #8]
  uint32_t wait = Delay;
 800fbca:	687b      	ldr	r3, [r7, #4]
 800fbcc:	60fb      	str	r3, [r7, #12]

  /* Add a freq to guarantee minimum wait */
  if (wait < HAL_MAX_DELAY)
 800fbce:	68fb      	ldr	r3, [r7, #12]
 800fbd0:	f1b3 3fff 	cmp.w	r3, #4294967295
 800fbd4:	d005      	beq.n	800fbe2 <HAL_Delay+0x26>
  {
    wait += (uint32_t)(uwTickFreq);
 800fbd6:	4b0a      	ldr	r3, [pc, #40]	@ (800fc00 <HAL_Delay+0x44>)
 800fbd8:	781b      	ldrb	r3, [r3, #0]
 800fbda:	461a      	mov	r2, r3
 800fbdc:	68fb      	ldr	r3, [r7, #12]
 800fbde:	4413      	add	r3, r2
 800fbe0:	60fb      	str	r3, [r7, #12]
  }

  while((HAL_GetTick() - tickstart) < wait)
 800fbe2:	bf00      	nop
 800fbe4:	f7ff ffde 	bl	800fba4 <HAL_GetTick>
 800fbe8:	4602      	mov	r2, r0
 800fbea:	68bb      	ldr	r3, [r7, #8]
 800fbec:	1ad3      	subs	r3, r2, r3
 800fbee:	68fa      	ldr	r2, [r7, #12]
 800fbf0:	429a      	cmp	r2, r3
 800fbf2:	d8f7      	bhi.n	800fbe4 <HAL_Delay+0x28>
  {
  }
}
 800fbf4:	bf00      	nop
 800fbf6:	bf00      	nop
 800fbf8:	3710      	adds	r7, #16
 800fbfa:	46bd      	mov	sp, r7
 800fbfc:	bd80      	pop	{r7, pc}
 800fbfe:	bf00      	nop
 800fc00:	200000c8 	.word	0x200000c8

0800fc04 <HAL_ADC_Init>:
  * @param  hadc pointer to a ADC_HandleTypeDef structure that contains
  *         the configuration information for the specified ADC.
  * @retval HAL status
  */
HAL_StatusTypeDef HAL_ADC_Init(ADC_HandleTypeDef *hadc)
{
 800fc04:	b580      	push	{r7, lr}
 800fc06:	b084      	sub	sp, #16
 800fc08:	af00      	add	r7, sp, #0
 800fc0a:	6078      	str	r0, [r7, #4]
  HAL_StatusTypeDef tmp_hal_status = HAL_OK;
 800fc0c:	2300      	movs	r3, #0
 800fc0e:	73fb      	strb	r3, [r7, #15]

  /* Check ADC handle */
  if (hadc == NULL)
 800fc10:	687b      	ldr	r3, [r7, #4]
 800fc12:	2b00      	cmp	r3, #0
 800fc14:	d101      	bne.n	800fc1a <HAL_ADC_Init+0x16>
  {
    return HAL_ERROR;
 800fc16:	2301      	movs	r3, #1
 800fc18:	e033      	b.n	800fc82 <HAL_ADC_Init+0x7e>
  if (hadc->Init.ExternalTrigConv != ADC_SOFTWARE_START)
  {
    assert_param(IS_ADC_EXT_TRIG_EDGE(hadc->Init.ExternalTrigConvEdge));
  }

  if (hadc->State == HAL_ADC_STATE_RESET)
 800fc1a:	687b      	ldr	r3, [r7, #4]
 800fc1c:	6c1b      	ldr	r3, [r3, #64]	@ 0x40
 800fc1e:	2b00      	cmp	r3, #0
 800fc20:	d109      	bne.n	800fc36 <HAL_ADC_Init+0x32>

    /* Init the low level hardware */
    hadc->MspInitCallback(hadc);
#else
    /* Init the low level hardware */
    HAL_ADC_MspInit(hadc);
 800fc22:	6878      	ldr	r0, [r7, #4]
 800fc24:	f7ff fc7c 	bl	800f520 <HAL_ADC_MspInit>
#endif /* USE_HAL_ADC_REGISTER_CALLBACKS */

    /* Initialize ADC error code */
    ADC_CLEAR_ERRORCODE(hadc);
 800fc28:	687b      	ldr	r3, [r7, #4]
 800fc2a:	2200      	movs	r2, #0
 800fc2c:	645a      	str	r2, [r3, #68]	@ 0x44

    /* Allocate lock resource and initialize it */
    hadc->Lock = HAL_UNLOCKED;
 800fc2e:	687b      	ldr	r3, [r7, #4]
 800fc30:	2200      	movs	r2, #0
 800fc32:	f883 203c 	strb.w	r2, [r3, #60]	@ 0x3c
  }

  /* Configuration of ADC parameters if previous preliminary actions are      */
  /* correctly completed.                                                     */
  if (HAL_IS_BIT_CLR(hadc->State, HAL_ADC_STATE_ERROR_INTERNAL))
 800fc36:	687b      	ldr	r3, [r7, #4]
 800fc38:	6c1b      	ldr	r3, [r3, #64]	@ 0x40
 800fc3a:	f003 0310 	and.w	r3, r3, #16
 800fc3e:	2b00      	cmp	r3, #0
 800fc40:	d118      	bne.n	800fc74 <HAL_ADC_Init+0x70>
  {
    /* Set ADC state */
    ADC_STATE_CLR_SET(hadc->State,
 800fc42:	687b      	ldr	r3, [r7, #4]
 800fc44:	6c1b      	ldr	r3, [r3, #64]	@ 0x40
 800fc46:	f423 5388 	bic.w	r3, r3, #4352	@ 0x1100
 800fc4a:	f023 0302 	bic.w	r3, r3, #2
 800fc4e:	f043 0202 	orr.w	r2, r3, #2
 800fc52:	687b      	ldr	r3, [r7, #4]
 800fc54:	641a      	str	r2, [r3, #64]	@ 0x40
                      HAL_ADC_STATE_REG_BUSY | HAL_ADC_STATE_INJ_BUSY,
                      HAL_ADC_STATE_BUSY_INTERNAL);

    /* Set ADC parameters */
    ADC_Init(hadc);
 800fc56:	6878      	ldr	r0, [r7, #4]
 800fc58:	f000 fa72 	bl	8010140 <ADC_Init>

    /* Set ADC error code to none */
    ADC_CLEAR_ERRORCODE(hadc);
 800fc5c:	687b      	ldr	r3, [r7, #4]
 800fc5e:	2200      	movs	r2, #0
 800fc60:	645a      	str	r2, [r3, #68]	@ 0x44

    /* Set the ADC state */
    ADC_STATE_CLR_SET(hadc->State,
 800fc62:	687b      	ldr	r3, [r7, #4]
 800fc64:	6c1b      	ldr	r3, [r3, #64]	@ 0x40
 800fc66:	f023 0303 	bic.w	r3, r3, #3
 800fc6a:	f043 0201 	orr.w	r2, r3, #1
 800fc6e:	687b      	ldr	r3, [r7, #4]
 800fc70:	641a      	str	r2, [r3, #64]	@ 0x40
 800fc72:	e001      	b.n	800fc78 <HAL_ADC_Init+0x74>
                      HAL_ADC_STATE_BUSY_INTERNAL,
                      HAL_ADC_STATE_READY);
  }
  else
  {
    tmp_hal_status = HAL_ERROR;
 800fc74:	2301      	movs	r3, #1
 800fc76:	73fb      	strb	r3, [r7, #15]
  }

  /* Release Lock */
  __HAL_UNLOCK(hadc);
 800fc78:	687b      	ldr	r3, [r7, #4]
 800fc7a:	2200      	movs	r2, #0
 800fc7c:	f883 203c 	strb.w	r2, [r3, #60]	@ 0x3c

  /* Return function status */
  return tmp_hal_status;
 800fc80:	7bfb      	ldrb	r3, [r7, #15]
}
 800fc82:	4618      	mov	r0, r3
 800fc84:	3710      	adds	r7, #16
 800fc86:	46bd      	mov	sp, r7
 800fc88:	bd80      	pop	{r7, pc}
	...

0800fc8c <HAL_ADC_Start_DMA>:
  * @param  pData The destination Buffer address.
  * @param  Length The length of data to be transferred from ADC peripheral to memory.
  * @retval HAL status
  */
HAL_StatusTypeDef HAL_ADC_Start_DMA(ADC_HandleTypeDef *hadc, uint32_t *pData, uint32_t Length)
{
 800fc8c:	b580      	push	{r7, lr}
 800fc8e:	b088      	sub	sp, #32
 800fc90:	af00      	add	r7, sp, #0
 800fc92:	60f8      	str	r0, [r7, #12]
 800fc94:	60b9      	str	r1, [r7, #8]
 800fc96:	607a      	str	r2, [r7, #4]
  __IO uint32_t counter = 0U;
 800fc98:	2300      	movs	r3, #0
 800fc9a:	617b      	str	r3, [r7, #20]
  ADC_Common_TypeDef *tmpADC_Common;
  HAL_StatusTypeDef tmp_hal_status = HAL_OK;
 800fc9c:	2300      	movs	r3, #0
 800fc9e:	77fb      	strb	r3, [r7, #31]
  /* Check the parameters */
  assert_param(IS_FUNCTIONAL_STATE(hadc->Init.ContinuousConvMode));
  assert_param(IS_ADC_EXT_TRIG_EDGE(hadc->Init.ExternalTrigConvEdge));

  /* Process locked */
  __HAL_LOCK(hadc);
 800fca0:	68fb      	ldr	r3, [r7, #12]
 800fca2:	f893 303c 	ldrb.w	r3, [r3, #60]	@ 0x3c
 800fca6:	2b01      	cmp	r3, #1
 800fca8:	d101      	bne.n	800fcae <HAL_ADC_Start_DMA+0x22>
 800fcaa:	2302      	movs	r3, #2
 800fcac:	e0eb      	b.n	800fe86 <HAL_ADC_Start_DMA+0x1fa>
 800fcae:	68fb      	ldr	r3, [r7, #12]
 800fcb0:	2201      	movs	r2, #1
 800fcb2:	f883 203c 	strb.w	r2, [r3, #60]	@ 0x3c

  /* Enable the ADC peripheral */
  /* Check if ADC peripheral is disabled in order to enable it and wait during
  Tstab time the ADC's stabilization */
  if ((hadc->Instance->CR2 & ADC_CR2_ADON) != ADC_CR2_ADON)
 800fcb6:	68fb      	ldr	r3, [r7, #12]
 800fcb8:	681b      	ldr	r3, [r3, #0]
 800fcba:	689b      	ldr	r3, [r3, #8]
 800fcbc:	f003 0301 	and.w	r3, r3, #1
 800fcc0:	2b01      	cmp	r3, #1
 800fcc2:	d018      	beq.n	800fcf6 <HAL_ADC_Start_DMA+0x6a>
  {
    /* Enable the Peripheral */
    __HAL_ADC_ENABLE(hadc);
 800fcc4:	68fb      	ldr	r3, [r7, #12]
 800fcc6:	681b      	ldr	r3, [r3, #0]
 800fcc8:	689a      	ldr	r2, [r3, #8]
 800fcca:	68fb      	ldr	r3, [r7, #12]
 800fccc:	681b      	ldr	r3, [r3, #0]
 800fcce:	f042 0201 	orr.w	r2, r2, #1
 800fcd2:	609a      	str	r2, [r3, #8]

    /* Delay for ADC stabilization time */
    /* Compute number of CPU cycles to wait for */
    counter = (ADC_STAB_DELAY_US * (SystemCoreClock / 1000000U));
 800fcd4:	4b6e      	ldr	r3, [pc, #440]	@ (800fe90 <HAL_ADC_Start_DMA+0x204>)
 800fcd6:	681b      	ldr	r3, [r3, #0]
 800fcd8:	4a6e      	ldr	r2, [pc, #440]	@ (800fe94 <HAL_ADC_Start_DMA+0x208>)
 800fcda:	fba2 2303 	umull	r2, r3, r2, r3
 800fcde:	0c9a      	lsrs	r2, r3, #18
 800fce0:	4613      	mov	r3, r2
 800fce2:	005b      	lsls	r3, r3, #1
 800fce4:	4413      	add	r3, r2
 800fce6:	617b      	str	r3, [r7, #20]
    while (counter != 0U)
 800fce8:	e002      	b.n	800fcf0 <HAL_ADC_Start_DMA+0x64>
    {
      counter--;
 800fcea:	697b      	ldr	r3, [r7, #20]
 800fcec:	3b01      	subs	r3, #1
 800fcee:	617b      	str	r3, [r7, #20]
    while (counter != 0U)
 800fcf0:	697b      	ldr	r3, [r7, #20]
 800fcf2:	2b00      	cmp	r3, #0
 800fcf4:	d1f9      	bne.n	800fcea <HAL_ADC_Start_DMA+0x5e>
    }
  }

  /* Check ADC DMA Mode                                                     */
  /* - disable the DMA Mode if it is already enabled                        */
  if ((hadc->Instance->CR2 & ADC_CR2_DMA) == ADC_CR2_DMA)
 800fcf6:	68fb      	ldr	r3, [r7, #12]
 800fcf8:	681b      	ldr	r3, [r3, #0]
 800fcfa:	689b      	ldr	r3, [r3, #8]
 800fcfc:	f403 7380 	and.w	r3, r3, #256	@ 0x100
 800fd00:	f5b3 7f80 	cmp.w	r3, #256	@ 0x100
 800fd04:	d107      	bne.n	800fd16 <HAL_ADC_Start_DMA+0x8a>
  {
    CLEAR_BIT(hadc->Instance->CR2, ADC_CR2_DMA);
 800fd06:	68fb      	ldr	r3, [r7, #12]
 800fd08:	681b      	ldr	r3, [r3, #0]
 800fd0a:	689a      	ldr	r2, [r3, #8]
 800fd0c:	68fb      	ldr	r3, [r7, #12]
 800fd0e:	681b      	ldr	r3, [r3, #0]
 800fd10:	f422 7280 	bic.w	r2, r2, #256	@ 0x100
 800fd14:	609a      	str	r2, [r3, #8]
  }

  /* Start conversion if ADC is effectively enabled */
  if (HAL_IS_BIT_SET(hadc->Instance->CR2, ADC_CR2_ADON))
 800fd16:	68fb      	ldr	r3, [r7, #12]
 800fd18:	681b      	ldr	r3, [r3, #0]
 800fd1a:	689b      	ldr	r3, [r3, #8]
 800fd1c:	f003 0301 	and.w	r3, r3, #1
 800fd20:	2b01      	cmp	r3, #1
 800fd22:	f040 80a3 	bne.w	800fe6c <HAL_ADC_Start_DMA+0x1e0>
  {
    /* Set ADC state                                                          */
    /* - Clear state bitfield related to regular group conversion results     */
    /* - Set state bitfield related to regular group operation                */
    ADC_STATE_CLR_SET(hadc->State,
 800fd26:	68fb      	ldr	r3, [r7, #12]
 800fd28:	6c1b      	ldr	r3, [r3, #64]	@ 0x40
 800fd2a:	f423 63e0 	bic.w	r3, r3, #1792	@ 0x700
 800fd2e:	f023 0301 	bic.w	r3, r3, #1
 800fd32:	f443 7280 	orr.w	r2, r3, #256	@ 0x100
 800fd36:	68fb      	ldr	r3, [r7, #12]
 800fd38:	641a      	str	r2, [r3, #64]	@ 0x40
                      HAL_ADC_STATE_READY | HAL_ADC_STATE_REG_EOC | HAL_ADC_STATE_REG_OVR,
                      HAL_ADC_STATE_REG_BUSY);

    /* If conversions on group regular are also triggering group injected,    */
    /* update ADC state.                                                      */
    if (READ_BIT(hadc->Instance->CR1, ADC_CR1_JAUTO) != RESET)
 800fd3a:	68fb      	ldr	r3, [r7, #12]
 800fd3c:	681b      	ldr	r3, [r3, #0]
 800fd3e:	685b      	ldr	r3, [r3, #4]
 800fd40:	f403 6380 	and.w	r3, r3, #1024	@ 0x400
 800fd44:	2b00      	cmp	r3, #0
 800fd46:	d007      	beq.n	800fd58 <HAL_ADC_Start_DMA+0xcc>
    {
      ADC_STATE_CLR_SET(hadc->State, HAL_ADC_STATE_INJ_EOC, HAL_ADC_STATE_INJ_BUSY);
 800fd48:	68fb      	ldr	r3, [r7, #12]
 800fd4a:	6c1b      	ldr	r3, [r3, #64]	@ 0x40
 800fd4c:	f423 5340 	bic.w	r3, r3, #12288	@ 0x3000
 800fd50:	f443 5280 	orr.w	r2, r3, #4096	@ 0x1000
 800fd54:	68fb      	ldr	r3, [r7, #12]
 800fd56:	641a      	str	r2, [r3, #64]	@ 0x40
    }

    /* State machine update: Check if an injected conversion is ongoing */
    if (HAL_IS_BIT_SET(hadc->State, HAL_ADC_STATE_INJ_BUSY))
 800fd58:	68fb      	ldr	r3, [r7, #12]
 800fd5a:	6c1b      	ldr	r3, [r3, #64]	@ 0x40
 800fd5c:	f403 5380 	and.w	r3, r3, #4096	@ 0x1000
 800fd60:	f5b3 5f80 	cmp.w	r3, #4096	@ 0x1000
 800fd64:	d106      	bne.n	800fd74 <HAL_ADC_Start_DMA+0xe8>
    {
      /* Reset ADC error code fields related to conversions on group regular */
      CLEAR_BIT(hadc->ErrorCode, (HAL_ADC_ERROR_OVR | HAL_ADC_ERROR_DMA));
 800fd66:	68fb      	ldr	r3, [r7, #12]
 800fd68:	6c5b      	ldr	r3, [r3, #68]	@ 0x44
 800fd6a:	f023 0206 	bic.w	r2, r3, #6
 800fd6e:	68fb      	ldr	r3, [r7, #12]
 800fd70:	645a      	str	r2, [r3, #68]	@ 0x44
 800fd72:	e002      	b.n	800fd7a <HAL_ADC_Start_DMA+0xee>
    }
    else
    {
      /* Reset ADC all error code fields */
      ADC_CLEAR_ERRORCODE(hadc);
 800fd74:	68fb      	ldr	r3, [r7, #12]
 800fd76:	2200      	movs	r2, #0
 800fd78:	645a      	str	r2, [r3, #68]	@ 0x44
    }

    /* Process unlocked */
    /* Unlock before starting ADC conversions: in case of potential           */
    /* interruption, to let the process to ADC IRQ Handler.                   */
    __HAL_UNLOCK(hadc);
 800fd7a:	68fb      	ldr	r3, [r7, #12]
 800fd7c:	2200      	movs	r2, #0
 800fd7e:	f883 203c 	strb.w	r2, [r3, #60]	@ 0x3c

    /* Pointer to the common control register to which is belonging hadc    */
    /* (Depending on STM32F4 product, there may be up to 3 ADCs and 1 common */
    /* control register)                                                    */
    tmpADC_Common = ADC_COMMON_REGISTER(hadc);
 800fd82:	4b45      	ldr	r3, [pc, #276]	@ (800fe98 <HAL_ADC_Start_DMA+0x20c>)
 800fd84:	61bb      	str	r3, [r7, #24]

    /* Set the DMA transfer complete callback */
    hadc->DMA_Handle->XferCpltCallback = ADC_DMAConvCplt;
 800fd86:	68fb      	ldr	r3, [r7, #12]
 800fd88:	6b9b      	ldr	r3, [r3, #56]	@ 0x38
 800fd8a:	4a44      	ldr	r2, [pc, #272]	@ (800fe9c <HAL_ADC_Start_DMA+0x210>)
 800fd8c:	63da      	str	r2, [r3, #60]	@ 0x3c

    /* Set the DMA half transfer complete callback */
    hadc->DMA_Handle->XferHalfCpltCallback = ADC_DMAHalfConvCplt;
 800fd8e:	68fb      	ldr	r3, [r7, #12]
 800fd90:	6b9b      	ldr	r3, [r3, #56]	@ 0x38
 800fd92:	4a43      	ldr	r2, [pc, #268]	@ (800fea0 <HAL_ADC_Start_DMA+0x214>)
 800fd94:	641a      	str	r2, [r3, #64]	@ 0x40

    /* Set the DMA error callback */
    hadc->DMA_Handle->XferErrorCallback = ADC_DMAError;
 800fd96:	68fb      	ldr	r3, [r7, #12]
 800fd98:	6b9b      	ldr	r3, [r3, #56]	@ 0x38
 800fd9a:	4a42      	ldr	r2, [pc, #264]	@ (800fea4 <HAL_ADC_Start_DMA+0x218>)
 800fd9c:	64da      	str	r2, [r3, #76]	@ 0x4c
    /* Manage ADC and DMA start: ADC overrun interruption, DMA start, ADC     */
    /* start (in case of SW start):                                           */

    /* Clear regular group conversion flag and overrun flag */
    /* (To ensure of no unknown state from potential previous ADC operations) */
    __HAL_ADC_CLEAR_FLAG(hadc, ADC_FLAG_EOC | ADC_FLAG_OVR);
 800fd9e:	68fb      	ldr	r3, [r7, #12]
 800fda0:	681b      	ldr	r3, [r3, #0]
 800fda2:	f06f 0222 	mvn.w	r2, #34	@ 0x22
 800fda6:	601a      	str	r2, [r3, #0]

    /* Enable ADC overrun interrupt */
    __HAL_ADC_ENABLE_IT(hadc, ADC_IT_OVR);
 800fda8:	68fb      	ldr	r3, [r7, #12]
 800fdaa:	681b      	ldr	r3, [r3, #0]
 800fdac:	685a      	ldr	r2, [r3, #4]
 800fdae:	68fb      	ldr	r3, [r7, #12]
 800fdb0:	681b      	ldr	r3, [r3, #0]
 800fdb2:	f042 6280 	orr.w	r2, r2, #67108864	@ 0x4000000
 800fdb6:	605a      	str	r2, [r3, #4]

    /* Enable ADC DMA mode */
    hadc->Instance->CR2 |= ADC_CR2_DMA;
 800fdb8:	68fb      	ldr	r3, [r7, #12]
 800fdba:	681b      	ldr	r3, [r3, #0]
 800fdbc:	689a      	ldr	r2, [r3, #8]
 800fdbe:	68fb      	ldr	r3, [r7, #12]
 800fdc0:	681b      	ldr	r3, [r3, #0]
 800fdc2:	f442 7280 	orr.w	r2, r2, #256	@ 0x100
 800fdc6:	609a      	str	r2, [r3, #8]

    /* Start the DMA channel */
    tmp_hal_status = HAL_DMA_Start_IT(hadc->DMA_Handle, (uint32_t)&hadc->Instance->DR, (uint32_t)pData, Length);
 800fdc8:	68fb      	ldr	r3, [r7, #12]
 800fdca:	6b98      	ldr	r0, [r3, #56]	@ 0x38
 800fdcc:	68fb      	ldr	r3, [r7, #12]
 800fdce:	681b      	ldr	r3, [r3, #0]
 800fdd0:	334c      	adds	r3, #76	@ 0x4c
 800fdd2:	4619      	mov	r1, r3
 800fdd4:	68ba      	ldr	r2, [r7, #8]
 800fdd6:	687b      	ldr	r3, [r7, #4]
 800fdd8:	f000 fd6a 	bl	80108b0 <HAL_DMA_Start_IT>
 800fddc:	4603      	mov	r3, r0
 800fdde:	77fb      	strb	r3, [r7, #31]

    /* Check if Multimode enabled */
    if (HAL_IS_BIT_CLR(tmpADC_Common->CCR, ADC_CCR_MULTI))
 800fde0:	69bb      	ldr	r3, [r7, #24]
 800fde2:	685b      	ldr	r3, [r3, #4]
 800fde4:	f003 031f 	and.w	r3, r3, #31
 800fde8:	2b00      	cmp	r3, #0
 800fdea:	d12a      	bne.n	800fe42 <HAL_ADC_Start_DMA+0x1b6>
    {
#if defined(ADC2) && defined(ADC3)
      if ((hadc->Instance == ADC1) || ((hadc->Instance == ADC2) && ((ADC->CCR & ADC_CCR_MULTI_Msk) < ADC_CCR_MULTI_0)) \
 800fdec:	68fb      	ldr	r3, [r7, #12]
 800fdee:	681b      	ldr	r3, [r3, #0]
 800fdf0:	4a2d      	ldr	r2, [pc, #180]	@ (800fea8 <HAL_ADC_Start_DMA+0x21c>)
 800fdf2:	4293      	cmp	r3, r2
 800fdf4:	d015      	beq.n	800fe22 <HAL_ADC_Start_DMA+0x196>
 800fdf6:	68fb      	ldr	r3, [r7, #12]
 800fdf8:	681b      	ldr	r3, [r3, #0]
 800fdfa:	4a2c      	ldr	r2, [pc, #176]	@ (800feac <HAL_ADC_Start_DMA+0x220>)
 800fdfc:	4293      	cmp	r3, r2
 800fdfe:	d105      	bne.n	800fe0c <HAL_ADC_Start_DMA+0x180>
 800fe00:	4b25      	ldr	r3, [pc, #148]	@ (800fe98 <HAL_ADC_Start_DMA+0x20c>)
 800fe02:	685b      	ldr	r3, [r3, #4]
 800fe04:	f003 031f 	and.w	r3, r3, #31
 800fe08:	2b00      	cmp	r3, #0
 800fe0a:	d00a      	beq.n	800fe22 <HAL_ADC_Start_DMA+0x196>
          || ((hadc->Instance == ADC3) && ((ADC->CCR & ADC_CCR_MULTI_Msk) < ADC_CCR_MULTI_4)))
 800fe0c:	68fb      	ldr	r3, [r7, #12]
 800fe0e:	681b      	ldr	r3, [r3, #0]
 800fe10:	4a27      	ldr	r2, [pc, #156]	@ (800feb0 <HAL_ADC_Start_DMA+0x224>)
 800fe12:	4293      	cmp	r3, r2
 800fe14:	d136      	bne.n	800fe84 <HAL_ADC_Start_DMA+0x1f8>
 800fe16:	4b20      	ldr	r3, [pc, #128]	@ (800fe98 <HAL_ADC_Start_DMA+0x20c>)
 800fe18:	685b      	ldr	r3, [r3, #4]
 800fe1a:	f003 0310 	and.w	r3, r3, #16
 800fe1e:	2b00      	cmp	r3, #0
 800fe20:	d130      	bne.n	800fe84 <HAL_ADC_Start_DMA+0x1f8>
      {
#endif /* ADC2 || ADC3 */
        /* if no external trigger present enable software conversion of regular channels */
        if ((hadc->Instance->CR2 & ADC_CR2_EXTEN) == RESET)
 800fe22:	68fb      	ldr	r3, [r7, #12]
 800fe24:	681b      	ldr	r3, [r3, #0]
 800fe26:	689b      	ldr	r3, [r3, #8]
 800fe28:	f003 5340 	and.w	r3, r3, #805306368	@ 0x30000000
 800fe2c:	2b00      	cmp	r3, #0
 800fe2e:	d129      	bne.n	800fe84 <HAL_ADC_Start_DMA+0x1f8>
        {
          /* Enable the selected ADC software conversion for regular group */
          hadc->Instance->CR2 |= (uint32_t)ADC_CR2_SWSTART;
 800fe30:	68fb      	ldr	r3, [r7, #12]
 800fe32:	681b      	ldr	r3, [r3, #0]
 800fe34:	689a      	ldr	r2, [r3, #8]
 800fe36:	68fb      	ldr	r3, [r7, #12]
 800fe38:	681b      	ldr	r3, [r3, #0]
 800fe3a:	f042 4280 	orr.w	r2, r2, #1073741824	@ 0x40000000
 800fe3e:	609a      	str	r2, [r3, #8]
 800fe40:	e020      	b.n	800fe84 <HAL_ADC_Start_DMA+0x1f8>
#endif /* ADC2 || ADC3 */
    }
    else
    {
      /* if instance of handle correspond to ADC1 and  no external trigger present enable software conversion of regular channels */
      if ((hadc->Instance == ADC1) && ((hadc->Instance->CR2 & ADC_CR2_EXTEN) == RESET))
 800fe42:	68fb      	ldr	r3, [r7, #12]
 800fe44:	681b      	ldr	r3, [r3, #0]
 800fe46:	4a18      	ldr	r2, [pc, #96]	@ (800fea8 <HAL_ADC_Start_DMA+0x21c>)
 800fe48:	4293      	cmp	r3, r2
 800fe4a:	d11b      	bne.n	800fe84 <HAL_ADC_Start_DMA+0x1f8>
 800fe4c:	68fb      	ldr	r3, [r7, #12]
 800fe4e:	681b      	ldr	r3, [r3, #0]
 800fe50:	689b      	ldr	r3, [r3, #8]
 800fe52:	f003 5340 	and.w	r3, r3, #805306368	@ 0x30000000
 800fe56:	2b00      	cmp	r3, #0
 800fe58:	d114      	bne.n	800fe84 <HAL_ADC_Start_DMA+0x1f8>
      {
        /* Enable the selected ADC software conversion for regular group */
        hadc->Instance->CR2 |= (uint32_t)ADC_CR2_SWSTART;
 800fe5a:	68fb      	ldr	r3, [r7, #12]
 800fe5c:	681b      	ldr	r3, [r3, #0]
 800fe5e:	689a      	ldr	r2, [r3, #8]
 800fe60:	68fb      	ldr	r3, [r7, #12]
 800fe62:	681b      	ldr	r3, [r3, #0]
 800fe64:	f042 4280 	orr.w	r2, r2, #1073741824	@ 0x40000000
 800fe68:	609a      	str	r2, [r3, #8]
 800fe6a:	e00b      	b.n	800fe84 <HAL_ADC_Start_DMA+0x1f8>
    }
  }
  else
  {
    /* Update ADC state machine to error */
    SET_BIT(hadc->State, HAL_ADC_STATE_ERROR_INTERNAL);
 800fe6c:	68fb      	ldr	r3, [r7, #12]
 800fe6e:	6c1b      	ldr	r3, [r3, #64]	@ 0x40
 800fe70:	f043 0210 	orr.w	r2, r3, #16
 800fe74:	68fb      	ldr	r3, [r7, #12]
 800fe76:	641a      	str	r2, [r3, #64]	@ 0x40

    /* Set ADC error code to ADC IP internal error */
    SET_BIT(hadc->ErrorCode, HAL_ADC_ERROR_INTERNAL);
 800fe78:	68fb      	ldr	r3, [r7, #12]
 800fe7a:	6c5b      	ldr	r3, [r3, #68]	@ 0x44
 800fe7c:	f043 0201 	orr.w	r2, r3, #1
 800fe80:	68fb      	ldr	r3, [r7, #12]
 800fe82:	645a      	str	r2, [r3, #68]	@ 0x44
  }

  /* Return function status */
  return tmp_hal_status;
 800fe84:	7ffb      	ldrb	r3, [r7, #31]
}
 800fe86:	4618      	mov	r0, r3
 800fe88:	3720      	adds	r7, #32
 800fe8a:	46bd      	mov	sp, r7
 800fe8c:	bd80      	pop	{r7, pc}
 800fe8e:	bf00      	nop
 800fe90:	200000c0 	.word	0x200000c0
 800fe94:	431bde83 	.word	0x431bde83
 800fe98:	40012300 	.word	0x40012300
 800fe9c:	08010339 	.word	0x08010339
 800fea0:	080103f3 	.word	0x080103f3
 800fea4:	0801040f 	.word	0x0801040f
 800fea8:	40012000 	.word	0x40012000
 800feac:	40012100 	.word	0x40012100
 800feb0:	40012200 	.word	0x40012200

0800feb4 <HAL_ADC_ConvHalfCpltCallback>:
  * @param  hadc pointer to a ADC_HandleTypeDef structure that contains
  *         the configuration information for the specified ADC.
  * @retval None
  */
__weak void HAL_ADC_ConvHalfCpltCallback(ADC_HandleTypeDef *hadc)
{
 800feb4:	b480      	push	{r7}
 800feb6:	b083      	sub	sp, #12
 800feb8:	af00      	add	r7, sp, #0
 800feba:	6078      	str	r0, [r7, #4]
  /* Prevent unused argument(s) compilation warning */
  UNUSED(hadc);
  /* NOTE : This function Should not be modified, when the callback is needed,
            the HAL_ADC_ConvHalfCpltCallback could be implemented in the user file
   */
}
 800febc:	bf00      	nop
 800febe:	370c      	adds	r7, #12
 800fec0:	46bd      	mov	sp, r7
 800fec2:	f85d 7b04 	ldr.w	r7, [sp], #4
 800fec6:	4770      	bx	lr

0800fec8 <HAL_ADC_ErrorCallback>:
  * @param  hadc pointer to a ADC_HandleTypeDef structure that contains
  *         the configuration information for the specified ADC.
  * @retval None
  */
__weak void HAL_ADC_ErrorCallback(ADC_HandleTypeDef *hadc)
{
 800fec8:	b480      	push	{r7}
 800feca:	b083      	sub	sp, #12
 800fecc:	af00      	add	r7, sp, #0
 800fece:	6078      	str	r0, [r7, #4]
  /* Prevent unused argument(s) compilation warning */
  UNUSED(hadc);
  /* NOTE : This function Should not be modified, when the callback is needed,
            the HAL_ADC_ErrorCallback could be implemented in the user file
   */
}
 800fed0:	bf00      	nop
 800fed2:	370c      	adds	r7, #12
 800fed4:	46bd      	mov	sp, r7
 800fed6:	f85d 7b04 	ldr.w	r7, [sp], #4
 800feda:	4770      	bx	lr

0800fedc <HAL_ADC_ConfigChannel>:
*         the configuration information for the specified ADC.
* @param  sConfig ADC configuration structure.
* @retval HAL status
*/
HAL_StatusTypeDef HAL_ADC_ConfigChannel(ADC_HandleTypeDef *hadc, ADC_ChannelConfTypeDef *sConfig)
{
 800fedc:	b480      	push	{r7}
 800fede:	b085      	sub	sp, #20
 800fee0:	af00      	add	r7, sp, #0
 800fee2:	6078      	str	r0, [r7, #4]
 800fee4:	6039      	str	r1, [r7, #0]
  __IO uint32_t counter = 0U;
 800fee6:	2300      	movs	r3, #0
 800fee8:	60bb      	str	r3, [r7, #8]
  assert_param(IS_ADC_CHANNEL(sConfig->Channel));
  assert_param(IS_ADC_REGULAR_RANK(sConfig->Rank));
  assert_param(IS_ADC_SAMPLE_TIME(sConfig->SamplingTime));

  /* Process locked */
  __HAL_LOCK(hadc);
 800feea:	687b      	ldr	r3, [r7, #4]
 800feec:	f893 303c 	ldrb.w	r3, [r3, #60]	@ 0x3c
 800fef0:	2b01      	cmp	r3, #1
 800fef2:	d101      	bne.n	800fef8 <HAL_ADC_ConfigChannel+0x1c>
 800fef4:	2302      	movs	r3, #2
 800fef6:	e113      	b.n	8010120 <HAL_ADC_ConfigChannel+0x244>
 800fef8:	687b      	ldr	r3, [r7, #4]
 800fefa:	2201      	movs	r2, #1
 800fefc:	f883 203c 	strb.w	r2, [r3, #60]	@ 0x3c

  /* if ADC_Channel_10 ... ADC_Channel_18 is selected */
  if (sConfig->Channel > ADC_CHANNEL_9)
 800ff00:	683b      	ldr	r3, [r7, #0]
 800ff02:	681b      	ldr	r3, [r3, #0]
 800ff04:	2b09      	cmp	r3, #9
 800ff06:	d925      	bls.n	800ff54 <HAL_ADC_ConfigChannel+0x78>
  {
    /* Clear the old sample time */
    hadc->Instance->SMPR1 &= ~ADC_SMPR1(ADC_SMPR1_SMP10, sConfig->Channel);
 800ff08:	687b      	ldr	r3, [r7, #4]
 800ff0a:	681b      	ldr	r3, [r3, #0]
 800ff0c:	68d9      	ldr	r1, [r3, #12]
 800ff0e:	683b      	ldr	r3, [r7, #0]
 800ff10:	681b      	ldr	r3, [r3, #0]
 800ff12:	b29b      	uxth	r3, r3
 800ff14:	461a      	mov	r2, r3
 800ff16:	4613      	mov	r3, r2
 800ff18:	005b      	lsls	r3, r3, #1
 800ff1a:	4413      	add	r3, r2
 800ff1c:	3b1e      	subs	r3, #30
 800ff1e:	2207      	movs	r2, #7
 800ff20:	fa02 f303 	lsl.w	r3, r2, r3
 800ff24:	43da      	mvns	r2, r3
 800ff26:	687b      	ldr	r3, [r7, #4]
 800ff28:	681b      	ldr	r3, [r3, #0]
 800ff2a:	400a      	ands	r2, r1
 800ff2c:	60da      	str	r2, [r3, #12]

    /* Set the new sample time */
    hadc->Instance->SMPR1 |= ADC_SMPR1(sConfig->SamplingTime, sConfig->Channel);
 800ff2e:	687b      	ldr	r3, [r7, #4]
 800ff30:	681b      	ldr	r3, [r3, #0]
 800ff32:	68d9      	ldr	r1, [r3, #12]
 800ff34:	683b      	ldr	r3, [r7, #0]
 800ff36:	689a      	ldr	r2, [r3, #8]
 800ff38:	683b      	ldr	r3, [r7, #0]
 800ff3a:	681b      	ldr	r3, [r3, #0]
 800ff3c:	b29b      	uxth	r3, r3
 800ff3e:	4618      	mov	r0, r3
 800ff40:	4603      	mov	r3, r0
 800ff42:	005b      	lsls	r3, r3, #1
 800ff44:	4403      	add	r3, r0
 800ff46:	3b1e      	subs	r3, #30
 800ff48:	409a      	lsls	r2, r3
 800ff4a:	687b      	ldr	r3, [r7, #4]
 800ff4c:	681b      	ldr	r3, [r3, #0]
 800ff4e:	430a      	orrs	r2, r1
 800ff50:	60da      	str	r2, [r3, #12]
 800ff52:	e022      	b.n	800ff9a <HAL_ADC_ConfigChannel+0xbe>
  }
  else /* ADC_Channel include in ADC_Channel_[0..9] */
  {
    /* Clear the old sample time */
    hadc->Instance->SMPR2 &= ~ADC_SMPR2(ADC_SMPR2_SMP0, sConfig->Channel);
 800ff54:	687b      	ldr	r3, [r7, #4]
 800ff56:	681b      	ldr	r3, [r3, #0]
 800ff58:	6919      	ldr	r1, [r3, #16]
 800ff5a:	683b      	ldr	r3, [r7, #0]
 800ff5c:	681b      	ldr	r3, [r3, #0]
 800ff5e:	b29b      	uxth	r3, r3
 800ff60:	461a      	mov	r2, r3
 800ff62:	4613      	mov	r3, r2
 800ff64:	005b      	lsls	r3, r3, #1
 800ff66:	4413      	add	r3, r2
 800ff68:	2207      	movs	r2, #7
 800ff6a:	fa02 f303 	lsl.w	r3, r2, r3
 800ff6e:	43da      	mvns	r2, r3
 800ff70:	687b      	ldr	r3, [r7, #4]
 800ff72:	681b      	ldr	r3, [r3, #0]
 800ff74:	400a      	ands	r2, r1
 800ff76:	611a      	str	r2, [r3, #16]

    /* Set the new sample time */
    hadc->Instance->SMPR2 |= ADC_SMPR2(sConfig->SamplingTime, sConfig->Channel);
 800ff78:	687b      	ldr	r3, [r7, #4]
 800ff7a:	681b      	ldr	r3, [r3, #0]
 800ff7c:	6919      	ldr	r1, [r3, #16]
 800ff7e:	683b      	ldr	r3, [r7, #0]
 800ff80:	689a      	ldr	r2, [r3, #8]
 800ff82:	683b      	ldr	r3, [r7, #0]
 800ff84:	681b      	ldr	r3, [r3, #0]
 800ff86:	b29b      	uxth	r3, r3
 800ff88:	4618      	mov	r0, r3
 800ff8a:	4603      	mov	r3, r0
 800ff8c:	005b      	lsls	r3, r3, #1
 800ff8e:	4403      	add	r3, r0
 800ff90:	409a      	lsls	r2, r3
 800ff92:	687b      	ldr	r3, [r7, #4]
 800ff94:	681b      	ldr	r3, [r3, #0]
 800ff96:	430a      	orrs	r2, r1
 800ff98:	611a      	str	r2, [r3, #16]
  }

  /* For Rank 1 to 6 */
  if (sConfig->Rank < 7U)
 800ff9a:	683b      	ldr	r3, [r7, #0]
 800ff9c:	685b      	ldr	r3, [r3, #4]
 800ff9e:	2b06      	cmp	r3, #6
 800ffa0:	d824      	bhi.n	800ffec <HAL_ADC_ConfigChannel+0x110>
  {
    /* Clear the old SQx bits for the selected rank */
    hadc->Instance->SQR3 &= ~ADC_SQR3_RK(ADC_SQR3_SQ1, sConfig->Rank);
 800ffa2:	687b      	ldr	r3, [r7, #4]
 800ffa4:	681b      	ldr	r3, [r3, #0]
 800ffa6:	6b59      	ldr	r1, [r3, #52]	@ 0x34
 800ffa8:	683b      	ldr	r3, [r7, #0]
 800ffaa:	685a      	ldr	r2, [r3, #4]
 800ffac:	4613      	mov	r3, r2
 800ffae:	009b      	lsls	r3, r3, #2
 800ffb0:	4413      	add	r3, r2
 800ffb2:	3b05      	subs	r3, #5
 800ffb4:	221f      	movs	r2, #31
 800ffb6:	fa02 f303 	lsl.w	r3, r2, r3
 800ffba:	43da      	mvns	r2, r3
 800ffbc:	687b      	ldr	r3, [r7, #4]
 800ffbe:	681b      	ldr	r3, [r3, #0]
 800ffc0:	400a      	ands	r2, r1
 800ffc2:	635a      	str	r2, [r3, #52]	@ 0x34

    /* Set the SQx bits for the selected rank */
    hadc->Instance->SQR3 |= ADC_SQR3_RK(sConfig->Channel, sConfig->Rank);
 800ffc4:	687b      	ldr	r3, [r7, #4]
 800ffc6:	681b      	ldr	r3, [r3, #0]
 800ffc8:	6b59      	ldr	r1, [r3, #52]	@ 0x34
 800ffca:	683b      	ldr	r3, [r7, #0]
 800ffcc:	681b      	ldr	r3, [r3, #0]
 800ffce:	b29b      	uxth	r3, r3
 800ffd0:	4618      	mov	r0, r3
 800ffd2:	683b      	ldr	r3, [r7, #0]
 800ffd4:	685a      	ldr	r2, [r3, #4]
 800ffd6:	4613      	mov	r3, r2
 800ffd8:	009b      	lsls	r3, r3, #2
 800ffda:	4413      	add	r3, r2
 800ffdc:	3b05      	subs	r3, #5
 800ffde:	fa00 f203 	lsl.w	r2, r0, r3
 800ffe2:	687b      	ldr	r3, [r7, #4]
 800ffe4:	681b      	ldr	r3, [r3, #0]
 800ffe6:	430a      	orrs	r2, r1
 800ffe8:	635a      	str	r2, [r3, #52]	@ 0x34
 800ffea:	e04c      	b.n	8010086 <HAL_ADC_ConfigChannel+0x1aa>
  }
  /* For Rank 7 to 12 */
  else if (sConfig->Rank < 13U)
 800ffec:	683b      	ldr	r3, [r7, #0]
 800ffee:	685b      	ldr	r3, [r3, #4]
 800fff0:	2b0c      	cmp	r3, #12
 800fff2:	d824      	bhi.n	801003e <HAL_ADC_ConfigChannel+0x162>
  {
    /* Clear the old SQx bits for the selected rank */
    hadc->Instance->SQR2 &= ~ADC_SQR2_RK(ADC_SQR2_SQ7, sConfig->Rank);
 800fff4:	687b      	ldr	r3, [r7, #4]
 800fff6:	681b      	ldr	r3, [r3, #0]
 800fff8:	6b19      	ldr	r1, [r3, #48]	@ 0x30
 800fffa:	683b      	ldr	r3, [r7, #0]
 800fffc:	685a      	ldr	r2, [r3, #4]
 800fffe:	4613      	mov	r3, r2
 8010000:	009b      	lsls	r3, r3, #2
 8010002:	4413      	add	r3, r2
 8010004:	3b23      	subs	r3, #35	@ 0x23
 8010006:	221f      	movs	r2, #31
 8010008:	fa02 f303 	lsl.w	r3, r2, r3
 801000c:	43da      	mvns	r2, r3
 801000e:	687b      	ldr	r3, [r7, #4]
 8010010:	681b      	ldr	r3, [r3, #0]
 8010012:	400a      	ands	r2, r1
 8010014:	631a      	str	r2, [r3, #48]	@ 0x30

    /* Set the SQx bits for the selected rank */
    hadc->Instance->SQR2 |= ADC_SQR2_RK(sConfig->Channel, sConfig->Rank);
 8010016:	687b      	ldr	r3, [r7, #4]
 8010018:	681b      	ldr	r3, [r3, #0]
 801001a:	6b19      	ldr	r1, [r3, #48]	@ 0x30
 801001c:	683b      	ldr	r3, [r7, #0]
 801001e:	681b      	ldr	r3, [r3, #0]
 8010020:	b29b      	uxth	r3, r3
 8010022:	4618      	mov	r0, r3
 8010024:	683b      	ldr	r3, [r7, #0]
 8010026:	685a      	ldr	r2, [r3, #4]
 8010028:	4613      	mov	r3, r2
 801002a:	009b      	lsls	r3, r3, #2
 801002c:	4413      	add	r3, r2
 801002e:	3b23      	subs	r3, #35	@ 0x23
 8010030:	fa00 f203 	lsl.w	r2, r0, r3
 8010034:	687b      	ldr	r3, [r7, #4]
 8010036:	681b      	ldr	r3, [r3, #0]
 8010038:	430a      	orrs	r2, r1
 801003a:	631a      	str	r2, [r3, #48]	@ 0x30
 801003c:	e023      	b.n	8010086 <HAL_ADC_ConfigChannel+0x1aa>
  }
  /* For Rank 13 to 16 */
  else
  {
    /* Clear the old SQx bits for the selected rank */
    hadc->Instance->SQR1 &= ~ADC_SQR1_RK(ADC_SQR1_SQ13, sConfig->Rank);
 801003e:	687b      	ldr	r3, [r7, #4]
 8010040:	681b      	ldr	r3, [r3, #0]
 8010042:	6ad9      	ldr	r1, [r3, #44]	@ 0x2c
 8010044:	683b      	ldr	r3, [r7, #0]
 8010046:	685a      	ldr	r2, [r3, #4]
 8010048:	4613      	mov	r3, r2
 801004a:	009b      	lsls	r3, r3, #2
 801004c:	4413      	add	r3, r2
 801004e:	3b41      	subs	r3, #65	@ 0x41
 8010050:	221f      	movs	r2, #31
 8010052:	fa02 f303 	lsl.w	r3, r2, r3
 8010056:	43da      	mvns	r2, r3
 8010058:	687b      	ldr	r3, [r7, #4]
 801005a:	681b      	ldr	r3, [r3, #0]
 801005c:	400a      	ands	r2, r1
 801005e:	62da      	str	r2, [r3, #44]	@ 0x2c

    /* Set the SQx bits for the selected rank */
    hadc->Instance->SQR1 |= ADC_SQR1_RK(sConfig->Channel, sConfig->Rank);
 8010060:	687b      	ldr	r3, [r7, #4]
 8010062:	681b      	ldr	r3, [r3, #0]
 8010064:	6ad9      	ldr	r1, [r3, #44]	@ 0x2c
 8010066:	683b      	ldr	r3, [r7, #0]
 8010068:	681b      	ldr	r3, [r3, #0]
 801006a:	b29b      	uxth	r3, r3
 801006c:	4618      	mov	r0, r3
 801006e:	683b      	ldr	r3, [r7, #0]
 8010070:	685a      	ldr	r2, [r3, #4]
 8010072:	4613      	mov	r3, r2
 8010074:	009b      	lsls	r3, r3, #2
 8010076:	4413      	add	r3, r2
 8010078:	3b41      	subs	r3, #65	@ 0x41
 801007a:	fa00 f203 	lsl.w	r2, r0, r3
 801007e:	687b      	ldr	r3, [r7, #4]
 8010080:	681b      	ldr	r3, [r3, #0]
 8010082:	430a      	orrs	r2, r1
 8010084:	62da      	str	r2, [r3, #44]	@ 0x2c
  }

  /* Pointer to the common control register to which is belonging hadc    */
  /* (Depending on STM32F4 product, there may be up to 3 ADCs and 1 common */
  /* control register)                                                    */
  tmpADC_Common = ADC_COMMON_REGISTER(hadc);
 8010086:	4b29      	ldr	r3, [pc, #164]	@ (801012c <HAL_ADC_ConfigChannel+0x250>)
 8010088:	60fb      	str	r3, [r7, #12]

  /* if ADC1 Channel_18 is selected for VBAT Channel ennable VBATE */
  if ((hadc->Instance == ADC1) && (sConfig->Channel == ADC_CHANNEL_VBAT))
 801008a:	687b      	ldr	r3, [r7, #4]
 801008c:	681b      	ldr	r3, [r3, #0]
 801008e:	4a28      	ldr	r2, [pc, #160]	@ (8010130 <HAL_ADC_ConfigChannel+0x254>)
 8010090:	4293      	cmp	r3, r2
 8010092:	d10f      	bne.n	80100b4 <HAL_ADC_ConfigChannel+0x1d8>
 8010094:	683b      	ldr	r3, [r7, #0]
 8010096:	681b      	ldr	r3, [r3, #0]
 8010098:	2b12      	cmp	r3, #18
 801009a:	d10b      	bne.n	80100b4 <HAL_ADC_ConfigChannel+0x1d8>
  {
    /* Disable the TEMPSENSOR channel in case of using board with multiplixed ADC_CHANNEL_VBAT & ADC_CHANNEL_TEMPSENSOR*/
    if ((uint16_t)ADC_CHANNEL_TEMPSENSOR == (uint16_t)ADC_CHANNEL_VBAT)
    {
      tmpADC_Common->CCR &= ~ADC_CCR_TSVREFE;
 801009c:	68fb      	ldr	r3, [r7, #12]
 801009e:	685b      	ldr	r3, [r3, #4]
 80100a0:	f423 0200 	bic.w	r2, r3, #8388608	@ 0x800000
 80100a4:	68fb      	ldr	r3, [r7, #12]
 80100a6:	605a      	str	r2, [r3, #4]
    }
    /* Enable the VBAT channel*/
    tmpADC_Common->CCR |= ADC_CCR_VBATE;
 80100a8:	68fb      	ldr	r3, [r7, #12]
 80100aa:	685b      	ldr	r3, [r3, #4]
 80100ac:	f443 0280 	orr.w	r2, r3, #4194304	@ 0x400000
 80100b0:	68fb      	ldr	r3, [r7, #12]
 80100b2:	605a      	str	r2, [r3, #4]
  }

  /* if ADC1 Channel_16 or Channel_18 is selected for Temperature sensor or
     Channel_17 is selected for VREFINT enable TSVREFE */
  if ((hadc->Instance == ADC1) && ((sConfig->Channel == ADC_CHANNEL_TEMPSENSOR) || (sConfig->Channel == ADC_CHANNEL_VREFINT)))
 80100b4:	687b      	ldr	r3, [r7, #4]
 80100b6:	681b      	ldr	r3, [r3, #0]
 80100b8:	4a1d      	ldr	r2, [pc, #116]	@ (8010130 <HAL_ADC_ConfigChannel+0x254>)
 80100ba:	4293      	cmp	r3, r2
 80100bc:	d12b      	bne.n	8010116 <HAL_ADC_ConfigChannel+0x23a>
 80100be:	683b      	ldr	r3, [r7, #0]
 80100c0:	681b      	ldr	r3, [r3, #0]
 80100c2:	4a1c      	ldr	r2, [pc, #112]	@ (8010134 <HAL_ADC_ConfigChannel+0x258>)
 80100c4:	4293      	cmp	r3, r2
 80100c6:	d003      	beq.n	80100d0 <HAL_ADC_ConfigChannel+0x1f4>
 80100c8:	683b      	ldr	r3, [r7, #0]
 80100ca:	681b      	ldr	r3, [r3, #0]
 80100cc:	2b11      	cmp	r3, #17
 80100ce:	d122      	bne.n	8010116 <HAL_ADC_ConfigChannel+0x23a>
  {
    /* Disable the VBAT channel in case of using board with multiplixed ADC_CHANNEL_VBAT & ADC_CHANNEL_TEMPSENSOR*/
    if ((uint16_t)ADC_CHANNEL_TEMPSENSOR == (uint16_t)ADC_CHANNEL_VBAT)
    {
      tmpADC_Common->CCR &= ~ADC_CCR_VBATE;
 80100d0:	68fb      	ldr	r3, [r7, #12]
 80100d2:	685b      	ldr	r3, [r3, #4]
 80100d4:	f423 0280 	bic.w	r2, r3, #4194304	@ 0x400000
 80100d8:	68fb      	ldr	r3, [r7, #12]
 80100da:	605a      	str	r2, [r3, #4]
    }
    /* Enable the Temperature sensor and VREFINT channel*/
    tmpADC_Common->CCR |= ADC_CCR_TSVREFE;
 80100dc:	68fb      	ldr	r3, [r7, #12]
 80100de:	685b      	ldr	r3, [r3, #4]
 80100e0:	f443 0200 	orr.w	r2, r3, #8388608	@ 0x800000
 80100e4:	68fb      	ldr	r3, [r7, #12]
 80100e6:	605a      	str	r2, [r3, #4]

    if (sConfig->Channel == ADC_CHANNEL_TEMPSENSOR)
 80100e8:	683b      	ldr	r3, [r7, #0]
 80100ea:	681b      	ldr	r3, [r3, #0]
 80100ec:	4a11      	ldr	r2, [pc, #68]	@ (8010134 <HAL_ADC_ConfigChannel+0x258>)
 80100ee:	4293      	cmp	r3, r2
 80100f0:	d111      	bne.n	8010116 <HAL_ADC_ConfigChannel+0x23a>
    {
      /* Delay for temperature sensor stabilization time */
      /* Compute number of CPU cycles to wait for */
      counter = (ADC_TEMPSENSOR_DELAY_US * (SystemCoreClock / 1000000U));
 80100f2:	4b11      	ldr	r3, [pc, #68]	@ (8010138 <HAL_ADC_ConfigChannel+0x25c>)
 80100f4:	681b      	ldr	r3, [r3, #0]
 80100f6:	4a11      	ldr	r2, [pc, #68]	@ (801013c <HAL_ADC_ConfigChannel+0x260>)
 80100f8:	fba2 2303 	umull	r2, r3, r2, r3
 80100fc:	0c9a      	lsrs	r2, r3, #18
 80100fe:	4613      	mov	r3, r2
 8010100:	009b      	lsls	r3, r3, #2
 8010102:	4413      	add	r3, r2
 8010104:	005b      	lsls	r3, r3, #1
 8010106:	60bb      	str	r3, [r7, #8]
      while (counter != 0U)
 8010108:	e002      	b.n	8010110 <HAL_ADC_ConfigChannel+0x234>
      {
        counter--;
 801010a:	68bb      	ldr	r3, [r7, #8]
 801010c:	3b01      	subs	r3, #1
 801010e:	60bb      	str	r3, [r7, #8]
      while (counter != 0U)
 8010110:	68bb      	ldr	r3, [r7, #8]
 8010112:	2b00      	cmp	r3, #0
 8010114:	d1f9      	bne.n	801010a <HAL_ADC_ConfigChannel+0x22e>
      }
    }
  }

  /* Process unlocked */
  __HAL_UNLOCK(hadc);
 8010116:	687b      	ldr	r3, [r7, #4]
 8010118:	2200      	movs	r2, #0
 801011a:	f883 203c 	strb.w	r2, [r3, #60]	@ 0x3c

  /* Return function status */
  return HAL_OK;
 801011e:	2300      	movs	r3, #0
}
 8010120:	4618      	mov	r0, r3
 8010122:	3714      	adds	r7, #20
 8010124:	46bd      	mov	sp, r7
 8010126:	f85d 7b04 	ldr.w	r7, [sp], #4
 801012a:	4770      	bx	lr
 801012c:	40012300 	.word	0x40012300
 8010130:	40012000 	.word	0x40012000
 8010134:	10000012 	.word	0x10000012
 8010138:	200000c0 	.word	0x200000c0
 801013c:	431bde83 	.word	0x431bde83

08010140 <ADC_Init>:
  * @param  hadc pointer to a ADC_HandleTypeDef structure that contains
  *         the configuration information for the specified ADC.
  * @retval None
  */
static void ADC_Init(ADC_HandleTypeDef *hadc)
{
 8010140:	b480      	push	{r7}
 8010142:	b085      	sub	sp, #20
 8010144:	af00      	add	r7, sp, #0
 8010146:	6078      	str	r0, [r7, #4]

  /* Set ADC parameters */
  /* Pointer to the common control register to which is belonging hadc    */
  /* (Depending on STM32F4 product, there may be up to 3 ADCs and 1 common */
  /* control register)                                                    */
  tmpADC_Common = ADC_COMMON_REGISTER(hadc);
 8010148:	4b79      	ldr	r3, [pc, #484]	@ (8010330 <ADC_Init+0x1f0>)
 801014a:	60fb      	str	r3, [r7, #12]

  /* Set the ADC clock prescaler */
  tmpADC_Common->CCR &= ~(ADC_CCR_ADCPRE);
 801014c:	68fb      	ldr	r3, [r7, #12]
 801014e:	685b      	ldr	r3, [r3, #4]
 8010150:	f423 3240 	bic.w	r2, r3, #196608	@ 0x30000
 8010154:	68fb      	ldr	r3, [r7, #12]
 8010156:	605a      	str	r2, [r3, #4]
  tmpADC_Common->CCR |=  hadc->Init.ClockPrescaler;
 8010158:	68fb      	ldr	r3, [r7, #12]
 801015a:	685a      	ldr	r2, [r3, #4]
 801015c:	687b      	ldr	r3, [r7, #4]
 801015e:	685b      	ldr	r3, [r3, #4]
 8010160:	431a      	orrs	r2, r3
 8010162:	68fb      	ldr	r3, [r7, #12]
 8010164:	605a      	str	r2, [r3, #4]

  /* Set ADC scan mode */
  hadc->Instance->CR1 &= ~(ADC_CR1_SCAN);
 8010166:	687b      	ldr	r3, [r7, #4]
 8010168:	681b      	ldr	r3, [r3, #0]
 801016a:	685a      	ldr	r2, [r3, #4]
 801016c:	687b      	ldr	r3, [r7, #4]
 801016e:	681b      	ldr	r3, [r3, #0]
 8010170:	f422 7280 	bic.w	r2, r2, #256	@ 0x100
 8010174:	605a      	str	r2, [r3, #4]
  hadc->Instance->CR1 |=  ADC_CR1_SCANCONV(hadc->Init.ScanConvMode);
 8010176:	687b      	ldr	r3, [r7, #4]
 8010178:	681b      	ldr	r3, [r3, #0]
 801017a:	6859      	ldr	r1, [r3, #4]
 801017c:	687b      	ldr	r3, [r7, #4]
 801017e:	691b      	ldr	r3, [r3, #16]
 8010180:	021a      	lsls	r2, r3, #8
 8010182:	687b      	ldr	r3, [r7, #4]
 8010184:	681b      	ldr	r3, [r3, #0]
 8010186:	430a      	orrs	r2, r1
 8010188:	605a      	str	r2, [r3, #4]

  /* Set ADC resolution */
  hadc->Instance->CR1 &= ~(ADC_CR1_RES);
 801018a:	687b      	ldr	r3, [r7, #4]
 801018c:	681b      	ldr	r3, [r3, #0]
 801018e:	685a      	ldr	r2, [r3, #4]
 8010190:	687b      	ldr	r3, [r7, #4]
 8010192:	681b      	ldr	r3, [r3, #0]
 8010194:	f022 7240 	bic.w	r2, r2, #50331648	@ 0x3000000
 8010198:	605a      	str	r2, [r3, #4]
  hadc->Instance->CR1 |=  hadc->Init.Resolution;
 801019a:	687b      	ldr	r3, [r7, #4]
 801019c:	681b      	ldr	r3, [r3, #0]
 801019e:	6859      	ldr	r1, [r3, #4]
 80101a0:	687b      	ldr	r3, [r7, #4]
 80101a2:	689a      	ldr	r2, [r3, #8]
 80101a4:	687b      	ldr	r3, [r7, #4]
 80101a6:	681b      	ldr	r3, [r3, #0]
 80101a8:	430a      	orrs	r2, r1
 80101aa:	605a      	str	r2, [r3, #4]

  /* Set ADC data alignment */
  hadc->Instance->CR2 &= ~(ADC_CR2_ALIGN);
 80101ac:	687b      	ldr	r3, [r7, #4]
 80101ae:	681b      	ldr	r3, [r3, #0]
 80101b0:	689a      	ldr	r2, [r3, #8]
 80101b2:	687b      	ldr	r3, [r7, #4]
 80101b4:	681b      	ldr	r3, [r3, #0]
 80101b6:	f422 6200 	bic.w	r2, r2, #2048	@ 0x800
 80101ba:	609a      	str	r2, [r3, #8]
  hadc->Instance->CR2 |= hadc->Init.DataAlign;
 80101bc:	687b      	ldr	r3, [r7, #4]
 80101be:	681b      	ldr	r3, [r3, #0]
 80101c0:	6899      	ldr	r1, [r3, #8]
 80101c2:	687b      	ldr	r3, [r7, #4]
 80101c4:	68da      	ldr	r2, [r3, #12]
 80101c6:	687b      	ldr	r3, [r7, #4]
 80101c8:	681b      	ldr	r3, [r3, #0]
 80101ca:	430a      	orrs	r2, r1
 80101cc:	609a      	str	r2, [r3, #8]
  /* Enable external trigger if trigger selection is different of software  */
  /* start.                                                                 */
  /* Note: This configuration keeps the hardware feature of parameter       */
  /*       ExternalTrigConvEdge "trigger edge none" equivalent to           */
  /*       software start.                                                  */
  if (hadc->Init.ExternalTrigConv != ADC_SOFTWARE_START)
 80101ce:	687b      	ldr	r3, [r7, #4]
 80101d0:	6a9b      	ldr	r3, [r3, #40]	@ 0x28
 80101d2:	4a58      	ldr	r2, [pc, #352]	@ (8010334 <ADC_Init+0x1f4>)
 80101d4:	4293      	cmp	r3, r2
 80101d6:	d022      	beq.n	801021e <ADC_Init+0xde>
  {
    /* Select external trigger to start conversion */
    hadc->Instance->CR2 &= ~(ADC_CR2_EXTSEL);
 80101d8:	687b      	ldr	r3, [r7, #4]
 80101da:	681b      	ldr	r3, [r3, #0]
 80101dc:	689a      	ldr	r2, [r3, #8]
 80101de:	687b      	ldr	r3, [r7, #4]
 80101e0:	681b      	ldr	r3, [r3, #0]
 80101e2:	f022 6270 	bic.w	r2, r2, #251658240	@ 0xf000000
 80101e6:	609a      	str	r2, [r3, #8]
    hadc->Instance->CR2 |= hadc->Init.ExternalTrigConv;
 80101e8:	687b      	ldr	r3, [r7, #4]
 80101ea:	681b      	ldr	r3, [r3, #0]
 80101ec:	6899      	ldr	r1, [r3, #8]
 80101ee:	687b      	ldr	r3, [r7, #4]
 80101f0:	6a9a      	ldr	r2, [r3, #40]	@ 0x28
 80101f2:	687b      	ldr	r3, [r7, #4]
 80101f4:	681b      	ldr	r3, [r3, #0]
 80101f6:	430a      	orrs	r2, r1
 80101f8:	609a      	str	r2, [r3, #8]

    /* Select external trigger polarity */
    hadc->Instance->CR2 &= ~(ADC_CR2_EXTEN);
 80101fa:	687b      	ldr	r3, [r7, #4]
 80101fc:	681b      	ldr	r3, [r3, #0]
 80101fe:	689a      	ldr	r2, [r3, #8]
 8010200:	687b      	ldr	r3, [r7, #4]
 8010202:	681b      	ldr	r3, [r3, #0]
 8010204:	f022 5240 	bic.w	r2, r2, #805306368	@ 0x30000000
 8010208:	609a      	str	r2, [r3, #8]
    hadc->Instance->CR2 |= hadc->Init.ExternalTrigConvEdge;
 801020a:	687b      	ldr	r3, [r7, #4]
 801020c:	681b      	ldr	r3, [r3, #0]
 801020e:	6899      	ldr	r1, [r3, #8]
 8010210:	687b      	ldr	r3, [r7, #4]
 8010212:	6ada      	ldr	r2, [r3, #44]	@ 0x2c
 8010214:	687b      	ldr	r3, [r7, #4]
 8010216:	681b      	ldr	r3, [r3, #0]
 8010218:	430a      	orrs	r2, r1
 801021a:	609a      	str	r2, [r3, #8]
 801021c:	e00f      	b.n	801023e <ADC_Init+0xfe>
  }
  else
  {
    /* Reset the external trigger */
    hadc->Instance->CR2 &= ~(ADC_CR2_EXTSEL);
 801021e:	687b      	ldr	r3, [r7, #4]
 8010220:	681b      	ldr	r3, [r3, #0]
 8010222:	689a      	ldr	r2, [r3, #8]
 8010224:	687b      	ldr	r3, [r7, #4]
 8010226:	681b      	ldr	r3, [r3, #0]
 8010228:	f022 6270 	bic.w	r2, r2, #251658240	@ 0xf000000
 801022c:	609a      	str	r2, [r3, #8]
    hadc->Instance->CR2 &= ~(ADC_CR2_EXTEN);
 801022e:	687b      	ldr	r3, [r7, #4]
 8010230:	681b      	ldr	r3, [r3, #0]
 8010232:	689a      	ldr	r2, [r3, #8]
 8010234:	687b      	ldr	r3, [r7, #4]
 8010236:	681b      	ldr	r3, [r3, #0]
 8010238:	f022 5240 	bic.w	r2, r2, #805306368	@ 0x30000000
 801023c:	609a      	str	r2, [r3, #8]
  }

  /* Enable or disable ADC continuous conversion mode */
  hadc->Instance->CR2 &= ~(ADC_CR2_CONT);
 801023e:	687b      	ldr	r3, [r7, #4]
 8010240:	681b      	ldr	r3, [r3, #0]
 8010242:	689a      	ldr	r2, [r3, #8]
 8010244:	687b      	ldr	r3, [r7, #4]
 8010246:	681b      	ldr	r3, [r3, #0]
 8010248:	f022 0202 	bic.w	r2, r2, #2
 801024c:	609a      	str	r2, [r3, #8]
  hadc->Instance->CR2 |= ADC_CR2_CONTINUOUS((uint32_t)hadc->Init.ContinuousConvMode);
 801024e:	687b      	ldr	r3, [r7, #4]
 8010250:	681b      	ldr	r3, [r3, #0]
 8010252:	6899      	ldr	r1, [r3, #8]
 8010254:	687b      	ldr	r3, [r7, #4]
 8010256:	7e1b      	ldrb	r3, [r3, #24]
 8010258:	005a      	lsls	r2, r3, #1
 801025a:	687b      	ldr	r3, [r7, #4]
 801025c:	681b      	ldr	r3, [r3, #0]
 801025e:	430a      	orrs	r2, r1
 8010260:	609a      	str	r2, [r3, #8]

  if (hadc->Init.DiscontinuousConvMode != DISABLE)
 8010262:	687b      	ldr	r3, [r7, #4]
 8010264:	f893 3020 	ldrb.w	r3, [r3, #32]
 8010268:	2b00      	cmp	r3, #0
 801026a:	d01b      	beq.n	80102a4 <ADC_Init+0x164>
  {
    assert_param(IS_ADC_REGULAR_DISC_NUMBER(hadc->Init.NbrOfDiscConversion));

    /* Enable the selected ADC regular discontinuous mode */
    hadc->Instance->CR1 |= (uint32_t)ADC_CR1_DISCEN;
 801026c:	687b      	ldr	r3, [r7, #4]
 801026e:	681b      	ldr	r3, [r3, #0]
 8010270:	685a      	ldr	r2, [r3, #4]
 8010272:	687b      	ldr	r3, [r7, #4]
 8010274:	681b      	ldr	r3, [r3, #0]
 8010276:	f442 6200 	orr.w	r2, r2, #2048	@ 0x800
 801027a:	605a      	str	r2, [r3, #4]

    /* Set the number of channels to be converted in discontinuous mode */
    hadc->Instance->CR1 &= ~(ADC_CR1_DISCNUM);
 801027c:	687b      	ldr	r3, [r7, #4]
 801027e:	681b      	ldr	r3, [r3, #0]
 8010280:	685a      	ldr	r2, [r3, #4]
 8010282:	687b      	ldr	r3, [r7, #4]
 8010284:	681b      	ldr	r3, [r3, #0]
 8010286:	f422 4260 	bic.w	r2, r2, #57344	@ 0xe000
 801028a:	605a      	str	r2, [r3, #4]
    hadc->Instance->CR1 |=  ADC_CR1_DISCONTINUOUS(hadc->Init.NbrOfDiscConversion);
 801028c:	687b      	ldr	r3, [r7, #4]
 801028e:	681b      	ldr	r3, [r3, #0]
 8010290:	6859      	ldr	r1, [r3, #4]
 8010292:	687b      	ldr	r3, [r7, #4]
 8010294:	6a5b      	ldr	r3, [r3, #36]	@ 0x24
 8010296:	3b01      	subs	r3, #1
 8010298:	035a      	lsls	r2, r3, #13
 801029a:	687b      	ldr	r3, [r7, #4]
 801029c:	681b      	ldr	r3, [r3, #0]
 801029e:	430a      	orrs	r2, r1
 80102a0:	605a      	str	r2, [r3, #4]
 80102a2:	e007      	b.n	80102b4 <ADC_Init+0x174>
  }
  else
  {
    /* Disable the selected ADC regular discontinuous mode */
    hadc->Instance->CR1 &= ~(ADC_CR1_DISCEN);
 80102a4:	687b      	ldr	r3, [r7, #4]
 80102a6:	681b      	ldr	r3, [r3, #0]
 80102a8:	685a      	ldr	r2, [r3, #4]
 80102aa:	687b      	ldr	r3, [r7, #4]
 80102ac:	681b      	ldr	r3, [r3, #0]
 80102ae:	f422 6200 	bic.w	r2, r2, #2048	@ 0x800
 80102b2:	605a      	str	r2, [r3, #4]
  }

  /* Set ADC number of conversion */
  hadc->Instance->SQR1 &= ~(ADC_SQR1_L);
 80102b4:	687b      	ldr	r3, [r7, #4]
 80102b6:	681b      	ldr	r3, [r3, #0]
 80102b8:	6ada      	ldr	r2, [r3, #44]	@ 0x2c
 80102ba:	687b      	ldr	r3, [r7, #4]
 80102bc:	681b      	ldr	r3, [r3, #0]
 80102be:	f422 0270 	bic.w	r2, r2, #15728640	@ 0xf00000
 80102c2:	62da      	str	r2, [r3, #44]	@ 0x2c
  hadc->Instance->SQR1 |=  ADC_SQR1(hadc->Init.NbrOfConversion);
 80102c4:	687b      	ldr	r3, [r7, #4]
 80102c6:	681b      	ldr	r3, [r3, #0]
 80102c8:	6ad9      	ldr	r1, [r3, #44]	@ 0x2c
 80102ca:	687b      	ldr	r3, [r7, #4]
 80102cc:	69db      	ldr	r3, [r3, #28]
 80102ce:	3b01      	subs	r3, #1
 80102d0:	051a      	lsls	r2, r3, #20
 80102d2:	687b      	ldr	r3, [r7, #4]
 80102d4:	681b      	ldr	r3, [r3, #0]
 80102d6:	430a      	orrs	r2, r1
 80102d8:	62da      	str	r2, [r3, #44]	@ 0x2c

  /* Enable or disable ADC DMA continuous request */
  hadc->Instance->CR2 &= ~(ADC_CR2_DDS);
 80102da:	687b      	ldr	r3, [r7, #4]
 80102dc:	681b      	ldr	r3, [r3, #0]
 80102de:	689a      	ldr	r2, [r3, #8]
 80102e0:	687b      	ldr	r3, [r7, #4]
 80102e2:	681b      	ldr	r3, [r3, #0]
 80102e4:	f422 7200 	bic.w	r2, r2, #512	@ 0x200
 80102e8:	609a      	str	r2, [r3, #8]
  hadc->Instance->CR2 |= ADC_CR2_DMAContReq((uint32_t)hadc->Init.DMAContinuousRequests);
 80102ea:	687b      	ldr	r3, [r7, #4]
 80102ec:	681b      	ldr	r3, [r3, #0]
 80102ee:	6899      	ldr	r1, [r3, #8]
 80102f0:	687b      	ldr	r3, [r7, #4]
 80102f2:	f893 3030 	ldrb.w	r3, [r3, #48]	@ 0x30
 80102f6:	025a      	lsls	r2, r3, #9
 80102f8:	687b      	ldr	r3, [r7, #4]
 80102fa:	681b      	ldr	r3, [r3, #0]
 80102fc:	430a      	orrs	r2, r1
 80102fe:	609a      	str	r2, [r3, #8]

  /* Enable or disable ADC end of conversion selection */
  hadc->Instance->CR2 &= ~(ADC_CR2_EOCS);
 8010300:	687b      	ldr	r3, [r7, #4]
 8010302:	681b      	ldr	r3, [r3, #0]
 8010304:	689a      	ldr	r2, [r3, #8]
 8010306:	687b      	ldr	r3, [r7, #4]
 8010308:	681b      	ldr	r3, [r3, #0]
 801030a:	f422 6280 	bic.w	r2, r2, #1024	@ 0x400
 801030e:	609a      	str	r2, [r3, #8]
  hadc->Instance->CR2 |= ADC_CR2_EOCSelection(hadc->Init.EOCSelection);
 8010310:	687b      	ldr	r3, [r7, #4]
 8010312:	681b      	ldr	r3, [r3, #0]
 8010314:	6899      	ldr	r1, [r3, #8]
 8010316:	687b      	ldr	r3, [r7, #4]
 8010318:	695b      	ldr	r3, [r3, #20]
 801031a:	029a      	lsls	r2, r3, #10
 801031c:	687b      	ldr	r3, [r7, #4]
 801031e:	681b      	ldr	r3, [r3, #0]
 8010320:	430a      	orrs	r2, r1
 8010322:	609a      	str	r2, [r3, #8]
}
 8010324:	bf00      	nop
 8010326:	3714      	adds	r7, #20
 8010328:	46bd      	mov	sp, r7
 801032a:	f85d 7b04 	ldr.w	r7, [sp], #4
 801032e:	4770      	bx	lr
 8010330:	40012300 	.word	0x40012300
 8010334:	0f000001 	.word	0x0f000001

08010338 <ADC_DMAConvCplt>:
  * @param  hdma pointer to a DMA_HandleTypeDef structure that contains
  *                the configuration information for the specified DMA module.
  * @retval None
  */
static void ADC_DMAConvCplt(DMA_HandleTypeDef *hdma)
{
 8010338:	b580      	push	{r7, lr}
 801033a:	b084      	sub	sp, #16
 801033c:	af00      	add	r7, sp, #0
 801033e:	6078      	str	r0, [r7, #4]
  /* Retrieve ADC handle corresponding to current DMA handle */
  ADC_HandleTypeDef *hadc = (ADC_HandleTypeDef *)((DMA_HandleTypeDef *)hdma)->Parent;
 8010340:	687b      	ldr	r3, [r7, #4]
 8010342:	6b9b      	ldr	r3, [r3, #56]	@ 0x38
 8010344:	60fb      	str	r3, [r7, #12]

  /* Update state machine on conversion status if not in error state */
  if (HAL_IS_BIT_CLR(hadc->State, HAL_ADC_STATE_ERROR_INTERNAL | HAL_ADC_STATE_ERROR_DMA))
 8010346:	68fb      	ldr	r3, [r7, #12]
 8010348:	6c1b      	ldr	r3, [r3, #64]	@ 0x40
 801034a:	f003 0350 	and.w	r3, r3, #80	@ 0x50
 801034e:	2b00      	cmp	r3, #0
 8010350:	d13c      	bne.n	80103cc <ADC_DMAConvCplt+0x94>
  {
    /* Update ADC state machine */
    SET_BIT(hadc->State, HAL_ADC_STATE_REG_EOC);
 8010352:	68fb      	ldr	r3, [r7, #12]
 8010354:	6c1b      	ldr	r3, [r3, #64]	@ 0x40
 8010356:	f443 7200 	orr.w	r2, r3, #512	@ 0x200
 801035a:	68fb      	ldr	r3, [r7, #12]
 801035c:	641a      	str	r2, [r3, #64]	@ 0x40
    /* by external trigger, continuous mode or scan sequence on going.      */
    /* Note: On STM32F4, there is no independent flag of end of sequence.   */
    /*       The test of scan sequence on going is done either with scan    */
    /*       sequence disabled or with end of conversion flag set to        */
    /*       of end of sequence.                                            */
    if (ADC_IS_SOFTWARE_START_REGULAR(hadc)                   &&
 801035e:	68fb      	ldr	r3, [r7, #12]
 8010360:	681b      	ldr	r3, [r3, #0]
 8010362:	689b      	ldr	r3, [r3, #8]
 8010364:	f003 5340 	and.w	r3, r3, #805306368	@ 0x30000000
 8010368:	2b00      	cmp	r3, #0
 801036a:	d12b      	bne.n	80103c4 <ADC_DMAConvCplt+0x8c>
        (hadc->Init.ContinuousConvMode == DISABLE)            &&
 801036c:	68fb      	ldr	r3, [r7, #12]
 801036e:	7e1b      	ldrb	r3, [r3, #24]
    if (ADC_IS_SOFTWARE_START_REGULAR(hadc)                   &&
 8010370:	2b00      	cmp	r3, #0
 8010372:	d127      	bne.n	80103c4 <ADC_DMAConvCplt+0x8c>
        (HAL_IS_BIT_CLR(hadc->Instance->SQR1, ADC_SQR1_L) ||
 8010374:	68fb      	ldr	r3, [r7, #12]
 8010376:	681b      	ldr	r3, [r3, #0]
 8010378:	6adb      	ldr	r3, [r3, #44]	@ 0x2c
 801037a:	f403 0370 	and.w	r3, r3, #15728640	@ 0xf00000
        (hadc->Init.ContinuousConvMode == DISABLE)            &&
 801037e:	2b00      	cmp	r3, #0
 8010380:	d006      	beq.n	8010390 <ADC_DMAConvCplt+0x58>
         HAL_IS_BIT_CLR(hadc->Instance->CR2, ADC_CR2_EOCS)))
 8010382:	68fb      	ldr	r3, [r7, #12]
 8010384:	681b      	ldr	r3, [r3, #0]
 8010386:	689b      	ldr	r3, [r3, #8]
 8010388:	f403 6380 	and.w	r3, r3, #1024	@ 0x400
        (HAL_IS_BIT_CLR(hadc->Instance->SQR1, ADC_SQR1_L) ||
 801038c:	2b00      	cmp	r3, #0
 801038e:	d119      	bne.n	80103c4 <ADC_DMAConvCplt+0x8c>
    {
      /* Disable ADC end of single conversion interrupt on group regular */
      /* Note: Overrun interrupt was enabled with EOC interrupt in          */
      /* HAL_ADC_Start_IT(), but is not disabled here because can be used   */
      /* by overrun IRQ process below.                                      */
      __HAL_ADC_DISABLE_IT(hadc, ADC_IT_EOC);
 8010390:	68fb      	ldr	r3, [r7, #12]
 8010392:	681b      	ldr	r3, [r3, #0]
 8010394:	685a      	ldr	r2, [r3, #4]
 8010396:	68fb      	ldr	r3, [r7, #12]
 8010398:	681b      	ldr	r3, [r3, #0]
 801039a:	f022 0220 	bic.w	r2, r2, #32
 801039e:	605a      	str	r2, [r3, #4]

      /* Set ADC state */
      CLEAR_BIT(hadc->State, HAL_ADC_STATE_REG_BUSY);
 80103a0:	68fb      	ldr	r3, [r7, #12]
 80103a2:	6c1b      	ldr	r3, [r3, #64]	@ 0x40
 80103a4:	f423 7280 	bic.w	r2, r3, #256	@ 0x100
 80103a8:	68fb      	ldr	r3, [r7, #12]
 80103aa:	641a      	str	r2, [r3, #64]	@ 0x40

      if (HAL_IS_BIT_CLR(hadc->State, HAL_ADC_STATE_INJ_BUSY))
 80103ac:	68fb      	ldr	r3, [r7, #12]
 80103ae:	6c1b      	ldr	r3, [r3, #64]	@ 0x40
 80103b0:	f403 5380 	and.w	r3, r3, #4096	@ 0x1000
 80103b4:	2b00      	cmp	r3, #0
 80103b6:	d105      	bne.n	80103c4 <ADC_DMAConvCplt+0x8c>
      {
        SET_BIT(hadc->State, HAL_ADC_STATE_READY);
 80103b8:	68fb      	ldr	r3, [r7, #12]
 80103ba:	6c1b      	ldr	r3, [r3, #64]	@ 0x40
 80103bc:	f043 0201 	orr.w	r2, r3, #1
 80103c0:	68fb      	ldr	r3, [r7, #12]
 80103c2:	641a      	str	r2, [r3, #64]	@ 0x40

    /* Conversion complete callback */
#if (USE_HAL_ADC_REGISTER_CALLBACKS == 1)
    hadc->ConvCpltCallback(hadc);
#else
    HAL_ADC_ConvCpltCallback(hadc);
 80103c4:	68f8      	ldr	r0, [r7, #12]
 80103c6:	f004 fce9 	bl	8014d9c <HAL_ADC_ConvCpltCallback>
    {
      /* Call DMA error callback */
      hadc->DMA_Handle->XferErrorCallback(hdma);
    }
  }
}
 80103ca:	e00e      	b.n	80103ea <ADC_DMAConvCplt+0xb2>
    if ((hadc->State & HAL_ADC_STATE_ERROR_INTERNAL) != 0UL)
 80103cc:	68fb      	ldr	r3, [r7, #12]
 80103ce:	6c1b      	ldr	r3, [r3, #64]	@ 0x40
 80103d0:	f003 0310 	and.w	r3, r3, #16
 80103d4:	2b00      	cmp	r3, #0
 80103d6:	d003      	beq.n	80103e0 <ADC_DMAConvCplt+0xa8>
      HAL_ADC_ErrorCallback(hadc);
 80103d8:	68f8      	ldr	r0, [r7, #12]
 80103da:	f7ff fd75 	bl	800fec8 <HAL_ADC_ErrorCallback>
}
 80103de:	e004      	b.n	80103ea <ADC_DMAConvCplt+0xb2>
      hadc->DMA_Handle->XferErrorCallback(hdma);
 80103e0:	68fb      	ldr	r3, [r7, #12]
 80103e2:	6b9b      	ldr	r3, [r3, #56]	@ 0x38
 80103e4:	6cdb      	ldr	r3, [r3, #76]	@ 0x4c
 80103e6:	6878      	ldr	r0, [r7, #4]
 80103e8:	4798      	blx	r3
}
 80103ea:	bf00      	nop
 80103ec:	3710      	adds	r7, #16
 80103ee:	46bd      	mov	sp, r7
 80103f0:	bd80      	pop	{r7, pc}

080103f2 <ADC_DMAHalfConvCplt>:
  * @param  hdma pointer to a DMA_HandleTypeDef structure that contains
  *                the configuration information for the specified DMA module.
  * @retval None
  */
static void ADC_DMAHalfConvCplt(DMA_HandleTypeDef *hdma)
{
 80103f2:	b580      	push	{r7, lr}
 80103f4:	b084      	sub	sp, #16
 80103f6:	af00      	add	r7, sp, #0
 80103f8:	6078      	str	r0, [r7, #4]
  ADC_HandleTypeDef *hadc = (ADC_HandleTypeDef *)((DMA_HandleTypeDef *)hdma)->Parent;
 80103fa:	687b      	ldr	r3, [r7, #4]
 80103fc:	6b9b      	ldr	r3, [r3, #56]	@ 0x38
 80103fe:	60fb      	str	r3, [r7, #12]
  /* Half conversion callback */
#if (USE_HAL_ADC_REGISTER_CALLBACKS == 1)
  hadc->ConvHalfCpltCallback(hadc);
#else
  HAL_ADC_ConvHalfCpltCallback(hadc);
 8010400:	68f8      	ldr	r0, [r7, #12]
 8010402:	f7ff fd57 	bl	800feb4 <HAL_ADC_ConvHalfCpltCallback>
#endif /* USE_HAL_ADC_REGISTER_CALLBACKS */
}
 8010406:	bf00      	nop
 8010408:	3710      	adds	r7, #16
 801040a:	46bd      	mov	sp, r7
 801040c:	bd80      	pop	{r7, pc}

0801040e <ADC_DMAError>:
  * @param  hdma pointer to a DMA_HandleTypeDef structure that contains
  *                the configuration information for the specified DMA module.
  * @retval None
  */
static void ADC_DMAError(DMA_HandleTypeDef *hdma)
{
 801040e:	b580      	push	{r7, lr}
 8010410:	b084      	sub	sp, #16
 8010412:	af00      	add	r7, sp, #0
 8010414:	6078      	str	r0, [r7, #4]
  ADC_HandleTypeDef *hadc = (ADC_HandleTypeDef *)((DMA_HandleTypeDef *)hdma)->Parent;
 8010416:	687b      	ldr	r3, [r7, #4]
 8010418:	6b9b      	ldr	r3, [r3, #56]	@ 0x38
 801041a:	60fb      	str	r3, [r7, #12]
  hadc->State = HAL_ADC_STATE_ERROR_DMA;
 801041c:	68fb      	ldr	r3, [r7, #12]
 801041e:	2240      	movs	r2, #64	@ 0x40
 8010420:	641a      	str	r2, [r3, #64]	@ 0x40
  /* Set ADC error code to DMA error */
  hadc->ErrorCode |= HAL_ADC_ERROR_DMA;
 8010422:	68fb      	ldr	r3, [r7, #12]
 8010424:	6c5b      	ldr	r3, [r3, #68]	@ 0x44
 8010426:	f043 0204 	orr.w	r2, r3, #4
 801042a:	68fb      	ldr	r3, [r7, #12]
 801042c:	645a      	str	r2, [r3, #68]	@ 0x44
  /* Error callback */
#if (USE_HAL_ADC_REGISTER_CALLBACKS == 1)
  hadc->ErrorCallback(hadc);
#else
  HAL_ADC_ErrorCallback(hadc);
 801042e:	68f8      	ldr	r0, [r7, #12]
 8010430:	f7ff fd4a 	bl	800fec8 <HAL_ADC_ErrorCallback>
#endif /* USE_HAL_ADC_REGISTER_CALLBACKS */
}
 8010434:	bf00      	nop
 8010436:	3710      	adds	r7, #16
 8010438:	46bd      	mov	sp, r7
 801043a:	bd80      	pop	{r7, pc}

0801043c <__NVIC_SetPriorityGrouping>:
{
 801043c:	b480      	push	{r7}
 801043e:	b085      	sub	sp, #20
 8010440:	af00      	add	r7, sp, #0
 8010442:	6078      	str	r0, [r7, #4]
  uint32_t PriorityGroupTmp = (PriorityGroup & (uint32_t)0x07UL);             /* only values 0..7 are used          */
 8010444:	687b      	ldr	r3, [r7, #4]
 8010446:	f003 0307 	and.w	r3, r3, #7
 801044a:	60fb      	str	r3, [r7, #12]
  reg_value  =  SCB->AIRCR;                                                   /* read old register configuration    */
 801044c:	4b0c      	ldr	r3, [pc, #48]	@ (8010480 <__NVIC_SetPriorityGrouping+0x44>)
 801044e:	68db      	ldr	r3, [r3, #12]
 8010450:	60bb      	str	r3, [r7, #8]
  reg_value &= ~((uint32_t)(SCB_AIRCR_VECTKEY_Msk | SCB_AIRCR_PRIGROUP_Msk)); /* clear bits to change               */
 8010452:	68ba      	ldr	r2, [r7, #8]
 8010454:	f64f 03ff 	movw	r3, #63743	@ 0xf8ff
 8010458:	4013      	ands	r3, r2
 801045a:	60bb      	str	r3, [r7, #8]
                (PriorityGroupTmp << SCB_AIRCR_PRIGROUP_Pos)  );              /* Insert write key and priority group */
 801045c:	68fb      	ldr	r3, [r7, #12]
 801045e:	021a      	lsls	r2, r3, #8
                ((uint32_t)0x5FAUL << SCB_AIRCR_VECTKEY_Pos) |
 8010460:	68bb      	ldr	r3, [r7, #8]
 8010462:	4313      	orrs	r3, r2
  reg_value  =  (reg_value                                   |
 8010464:	f043 63bf 	orr.w	r3, r3, #100139008	@ 0x5f80000
 8010468:	f443 3300 	orr.w	r3, r3, #131072	@ 0x20000
 801046c:	60bb      	str	r3, [r7, #8]
  SCB->AIRCR =  reg_value;
 801046e:	4a04      	ldr	r2, [pc, #16]	@ (8010480 <__NVIC_SetPriorityGrouping+0x44>)
 8010470:	68bb      	ldr	r3, [r7, #8]
 8010472:	60d3      	str	r3, [r2, #12]
}
 8010474:	bf00      	nop
 8010476:	3714      	adds	r7, #20
 8010478:	46bd      	mov	sp, r7
 801047a:	f85d 7b04 	ldr.w	r7, [sp], #4
 801047e:	4770      	bx	lr
 8010480:	e000ed00 	.word	0xe000ed00

08010484 <__NVIC_GetPriorityGrouping>:
{
 8010484:	b480      	push	{r7}
 8010486:	af00      	add	r7, sp, #0
  return ((uint32_t)((SCB->AIRCR & SCB_AIRCR_PRIGROUP_Msk) >> SCB_AIRCR_PRIGROUP_Pos));
 8010488:	4b04      	ldr	r3, [pc, #16]	@ (801049c <__NVIC_GetPriorityGrouping+0x18>)
 801048a:	68db      	ldr	r3, [r3, #12]
 801048c:	0a1b      	lsrs	r3, r3, #8
 801048e:	f003 0307 	and.w	r3, r3, #7
}
 8010492:	4618      	mov	r0, r3
 8010494:	46bd      	mov	sp, r7
 8010496:	f85d 7b04 	ldr.w	r7, [sp], #4
 801049a:	4770      	bx	lr
 801049c:	e000ed00 	.word	0xe000ed00

080104a0 <__NVIC_EnableIRQ>:
{
 80104a0:	b480      	push	{r7}
 80104a2:	b083      	sub	sp, #12
 80104a4:	af00      	add	r7, sp, #0
 80104a6:	4603      	mov	r3, r0
 80104a8:	71fb      	strb	r3, [r7, #7]
  if ((int32_t)(IRQn) >= 0)
 80104aa:	f997 3007 	ldrsb.w	r3, [r7, #7]
 80104ae:	2b00      	cmp	r3, #0
 80104b0:	db0b      	blt.n	80104ca <__NVIC_EnableIRQ+0x2a>
    NVIC->ISER[(((uint32_t)IRQn) >> 5UL)] = (uint32_t)(1UL << (((uint32_t)IRQn) & 0x1FUL));
 80104b2:	79fb      	ldrb	r3, [r7, #7]
 80104b4:	f003 021f 	and.w	r2, r3, #31
 80104b8:	4907      	ldr	r1, [pc, #28]	@ (80104d8 <__NVIC_EnableIRQ+0x38>)
 80104ba:	f997 3007 	ldrsb.w	r3, [r7, #7]
 80104be:	095b      	lsrs	r3, r3, #5
 80104c0:	2001      	movs	r0, #1
 80104c2:	fa00 f202 	lsl.w	r2, r0, r2
 80104c6:	f841 2023 	str.w	r2, [r1, r3, lsl #2]
}
 80104ca:	bf00      	nop
 80104cc:	370c      	adds	r7, #12
 80104ce:	46bd      	mov	sp, r7
 80104d0:	f85d 7b04 	ldr.w	r7, [sp], #4
 80104d4:	4770      	bx	lr
 80104d6:	bf00      	nop
 80104d8:	e000e100 	.word	0xe000e100

080104dc <__NVIC_DisableIRQ>:
{
 80104dc:	b480      	push	{r7}
 80104de:	b083      	sub	sp, #12
 80104e0:	af00      	add	r7, sp, #0
 80104e2:	4603      	mov	r3, r0
 80104e4:	71fb      	strb	r3, [r7, #7]
  if ((int32_t)(IRQn) >= 0)
 80104e6:	f997 3007 	ldrsb.w	r3, [r7, #7]
 80104ea:	2b00      	cmp	r3, #0
 80104ec:	db12      	blt.n	8010514 <__NVIC_DisableIRQ+0x38>
    NVIC->ICER[(((uint32_t)IRQn) >> 5UL)] = (uint32_t)(1UL << (((uint32_t)IRQn) & 0x1FUL));
 80104ee:	79fb      	ldrb	r3, [r7, #7]
 80104f0:	f003 021f 	and.w	r2, r3, #31
 80104f4:	490a      	ldr	r1, [pc, #40]	@ (8010520 <__NVIC_DisableIRQ+0x44>)
 80104f6:	f997 3007 	ldrsb.w	r3, [r7, #7]
 80104fa:	095b      	lsrs	r3, r3, #5
 80104fc:	2001      	movs	r0, #1
 80104fe:	fa00 f202 	lsl.w	r2, r0, r2
 8010502:	3320      	adds	r3, #32
 8010504:	f841 2023 	str.w	r2, [r1, r3, lsl #2]
  __ASM volatile ("dsb 0xF":::"memory");
 8010508:	f3bf 8f4f 	dsb	sy
}
 801050c:	bf00      	nop
  __ASM volatile ("isb 0xF":::"memory");
 801050e:	f3bf 8f6f 	isb	sy
}
 8010512:	bf00      	nop
}
 8010514:	bf00      	nop
 8010516:	370c      	adds	r7, #12
 8010518:	46bd      	mov	sp, r7
 801051a:	f85d 7b04 	ldr.w	r7, [sp], #4
 801051e:	4770      	bx	lr
 8010520:	e000e100 	.word	0xe000e100

08010524 <__NVIC_ClearPendingIRQ>:
{
 8010524:	b480      	push	{r7}
 8010526:	b083      	sub	sp, #12
 8010528:	af00      	add	r7, sp, #0
 801052a:	4603      	mov	r3, r0
 801052c:	71fb      	strb	r3, [r7, #7]
  if ((int32_t)(IRQn) >= 0)
 801052e:	f997 3007 	ldrsb.w	r3, [r7, #7]
 8010532:	2b00      	cmp	r3, #0
 8010534:	db0c      	blt.n	8010550 <__NVIC_ClearPendingIRQ+0x2c>
    NVIC->ICPR[(((uint32_t)IRQn) >> 5UL)] = (uint32_t)(1UL << (((uint32_t)IRQn) & 0x1FUL));
 8010536:	79fb      	ldrb	r3, [r7, #7]
 8010538:	f003 021f 	and.w	r2, r3, #31
 801053c:	4907      	ldr	r1, [pc, #28]	@ (801055c <__NVIC_ClearPendingIRQ+0x38>)
 801053e:	f997 3007 	ldrsb.w	r3, [r7, #7]
 8010542:	095b      	lsrs	r3, r3, #5
 8010544:	2001      	movs	r0, #1
 8010546:	fa00 f202 	lsl.w	r2, r0, r2
 801054a:	3360      	adds	r3, #96	@ 0x60
 801054c:	f841 2023 	str.w	r2, [r1, r3, lsl #2]
}
 8010550:	bf00      	nop
 8010552:	370c      	adds	r7, #12
 8010554:	46bd      	mov	sp, r7
 8010556:	f85d 7b04 	ldr.w	r7, [sp], #4
 801055a:	4770      	bx	lr
 801055c:	e000e100 	.word	0xe000e100

08010560 <__NVIC_SetPriority>:
{
 8010560:	b480      	push	{r7}
 8010562:	b083      	sub	sp, #12
 8010564:	af00      	add	r7, sp, #0
 8010566:	4603      	mov	r3, r0
 8010568:	6039      	str	r1, [r7, #0]
 801056a:	71fb      	strb	r3, [r7, #7]
  if ((int32_t)(IRQn) >= 0)
 801056c:	f997 3007 	ldrsb.w	r3, [r7, #7]
 8010570:	2b00      	cmp	r3, #0
 8010572:	db0a      	blt.n	801058a <__NVIC_SetPriority+0x2a>
    NVIC->IP[((uint32_t)IRQn)]               = (uint8_t)((priority << (8U - __NVIC_PRIO_BITS)) & (uint32_t)0xFFUL);
 8010574:	683b      	ldr	r3, [r7, #0]
 8010576:	b2da      	uxtb	r2, r3
 8010578:	490c      	ldr	r1, [pc, #48]	@ (80105ac <__NVIC_SetPriority+0x4c>)
 801057a:	f997 3007 	ldrsb.w	r3, [r7, #7]
 801057e:	0112      	lsls	r2, r2, #4
 8010580:	b2d2      	uxtb	r2, r2
 8010582:	440b      	add	r3, r1
 8010584:	f883 2300 	strb.w	r2, [r3, #768]	@ 0x300
}
 8010588:	e00a      	b.n	80105a0 <__NVIC_SetPriority+0x40>
    SCB->SHP[(((uint32_t)IRQn) & 0xFUL)-4UL] = (uint8_t)((priority << (8U - __NVIC_PRIO_BITS)) & (uint32_t)0xFFUL);
 801058a:	683b      	ldr	r3, [r7, #0]
 801058c:	b2da      	uxtb	r2, r3
 801058e:	4908      	ldr	r1, [pc, #32]	@ (80105b0 <__NVIC_SetPriority+0x50>)
 8010590:	79fb      	ldrb	r3, [r7, #7]
 8010592:	f003 030f 	and.w	r3, r3, #15
 8010596:	3b04      	subs	r3, #4
 8010598:	0112      	lsls	r2, r2, #4
 801059a:	b2d2      	uxtb	r2, r2
 801059c:	440b      	add	r3, r1
 801059e:	761a      	strb	r2, [r3, #24]
}
 80105a0:	bf00      	nop
 80105a2:	370c      	adds	r7, #12
 80105a4:	46bd      	mov	sp, r7
 80105a6:	f85d 7b04 	ldr.w	r7, [sp], #4
 80105aa:	4770      	bx	lr
 80105ac:	e000e100 	.word	0xe000e100
 80105b0:	e000ed00 	.word	0xe000ed00

080105b4 <NVIC_EncodePriority>:
{
 80105b4:	b480      	push	{r7}
 80105b6:	b089      	sub	sp, #36	@ 0x24
 80105b8:	af00      	add	r7, sp, #0
 80105ba:	60f8      	str	r0, [r7, #12]
 80105bc:	60b9      	str	r1, [r7, #8]
 80105be:	607a      	str	r2, [r7, #4]
  uint32_t PriorityGroupTmp = (PriorityGroup & (uint32_t)0x07UL);   /* only values 0..7 are used          */
 80105c0:	68fb      	ldr	r3, [r7, #12]
 80105c2:	f003 0307 	and.w	r3, r3, #7
 80105c6:	61fb      	str	r3, [r7, #28]
  PreemptPriorityBits = ((7UL - PriorityGroupTmp) > (uint32_t)(__NVIC_PRIO_BITS)) ? (uint32_t)(__NVIC_PRIO_BITS) : (uint32_t)(7UL - PriorityGroupTmp);
 80105c8:	69fb      	ldr	r3, [r7, #28]
 80105ca:	f1c3 0307 	rsb	r3, r3, #7
 80105ce:	2b04      	cmp	r3, #4
 80105d0:	bf28      	it	cs
 80105d2:	2304      	movcs	r3, #4
 80105d4:	61bb      	str	r3, [r7, #24]
  SubPriorityBits     = ((PriorityGroupTmp + (uint32_t)(__NVIC_PRIO_BITS)) < (uint32_t)7UL) ? (uint32_t)0UL : (uint32_t)((PriorityGroupTmp - 7UL) + (uint32_t)(__NVIC_PRIO_BITS));
 80105d6:	69fb      	ldr	r3, [r7, #28]
 80105d8:	3304      	adds	r3, #4
 80105da:	2b06      	cmp	r3, #6
 80105dc:	d902      	bls.n	80105e4 <NVIC_EncodePriority+0x30>
 80105de:	69fb      	ldr	r3, [r7, #28]
 80105e0:	3b03      	subs	r3, #3
 80105e2:	e000      	b.n	80105e6 <NVIC_EncodePriority+0x32>
 80105e4:	2300      	movs	r3, #0
 80105e6:	617b      	str	r3, [r7, #20]
           ((PreemptPriority & (uint32_t)((1UL << (PreemptPriorityBits)) - 1UL)) << SubPriorityBits) |
 80105e8:	f04f 32ff 	mov.w	r2, #4294967295
 80105ec:	69bb      	ldr	r3, [r7, #24]
 80105ee:	fa02 f303 	lsl.w	r3, r2, r3
 80105f2:	43da      	mvns	r2, r3
 80105f4:	68bb      	ldr	r3, [r7, #8]
 80105f6:	401a      	ands	r2, r3
 80105f8:	697b      	ldr	r3, [r7, #20]
 80105fa:	409a      	lsls	r2, r3
           ((SubPriority     & (uint32_t)((1UL << (SubPriorityBits    )) - 1UL)))
 80105fc:	f04f 31ff 	mov.w	r1, #4294967295
 8010600:	697b      	ldr	r3, [r7, #20]
 8010602:	fa01 f303 	lsl.w	r3, r1, r3
 8010606:	43d9      	mvns	r1, r3
 8010608:	687b      	ldr	r3, [r7, #4]
 801060a:	400b      	ands	r3, r1
           ((PreemptPriority & (uint32_t)((1UL << (PreemptPriorityBits)) - 1UL)) << SubPriorityBits) |
 801060c:	4313      	orrs	r3, r2
}
 801060e:	4618      	mov	r0, r3
 8010610:	3724      	adds	r7, #36	@ 0x24
 8010612:	46bd      	mov	sp, r7
 8010614:	f85d 7b04 	ldr.w	r7, [sp], #4
 8010618:	4770      	bx	lr
	...

0801061c <SysTick_Config>:
  \note    When the variable <b>__Vendor_SysTickConfig</b> is set to 1, then the
           function <b>SysTick_Config</b> is not included. In this case, the file <b><i>device</i>.h</b>
           must contain a vendor-specific implementation of this function.
 */
__STATIC_INLINE uint32_t SysTick_Config(uint32_t ticks)
{
 801061c:	b580      	push	{r7, lr}
 801061e:	b082      	sub	sp, #8
 8010620:	af00      	add	r7, sp, #0
 8010622:	6078      	str	r0, [r7, #4]
  if ((ticks - 1UL) > SysTick_LOAD_RELOAD_Msk)
 8010624:	687b      	ldr	r3, [r7, #4]
 8010626:	3b01      	subs	r3, #1
 8010628:	f1b3 7f80 	cmp.w	r3, #16777216	@ 0x1000000
 801062c:	d301      	bcc.n	8010632 <SysTick_Config+0x16>
  {
    return (1UL);                                                   /* Reload value impossible */
 801062e:	2301      	movs	r3, #1
 8010630:	e00f      	b.n	8010652 <SysTick_Config+0x36>
  }

  SysTick->LOAD  = (uint32_t)(ticks - 1UL);                         /* set reload register */
 8010632:	4a0a      	ldr	r2, [pc, #40]	@ (801065c <SysTick_Config+0x40>)
 8010634:	687b      	ldr	r3, [r7, #4]
 8010636:	3b01      	subs	r3, #1
 8010638:	6053      	str	r3, [r2, #4]
  NVIC_SetPriority (SysTick_IRQn, (1UL << __NVIC_PRIO_BITS) - 1UL); /* set Priority for Systick Interrupt */
 801063a:	210f      	movs	r1, #15
 801063c:	f04f 30ff 	mov.w	r0, #4294967295
 8010640:	f7ff ff8e 	bl	8010560 <__NVIC_SetPriority>
  SysTick->VAL   = 0UL;                                             /* Load the SysTick Counter Value */
 8010644:	4b05      	ldr	r3, [pc, #20]	@ (801065c <SysTick_Config+0x40>)
 8010646:	2200      	movs	r2, #0
 8010648:	609a      	str	r2, [r3, #8]
  SysTick->CTRL  = SysTick_CTRL_CLKSOURCE_Msk |
 801064a:	4b04      	ldr	r3, [pc, #16]	@ (801065c <SysTick_Config+0x40>)
 801064c:	2207      	movs	r2, #7
 801064e:	601a      	str	r2, [r3, #0]
                   SysTick_CTRL_TICKINT_Msk   |
                   SysTick_CTRL_ENABLE_Msk;                         /* Enable SysTick IRQ and SysTick Timer */
  return (0UL);                                                     /* Function successful */
 8010650:	2300      	movs	r3, #0
}
 8010652:	4618      	mov	r0, r3
 8010654:	3708      	adds	r7, #8
 8010656:	46bd      	mov	sp, r7
 8010658:	bd80      	pop	{r7, pc}
 801065a:	bf00      	nop
 801065c:	e000e010 	.word	0xe000e010

08010660 <HAL_NVIC_SetPriorityGrouping>:
  * @note   When the NVIC_PriorityGroup_0 is selected, IRQ preemption is no more possible. 
  *         The pending IRQ priority will be managed only by the subpriority. 
  * @retval None
  */
void HAL_NVIC_SetPriorityGrouping(uint32_t PriorityGroup)
{
 8010660:	b580      	push	{r7, lr}
 8010662:	b082      	sub	sp, #8
 8010664:	af00      	add	r7, sp, #0
 8010666:	6078      	str	r0, [r7, #4]
  /* Check the parameters */
  assert_param(IS_NVIC_PRIORITY_GROUP(PriorityGroup));
  
  /* Set the PRIGROUP[10:8] bits according to the PriorityGroup parameter value */
  NVIC_SetPriorityGrouping(PriorityGroup);
 8010668:	6878      	ldr	r0, [r7, #4]
 801066a:	f7ff fee7 	bl	801043c <__NVIC_SetPriorityGrouping>
}
 801066e:	bf00      	nop
 8010670:	3708      	adds	r7, #8
 8010672:	46bd      	mov	sp, r7
 8010674:	bd80      	pop	{r7, pc}

08010676 <HAL_NVIC_SetPriority>:
  *         This parameter can be a value between 0 and 15
  *         A lower priority value indicates a higher priority.          
  * @retval None
  */
void HAL_NVIC_SetPriority(IRQn_Type IRQn, uint32_t PreemptPriority, uint32_t SubPriority)
{ 
 8010676:	b580      	push	{r7, lr}
 8010678:	b086      	sub	sp, #24
 801067a:	af00      	add	r7, sp, #0
 801067c:	4603      	mov	r3, r0
 801067e:	60b9      	str	r1, [r7, #8]
 8010680:	607a      	str	r2, [r7, #4]
 8010682:	73fb      	strb	r3, [r7, #15]
  uint32_t prioritygroup = 0x00U;
 8010684:	2300      	movs	r3, #0
 8010686:	617b      	str	r3, [r7, #20]
  
  /* Check the parameters */
  assert_param(IS_NVIC_SUB_PRIORITY(SubPriority));
  assert_param(IS_NVIC_PREEMPTION_PRIORITY(PreemptPriority));
  
  prioritygroup = NVIC_GetPriorityGrouping();
 8010688:	f7ff fefc 	bl	8010484 <__NVIC_GetPriorityGrouping>
 801068c:	6178      	str	r0, [r7, #20]
  
  NVIC_SetPriority(IRQn, NVIC_EncodePriority(prioritygroup, PreemptPriority, SubPriority));
 801068e:	687a      	ldr	r2, [r7, #4]
 8010690:	68b9      	ldr	r1, [r7, #8]
 8010692:	6978      	ldr	r0, [r7, #20]
 8010694:	f7ff ff8e 	bl	80105b4 <NVIC_EncodePriority>
 8010698:	4602      	mov	r2, r0
 801069a:	f997 300f 	ldrsb.w	r3, [r7, #15]
 801069e:	4611      	mov	r1, r2
 80106a0:	4618      	mov	r0, r3
 80106a2:	f7ff ff5d 	bl	8010560 <__NVIC_SetPriority>
}
 80106a6:	bf00      	nop
 80106a8:	3718      	adds	r7, #24
 80106aa:	46bd      	mov	sp, r7
 80106ac:	bd80      	pop	{r7, pc}

080106ae <HAL_NVIC_EnableIRQ>:
  *         This parameter can be an enumerator of IRQn_Type enumeration
  *         (For the complete STM32 Devices IRQ Channels list, please refer to the appropriate CMSIS device file (stm32f4xxxx.h))
  * @retval None
  */
void HAL_NVIC_EnableIRQ(IRQn_Type IRQn)
{
 80106ae:	b580      	push	{r7, lr}
 80106b0:	b082      	sub	sp, #8
 80106b2:	af00      	add	r7, sp, #0
 80106b4:	4603      	mov	r3, r0
 80106b6:	71fb      	strb	r3, [r7, #7]
  /* Check the parameters */
  assert_param(IS_NVIC_DEVICE_IRQ(IRQn));
  
  /* Enable interrupt */
  NVIC_EnableIRQ(IRQn);
 80106b8:	f997 3007 	ldrsb.w	r3, [r7, #7]
 80106bc:	4618      	mov	r0, r3
 80106be:	f7ff feef 	bl	80104a0 <__NVIC_EnableIRQ>
}
 80106c2:	bf00      	nop
 80106c4:	3708      	adds	r7, #8
 80106c6:	46bd      	mov	sp, r7
 80106c8:	bd80      	pop	{r7, pc}

080106ca <HAL_NVIC_DisableIRQ>:
  *         This parameter can be an enumerator of IRQn_Type enumeration
  *         (For the complete STM32 Devices IRQ Channels list, please refer to the appropriate CMSIS device file (stm32f4xxxx.h))
  * @retval None
  */
void HAL_NVIC_DisableIRQ(IRQn_Type IRQn)
{
 80106ca:	b580      	push	{r7, lr}
 80106cc:	b082      	sub	sp, #8
 80106ce:	af00      	add	r7, sp, #0
 80106d0:	4603      	mov	r3, r0
 80106d2:	71fb      	strb	r3, [r7, #7]
  /* Check the parameters */
  assert_param(IS_NVIC_DEVICE_IRQ(IRQn));
  
  /* Disable interrupt */
  NVIC_DisableIRQ(IRQn);
 80106d4:	f997 3007 	ldrsb.w	r3, [r7, #7]
 80106d8:	4618      	mov	r0, r3
 80106da:	f7ff feff 	bl	80104dc <__NVIC_DisableIRQ>
}
 80106de:	bf00      	nop
 80106e0:	3708      	adds	r7, #8
 80106e2:	46bd      	mov	sp, r7
 80106e4:	bd80      	pop	{r7, pc}

080106e6 <HAL_SYSTICK_Config>:
  * @param  TicksNumb Specifies the ticks Number of ticks between two interrupts.
  * @retval status:  - 0  Function succeeded.
  *                  - 1  Function failed.
  */
uint32_t HAL_SYSTICK_Config(uint32_t TicksNumb)
{
 80106e6:	b580      	push	{r7, lr}
 80106e8:	b082      	sub	sp, #8
 80106ea:	af00      	add	r7, sp, #0
 80106ec:	6078      	str	r0, [r7, #4]
   return SysTick_Config(TicksNumb);
 80106ee:	6878      	ldr	r0, [r7, #4]
 80106f0:	f7ff ff94 	bl	801061c <SysTick_Config>
 80106f4:	4603      	mov	r3, r0
}
 80106f6:	4618      	mov	r0, r3
 80106f8:	3708      	adds	r7, #8
 80106fa:	46bd      	mov	sp, r7
 80106fc:	bd80      	pop	{r7, pc}

080106fe <HAL_NVIC_ClearPendingIRQ>:
  *         This parameter can be an enumerator of IRQn_Type enumeration
  *         (For the complete STM32 Devices IRQ Channels list, please refer to the appropriate CMSIS device file (stm32f4xxxx.h))
  * @retval None
  */
void HAL_NVIC_ClearPendingIRQ(IRQn_Type IRQn)
{
 80106fe:	b580      	push	{r7, lr}
 8010700:	b082      	sub	sp, #8
 8010702:	af00      	add	r7, sp, #0
 8010704:	4603      	mov	r3, r0
 8010706:	71fb      	strb	r3, [r7, #7]
  /* Check the parameters */
  assert_param(IS_NVIC_DEVICE_IRQ(IRQn));
  
  /* Clear pending interrupt */
  NVIC_ClearPendingIRQ(IRQn);
 8010708:	f997 3007 	ldrsb.w	r3, [r7, #7]
 801070c:	4618      	mov	r0, r3
 801070e:	f7ff ff09 	bl	8010524 <__NVIC_ClearPendingIRQ>
}
 8010712:	bf00      	nop
 8010714:	3708      	adds	r7, #8
 8010716:	46bd      	mov	sp, r7
 8010718:	bd80      	pop	{r7, pc}

0801071a <HAL_CRC_Init>:
  *         parameters in the CRC_InitTypeDef and create the associated handle.
  * @param  hcrc CRC handle
  * @retval HAL status
  */
HAL_StatusTypeDef HAL_CRC_Init(CRC_HandleTypeDef *hcrc)
{
 801071a:	b580      	push	{r7, lr}
 801071c:	b082      	sub	sp, #8
 801071e:	af00      	add	r7, sp, #0
 8010720:	6078      	str	r0, [r7, #4]
  /* Check the CRC handle allocation */
  if (hcrc == NULL)
 8010722:	687b      	ldr	r3, [r7, #4]
 8010724:	2b00      	cmp	r3, #0
 8010726:	d101      	bne.n	801072c <HAL_CRC_Init+0x12>
  {
    return HAL_ERROR;
 8010728:	2301      	movs	r3, #1
 801072a:	e00e      	b.n	801074a <HAL_CRC_Init+0x30>
  }

  /* Check the parameters */
  assert_param(IS_CRC_ALL_INSTANCE(hcrc->Instance));

  if (hcrc->State == HAL_CRC_STATE_RESET)
 801072c:	687b      	ldr	r3, [r7, #4]
 801072e:	795b      	ldrb	r3, [r3, #5]
 8010730:	b2db      	uxtb	r3, r3
 8010732:	2b00      	cmp	r3, #0
 8010734:	d105      	bne.n	8010742 <HAL_CRC_Init+0x28>
  {
    /* Allocate lock resource and initialize it */
    hcrc->Lock = HAL_UNLOCKED;
 8010736:	687b      	ldr	r3, [r7, #4]
 8010738:	2200      	movs	r2, #0
 801073a:	711a      	strb	r2, [r3, #4]
    /* Init the low level hardware */
    HAL_CRC_MspInit(hcrc);
 801073c:	6878      	ldr	r0, [r7, #4]
 801073e:	f7fe ff81 	bl	800f644 <HAL_CRC_MspInit>
  }

  /* Change CRC peripheral state */
  hcrc->State = HAL_CRC_STATE_READY;
 8010742:	687b      	ldr	r3, [r7, #4]
 8010744:	2201      	movs	r2, #1
 8010746:	715a      	strb	r2, [r3, #5]

  /* Return function status */
  return HAL_OK;
 8010748:	2300      	movs	r3, #0
}
 801074a:	4618      	mov	r0, r3
 801074c:	3708      	adds	r7, #8
 801074e:	46bd      	mov	sp, r7
 8010750:	bd80      	pop	{r7, pc}
	...

08010754 <HAL_DMA_Init>:
  * @param  hdma Pointer to a DMA_HandleTypeDef structure that contains
  *               the configuration information for the specified DMA Stream.  
  * @retval HAL status
  */
HAL_StatusTypeDef HAL_DMA_Init(DMA_HandleTypeDef *hdma)
{
 8010754:	b580      	push	{r7, lr}
 8010756:	b086      	sub	sp, #24
 8010758:	af00      	add	r7, sp, #0
 801075a:	6078      	str	r0, [r7, #4]
  uint32_t tmp = 0U;
 801075c:	2300      	movs	r3, #0
 801075e:	617b      	str	r3, [r7, #20]
  uint32_t tickstart = HAL_GetTick();
 8010760:	f7ff fa20 	bl	800fba4 <HAL_GetTick>
 8010764:	6138      	str	r0, [r7, #16]
  DMA_Base_Registers *regs;

  /* Check the DMA peripheral state */
  if(hdma == NULL)
 8010766:	687b      	ldr	r3, [r7, #4]
 8010768:	2b00      	cmp	r3, #0
 801076a:	d101      	bne.n	8010770 <HAL_DMA_Init+0x1c>
  {
    return HAL_ERROR;
 801076c:	2301      	movs	r3, #1
 801076e:	e099      	b.n	80108a4 <HAL_DMA_Init+0x150>
    assert_param(IS_DMA_MEMORY_BURST(hdma->Init.MemBurst));
    assert_param(IS_DMA_PERIPHERAL_BURST(hdma->Init.PeriphBurst));
  }

  /* Change DMA peripheral state */
  hdma->State = HAL_DMA_STATE_BUSY;
 8010770:	687b      	ldr	r3, [r7, #4]
 8010772:	2202      	movs	r2, #2
 8010774:	f883 2035 	strb.w	r2, [r3, #53]	@ 0x35

  /* Allocate lock resource */
  __HAL_UNLOCK(hdma);
 8010778:	687b      	ldr	r3, [r7, #4]
 801077a:	2200      	movs	r2, #0
 801077c:	f883 2034 	strb.w	r2, [r3, #52]	@ 0x34
  
  /* Disable the peripheral */
  __HAL_DMA_DISABLE(hdma);
 8010780:	687b      	ldr	r3, [r7, #4]
 8010782:	681b      	ldr	r3, [r3, #0]
 8010784:	681a      	ldr	r2, [r3, #0]
 8010786:	687b      	ldr	r3, [r7, #4]
 8010788:	681b      	ldr	r3, [r3, #0]
 801078a:	f022 0201 	bic.w	r2, r2, #1
 801078e:	601a      	str	r2, [r3, #0]
  
  /* Check if the DMA Stream is effectively disabled */
  while((hdma->Instance->CR & DMA_SxCR_EN) != RESET)
 8010790:	e00f      	b.n	80107b2 <HAL_DMA_Init+0x5e>
  {
    /* Check for the Timeout */
    if((HAL_GetTick() - tickstart ) > HAL_TIMEOUT_DMA_ABORT)
 8010792:	f7ff fa07 	bl	800fba4 <HAL_GetTick>
 8010796:	4602      	mov	r2, r0
 8010798:	693b      	ldr	r3, [r7, #16]
 801079a:	1ad3      	subs	r3, r2, r3
 801079c:	2b05      	cmp	r3, #5
 801079e:	d908      	bls.n	80107b2 <HAL_DMA_Init+0x5e>
    {
      /* Update error code */
      hdma->ErrorCode = HAL_DMA_ERROR_TIMEOUT;
 80107a0:	687b      	ldr	r3, [r7, #4]
 80107a2:	2220      	movs	r2, #32
 80107a4:	655a      	str	r2, [r3, #84]	@ 0x54
      
      /* Change the DMA state */
      hdma->State = HAL_DMA_STATE_TIMEOUT;
 80107a6:	687b      	ldr	r3, [r7, #4]
 80107a8:	2203      	movs	r2, #3
 80107aa:	f883 2035 	strb.w	r2, [r3, #53]	@ 0x35
      
      return HAL_TIMEOUT;
 80107ae:	2303      	movs	r3, #3
 80107b0:	e078      	b.n	80108a4 <HAL_DMA_Init+0x150>
  while((hdma->Instance->CR & DMA_SxCR_EN) != RESET)
 80107b2:	687b      	ldr	r3, [r7, #4]
 80107b4:	681b      	ldr	r3, [r3, #0]
 80107b6:	681b      	ldr	r3, [r3, #0]
 80107b8:	f003 0301 	and.w	r3, r3, #1
 80107bc:	2b00      	cmp	r3, #0
 80107be:	d1e8      	bne.n	8010792 <HAL_DMA_Init+0x3e>
    }
  }
  
  /* Get the CR register value */
  tmp = hdma->Instance->CR;
 80107c0:	687b      	ldr	r3, [r7, #4]
 80107c2:	681b      	ldr	r3, [r3, #0]
 80107c4:	681b      	ldr	r3, [r3, #0]
 80107c6:	617b      	str	r3, [r7, #20]

  /* Clear CHSEL, MBURST, PBURST, PL, MSIZE, PSIZE, MINC, PINC, CIRC, DIR, CT and DBM bits */
  tmp &= ((uint32_t)~(DMA_SxCR_CHSEL | DMA_SxCR_MBURST | DMA_SxCR_PBURST | \
 80107c8:	697a      	ldr	r2, [r7, #20]
 80107ca:	4b38      	ldr	r3, [pc, #224]	@ (80108ac <HAL_DMA_Init+0x158>)
 80107cc:	4013      	ands	r3, r2
 80107ce:	617b      	str	r3, [r7, #20]
                      DMA_SxCR_PL    | DMA_SxCR_MSIZE  | DMA_SxCR_PSIZE  | \
                      DMA_SxCR_MINC  | DMA_SxCR_PINC   | DMA_SxCR_CIRC   | \
                      DMA_SxCR_DIR   | DMA_SxCR_CT     | DMA_SxCR_DBM));

  /* Prepare the DMA Stream configuration */
  tmp |=  hdma->Init.Channel             | hdma->Init.Direction        |
 80107d0:	687b      	ldr	r3, [r7, #4]
 80107d2:	685a      	ldr	r2, [r3, #4]
 80107d4:	687b      	ldr	r3, [r7, #4]
 80107d6:	689b      	ldr	r3, [r3, #8]
 80107d8:	431a      	orrs	r2, r3
          hdma->Init.PeriphInc           | hdma->Init.MemInc           |
 80107da:	687b      	ldr	r3, [r7, #4]
 80107dc:	68db      	ldr	r3, [r3, #12]
  tmp |=  hdma->Init.Channel             | hdma->Init.Direction        |
 80107de:	431a      	orrs	r2, r3
          hdma->Init.PeriphInc           | hdma->Init.MemInc           |
 80107e0:	687b      	ldr	r3, [r7, #4]
 80107e2:	691b      	ldr	r3, [r3, #16]
 80107e4:	431a      	orrs	r2, r3
          hdma->Init.PeriphDataAlignment | hdma->Init.MemDataAlignment |
 80107e6:	687b      	ldr	r3, [r7, #4]
 80107e8:	695b      	ldr	r3, [r3, #20]
          hdma->Init.PeriphInc           | hdma->Init.MemInc           |
 80107ea:	431a      	orrs	r2, r3
          hdma->Init.PeriphDataAlignment | hdma->Init.MemDataAlignment |
 80107ec:	687b      	ldr	r3, [r7, #4]
 80107ee:	699b      	ldr	r3, [r3, #24]
 80107f0:	431a      	orrs	r2, r3
          hdma->Init.Mode                | hdma->Init.Priority;
 80107f2:	687b      	ldr	r3, [r7, #4]
 80107f4:	69db      	ldr	r3, [r3, #28]
          hdma->Init.PeriphDataAlignment | hdma->Init.MemDataAlignment |
 80107f6:	431a      	orrs	r2, r3
          hdma->Init.Mode                | hdma->Init.Priority;
 80107f8:	687b      	ldr	r3, [r7, #4]
 80107fa:	6a1b      	ldr	r3, [r3, #32]
 80107fc:	4313      	orrs	r3, r2
  tmp |=  hdma->Init.Channel             | hdma->Init.Direction        |
 80107fe:	697a      	ldr	r2, [r7, #20]
 8010800:	4313      	orrs	r3, r2
 8010802:	617b      	str	r3, [r7, #20]

  /* the Memory burst and peripheral burst are not used when the FIFO is disabled */
  if(hdma->Init.FIFOMode == DMA_FIFOMODE_ENABLE)
 8010804:	687b      	ldr	r3, [r7, #4]
 8010806:	6a5b      	ldr	r3, [r3, #36]	@ 0x24
 8010808:	2b04      	cmp	r3, #4
 801080a:	d107      	bne.n	801081c <HAL_DMA_Init+0xc8>
  {
    /* Get memory burst and peripheral burst */
    tmp |=  hdma->Init.MemBurst | hdma->Init.PeriphBurst;
 801080c:	687b      	ldr	r3, [r7, #4]
 801080e:	6ada      	ldr	r2, [r3, #44]	@ 0x2c
 8010810:	687b      	ldr	r3, [r7, #4]
 8010812:	6b1b      	ldr	r3, [r3, #48]	@ 0x30
 8010814:	4313      	orrs	r3, r2
 8010816:	697a      	ldr	r2, [r7, #20]
 8010818:	4313      	orrs	r3, r2
 801081a:	617b      	str	r3, [r7, #20]
  }
  
  /* Write to DMA Stream CR register */
  hdma->Instance->CR = tmp;  
 801081c:	687b      	ldr	r3, [r7, #4]
 801081e:	681b      	ldr	r3, [r3, #0]
 8010820:	697a      	ldr	r2, [r7, #20]
 8010822:	601a      	str	r2, [r3, #0]

  /* Get the FCR register value */
  tmp = hdma->Instance->FCR;
 8010824:	687b      	ldr	r3, [r7, #4]
 8010826:	681b      	ldr	r3, [r3, #0]
 8010828:	695b      	ldr	r3, [r3, #20]
 801082a:	617b      	str	r3, [r7, #20]

  /* Clear Direct mode and FIFO threshold bits */
  tmp &= (uint32_t)~(DMA_SxFCR_DMDIS | DMA_SxFCR_FTH);
 801082c:	697b      	ldr	r3, [r7, #20]
 801082e:	f023 0307 	bic.w	r3, r3, #7
 8010832:	617b      	str	r3, [r7, #20]

  /* Prepare the DMA Stream FIFO configuration */
  tmp |= hdma->Init.FIFOMode;
 8010834:	687b      	ldr	r3, [r7, #4]
 8010836:	6a5b      	ldr	r3, [r3, #36]	@ 0x24
 8010838:	697a      	ldr	r2, [r7, #20]
 801083a:	4313      	orrs	r3, r2
 801083c:	617b      	str	r3, [r7, #20]

  /* The FIFO threshold is not used when the FIFO mode is disabled */
  if(hdma->Init.FIFOMode == DMA_FIFOMODE_ENABLE)
 801083e:	687b      	ldr	r3, [r7, #4]
 8010840:	6a5b      	ldr	r3, [r3, #36]	@ 0x24
 8010842:	2b04      	cmp	r3, #4
 8010844:	d117      	bne.n	8010876 <HAL_DMA_Init+0x122>
  {
    /* Get the FIFO threshold */
    tmp |= hdma->Init.FIFOThreshold;
 8010846:	687b      	ldr	r3, [r7, #4]
 8010848:	6a9b      	ldr	r3, [r3, #40]	@ 0x28
 801084a:	697a      	ldr	r2, [r7, #20]
 801084c:	4313      	orrs	r3, r2
 801084e:	617b      	str	r3, [r7, #20]
    
    /* Check compatibility between FIFO threshold level and size of the memory burst */
    /* for INCR4, INCR8, INCR16 bursts */
    if (hdma->Init.MemBurst != DMA_MBURST_SINGLE)
 8010850:	687b      	ldr	r3, [r7, #4]
 8010852:	6adb      	ldr	r3, [r3, #44]	@ 0x2c
 8010854:	2b00      	cmp	r3, #0
 8010856:	d00e      	beq.n	8010876 <HAL_DMA_Init+0x122>
    {
      if (DMA_CheckFifoParam(hdma) != HAL_OK)
 8010858:	6878      	ldr	r0, [r7, #4]
 801085a:	f000 fb01 	bl	8010e60 <DMA_CheckFifoParam>
 801085e:	4603      	mov	r3, r0
 8010860:	2b00      	cmp	r3, #0
 8010862:	d008      	beq.n	8010876 <HAL_DMA_Init+0x122>
      {
        /* Update error code */
        hdma->ErrorCode = HAL_DMA_ERROR_PARAM;
 8010864:	687b      	ldr	r3, [r7, #4]
 8010866:	2240      	movs	r2, #64	@ 0x40
 8010868:	655a      	str	r2, [r3, #84]	@ 0x54
        
        /* Change the DMA state */
        hdma->State = HAL_DMA_STATE_READY;
 801086a:	687b      	ldr	r3, [r7, #4]
 801086c:	2201      	movs	r2, #1
 801086e:	f883 2035 	strb.w	r2, [r3, #53]	@ 0x35
        
        return HAL_ERROR; 
 8010872:	2301      	movs	r3, #1
 8010874:	e016      	b.n	80108a4 <HAL_DMA_Init+0x150>
      }
    }
  }
  
  /* Write to DMA Stream FCR */
  hdma->Instance->FCR = tmp;
 8010876:	687b      	ldr	r3, [r7, #4]
 8010878:	681b      	ldr	r3, [r3, #0]
 801087a:	697a      	ldr	r2, [r7, #20]
 801087c:	615a      	str	r2, [r3, #20]

  /* Initialize StreamBaseAddress and StreamIndex parameters to be used to calculate
     DMA steam Base Address needed by HAL_DMA_IRQHandler() and HAL_DMA_PollForTransfer() */
  regs = (DMA_Base_Registers *)DMA_CalcBaseAndBitshift(hdma);
 801087e:	6878      	ldr	r0, [r7, #4]
 8010880:	f000 fab8 	bl	8010df4 <DMA_CalcBaseAndBitshift>
 8010884:	4603      	mov	r3, r0
 8010886:	60fb      	str	r3, [r7, #12]
  
  /* Clear all interrupt flags */
  regs->IFCR = 0x3FU << hdma->StreamIndex;
 8010888:	687b      	ldr	r3, [r7, #4]
 801088a:	6ddb      	ldr	r3, [r3, #92]	@ 0x5c
 801088c:	223f      	movs	r2, #63	@ 0x3f
 801088e:	409a      	lsls	r2, r3
 8010890:	68fb      	ldr	r3, [r7, #12]
 8010892:	609a      	str	r2, [r3, #8]

  /* Initialize the error code */
  hdma->ErrorCode = HAL_DMA_ERROR_NONE;
 8010894:	687b      	ldr	r3, [r7, #4]
 8010896:	2200      	movs	r2, #0
 8010898:	655a      	str	r2, [r3, #84]	@ 0x54
                                                                                     
  /* Initialize the DMA state */
  hdma->State = HAL_DMA_STATE_READY;
 801089a:	687b      	ldr	r3, [r7, #4]
 801089c:	2201      	movs	r2, #1
 801089e:	f883 2035 	strb.w	r2, [r3, #53]	@ 0x35

  return HAL_OK;
 80108a2:	2300      	movs	r3, #0
}
 80108a4:	4618      	mov	r0, r3
 80108a6:	3718      	adds	r7, #24
 80108a8:	46bd      	mov	sp, r7
 80108aa:	bd80      	pop	{r7, pc}
 80108ac:	f010803f 	.word	0xf010803f

080108b0 <HAL_DMA_Start_IT>:
  * @param  DstAddress The destination memory Buffer address
  * @param  DataLength The length of data to be transferred from source to destination
  * @retval HAL status
  */
HAL_StatusTypeDef HAL_DMA_Start_IT(DMA_HandleTypeDef *hdma, uint32_t SrcAddress, uint32_t DstAddress, uint32_t DataLength)
{
 80108b0:	b580      	push	{r7, lr}
 80108b2:	b086      	sub	sp, #24
 80108b4:	af00      	add	r7, sp, #0
 80108b6:	60f8      	str	r0, [r7, #12]
 80108b8:	60b9      	str	r1, [r7, #8]
 80108ba:	607a      	str	r2, [r7, #4]
 80108bc:	603b      	str	r3, [r7, #0]
  HAL_StatusTypeDef status = HAL_OK;
 80108be:	2300      	movs	r3, #0
 80108c0:	75fb      	strb	r3, [r7, #23]

  /* calculate DMA base and stream number */
  DMA_Base_Registers *regs = (DMA_Base_Registers *)hdma->StreamBaseAddress;
 80108c2:	68fb      	ldr	r3, [r7, #12]
 80108c4:	6d9b      	ldr	r3, [r3, #88]	@ 0x58
 80108c6:	613b      	str	r3, [r7, #16]
  
  /* Check the parameters */
  assert_param(IS_DMA_BUFFER_SIZE(DataLength));
 
  /* Process locked */
  __HAL_LOCK(hdma);
 80108c8:	68fb      	ldr	r3, [r7, #12]
 80108ca:	f893 3034 	ldrb.w	r3, [r3, #52]	@ 0x34
 80108ce:	2b01      	cmp	r3, #1
 80108d0:	d101      	bne.n	80108d6 <HAL_DMA_Start_IT+0x26>
 80108d2:	2302      	movs	r3, #2
 80108d4:	e040      	b.n	8010958 <HAL_DMA_Start_IT+0xa8>
 80108d6:	68fb      	ldr	r3, [r7, #12]
 80108d8:	2201      	movs	r2, #1
 80108da:	f883 2034 	strb.w	r2, [r3, #52]	@ 0x34
  
  if(HAL_DMA_STATE_READY == hdma->State)
 80108de:	68fb      	ldr	r3, [r7, #12]
 80108e0:	f893 3035 	ldrb.w	r3, [r3, #53]	@ 0x35
 80108e4:	b2db      	uxtb	r3, r3
 80108e6:	2b01      	cmp	r3, #1
 80108e8:	d12f      	bne.n	801094a <HAL_DMA_Start_IT+0x9a>
  {
    /* Change DMA peripheral state */
    hdma->State = HAL_DMA_STATE_BUSY;
 80108ea:	68fb      	ldr	r3, [r7, #12]
 80108ec:	2202      	movs	r2, #2
 80108ee:	f883 2035 	strb.w	r2, [r3, #53]	@ 0x35
    
    /* Initialize the error code */
    hdma->ErrorCode = HAL_DMA_ERROR_NONE;
 80108f2:	68fb      	ldr	r3, [r7, #12]
 80108f4:	2200      	movs	r2, #0
 80108f6:	655a      	str	r2, [r3, #84]	@ 0x54
    
    /* Configure the source, destination address and the data length */
    DMA_SetConfig(hdma, SrcAddress, DstAddress, DataLength);
 80108f8:	683b      	ldr	r3, [r7, #0]
 80108fa:	687a      	ldr	r2, [r7, #4]
 80108fc:	68b9      	ldr	r1, [r7, #8]
 80108fe:	68f8      	ldr	r0, [r7, #12]
 8010900:	f000 fa4a 	bl	8010d98 <DMA_SetConfig>
    
    /* Clear all interrupt flags at correct offset within the register */
    regs->IFCR = 0x3FU << hdma->StreamIndex;
 8010904:	68fb      	ldr	r3, [r7, #12]
 8010906:	6ddb      	ldr	r3, [r3, #92]	@ 0x5c
 8010908:	223f      	movs	r2, #63	@ 0x3f
 801090a:	409a      	lsls	r2, r3
 801090c:	693b      	ldr	r3, [r7, #16]
 801090e:	609a      	str	r2, [r3, #8]
    
    /* Enable Common interrupts*/
    hdma->Instance->CR  |= DMA_IT_TC | DMA_IT_TE | DMA_IT_DME;
 8010910:	68fb      	ldr	r3, [r7, #12]
 8010912:	681b      	ldr	r3, [r3, #0]
 8010914:	681a      	ldr	r2, [r3, #0]
 8010916:	68fb      	ldr	r3, [r7, #12]
 8010918:	681b      	ldr	r3, [r3, #0]
 801091a:	f042 0216 	orr.w	r2, r2, #22
 801091e:	601a      	str	r2, [r3, #0]
    
    if(hdma->XferHalfCpltCallback != NULL)
 8010920:	68fb      	ldr	r3, [r7, #12]
 8010922:	6c1b      	ldr	r3, [r3, #64]	@ 0x40
 8010924:	2b00      	cmp	r3, #0
 8010926:	d007      	beq.n	8010938 <HAL_DMA_Start_IT+0x88>
    {
      hdma->Instance->CR  |= DMA_IT_HT;
 8010928:	68fb      	ldr	r3, [r7, #12]
 801092a:	681b      	ldr	r3, [r3, #0]
 801092c:	681a      	ldr	r2, [r3, #0]
 801092e:	68fb      	ldr	r3, [r7, #12]
 8010930:	681b      	ldr	r3, [r3, #0]
 8010932:	f042 0208 	orr.w	r2, r2, #8
 8010936:	601a      	str	r2, [r3, #0]
    }
    
    /* Enable the Peripheral */
    __HAL_DMA_ENABLE(hdma);
 8010938:	68fb      	ldr	r3, [r7, #12]
 801093a:	681b      	ldr	r3, [r3, #0]
 801093c:	681a      	ldr	r2, [r3, #0]
 801093e:	68fb      	ldr	r3, [r7, #12]
 8010940:	681b      	ldr	r3, [r3, #0]
 8010942:	f042 0201 	orr.w	r2, r2, #1
 8010946:	601a      	str	r2, [r3, #0]
 8010948:	e005      	b.n	8010956 <HAL_DMA_Start_IT+0xa6>
  }
  else
  {
    /* Process unlocked */
    __HAL_UNLOCK(hdma);	  
 801094a:	68fb      	ldr	r3, [r7, #12]
 801094c:	2200      	movs	r2, #0
 801094e:	f883 2034 	strb.w	r2, [r3, #52]	@ 0x34
    
    /* Return error status */
    status = HAL_BUSY;
 8010952:	2302      	movs	r3, #2
 8010954:	75fb      	strb	r3, [r7, #23]
  }
  
  return status;
 8010956:	7dfb      	ldrb	r3, [r7, #23]
}
 8010958:	4618      	mov	r0, r3
 801095a:	3718      	adds	r7, #24
 801095c:	46bd      	mov	sp, r7
 801095e:	bd80      	pop	{r7, pc}

08010960 <HAL_DMA_Abort>:
  *        and the Stream will be effectively disabled only after the transfer of
  *        this single data is finished.  
  * @retval HAL status
  */
HAL_StatusTypeDef HAL_DMA_Abort(DMA_HandleTypeDef *hdma)
{
 8010960:	b580      	push	{r7, lr}
 8010962:	b084      	sub	sp, #16
 8010964:	af00      	add	r7, sp, #0
 8010966:	6078      	str	r0, [r7, #4]
  /* calculate DMA base and stream number */
  DMA_Base_Registers *regs = (DMA_Base_Registers *)hdma->StreamBaseAddress;
 8010968:	687b      	ldr	r3, [r7, #4]
 801096a:	6d9b      	ldr	r3, [r3, #88]	@ 0x58
 801096c:	60fb      	str	r3, [r7, #12]
  
  uint32_t tickstart = HAL_GetTick();
 801096e:	f7ff f919 	bl	800fba4 <HAL_GetTick>
 8010972:	60b8      	str	r0, [r7, #8]
  
  if(hdma->State != HAL_DMA_STATE_BUSY)
 8010974:	687b      	ldr	r3, [r7, #4]
 8010976:	f893 3035 	ldrb.w	r3, [r3, #53]	@ 0x35
 801097a:	b2db      	uxtb	r3, r3
 801097c:	2b02      	cmp	r3, #2
 801097e:	d008      	beq.n	8010992 <HAL_DMA_Abort+0x32>
  {
    hdma->ErrorCode = HAL_DMA_ERROR_NO_XFER;
 8010980:	687b      	ldr	r3, [r7, #4]
 8010982:	2280      	movs	r2, #128	@ 0x80
 8010984:	655a      	str	r2, [r3, #84]	@ 0x54
    
    /* Process Unlocked */
    __HAL_UNLOCK(hdma);
 8010986:	687b      	ldr	r3, [r7, #4]
 8010988:	2200      	movs	r2, #0
 801098a:	f883 2034 	strb.w	r2, [r3, #52]	@ 0x34
    
    return HAL_ERROR;
 801098e:	2301      	movs	r3, #1
 8010990:	e052      	b.n	8010a38 <HAL_DMA_Abort+0xd8>
  }
  else
  {
    /* Disable all the transfer interrupts */
    hdma->Instance->CR  &= ~(DMA_IT_TC | DMA_IT_TE | DMA_IT_DME);
 8010992:	687b      	ldr	r3, [r7, #4]
 8010994:	681b      	ldr	r3, [r3, #0]
 8010996:	681a      	ldr	r2, [r3, #0]
 8010998:	687b      	ldr	r3, [r7, #4]
 801099a:	681b      	ldr	r3, [r3, #0]
 801099c:	f022 0216 	bic.w	r2, r2, #22
 80109a0:	601a      	str	r2, [r3, #0]
    hdma->Instance->FCR &= ~(DMA_IT_FE);
 80109a2:	687b      	ldr	r3, [r7, #4]
 80109a4:	681b      	ldr	r3, [r3, #0]
 80109a6:	695a      	ldr	r2, [r3, #20]
 80109a8:	687b      	ldr	r3, [r7, #4]
 80109aa:	681b      	ldr	r3, [r3, #0]
 80109ac:	f022 0280 	bic.w	r2, r2, #128	@ 0x80
 80109b0:	615a      	str	r2, [r3, #20]
    
    if((hdma->XferHalfCpltCallback != NULL) || (hdma->XferM1HalfCpltCallback != NULL))
 80109b2:	687b      	ldr	r3, [r7, #4]
 80109b4:	6c1b      	ldr	r3, [r3, #64]	@ 0x40
 80109b6:	2b00      	cmp	r3, #0
 80109b8:	d103      	bne.n	80109c2 <HAL_DMA_Abort+0x62>
 80109ba:	687b      	ldr	r3, [r7, #4]
 80109bc:	6c9b      	ldr	r3, [r3, #72]	@ 0x48
 80109be:	2b00      	cmp	r3, #0
 80109c0:	d007      	beq.n	80109d2 <HAL_DMA_Abort+0x72>
    {
      hdma->Instance->CR  &= ~(DMA_IT_HT);
 80109c2:	687b      	ldr	r3, [r7, #4]
 80109c4:	681b      	ldr	r3, [r3, #0]
 80109c6:	681a      	ldr	r2, [r3, #0]
 80109c8:	687b      	ldr	r3, [r7, #4]
 80109ca:	681b      	ldr	r3, [r3, #0]
 80109cc:	f022 0208 	bic.w	r2, r2, #8
 80109d0:	601a      	str	r2, [r3, #0]
    }
    
    /* Disable the stream */
    __HAL_DMA_DISABLE(hdma);
 80109d2:	687b      	ldr	r3, [r7, #4]
 80109d4:	681b      	ldr	r3, [r3, #0]
 80109d6:	681a      	ldr	r2, [r3, #0]
 80109d8:	687b      	ldr	r3, [r7, #4]
 80109da:	681b      	ldr	r3, [r3, #0]
 80109dc:	f022 0201 	bic.w	r2, r2, #1
 80109e0:	601a      	str	r2, [r3, #0]
    
    /* Check if the DMA Stream is effectively disabled */
    while((hdma->Instance->CR & DMA_SxCR_EN) != RESET)
 80109e2:	e013      	b.n	8010a0c <HAL_DMA_Abort+0xac>
    {
      /* Check for the Timeout */
      if((HAL_GetTick() - tickstart ) > HAL_TIMEOUT_DMA_ABORT)
 80109e4:	f7ff f8de 	bl	800fba4 <HAL_GetTick>
 80109e8:	4602      	mov	r2, r0
 80109ea:	68bb      	ldr	r3, [r7, #8]
 80109ec:	1ad3      	subs	r3, r2, r3
 80109ee:	2b05      	cmp	r3, #5
 80109f0:	d90c      	bls.n	8010a0c <HAL_DMA_Abort+0xac>
      {
        /* Update error code */
        hdma->ErrorCode = HAL_DMA_ERROR_TIMEOUT;
 80109f2:	687b      	ldr	r3, [r7, #4]
 80109f4:	2220      	movs	r2, #32
 80109f6:	655a      	str	r2, [r3, #84]	@ 0x54
        
        /* Change the DMA state */
        hdma->State = HAL_DMA_STATE_TIMEOUT;
 80109f8:	687b      	ldr	r3, [r7, #4]
 80109fa:	2203      	movs	r2, #3
 80109fc:	f883 2035 	strb.w	r2, [r3, #53]	@ 0x35
        
        /* Process Unlocked */
        __HAL_UNLOCK(hdma);
 8010a00:	687b      	ldr	r3, [r7, #4]
 8010a02:	2200      	movs	r2, #0
 8010a04:	f883 2034 	strb.w	r2, [r3, #52]	@ 0x34
        
        return HAL_TIMEOUT;
 8010a08:	2303      	movs	r3, #3
 8010a0a:	e015      	b.n	8010a38 <HAL_DMA_Abort+0xd8>
    while((hdma->Instance->CR & DMA_SxCR_EN) != RESET)
 8010a0c:	687b      	ldr	r3, [r7, #4]
 8010a0e:	681b      	ldr	r3, [r3, #0]
 8010a10:	681b      	ldr	r3, [r3, #0]
 8010a12:	f003 0301 	and.w	r3, r3, #1
 8010a16:	2b00      	cmp	r3, #0
 8010a18:	d1e4      	bne.n	80109e4 <HAL_DMA_Abort+0x84>
      }
    }
    
    /* Clear all interrupt flags at correct offset within the register */
    regs->IFCR = 0x3FU << hdma->StreamIndex;
 8010a1a:	687b      	ldr	r3, [r7, #4]
 8010a1c:	6ddb      	ldr	r3, [r3, #92]	@ 0x5c
 8010a1e:	223f      	movs	r2, #63	@ 0x3f
 8010a20:	409a      	lsls	r2, r3
 8010a22:	68fb      	ldr	r3, [r7, #12]
 8010a24:	609a      	str	r2, [r3, #8]
    
    /* Change the DMA state*/
    hdma->State = HAL_DMA_STATE_READY;
 8010a26:	687b      	ldr	r3, [r7, #4]
 8010a28:	2201      	movs	r2, #1
 8010a2a:	f883 2035 	strb.w	r2, [r3, #53]	@ 0x35
    
    /* Process Unlocked */
    __HAL_UNLOCK(hdma);
 8010a2e:	687b      	ldr	r3, [r7, #4]
 8010a30:	2200      	movs	r2, #0
 8010a32:	f883 2034 	strb.w	r2, [r3, #52]	@ 0x34
  }
  return HAL_OK;
 8010a36:	2300      	movs	r3, #0
}
 8010a38:	4618      	mov	r0, r3
 8010a3a:	3710      	adds	r7, #16
 8010a3c:	46bd      	mov	sp, r7
 8010a3e:	bd80      	pop	{r7, pc}

08010a40 <HAL_DMA_Abort_IT>:
  * @param  hdma   pointer to a DMA_HandleTypeDef structure that contains
  *                 the configuration information for the specified DMA Stream.
  * @retval HAL status
  */
HAL_StatusTypeDef HAL_DMA_Abort_IT(DMA_HandleTypeDef *hdma)
{
 8010a40:	b480      	push	{r7}
 8010a42:	b083      	sub	sp, #12
 8010a44:	af00      	add	r7, sp, #0
 8010a46:	6078      	str	r0, [r7, #4]
  if(hdma->State != HAL_DMA_STATE_BUSY)
 8010a48:	687b      	ldr	r3, [r7, #4]
 8010a4a:	f893 3035 	ldrb.w	r3, [r3, #53]	@ 0x35
 8010a4e:	b2db      	uxtb	r3, r3
 8010a50:	2b02      	cmp	r3, #2
 8010a52:	d004      	beq.n	8010a5e <HAL_DMA_Abort_IT+0x1e>
  {
    hdma->ErrorCode = HAL_DMA_ERROR_NO_XFER;
 8010a54:	687b      	ldr	r3, [r7, #4]
 8010a56:	2280      	movs	r2, #128	@ 0x80
 8010a58:	655a      	str	r2, [r3, #84]	@ 0x54
    return HAL_ERROR;
 8010a5a:	2301      	movs	r3, #1
 8010a5c:	e00c      	b.n	8010a78 <HAL_DMA_Abort_IT+0x38>
  }
  else
  {
    /* Set Abort State  */
    hdma->State = HAL_DMA_STATE_ABORT;
 8010a5e:	687b      	ldr	r3, [r7, #4]
 8010a60:	2205      	movs	r2, #5
 8010a62:	f883 2035 	strb.w	r2, [r3, #53]	@ 0x35
    
    /* Disable the stream */
    __HAL_DMA_DISABLE(hdma);
 8010a66:	687b      	ldr	r3, [r7, #4]
 8010a68:	681b      	ldr	r3, [r3, #0]
 8010a6a:	681a      	ldr	r2, [r3, #0]
 8010a6c:	687b      	ldr	r3, [r7, #4]
 8010a6e:	681b      	ldr	r3, [r3, #0]
 8010a70:	f022 0201 	bic.w	r2, r2, #1
 8010a74:	601a      	str	r2, [r3, #0]
  }

  return HAL_OK;
 8010a76:	2300      	movs	r3, #0
}
 8010a78:	4618      	mov	r0, r3
 8010a7a:	370c      	adds	r7, #12
 8010a7c:	46bd      	mov	sp, r7
 8010a7e:	f85d 7b04 	ldr.w	r7, [sp], #4
 8010a82:	4770      	bx	lr

08010a84 <HAL_DMA_IRQHandler>:
  * @param  hdma pointer to a DMA_HandleTypeDef structure that contains
  *               the configuration information for the specified DMA Stream.  
  * @retval None
  */
void HAL_DMA_IRQHandler(DMA_HandleTypeDef *hdma)
{
 8010a84:	b580      	push	{r7, lr}
 8010a86:	b086      	sub	sp, #24
 8010a88:	af00      	add	r7, sp, #0
 8010a8a:	6078      	str	r0, [r7, #4]
  uint32_t tmpisr;
  __IO uint32_t count = 0U;
 8010a8c:	2300      	movs	r3, #0
 8010a8e:	60bb      	str	r3, [r7, #8]
  uint32_t timeout = SystemCoreClock / 9600U;
 8010a90:	4b8e      	ldr	r3, [pc, #568]	@ (8010ccc <HAL_DMA_IRQHandler+0x248>)
 8010a92:	681b      	ldr	r3, [r3, #0]
 8010a94:	4a8e      	ldr	r2, [pc, #568]	@ (8010cd0 <HAL_DMA_IRQHandler+0x24c>)
 8010a96:	fba2 2303 	umull	r2, r3, r2, r3
 8010a9a:	0a9b      	lsrs	r3, r3, #10
 8010a9c:	617b      	str	r3, [r7, #20]

  /* calculate DMA base and stream number */
  DMA_Base_Registers *regs = (DMA_Base_Registers *)hdma->StreamBaseAddress;
 8010a9e:	687b      	ldr	r3, [r7, #4]
 8010aa0:	6d9b      	ldr	r3, [r3, #88]	@ 0x58
 8010aa2:	613b      	str	r3, [r7, #16]

  tmpisr = regs->ISR;
 8010aa4:	693b      	ldr	r3, [r7, #16]
 8010aa6:	681b      	ldr	r3, [r3, #0]
 8010aa8:	60fb      	str	r3, [r7, #12]

  /* Transfer Error Interrupt management ***************************************/
  if ((tmpisr & (DMA_FLAG_TEIF0_4 << hdma->StreamIndex)) != RESET)
 8010aaa:	687b      	ldr	r3, [r7, #4]
 8010aac:	6ddb      	ldr	r3, [r3, #92]	@ 0x5c
 8010aae:	2208      	movs	r2, #8
 8010ab0:	409a      	lsls	r2, r3
 8010ab2:	68fb      	ldr	r3, [r7, #12]
 8010ab4:	4013      	ands	r3, r2
 8010ab6:	2b00      	cmp	r3, #0
 8010ab8:	d01a      	beq.n	8010af0 <HAL_DMA_IRQHandler+0x6c>
  {
    if(__HAL_DMA_GET_IT_SOURCE(hdma, DMA_IT_TE) != RESET)
 8010aba:	687b      	ldr	r3, [r7, #4]
 8010abc:	681b      	ldr	r3, [r3, #0]
 8010abe:	681b      	ldr	r3, [r3, #0]
 8010ac0:	f003 0304 	and.w	r3, r3, #4
 8010ac4:	2b00      	cmp	r3, #0
 8010ac6:	d013      	beq.n	8010af0 <HAL_DMA_IRQHandler+0x6c>
    {
      /* Disable the transfer error interrupt */
      hdma->Instance->CR  &= ~(DMA_IT_TE);
 8010ac8:	687b      	ldr	r3, [r7, #4]
 8010aca:	681b      	ldr	r3, [r3, #0]
 8010acc:	681a      	ldr	r2, [r3, #0]
 8010ace:	687b      	ldr	r3, [r7, #4]
 8010ad0:	681b      	ldr	r3, [r3, #0]
 8010ad2:	f022 0204 	bic.w	r2, r2, #4
 8010ad6:	601a      	str	r2, [r3, #0]
      
      /* Clear the transfer error flag */
      regs->IFCR = DMA_FLAG_TEIF0_4 << hdma->StreamIndex;
 8010ad8:	687b      	ldr	r3, [r7, #4]
 8010ada:	6ddb      	ldr	r3, [r3, #92]	@ 0x5c
 8010adc:	2208      	movs	r2, #8
 8010ade:	409a      	lsls	r2, r3
 8010ae0:	693b      	ldr	r3, [r7, #16]
 8010ae2:	609a      	str	r2, [r3, #8]
      
      /* Update error code */
      hdma->ErrorCode |= HAL_DMA_ERROR_TE;
 8010ae4:	687b      	ldr	r3, [r7, #4]
 8010ae6:	6d5b      	ldr	r3, [r3, #84]	@ 0x54
 8010ae8:	f043 0201 	orr.w	r2, r3, #1
 8010aec:	687b      	ldr	r3, [r7, #4]
 8010aee:	655a      	str	r2, [r3, #84]	@ 0x54
    }
  }
  /* FIFO Error Interrupt management ******************************************/
  if ((tmpisr & (DMA_FLAG_FEIF0_4 << hdma->StreamIndex)) != RESET)
 8010af0:	687b      	ldr	r3, [r7, #4]
 8010af2:	6ddb      	ldr	r3, [r3, #92]	@ 0x5c
 8010af4:	2201      	movs	r2, #1
 8010af6:	409a      	lsls	r2, r3
 8010af8:	68fb      	ldr	r3, [r7, #12]
 8010afa:	4013      	ands	r3, r2
 8010afc:	2b00      	cmp	r3, #0
 8010afe:	d012      	beq.n	8010b26 <HAL_DMA_IRQHandler+0xa2>
  {
    if(__HAL_DMA_GET_IT_SOURCE(hdma, DMA_IT_FE) != RESET)
 8010b00:	687b      	ldr	r3, [r7, #4]
 8010b02:	681b      	ldr	r3, [r3, #0]
 8010b04:	695b      	ldr	r3, [r3, #20]
 8010b06:	f003 0380 	and.w	r3, r3, #128	@ 0x80
 8010b0a:	2b00      	cmp	r3, #0
 8010b0c:	d00b      	beq.n	8010b26 <HAL_DMA_IRQHandler+0xa2>
    {
      /* Clear the FIFO error flag */
      regs->IFCR = DMA_FLAG_FEIF0_4 << hdma->StreamIndex;
 8010b0e:	687b      	ldr	r3, [r7, #4]
 8010b10:	6ddb      	ldr	r3, [r3, #92]	@ 0x5c
 8010b12:	2201      	movs	r2, #1
 8010b14:	409a      	lsls	r2, r3
 8010b16:	693b      	ldr	r3, [r7, #16]
 8010b18:	609a      	str	r2, [r3, #8]

      /* Update error code */
      hdma->ErrorCode |= HAL_DMA_ERROR_FE;
 8010b1a:	687b      	ldr	r3, [r7, #4]
 8010b1c:	6d5b      	ldr	r3, [r3, #84]	@ 0x54
 8010b1e:	f043 0202 	orr.w	r2, r3, #2
 8010b22:	687b      	ldr	r3, [r7, #4]
 8010b24:	655a      	str	r2, [r3, #84]	@ 0x54
    }
  }
  /* Direct Mode Error Interrupt management ***********************************/
  if ((tmpisr & (DMA_FLAG_DMEIF0_4 << hdma->StreamIndex)) != RESET)
 8010b26:	687b      	ldr	r3, [r7, #4]
 8010b28:	6ddb      	ldr	r3, [r3, #92]	@ 0x5c
 8010b2a:	2204      	movs	r2, #4
 8010b2c:	409a      	lsls	r2, r3
 8010b2e:	68fb      	ldr	r3, [r7, #12]
 8010b30:	4013      	ands	r3, r2
 8010b32:	2b00      	cmp	r3, #0
 8010b34:	d012      	beq.n	8010b5c <HAL_DMA_IRQHandler+0xd8>
  {
    if(__HAL_DMA_GET_IT_SOURCE(hdma, DMA_IT_DME) != RESET)
 8010b36:	687b      	ldr	r3, [r7, #4]
 8010b38:	681b      	ldr	r3, [r3, #0]
 8010b3a:	681b      	ldr	r3, [r3, #0]
 8010b3c:	f003 0302 	and.w	r3, r3, #2
 8010b40:	2b00      	cmp	r3, #0
 8010b42:	d00b      	beq.n	8010b5c <HAL_DMA_IRQHandler+0xd8>
    {
      /* Clear the direct mode error flag */
      regs->IFCR = DMA_FLAG_DMEIF0_4 << hdma->StreamIndex;
 8010b44:	687b      	ldr	r3, [r7, #4]
 8010b46:	6ddb      	ldr	r3, [r3, #92]	@ 0x5c
 8010b48:	2204      	movs	r2, #4
 8010b4a:	409a      	lsls	r2, r3
 8010b4c:	693b      	ldr	r3, [r7, #16]
 8010b4e:	609a      	str	r2, [r3, #8]

      /* Update error code */
      hdma->ErrorCode |= HAL_DMA_ERROR_DME;
 8010b50:	687b      	ldr	r3, [r7, #4]
 8010b52:	6d5b      	ldr	r3, [r3, #84]	@ 0x54
 8010b54:	f043 0204 	orr.w	r2, r3, #4
 8010b58:	687b      	ldr	r3, [r7, #4]
 8010b5a:	655a      	str	r2, [r3, #84]	@ 0x54
    }
  }
  /* Half Transfer Complete Interrupt management ******************************/
  if ((tmpisr & (DMA_FLAG_HTIF0_4 << hdma->StreamIndex)) != RESET)
 8010b5c:	687b      	ldr	r3, [r7, #4]
 8010b5e:	6ddb      	ldr	r3, [r3, #92]	@ 0x5c
 8010b60:	2210      	movs	r2, #16
 8010b62:	409a      	lsls	r2, r3
 8010b64:	68fb      	ldr	r3, [r7, #12]
 8010b66:	4013      	ands	r3, r2
 8010b68:	2b00      	cmp	r3, #0
 8010b6a:	d043      	beq.n	8010bf4 <HAL_DMA_IRQHandler+0x170>
  {
    if(__HAL_DMA_GET_IT_SOURCE(hdma, DMA_IT_HT) != RESET)
 8010b6c:	687b      	ldr	r3, [r7, #4]
 8010b6e:	681b      	ldr	r3, [r3, #0]
 8010b70:	681b      	ldr	r3, [r3, #0]
 8010b72:	f003 0308 	and.w	r3, r3, #8
 8010b76:	2b00      	cmp	r3, #0
 8010b78:	d03c      	beq.n	8010bf4 <HAL_DMA_IRQHandler+0x170>
    {
      /* Clear the half transfer complete flag */
      regs->IFCR = DMA_FLAG_HTIF0_4 << hdma->StreamIndex;
 8010b7a:	687b      	ldr	r3, [r7, #4]
 8010b7c:	6ddb      	ldr	r3, [r3, #92]	@ 0x5c
 8010b7e:	2210      	movs	r2, #16
 8010b80:	409a      	lsls	r2, r3
 8010b82:	693b      	ldr	r3, [r7, #16]
 8010b84:	609a      	str	r2, [r3, #8]
      
      /* Multi_Buffering mode enabled */
      if(((hdma->Instance->CR) & (uint32_t)(DMA_SxCR_DBM)) != RESET)
 8010b86:	687b      	ldr	r3, [r7, #4]
 8010b88:	681b      	ldr	r3, [r3, #0]
 8010b8a:	681b      	ldr	r3, [r3, #0]
 8010b8c:	f403 2380 	and.w	r3, r3, #262144	@ 0x40000
 8010b90:	2b00      	cmp	r3, #0
 8010b92:	d018      	beq.n	8010bc6 <HAL_DMA_IRQHandler+0x142>
      {
        /* Current memory buffer used is Memory 0 */
        if((hdma->Instance->CR & DMA_SxCR_CT) == RESET)
 8010b94:	687b      	ldr	r3, [r7, #4]
 8010b96:	681b      	ldr	r3, [r3, #0]
 8010b98:	681b      	ldr	r3, [r3, #0]
 8010b9a:	f403 2300 	and.w	r3, r3, #524288	@ 0x80000
 8010b9e:	2b00      	cmp	r3, #0
 8010ba0:	d108      	bne.n	8010bb4 <HAL_DMA_IRQHandler+0x130>
        {
          if(hdma->XferHalfCpltCallback != NULL)
 8010ba2:	687b      	ldr	r3, [r7, #4]
 8010ba4:	6c1b      	ldr	r3, [r3, #64]	@ 0x40
 8010ba6:	2b00      	cmp	r3, #0
 8010ba8:	d024      	beq.n	8010bf4 <HAL_DMA_IRQHandler+0x170>
          {
            /* Half transfer callback */
            hdma->XferHalfCpltCallback(hdma);
 8010baa:	687b      	ldr	r3, [r7, #4]
 8010bac:	6c1b      	ldr	r3, [r3, #64]	@ 0x40
 8010bae:	6878      	ldr	r0, [r7, #4]
 8010bb0:	4798      	blx	r3
 8010bb2:	e01f      	b.n	8010bf4 <HAL_DMA_IRQHandler+0x170>
          }
        }
        /* Current memory buffer used is Memory 1 */
        else
        {
          if(hdma->XferM1HalfCpltCallback != NULL)
 8010bb4:	687b      	ldr	r3, [r7, #4]
 8010bb6:	6c9b      	ldr	r3, [r3, #72]	@ 0x48
 8010bb8:	2b00      	cmp	r3, #0
 8010bba:	d01b      	beq.n	8010bf4 <HAL_DMA_IRQHandler+0x170>
          {
            /* Half transfer callback */
            hdma->XferM1HalfCpltCallback(hdma);
 8010bbc:	687b      	ldr	r3, [r7, #4]
 8010bbe:	6c9b      	ldr	r3, [r3, #72]	@ 0x48
 8010bc0:	6878      	ldr	r0, [r7, #4]
 8010bc2:	4798      	blx	r3
 8010bc4:	e016      	b.n	8010bf4 <HAL_DMA_IRQHandler+0x170>
        }
      }
      else
      {
        /* Disable the half transfer interrupt if the DMA mode is not CIRCULAR */
        if((hdma->Instance->CR & DMA_SxCR_CIRC) == RESET)
 8010bc6:	687b      	ldr	r3, [r7, #4]
 8010bc8:	681b      	ldr	r3, [r3, #0]
 8010bca:	681b      	ldr	r3, [r3, #0]
 8010bcc:	f403 7380 	and.w	r3, r3, #256	@ 0x100
 8010bd0:	2b00      	cmp	r3, #0
 8010bd2:	d107      	bne.n	8010be4 <HAL_DMA_IRQHandler+0x160>
        {
          /* Disable the half transfer interrupt */
          hdma->Instance->CR  &= ~(DMA_IT_HT);
 8010bd4:	687b      	ldr	r3, [r7, #4]
 8010bd6:	681b      	ldr	r3, [r3, #0]
 8010bd8:	681a      	ldr	r2, [r3, #0]
 8010bda:	687b      	ldr	r3, [r7, #4]
 8010bdc:	681b      	ldr	r3, [r3, #0]
 8010bde:	f022 0208 	bic.w	r2, r2, #8
 8010be2:	601a      	str	r2, [r3, #0]
        }
        
        if(hdma->XferHalfCpltCallback != NULL)
 8010be4:	687b      	ldr	r3, [r7, #4]
 8010be6:	6c1b      	ldr	r3, [r3, #64]	@ 0x40
 8010be8:	2b00      	cmp	r3, #0
 8010bea:	d003      	beq.n	8010bf4 <HAL_DMA_IRQHandler+0x170>
        {
          /* Half transfer callback */
          hdma->XferHalfCpltCallback(hdma);
 8010bec:	687b      	ldr	r3, [r7, #4]
 8010bee:	6c1b      	ldr	r3, [r3, #64]	@ 0x40
 8010bf0:	6878      	ldr	r0, [r7, #4]
 8010bf2:	4798      	blx	r3
        }
      }
    }
  }
  /* Transfer Complete Interrupt management ***********************************/
  if ((tmpisr & (DMA_FLAG_TCIF0_4 << hdma->StreamIndex)) != RESET)
 8010bf4:	687b      	ldr	r3, [r7, #4]
 8010bf6:	6ddb      	ldr	r3, [r3, #92]	@ 0x5c
 8010bf8:	2220      	movs	r2, #32
 8010bfa:	409a      	lsls	r2, r3
 8010bfc:	68fb      	ldr	r3, [r7, #12]
 8010bfe:	4013      	ands	r3, r2
 8010c00:	2b00      	cmp	r3, #0
 8010c02:	f000 808f 	beq.w	8010d24 <HAL_DMA_IRQHandler+0x2a0>
  {
    if(__HAL_DMA_GET_IT_SOURCE(hdma, DMA_IT_TC) != RESET)
 8010c06:	687b      	ldr	r3, [r7, #4]
 8010c08:	681b      	ldr	r3, [r3, #0]
 8010c0a:	681b      	ldr	r3, [r3, #0]
 8010c0c:	f003 0310 	and.w	r3, r3, #16
 8010c10:	2b00      	cmp	r3, #0
 8010c12:	f000 8087 	beq.w	8010d24 <HAL_DMA_IRQHandler+0x2a0>
    {
      /* Clear the transfer complete flag */
      regs->IFCR = DMA_FLAG_TCIF0_4 << hdma->StreamIndex;
 8010c16:	687b      	ldr	r3, [r7, #4]
 8010c18:	6ddb      	ldr	r3, [r3, #92]	@ 0x5c
 8010c1a:	2220      	movs	r2, #32
 8010c1c:	409a      	lsls	r2, r3
 8010c1e:	693b      	ldr	r3, [r7, #16]
 8010c20:	609a      	str	r2, [r3, #8]
      
      if(HAL_DMA_STATE_ABORT == hdma->State)
 8010c22:	687b      	ldr	r3, [r7, #4]
 8010c24:	f893 3035 	ldrb.w	r3, [r3, #53]	@ 0x35
 8010c28:	b2db      	uxtb	r3, r3
 8010c2a:	2b05      	cmp	r3, #5
 8010c2c:	d136      	bne.n	8010c9c <HAL_DMA_IRQHandler+0x218>
      {
        /* Disable all the transfer interrupts */
        hdma->Instance->CR  &= ~(DMA_IT_TC | DMA_IT_TE | DMA_IT_DME);
 8010c2e:	687b      	ldr	r3, [r7, #4]
 8010c30:	681b      	ldr	r3, [r3, #0]
 8010c32:	681a      	ldr	r2, [r3, #0]
 8010c34:	687b      	ldr	r3, [r7, #4]
 8010c36:	681b      	ldr	r3, [r3, #0]
 8010c38:	f022 0216 	bic.w	r2, r2, #22
 8010c3c:	601a      	str	r2, [r3, #0]
        hdma->Instance->FCR &= ~(DMA_IT_FE);
 8010c3e:	687b      	ldr	r3, [r7, #4]
 8010c40:	681b      	ldr	r3, [r3, #0]
 8010c42:	695a      	ldr	r2, [r3, #20]
 8010c44:	687b      	ldr	r3, [r7, #4]
 8010c46:	681b      	ldr	r3, [r3, #0]
 8010c48:	f022 0280 	bic.w	r2, r2, #128	@ 0x80
 8010c4c:	615a      	str	r2, [r3, #20]
        
        if((hdma->XferHalfCpltCallback != NULL) || (hdma->XferM1HalfCpltCallback != NULL))
 8010c4e:	687b      	ldr	r3, [r7, #4]
 8010c50:	6c1b      	ldr	r3, [r3, #64]	@ 0x40
 8010c52:	2b00      	cmp	r3, #0
 8010c54:	d103      	bne.n	8010c5e <HAL_DMA_IRQHandler+0x1da>
 8010c56:	687b      	ldr	r3, [r7, #4]
 8010c58:	6c9b      	ldr	r3, [r3, #72]	@ 0x48
 8010c5a:	2b00      	cmp	r3, #0
 8010c5c:	d007      	beq.n	8010c6e <HAL_DMA_IRQHandler+0x1ea>
        {
          hdma->Instance->CR  &= ~(DMA_IT_HT);
 8010c5e:	687b      	ldr	r3, [r7, #4]
 8010c60:	681b      	ldr	r3, [r3, #0]
 8010c62:	681a      	ldr	r2, [r3, #0]
 8010c64:	687b      	ldr	r3, [r7, #4]
 8010c66:	681b      	ldr	r3, [r3, #0]
 8010c68:	f022 0208 	bic.w	r2, r2, #8
 8010c6c:	601a      	str	r2, [r3, #0]
        }

        /* Clear all interrupt flags at correct offset within the register */
        regs->IFCR = 0x3FU << hdma->StreamIndex;
 8010c6e:	687b      	ldr	r3, [r7, #4]
 8010c70:	6ddb      	ldr	r3, [r3, #92]	@ 0x5c
 8010c72:	223f      	movs	r2, #63	@ 0x3f
 8010c74:	409a      	lsls	r2, r3
 8010c76:	693b      	ldr	r3, [r7, #16]
 8010c78:	609a      	str	r2, [r3, #8]

        /* Change the DMA state */
        hdma->State = HAL_DMA_STATE_READY;
 8010c7a:	687b      	ldr	r3, [r7, #4]
 8010c7c:	2201      	movs	r2, #1
 8010c7e:	f883 2035 	strb.w	r2, [r3, #53]	@ 0x35

        /* Process Unlocked */
        __HAL_UNLOCK(hdma);
 8010c82:	687b      	ldr	r3, [r7, #4]
 8010c84:	2200      	movs	r2, #0
 8010c86:	f883 2034 	strb.w	r2, [r3, #52]	@ 0x34

        if(hdma->XferAbortCallback != NULL)
 8010c8a:	687b      	ldr	r3, [r7, #4]
 8010c8c:	6d1b      	ldr	r3, [r3, #80]	@ 0x50
 8010c8e:	2b00      	cmp	r3, #0
 8010c90:	d07e      	beq.n	8010d90 <HAL_DMA_IRQHandler+0x30c>
        {
          hdma->XferAbortCallback(hdma);
 8010c92:	687b      	ldr	r3, [r7, #4]
 8010c94:	6d1b      	ldr	r3, [r3, #80]	@ 0x50
 8010c96:	6878      	ldr	r0, [r7, #4]
 8010c98:	4798      	blx	r3
        }
        return;
 8010c9a:	e079      	b.n	8010d90 <HAL_DMA_IRQHandler+0x30c>
      }

      if(((hdma->Instance->CR) & (uint32_t)(DMA_SxCR_DBM)) != RESET)
 8010c9c:	687b      	ldr	r3, [r7, #4]
 8010c9e:	681b      	ldr	r3, [r3, #0]
 8010ca0:	681b      	ldr	r3, [r3, #0]
 8010ca2:	f403 2380 	and.w	r3, r3, #262144	@ 0x40000
 8010ca6:	2b00      	cmp	r3, #0
 8010ca8:	d01d      	beq.n	8010ce6 <HAL_DMA_IRQHandler+0x262>
      {
        /* Current memory buffer used is Memory 0 */
        if((hdma->Instance->CR & DMA_SxCR_CT) == RESET)
 8010caa:	687b      	ldr	r3, [r7, #4]
 8010cac:	681b      	ldr	r3, [r3, #0]
 8010cae:	681b      	ldr	r3, [r3, #0]
 8010cb0:	f403 2300 	and.w	r3, r3, #524288	@ 0x80000
 8010cb4:	2b00      	cmp	r3, #0
 8010cb6:	d10d      	bne.n	8010cd4 <HAL_DMA_IRQHandler+0x250>
        {
          if(hdma->XferM1CpltCallback != NULL)
 8010cb8:	687b      	ldr	r3, [r7, #4]
 8010cba:	6c5b      	ldr	r3, [r3, #68]	@ 0x44
 8010cbc:	2b00      	cmp	r3, #0
 8010cbe:	d031      	beq.n	8010d24 <HAL_DMA_IRQHandler+0x2a0>
          {
            /* Transfer complete Callback for memory1 */
            hdma->XferM1CpltCallback(hdma);
 8010cc0:	687b      	ldr	r3, [r7, #4]
 8010cc2:	6c5b      	ldr	r3, [r3, #68]	@ 0x44
 8010cc4:	6878      	ldr	r0, [r7, #4]
 8010cc6:	4798      	blx	r3
 8010cc8:	e02c      	b.n	8010d24 <HAL_DMA_IRQHandler+0x2a0>
 8010cca:	bf00      	nop
 8010ccc:	200000c0 	.word	0x200000c0
 8010cd0:	1b4e81b5 	.word	0x1b4e81b5
          }
        }
        /* Current memory buffer used is Memory 1 */
        else
        {
          if(hdma->XferCpltCallback != NULL)
 8010cd4:	687b      	ldr	r3, [r7, #4]
 8010cd6:	6bdb      	ldr	r3, [r3, #60]	@ 0x3c
 8010cd8:	2b00      	cmp	r3, #0
 8010cda:	d023      	beq.n	8010d24 <HAL_DMA_IRQHandler+0x2a0>
          {
            /* Transfer complete Callback for memory0 */
            hdma->XferCpltCallback(hdma);
 8010cdc:	687b      	ldr	r3, [r7, #4]
 8010cde:	6bdb      	ldr	r3, [r3, #60]	@ 0x3c
 8010ce0:	6878      	ldr	r0, [r7, #4]
 8010ce2:	4798      	blx	r3
 8010ce4:	e01e      	b.n	8010d24 <HAL_DMA_IRQHandler+0x2a0>
        }
      }
      /* Disable the transfer complete interrupt if the DMA mode is not CIRCULAR */
      else
      {
        if((hdma->Instance->CR & DMA_SxCR_CIRC) == RESET)
 8010ce6:	687b      	ldr	r3, [r7, #4]
 8010ce8:	681b      	ldr	r3, [r3, #0]
 8010cea:	681b      	ldr	r3, [r3, #0]
 8010cec:	f403 7380 	and.w	r3, r3, #256	@ 0x100
 8010cf0:	2b00      	cmp	r3, #0
 8010cf2:	d10f      	bne.n	8010d14 <HAL_DMA_IRQHandler+0x290>
        {
          /* Disable the transfer complete interrupt */
          hdma->Instance->CR  &= ~(DMA_IT_TC);
 8010cf4:	687b      	ldr	r3, [r7, #4]
 8010cf6:	681b      	ldr	r3, [r3, #0]
 8010cf8:	681a      	ldr	r2, [r3, #0]
 8010cfa:	687b      	ldr	r3, [r7, #4]
 8010cfc:	681b      	ldr	r3, [r3, #0]
 8010cfe:	f022 0210 	bic.w	r2, r2, #16
 8010d02:	601a      	str	r2, [r3, #0]

          /* Change the DMA state */
          hdma->State = HAL_DMA_STATE_READY;
 8010d04:	687b      	ldr	r3, [r7, #4]
 8010d06:	2201      	movs	r2, #1
 8010d08:	f883 2035 	strb.w	r2, [r3, #53]	@ 0x35

          /* Process Unlocked */
          __HAL_UNLOCK(hdma);
 8010d0c:	687b      	ldr	r3, [r7, #4]
 8010d0e:	2200      	movs	r2, #0
 8010d10:	f883 2034 	strb.w	r2, [r3, #52]	@ 0x34
        }

        if(hdma->XferCpltCallback != NULL)
 8010d14:	687b      	ldr	r3, [r7, #4]
 8010d16:	6bdb      	ldr	r3, [r3, #60]	@ 0x3c
 8010d18:	2b00      	cmp	r3, #0
 8010d1a:	d003      	beq.n	8010d24 <HAL_DMA_IRQHandler+0x2a0>
        {
          /* Transfer complete callback */
          hdma->XferCpltCallback(hdma);
 8010d1c:	687b      	ldr	r3, [r7, #4]
 8010d1e:	6bdb      	ldr	r3, [r3, #60]	@ 0x3c
 8010d20:	6878      	ldr	r0, [r7, #4]
 8010d22:	4798      	blx	r3
      }
    }
  }
  
  /* manage error case */
  if(hdma->ErrorCode != HAL_DMA_ERROR_NONE)
 8010d24:	687b      	ldr	r3, [r7, #4]
 8010d26:	6d5b      	ldr	r3, [r3, #84]	@ 0x54
 8010d28:	2b00      	cmp	r3, #0
 8010d2a:	d032      	beq.n	8010d92 <HAL_DMA_IRQHandler+0x30e>
  {
    if((hdma->ErrorCode & HAL_DMA_ERROR_TE) != RESET)
 8010d2c:	687b      	ldr	r3, [r7, #4]
 8010d2e:	6d5b      	ldr	r3, [r3, #84]	@ 0x54
 8010d30:	f003 0301 	and.w	r3, r3, #1
 8010d34:	2b00      	cmp	r3, #0
 8010d36:	d022      	beq.n	8010d7e <HAL_DMA_IRQHandler+0x2fa>
    {
      hdma->State = HAL_DMA_STATE_ABORT;
 8010d38:	687b      	ldr	r3, [r7, #4]
 8010d3a:	2205      	movs	r2, #5
 8010d3c:	f883 2035 	strb.w	r2, [r3, #53]	@ 0x35

      /* Disable the stream */
      __HAL_DMA_DISABLE(hdma);
 8010d40:	687b      	ldr	r3, [r7, #4]
 8010d42:	681b      	ldr	r3, [r3, #0]
 8010d44:	681a      	ldr	r2, [r3, #0]
 8010d46:	687b      	ldr	r3, [r7, #4]
 8010d48:	681b      	ldr	r3, [r3, #0]
 8010d4a:	f022 0201 	bic.w	r2, r2, #1
 8010d4e:	601a      	str	r2, [r3, #0]

      do
      {
        if (++count > timeout)
 8010d50:	68bb      	ldr	r3, [r7, #8]
 8010d52:	3301      	adds	r3, #1
 8010d54:	60bb      	str	r3, [r7, #8]
 8010d56:	697a      	ldr	r2, [r7, #20]
 8010d58:	429a      	cmp	r2, r3
 8010d5a:	d307      	bcc.n	8010d6c <HAL_DMA_IRQHandler+0x2e8>
        {
          break;
        }
      }
      while((hdma->Instance->CR & DMA_SxCR_EN) != RESET);
 8010d5c:	687b      	ldr	r3, [r7, #4]
 8010d5e:	681b      	ldr	r3, [r3, #0]
 8010d60:	681b      	ldr	r3, [r3, #0]
 8010d62:	f003 0301 	and.w	r3, r3, #1
 8010d66:	2b00      	cmp	r3, #0
 8010d68:	d1f2      	bne.n	8010d50 <HAL_DMA_IRQHandler+0x2cc>
 8010d6a:	e000      	b.n	8010d6e <HAL_DMA_IRQHandler+0x2ea>
          break;
 8010d6c:	bf00      	nop

      /* Change the DMA state */
      hdma->State = HAL_DMA_STATE_READY;
 8010d6e:	687b      	ldr	r3, [r7, #4]
 8010d70:	2201      	movs	r2, #1
 8010d72:	f883 2035 	strb.w	r2, [r3, #53]	@ 0x35

      /* Process Unlocked */
      __HAL_UNLOCK(hdma);
 8010d76:	687b      	ldr	r3, [r7, #4]
 8010d78:	2200      	movs	r2, #0
 8010d7a:	f883 2034 	strb.w	r2, [r3, #52]	@ 0x34
    }

    if(hdma->XferErrorCallback != NULL)
 8010d7e:	687b      	ldr	r3, [r7, #4]
 8010d80:	6cdb      	ldr	r3, [r3, #76]	@ 0x4c
 8010d82:	2b00      	cmp	r3, #0
 8010d84:	d005      	beq.n	8010d92 <HAL_DMA_IRQHandler+0x30e>
    {
      /* Transfer error callback */
      hdma->XferErrorCallback(hdma);
 8010d86:	687b      	ldr	r3, [r7, #4]
 8010d88:	6cdb      	ldr	r3, [r3, #76]	@ 0x4c
 8010d8a:	6878      	ldr	r0, [r7, #4]
 8010d8c:	4798      	blx	r3
 8010d8e:	e000      	b.n	8010d92 <HAL_DMA_IRQHandler+0x30e>
        return;
 8010d90:	bf00      	nop
    }
  }
}
 8010d92:	3718      	adds	r7, #24
 8010d94:	46bd      	mov	sp, r7
 8010d96:	bd80      	pop	{r7, pc}

08010d98 <DMA_SetConfig>:
  * @param  DstAddress The destination memory Buffer address
  * @param  DataLength The length of data to be transferred from source to destination
  * @retval HAL status
  */
static void DMA_SetConfig(DMA_HandleTypeDef *hdma, uint32_t SrcAddress, uint32_t DstAddress, uint32_t DataLength)
{
 8010d98:	b480      	push	{r7}
 8010d9a:	b085      	sub	sp, #20
 8010d9c:	af00      	add	r7, sp, #0
 8010d9e:	60f8      	str	r0, [r7, #12]
 8010da0:	60b9      	str	r1, [r7, #8]
 8010da2:	607a      	str	r2, [r7, #4]
 8010da4:	603b      	str	r3, [r7, #0]
  /* Clear DBM bit */
  hdma->Instance->CR &= (uint32_t)(~DMA_SxCR_DBM);
 8010da6:	68fb      	ldr	r3, [r7, #12]
 8010da8:	681b      	ldr	r3, [r3, #0]
 8010daa:	681a      	ldr	r2, [r3, #0]
 8010dac:	68fb      	ldr	r3, [r7, #12]
 8010dae:	681b      	ldr	r3, [r3, #0]
 8010db0:	f422 2280 	bic.w	r2, r2, #262144	@ 0x40000
 8010db4:	601a      	str	r2, [r3, #0]

  /* Configure DMA Stream data length */
  hdma->Instance->NDTR = DataLength;
 8010db6:	68fb      	ldr	r3, [r7, #12]
 8010db8:	681b      	ldr	r3, [r3, #0]
 8010dba:	683a      	ldr	r2, [r7, #0]
 8010dbc:	605a      	str	r2, [r3, #4]

  /* Memory to Peripheral */
  if((hdma->Init.Direction) == DMA_MEMORY_TO_PERIPH)
 8010dbe:	68fb      	ldr	r3, [r7, #12]
 8010dc0:	689b      	ldr	r3, [r3, #8]
 8010dc2:	2b40      	cmp	r3, #64	@ 0x40
 8010dc4:	d108      	bne.n	8010dd8 <DMA_SetConfig+0x40>
  {
    /* Configure DMA Stream destination address */
    hdma->Instance->PAR = DstAddress;
 8010dc6:	68fb      	ldr	r3, [r7, #12]
 8010dc8:	681b      	ldr	r3, [r3, #0]
 8010dca:	687a      	ldr	r2, [r7, #4]
 8010dcc:	609a      	str	r2, [r3, #8]

    /* Configure DMA Stream source address */
    hdma->Instance->M0AR = SrcAddress;
 8010dce:	68fb      	ldr	r3, [r7, #12]
 8010dd0:	681b      	ldr	r3, [r3, #0]
 8010dd2:	68ba      	ldr	r2, [r7, #8]
 8010dd4:	60da      	str	r2, [r3, #12]
    hdma->Instance->PAR = SrcAddress;

    /* Configure DMA Stream destination address */
    hdma->Instance->M0AR = DstAddress;
  }
}
 8010dd6:	e007      	b.n	8010de8 <DMA_SetConfig+0x50>
    hdma->Instance->PAR = SrcAddress;
 8010dd8:	68fb      	ldr	r3, [r7, #12]
 8010dda:	681b      	ldr	r3, [r3, #0]
 8010ddc:	68ba      	ldr	r2, [r7, #8]
 8010dde:	609a      	str	r2, [r3, #8]
    hdma->Instance->M0AR = DstAddress;
 8010de0:	68fb      	ldr	r3, [r7, #12]
 8010de2:	681b      	ldr	r3, [r3, #0]
 8010de4:	687a      	ldr	r2, [r7, #4]
 8010de6:	60da      	str	r2, [r3, #12]
}
 8010de8:	bf00      	nop
 8010dea:	3714      	adds	r7, #20
 8010dec:	46bd      	mov	sp, r7
 8010dee:	f85d 7b04 	ldr.w	r7, [sp], #4
 8010df2:	4770      	bx	lr

08010df4 <DMA_CalcBaseAndBitshift>:
  * @param  hdma       pointer to a DMA_HandleTypeDef structure that contains
  *                     the configuration information for the specified DMA Stream. 
  * @retval Stream base address
  */
static uint32_t DMA_CalcBaseAndBitshift(DMA_HandleTypeDef *hdma)
{
 8010df4:	b480      	push	{r7}
 8010df6:	b085      	sub	sp, #20
 8010df8:	af00      	add	r7, sp, #0
 8010dfa:	6078      	str	r0, [r7, #4]
  uint32_t stream_number = (((uint32_t)hdma->Instance & 0xFFU) - 16U) / 24U;
 8010dfc:	687b      	ldr	r3, [r7, #4]
 8010dfe:	681b      	ldr	r3, [r3, #0]
 8010e00:	b2db      	uxtb	r3, r3
 8010e02:	3b10      	subs	r3, #16
 8010e04:	4a14      	ldr	r2, [pc, #80]	@ (8010e58 <DMA_CalcBaseAndBitshift+0x64>)
 8010e06:	fba2 2303 	umull	r2, r3, r2, r3
 8010e0a:	091b      	lsrs	r3, r3, #4
 8010e0c:	60fb      	str	r3, [r7, #12]
  
  /* lookup table for necessary bitshift of flags within status registers */
  static const uint8_t flagBitshiftOffset[8U] = {0U, 6U, 16U, 22U, 0U, 6U, 16U, 22U};
  hdma->StreamIndex = flagBitshiftOffset[stream_number];
 8010e0e:	4a13      	ldr	r2, [pc, #76]	@ (8010e5c <DMA_CalcBaseAndBitshift+0x68>)
 8010e10:	68fb      	ldr	r3, [r7, #12]
 8010e12:	4413      	add	r3, r2
 8010e14:	781b      	ldrb	r3, [r3, #0]
 8010e16:	461a      	mov	r2, r3
 8010e18:	687b      	ldr	r3, [r7, #4]
 8010e1a:	65da      	str	r2, [r3, #92]	@ 0x5c
  
  if (stream_number > 3U)
 8010e1c:	68fb      	ldr	r3, [r7, #12]
 8010e1e:	2b03      	cmp	r3, #3
 8010e20:	d909      	bls.n	8010e36 <DMA_CalcBaseAndBitshift+0x42>
  {
    /* return pointer to HISR and HIFCR */
    hdma->StreamBaseAddress = (((uint32_t)hdma->Instance & (uint32_t)(~0x3FFU)) + 4U);
 8010e22:	687b      	ldr	r3, [r7, #4]
 8010e24:	681b      	ldr	r3, [r3, #0]
 8010e26:	f423 737f 	bic.w	r3, r3, #1020	@ 0x3fc
 8010e2a:	f023 0303 	bic.w	r3, r3, #3
 8010e2e:	1d1a      	adds	r2, r3, #4
 8010e30:	687b      	ldr	r3, [r7, #4]
 8010e32:	659a      	str	r2, [r3, #88]	@ 0x58
 8010e34:	e007      	b.n	8010e46 <DMA_CalcBaseAndBitshift+0x52>
  }
  else
  {
    /* return pointer to LISR and LIFCR */
    hdma->StreamBaseAddress = ((uint32_t)hdma->Instance & (uint32_t)(~0x3FFU));
 8010e36:	687b      	ldr	r3, [r7, #4]
 8010e38:	681b      	ldr	r3, [r3, #0]
 8010e3a:	f423 737f 	bic.w	r3, r3, #1020	@ 0x3fc
 8010e3e:	f023 0303 	bic.w	r3, r3, #3
 8010e42:	687a      	ldr	r2, [r7, #4]
 8010e44:	6593      	str	r3, [r2, #88]	@ 0x58
  }
  
  return hdma->StreamBaseAddress;
 8010e46:	687b      	ldr	r3, [r7, #4]
 8010e48:	6d9b      	ldr	r3, [r3, #88]	@ 0x58
}
 8010e4a:	4618      	mov	r0, r3
 8010e4c:	3714      	adds	r7, #20
 8010e4e:	46bd      	mov	sp, r7
 8010e50:	f85d 7b04 	ldr.w	r7, [sp], #4
 8010e54:	4770      	bx	lr
 8010e56:	bf00      	nop
 8010e58:	aaaaaaab 	.word	0xaaaaaaab
 8010e5c:	080154d8 	.word	0x080154d8

08010e60 <DMA_CheckFifoParam>:
  * @param  hdma       pointer to a DMA_HandleTypeDef structure that contains
  *                     the configuration information for the specified DMA Stream. 
  * @retval HAL status
  */
static HAL_StatusTypeDef DMA_CheckFifoParam(DMA_HandleTypeDef *hdma)
{
 8010e60:	b480      	push	{r7}
 8010e62:	b085      	sub	sp, #20
 8010e64:	af00      	add	r7, sp, #0
 8010e66:	6078      	str	r0, [r7, #4]
  HAL_StatusTypeDef status = HAL_OK;
 8010e68:	2300      	movs	r3, #0
 8010e6a:	73fb      	strb	r3, [r7, #15]
  uint32_t tmp = hdma->Init.FIFOThreshold;
 8010e6c:	687b      	ldr	r3, [r7, #4]
 8010e6e:	6a9b      	ldr	r3, [r3, #40]	@ 0x28
 8010e70:	60bb      	str	r3, [r7, #8]
  
  /* Memory Data size equal to Byte */
  if(hdma->Init.MemDataAlignment == DMA_MDATAALIGN_BYTE)
 8010e72:	687b      	ldr	r3, [r7, #4]
 8010e74:	699b      	ldr	r3, [r3, #24]
 8010e76:	2b00      	cmp	r3, #0
 8010e78:	d11f      	bne.n	8010eba <DMA_CheckFifoParam+0x5a>
  {
    switch (tmp)
 8010e7a:	68bb      	ldr	r3, [r7, #8]
 8010e7c:	2b03      	cmp	r3, #3
 8010e7e:	d856      	bhi.n	8010f2e <DMA_CheckFifoParam+0xce>
 8010e80:	a201      	add	r2, pc, #4	@ (adr r2, 8010e88 <DMA_CheckFifoParam+0x28>)
 8010e82:	f852 f023 	ldr.w	pc, [r2, r3, lsl #2]
 8010e86:	bf00      	nop
 8010e88:	08010e99 	.word	0x08010e99
 8010e8c:	08010eab 	.word	0x08010eab
 8010e90:	08010e99 	.word	0x08010e99
 8010e94:	08010f2f 	.word	0x08010f2f
    {
    case DMA_FIFO_THRESHOLD_1QUARTERFULL:
    case DMA_FIFO_THRESHOLD_3QUARTERSFULL:
      if ((hdma->Init.MemBurst & DMA_SxCR_MBURST_1) == DMA_SxCR_MBURST_1)
 8010e98:	687b      	ldr	r3, [r7, #4]
 8010e9a:	6adb      	ldr	r3, [r3, #44]	@ 0x2c
 8010e9c:	f003 7380 	and.w	r3, r3, #16777216	@ 0x1000000
 8010ea0:	2b00      	cmp	r3, #0
 8010ea2:	d046      	beq.n	8010f32 <DMA_CheckFifoParam+0xd2>
      {
        status = HAL_ERROR;
 8010ea4:	2301      	movs	r3, #1
 8010ea6:	73fb      	strb	r3, [r7, #15]
      }
      break;
 8010ea8:	e043      	b.n	8010f32 <DMA_CheckFifoParam+0xd2>
    case DMA_FIFO_THRESHOLD_HALFFULL:
      if (hdma->Init.MemBurst == DMA_MBURST_INC16)
 8010eaa:	687b      	ldr	r3, [r7, #4]
 8010eac:	6adb      	ldr	r3, [r3, #44]	@ 0x2c
 8010eae:	f1b3 7fc0 	cmp.w	r3, #25165824	@ 0x1800000
 8010eb2:	d140      	bne.n	8010f36 <DMA_CheckFifoParam+0xd6>
      {
        status = HAL_ERROR;
 8010eb4:	2301      	movs	r3, #1
 8010eb6:	73fb      	strb	r3, [r7, #15]
      }
      break;
 8010eb8:	e03d      	b.n	8010f36 <DMA_CheckFifoParam+0xd6>
      break;
    }
  }
  
  /* Memory Data size equal to Half-Word */
  else if (hdma->Init.MemDataAlignment == DMA_MDATAALIGN_HALFWORD)
 8010eba:	687b      	ldr	r3, [r7, #4]
 8010ebc:	699b      	ldr	r3, [r3, #24]
 8010ebe:	f5b3 5f00 	cmp.w	r3, #8192	@ 0x2000
 8010ec2:	d121      	bne.n	8010f08 <DMA_CheckFifoParam+0xa8>
  {
    switch (tmp)
 8010ec4:	68bb      	ldr	r3, [r7, #8]
 8010ec6:	2b03      	cmp	r3, #3
 8010ec8:	d837      	bhi.n	8010f3a <DMA_CheckFifoParam+0xda>
 8010eca:	a201      	add	r2, pc, #4	@ (adr r2, 8010ed0 <DMA_CheckFifoParam+0x70>)
 8010ecc:	f852 f023 	ldr.w	pc, [r2, r3, lsl #2]
 8010ed0:	08010ee1 	.word	0x08010ee1
 8010ed4:	08010ee7 	.word	0x08010ee7
 8010ed8:	08010ee1 	.word	0x08010ee1
 8010edc:	08010ef9 	.word	0x08010ef9
    {
    case DMA_FIFO_THRESHOLD_1QUARTERFULL:
    case DMA_FIFO_THRESHOLD_3QUARTERSFULL:
      status = HAL_ERROR;
 8010ee0:	2301      	movs	r3, #1
 8010ee2:	73fb      	strb	r3, [r7, #15]
      break;
 8010ee4:	e030      	b.n	8010f48 <DMA_CheckFifoParam+0xe8>
    case DMA_FIFO_THRESHOLD_HALFFULL:
      if ((hdma->Init.MemBurst & DMA_SxCR_MBURST_1) == DMA_SxCR_MBURST_1)
 8010ee6:	687b      	ldr	r3, [r7, #4]
 8010ee8:	6adb      	ldr	r3, [r3, #44]	@ 0x2c
 8010eea:	f003 7380 	and.w	r3, r3, #16777216	@ 0x1000000
 8010eee:	2b00      	cmp	r3, #0
 8010ef0:	d025      	beq.n	8010f3e <DMA_CheckFifoParam+0xde>
      {
        status = HAL_ERROR;
 8010ef2:	2301      	movs	r3, #1
 8010ef4:	73fb      	strb	r3, [r7, #15]
      }
      break;
 8010ef6:	e022      	b.n	8010f3e <DMA_CheckFifoParam+0xde>
    case DMA_FIFO_THRESHOLD_FULL:
      if (hdma->Init.MemBurst == DMA_MBURST_INC16)
 8010ef8:	687b      	ldr	r3, [r7, #4]
 8010efa:	6adb      	ldr	r3, [r3, #44]	@ 0x2c
 8010efc:	f1b3 7fc0 	cmp.w	r3, #25165824	@ 0x1800000
 8010f00:	d11f      	bne.n	8010f42 <DMA_CheckFifoParam+0xe2>
      {
        status = HAL_ERROR;
 8010f02:	2301      	movs	r3, #1
 8010f04:	73fb      	strb	r3, [r7, #15]
      }
      break;   
 8010f06:	e01c      	b.n	8010f42 <DMA_CheckFifoParam+0xe2>
  }
  
  /* Memory Data size equal to Word */
  else
  {
    switch (tmp)
 8010f08:	68bb      	ldr	r3, [r7, #8]
 8010f0a:	2b02      	cmp	r3, #2
 8010f0c:	d903      	bls.n	8010f16 <DMA_CheckFifoParam+0xb6>
 8010f0e:	68bb      	ldr	r3, [r7, #8]
 8010f10:	2b03      	cmp	r3, #3
 8010f12:	d003      	beq.n	8010f1c <DMA_CheckFifoParam+0xbc>
      {
        status = HAL_ERROR;
      }
      break;
    default:
      break;
 8010f14:	e018      	b.n	8010f48 <DMA_CheckFifoParam+0xe8>
      status = HAL_ERROR;
 8010f16:	2301      	movs	r3, #1
 8010f18:	73fb      	strb	r3, [r7, #15]
      break;
 8010f1a:	e015      	b.n	8010f48 <DMA_CheckFifoParam+0xe8>
      if ((hdma->Init.MemBurst & DMA_SxCR_MBURST_1) == DMA_SxCR_MBURST_1)
 8010f1c:	687b      	ldr	r3, [r7, #4]
 8010f1e:	6adb      	ldr	r3, [r3, #44]	@ 0x2c
 8010f20:	f003 7380 	and.w	r3, r3, #16777216	@ 0x1000000
 8010f24:	2b00      	cmp	r3, #0
 8010f26:	d00e      	beq.n	8010f46 <DMA_CheckFifoParam+0xe6>
        status = HAL_ERROR;
 8010f28:	2301      	movs	r3, #1
 8010f2a:	73fb      	strb	r3, [r7, #15]
      break;
 8010f2c:	e00b      	b.n	8010f46 <DMA_CheckFifoParam+0xe6>
      break;
 8010f2e:	bf00      	nop
 8010f30:	e00a      	b.n	8010f48 <DMA_CheckFifoParam+0xe8>
      break;
 8010f32:	bf00      	nop
 8010f34:	e008      	b.n	8010f48 <DMA_CheckFifoParam+0xe8>
      break;
 8010f36:	bf00      	nop
 8010f38:	e006      	b.n	8010f48 <DMA_CheckFifoParam+0xe8>
      break;
 8010f3a:	bf00      	nop
 8010f3c:	e004      	b.n	8010f48 <DMA_CheckFifoParam+0xe8>
      break;
 8010f3e:	bf00      	nop
 8010f40:	e002      	b.n	8010f48 <DMA_CheckFifoParam+0xe8>
      break;   
 8010f42:	bf00      	nop
 8010f44:	e000      	b.n	8010f48 <DMA_CheckFifoParam+0xe8>
      break;
 8010f46:	bf00      	nop
    }
  } 
  
  return status; 
 8010f48:	7bfb      	ldrb	r3, [r7, #15]
}
 8010f4a:	4618      	mov	r0, r3
 8010f4c:	3714      	adds	r7, #20
 8010f4e:	46bd      	mov	sp, r7
 8010f50:	f85d 7b04 	ldr.w	r7, [sp], #4
 8010f54:	4770      	bx	lr
 8010f56:	bf00      	nop

08010f58 <HAL_FLASH_Program>:
  * @param  Data specifies the data to be programmed
  *
  * @retval HAL_StatusTypeDef HAL Status
  */
HAL_StatusTypeDef HAL_FLASH_Program(uint32_t TypeProgram, uint32_t Address, uint64_t Data)
{
 8010f58:	b580      	push	{r7, lr}
 8010f5a:	b086      	sub	sp, #24
 8010f5c:	af00      	add	r7, sp, #0
 8010f5e:	60f8      	str	r0, [r7, #12]
 8010f60:	60b9      	str	r1, [r7, #8]
 8010f62:	e9c7 2300 	strd	r2, r3, [r7]
  HAL_StatusTypeDef status;

  /* Process Locked */
  __HAL_LOCK(&pFlash);
 8010f66:	4b23      	ldr	r3, [pc, #140]	@ (8010ff4 <HAL_FLASH_Program+0x9c>)
 8010f68:	7e1b      	ldrb	r3, [r3, #24]
 8010f6a:	2b01      	cmp	r3, #1
 8010f6c:	d101      	bne.n	8010f72 <HAL_FLASH_Program+0x1a>
 8010f6e:	2302      	movs	r3, #2
 8010f70:	e03b      	b.n	8010fea <HAL_FLASH_Program+0x92>
 8010f72:	4b20      	ldr	r3, [pc, #128]	@ (8010ff4 <HAL_FLASH_Program+0x9c>)
 8010f74:	2201      	movs	r2, #1
 8010f76:	761a      	strb	r2, [r3, #24]

  /* Check the parameters */
  assert_param(IS_FLASH_TYPEPROGRAM(TypeProgram));

  /* Wait for last operation to be completed */
  status = FLASH_WaitForLastOperation((uint32_t)FLASH_TIMEOUT_VALUE);
 8010f78:	f24c 3050 	movw	r0, #50000	@ 0xc350
 8010f7c:	f000 f870 	bl	8011060 <FLASH_WaitForLastOperation>
 8010f80:	4603      	mov	r3, r0
 8010f82:	75fb      	strb	r3, [r7, #23]

  if (status == HAL_OK)
 8010f84:	7dfb      	ldrb	r3, [r7, #23]
 8010f86:	2b00      	cmp	r3, #0
 8010f88:	d12b      	bne.n	8010fe2 <HAL_FLASH_Program+0x8a>
  {
    if (TypeProgram == FLASH_TYPEPROGRAM_BYTE)
 8010f8a:	68fb      	ldr	r3, [r7, #12]
 8010f8c:	2b00      	cmp	r3, #0
 8010f8e:	d105      	bne.n	8010f9c <HAL_FLASH_Program+0x44>
    {
      /*Program byte (8-bit) at a specified address.*/
      FLASH_Program_Byte(Address, (uint8_t) Data);
 8010f90:	783b      	ldrb	r3, [r7, #0]
 8010f92:	4619      	mov	r1, r3
 8010f94:	68b8      	ldr	r0, [r7, #8]
 8010f96:	f000 f91b 	bl	80111d0 <FLASH_Program_Byte>
 8010f9a:	e016      	b.n	8010fca <HAL_FLASH_Program+0x72>
    }
    else if (TypeProgram == FLASH_TYPEPROGRAM_HALFWORD)
 8010f9c:	68fb      	ldr	r3, [r7, #12]
 8010f9e:	2b01      	cmp	r3, #1
 8010fa0:	d105      	bne.n	8010fae <HAL_FLASH_Program+0x56>
    {
      /*Program halfword (16-bit) at a specified address.*/
      FLASH_Program_HalfWord(Address, (uint16_t) Data);
 8010fa2:	883b      	ldrh	r3, [r7, #0]
 8010fa4:	4619      	mov	r1, r3
 8010fa6:	68b8      	ldr	r0, [r7, #8]
 8010fa8:	f000 f8ee 	bl	8011188 <FLASH_Program_HalfWord>
 8010fac:	e00d      	b.n	8010fca <HAL_FLASH_Program+0x72>
    }
    else if (TypeProgram == FLASH_TYPEPROGRAM_WORD)
 8010fae:	68fb      	ldr	r3, [r7, #12]
 8010fb0:	2b02      	cmp	r3, #2
 8010fb2:	d105      	bne.n	8010fc0 <HAL_FLASH_Program+0x68>
    {
      /*Program word (32-bit) at a specified address.*/
      FLASH_Program_Word(Address, (uint32_t) Data);
 8010fb4:	683b      	ldr	r3, [r7, #0]
 8010fb6:	4619      	mov	r1, r3
 8010fb8:	68b8      	ldr	r0, [r7, #8]
 8010fba:	f000 f8c3 	bl	8011144 <FLASH_Program_Word>
 8010fbe:	e004      	b.n	8010fca <HAL_FLASH_Program+0x72>
    }
    else
    {
      /*Program double word (64-bit) at a specified address.*/
      FLASH_Program_DoubleWord(Address, Data);
 8010fc0:	e9d7 2300 	ldrd	r2, r3, [r7]
 8010fc4:	68b8      	ldr	r0, [r7, #8]
 8010fc6:	f000 f88b 	bl	80110e0 <FLASH_Program_DoubleWord>
    }

    /* Wait for last operation to be completed */
    status = FLASH_WaitForLastOperation((uint32_t)FLASH_TIMEOUT_VALUE);
 8010fca:	f24c 3050 	movw	r0, #50000	@ 0xc350
 8010fce:	f000 f847 	bl	8011060 <FLASH_WaitForLastOperation>
 8010fd2:	4603      	mov	r3, r0
 8010fd4:	75fb      	strb	r3, [r7, #23]

    /* If the program operation is completed, disable the PG Bit */
    FLASH->CR &= (~FLASH_CR_PG);
 8010fd6:	4b08      	ldr	r3, [pc, #32]	@ (8010ff8 <HAL_FLASH_Program+0xa0>)
 8010fd8:	691b      	ldr	r3, [r3, #16]
 8010fda:	4a07      	ldr	r2, [pc, #28]	@ (8010ff8 <HAL_FLASH_Program+0xa0>)
 8010fdc:	f023 0301 	bic.w	r3, r3, #1
 8010fe0:	6113      	str	r3, [r2, #16]
  }

  /* Process Unlocked */
  __HAL_UNLOCK(&pFlash);
 8010fe2:	4b04      	ldr	r3, [pc, #16]	@ (8010ff4 <HAL_FLASH_Program+0x9c>)
 8010fe4:	2200      	movs	r2, #0
 8010fe6:	761a      	strb	r2, [r3, #24]

  return status;
 8010fe8:	7dfb      	ldrb	r3, [r7, #23]
}
 8010fea:	4618      	mov	r0, r3
 8010fec:	3718      	adds	r7, #24
 8010fee:	46bd      	mov	sp, r7
 8010ff0:	bd80      	pop	{r7, pc}
 8010ff2:	bf00      	nop
 8010ff4:	20000b50 	.word	0x20000b50
 8010ff8:	40023c00 	.word	0x40023c00

08010ffc <HAL_FLASH_Unlock>:
/**
  * @brief  Unlock the FLASH control register access
  * @retval HAL Status
  */
HAL_StatusTypeDef HAL_FLASH_Unlock(void)
{
 8010ffc:	b480      	push	{r7}
 8010ffe:	b083      	sub	sp, #12
 8011000:	af00      	add	r7, sp, #0
  HAL_StatusTypeDef status = HAL_OK;
 8011002:	2300      	movs	r3, #0
 8011004:	71fb      	strb	r3, [r7, #7]

  if (READ_BIT(FLASH->CR, FLASH_CR_LOCK) != RESET)
 8011006:	4b0b      	ldr	r3, [pc, #44]	@ (8011034 <HAL_FLASH_Unlock+0x38>)
 8011008:	691b      	ldr	r3, [r3, #16]
 801100a:	2b00      	cmp	r3, #0
 801100c:	da0b      	bge.n	8011026 <HAL_FLASH_Unlock+0x2a>
  {
    /* Authorize the FLASH Registers access */
    WRITE_REG(FLASH->KEYR, FLASH_KEY1);
 801100e:	4b09      	ldr	r3, [pc, #36]	@ (8011034 <HAL_FLASH_Unlock+0x38>)
 8011010:	4a09      	ldr	r2, [pc, #36]	@ (8011038 <HAL_FLASH_Unlock+0x3c>)
 8011012:	605a      	str	r2, [r3, #4]
    WRITE_REG(FLASH->KEYR, FLASH_KEY2);
 8011014:	4b07      	ldr	r3, [pc, #28]	@ (8011034 <HAL_FLASH_Unlock+0x38>)
 8011016:	4a09      	ldr	r2, [pc, #36]	@ (801103c <HAL_FLASH_Unlock+0x40>)
 8011018:	605a      	str	r2, [r3, #4]

    /* Verify Flash is unlocked */
    if (READ_BIT(FLASH->CR, FLASH_CR_LOCK) != RESET)
 801101a:	4b06      	ldr	r3, [pc, #24]	@ (8011034 <HAL_FLASH_Unlock+0x38>)
 801101c:	691b      	ldr	r3, [r3, #16]
 801101e:	2b00      	cmp	r3, #0
 8011020:	da01      	bge.n	8011026 <HAL_FLASH_Unlock+0x2a>
    {
      status = HAL_ERROR;
 8011022:	2301      	movs	r3, #1
 8011024:	71fb      	strb	r3, [r7, #7]
    }
  }

  return status;
 8011026:	79fb      	ldrb	r3, [r7, #7]
}
 8011028:	4618      	mov	r0, r3
 801102a:	370c      	adds	r7, #12
 801102c:	46bd      	mov	sp, r7
 801102e:	f85d 7b04 	ldr.w	r7, [sp], #4
 8011032:	4770      	bx	lr
 8011034:	40023c00 	.word	0x40023c00
 8011038:	45670123 	.word	0x45670123
 801103c:	cdef89ab 	.word	0xcdef89ab

08011040 <HAL_FLASH_Lock>:
/**
  * @brief  Locks the FLASH control register access
  * @retval HAL Status
  */
HAL_StatusTypeDef HAL_FLASH_Lock(void)
{
 8011040:	b480      	push	{r7}
 8011042:	af00      	add	r7, sp, #0
  /* Set the LOCK Bit to lock the FLASH Registers access */
  FLASH->CR |= FLASH_CR_LOCK;
 8011044:	4b05      	ldr	r3, [pc, #20]	@ (801105c <HAL_FLASH_Lock+0x1c>)
 8011046:	691b      	ldr	r3, [r3, #16]
 8011048:	4a04      	ldr	r2, [pc, #16]	@ (801105c <HAL_FLASH_Lock+0x1c>)
 801104a:	f043 4300 	orr.w	r3, r3, #2147483648	@ 0x80000000
 801104e:	6113      	str	r3, [r2, #16]

  return HAL_OK;
 8011050:	2300      	movs	r3, #0
}
 8011052:	4618      	mov	r0, r3
 8011054:	46bd      	mov	sp, r7
 8011056:	f85d 7b04 	ldr.w	r7, [sp], #4
 801105a:	4770      	bx	lr
 801105c:	40023c00 	.word	0x40023c00

08011060 <FLASH_WaitForLastOperation>:
  * @brief  Wait for a FLASH operation to complete.
  * @param  Timeout maximum flash operationtimeout
  * @retval HAL Status
  */
HAL_StatusTypeDef FLASH_WaitForLastOperation(uint32_t Timeout)
{
 8011060:	b580      	push	{r7, lr}
 8011062:	b084      	sub	sp, #16
 8011064:	af00      	add	r7, sp, #0
 8011066:	6078      	str	r0, [r7, #4]
  uint32_t tickstart = 0U;
 8011068:	2300      	movs	r3, #0
 801106a:	60fb      	str	r3, [r7, #12]

  /* Clear Error Code */
  pFlash.ErrorCode = HAL_FLASH_ERROR_NONE;
 801106c:	4b1a      	ldr	r3, [pc, #104]	@ (80110d8 <FLASH_WaitForLastOperation+0x78>)
 801106e:	2200      	movs	r2, #0
 8011070:	61da      	str	r2, [r3, #28]

  /* Wait for the FLASH operation to complete by polling on BUSY flag to be reset.
     Even if the FLASH operation fails, the BUSY flag will be reset and an error
     flag will be set */
  /* Get tick */
  tickstart = HAL_GetTick();
 8011072:	f7fe fd97 	bl	800fba4 <HAL_GetTick>
 8011076:	60f8      	str	r0, [r7, #12]

  while (__HAL_FLASH_GET_FLAG(FLASH_FLAG_BSY) != RESET)
 8011078:	e010      	b.n	801109c <FLASH_WaitForLastOperation+0x3c>
  {
    if (Timeout != HAL_MAX_DELAY)
 801107a:	687b      	ldr	r3, [r7, #4]
 801107c:	f1b3 3fff 	cmp.w	r3, #4294967295
 8011080:	d00c      	beq.n	801109c <FLASH_WaitForLastOperation+0x3c>
    {
      if ((Timeout == 0U) || ((HAL_GetTick() - tickstart) > Timeout))
 8011082:	687b      	ldr	r3, [r7, #4]
 8011084:	2b00      	cmp	r3, #0
 8011086:	d007      	beq.n	8011098 <FLASH_WaitForLastOperation+0x38>
 8011088:	f7fe fd8c 	bl	800fba4 <HAL_GetTick>
 801108c:	4602      	mov	r2, r0
 801108e:	68fb      	ldr	r3, [r7, #12]
 8011090:	1ad3      	subs	r3, r2, r3
 8011092:	687a      	ldr	r2, [r7, #4]
 8011094:	429a      	cmp	r2, r3
 8011096:	d201      	bcs.n	801109c <FLASH_WaitForLastOperation+0x3c>
      {
        return HAL_TIMEOUT;
 8011098:	2303      	movs	r3, #3
 801109a:	e019      	b.n	80110d0 <FLASH_WaitForLastOperation+0x70>
  while (__HAL_FLASH_GET_FLAG(FLASH_FLAG_BSY) != RESET)
 801109c:	4b0f      	ldr	r3, [pc, #60]	@ (80110dc <FLASH_WaitForLastOperation+0x7c>)
 801109e:	68db      	ldr	r3, [r3, #12]
 80110a0:	f403 3380 	and.w	r3, r3, #65536	@ 0x10000
 80110a4:	2b00      	cmp	r3, #0
 80110a6:	d1e8      	bne.n	801107a <FLASH_WaitForLastOperation+0x1a>
      }
    }
  }

  /* Check FLASH End of Operation flag  */
  if (__HAL_FLASH_GET_FLAG(FLASH_FLAG_EOP) != RESET)
 80110a8:	4b0c      	ldr	r3, [pc, #48]	@ (80110dc <FLASH_WaitForLastOperation+0x7c>)
 80110aa:	68db      	ldr	r3, [r3, #12]
 80110ac:	f003 0301 	and.w	r3, r3, #1
 80110b0:	2b00      	cmp	r3, #0
 80110b2:	d002      	beq.n	80110ba <FLASH_WaitForLastOperation+0x5a>
  {
    /* Clear FLASH End of Operation pending bit */
    __HAL_FLASH_CLEAR_FLAG(FLASH_FLAG_EOP);
 80110b4:	4b09      	ldr	r3, [pc, #36]	@ (80110dc <FLASH_WaitForLastOperation+0x7c>)
 80110b6:	2201      	movs	r2, #1
 80110b8:	60da      	str	r2, [r3, #12]
  }
#if defined(FLASH_SR_RDERR)
  if (__HAL_FLASH_GET_FLAG((FLASH_FLAG_OPERR | FLASH_FLAG_WRPERR | FLASH_FLAG_PGAERR | \
 80110ba:	4b08      	ldr	r3, [pc, #32]	@ (80110dc <FLASH_WaitForLastOperation+0x7c>)
 80110bc:	68db      	ldr	r3, [r3, #12]
 80110be:	f403 73f9 	and.w	r3, r3, #498	@ 0x1f2
 80110c2:	2b00      	cmp	r3, #0
 80110c4:	d003      	beq.n	80110ce <FLASH_WaitForLastOperation+0x6e>
  if (__HAL_FLASH_GET_FLAG((FLASH_FLAG_OPERR | FLASH_FLAG_WRPERR | FLASH_FLAG_PGAERR | \
                            FLASH_FLAG_PGPERR | FLASH_FLAG_PGSERR)) != RESET)
#endif /* FLASH_SR_RDERR */
  {
    /*Save the error code*/
    FLASH_SetErrorCode();
 80110c6:	f000 f8a5 	bl	8011214 <FLASH_SetErrorCode>
    return HAL_ERROR;
 80110ca:	2301      	movs	r3, #1
 80110cc:	e000      	b.n	80110d0 <FLASH_WaitForLastOperation+0x70>
  }

  /* If there is no error flag set */
  return HAL_OK;
 80110ce:	2300      	movs	r3, #0

}
 80110d0:	4618      	mov	r0, r3
 80110d2:	3710      	adds	r7, #16
 80110d4:	46bd      	mov	sp, r7
 80110d6:	bd80      	pop	{r7, pc}
 80110d8:	20000b50 	.word	0x20000b50
 80110dc:	40023c00 	.word	0x40023c00

080110e0 <FLASH_Program_DoubleWord>:
  * @param  Address specifies the address to be programmed.
  * @param  Data specifies the data to be programmed.
  * @retval None
  */
static void FLASH_Program_DoubleWord(uint32_t Address, uint64_t Data)
{
 80110e0:	b480      	push	{r7}
 80110e2:	b085      	sub	sp, #20
 80110e4:	af00      	add	r7, sp, #0
 80110e6:	60f8      	str	r0, [r7, #12]
 80110e8:	e9c7 2300 	strd	r2, r3, [r7]
  /* Check the parameters */
  assert_param(IS_FLASH_ADDRESS(Address));

  /* If the previous operation is completed, proceed to program the new data */
  CLEAR_BIT(FLASH->CR, FLASH_CR_PSIZE);
 80110ec:	4b14      	ldr	r3, [pc, #80]	@ (8011140 <FLASH_Program_DoubleWord+0x60>)
 80110ee:	691b      	ldr	r3, [r3, #16]
 80110f0:	4a13      	ldr	r2, [pc, #76]	@ (8011140 <FLASH_Program_DoubleWord+0x60>)
 80110f2:	f423 7340 	bic.w	r3, r3, #768	@ 0x300
 80110f6:	6113      	str	r3, [r2, #16]
  FLASH->CR |= FLASH_PSIZE_DOUBLE_WORD;
 80110f8:	4b11      	ldr	r3, [pc, #68]	@ (8011140 <FLASH_Program_DoubleWord+0x60>)
 80110fa:	691b      	ldr	r3, [r3, #16]
 80110fc:	4a10      	ldr	r2, [pc, #64]	@ (8011140 <FLASH_Program_DoubleWord+0x60>)
 80110fe:	f443 7340 	orr.w	r3, r3, #768	@ 0x300
 8011102:	6113      	str	r3, [r2, #16]
  FLASH->CR |= FLASH_CR_PG;
 8011104:	4b0e      	ldr	r3, [pc, #56]	@ (8011140 <FLASH_Program_DoubleWord+0x60>)
 8011106:	691b      	ldr	r3, [r3, #16]
 8011108:	4a0d      	ldr	r2, [pc, #52]	@ (8011140 <FLASH_Program_DoubleWord+0x60>)
 801110a:	f043 0301 	orr.w	r3, r3, #1
 801110e:	6113      	str	r3, [r2, #16]

  /* Program first word */
  *(__IO uint32_t *)Address = (uint32_t)Data;
 8011110:	68fb      	ldr	r3, [r7, #12]
 8011112:	683a      	ldr	r2, [r7, #0]
 8011114:	601a      	str	r2, [r3, #0]
  __ASM volatile ("isb 0xF":::"memory");
 8011116:	f3bf 8f6f 	isb	sy
}
 801111a:	bf00      	nop
  /* Barrier to ensure programming is performed in 2 steps, in right order
    (independently of compiler optimization behavior) */
  __ISB();

  /* Program second word */
  *(__IO uint32_t *)(Address + 4) = (uint32_t)(Data >> 32);
 801111c:	e9d7 0100 	ldrd	r0, r1, [r7]
 8011120:	f04f 0200 	mov.w	r2, #0
 8011124:	f04f 0300 	mov.w	r3, #0
 8011128:	000a      	movs	r2, r1
 801112a:	2300      	movs	r3, #0
 801112c:	68f9      	ldr	r1, [r7, #12]
 801112e:	3104      	adds	r1, #4
 8011130:	4613      	mov	r3, r2
 8011132:	600b      	str	r3, [r1, #0]
}
 8011134:	bf00      	nop
 8011136:	3714      	adds	r7, #20
 8011138:	46bd      	mov	sp, r7
 801113a:	f85d 7b04 	ldr.w	r7, [sp], #4
 801113e:	4770      	bx	lr
 8011140:	40023c00 	.word	0x40023c00

08011144 <FLASH_Program_Word>:
  * @param  Address specifies the address to be programmed.
  * @param  Data specifies the data to be programmed.
  * @retval None
  */
static void FLASH_Program_Word(uint32_t Address, uint32_t Data)
{
 8011144:	b480      	push	{r7}
 8011146:	b083      	sub	sp, #12
 8011148:	af00      	add	r7, sp, #0
 801114a:	6078      	str	r0, [r7, #4]
 801114c:	6039      	str	r1, [r7, #0]
  /* Check the parameters */
  assert_param(IS_FLASH_ADDRESS(Address));

  /* If the previous operation is completed, proceed to program the new data */
  CLEAR_BIT(FLASH->CR, FLASH_CR_PSIZE);
 801114e:	4b0d      	ldr	r3, [pc, #52]	@ (8011184 <FLASH_Program_Word+0x40>)
 8011150:	691b      	ldr	r3, [r3, #16]
 8011152:	4a0c      	ldr	r2, [pc, #48]	@ (8011184 <FLASH_Program_Word+0x40>)
 8011154:	f423 7340 	bic.w	r3, r3, #768	@ 0x300
 8011158:	6113      	str	r3, [r2, #16]
  FLASH->CR |= FLASH_PSIZE_WORD;
 801115a:	4b0a      	ldr	r3, [pc, #40]	@ (8011184 <FLASH_Program_Word+0x40>)
 801115c:	691b      	ldr	r3, [r3, #16]
 801115e:	4a09      	ldr	r2, [pc, #36]	@ (8011184 <FLASH_Program_Word+0x40>)
 8011160:	f443 7300 	orr.w	r3, r3, #512	@ 0x200
 8011164:	6113      	str	r3, [r2, #16]
  FLASH->CR |= FLASH_CR_PG;
 8011166:	4b07      	ldr	r3, [pc, #28]	@ (8011184 <FLASH_Program_Word+0x40>)
 8011168:	691b      	ldr	r3, [r3, #16]
 801116a:	4a06      	ldr	r2, [pc, #24]	@ (8011184 <FLASH_Program_Word+0x40>)
 801116c:	f043 0301 	orr.w	r3, r3, #1
 8011170:	6113      	str	r3, [r2, #16]

  *(__IO uint32_t *)Address = Data;
 8011172:	687b      	ldr	r3, [r7, #4]
 8011174:	683a      	ldr	r2, [r7, #0]
 8011176:	601a      	str	r2, [r3, #0]
}
 8011178:	bf00      	nop
 801117a:	370c      	adds	r7, #12
 801117c:	46bd      	mov	sp, r7
 801117e:	f85d 7b04 	ldr.w	r7, [sp], #4
 8011182:	4770      	bx	lr
 8011184:	40023c00 	.word	0x40023c00

08011188 <FLASH_Program_HalfWord>:
  * @param  Address specifies the address to be programmed.
  * @param  Data specifies the data to be programmed.
  * @retval None
  */
static void FLASH_Program_HalfWord(uint32_t Address, uint16_t Data)
{
 8011188:	b480      	push	{r7}
 801118a:	b083      	sub	sp, #12
 801118c:	af00      	add	r7, sp, #0
 801118e:	6078      	str	r0, [r7, #4]
 8011190:	460b      	mov	r3, r1
 8011192:	807b      	strh	r3, [r7, #2]
  /* Check the parameters */
  assert_param(IS_FLASH_ADDRESS(Address));

  /* If the previous operation is completed, proceed to program the new data */
  CLEAR_BIT(FLASH->CR, FLASH_CR_PSIZE);
 8011194:	4b0d      	ldr	r3, [pc, #52]	@ (80111cc <FLASH_Program_HalfWord+0x44>)
 8011196:	691b      	ldr	r3, [r3, #16]
 8011198:	4a0c      	ldr	r2, [pc, #48]	@ (80111cc <FLASH_Program_HalfWord+0x44>)
 801119a:	f423 7340 	bic.w	r3, r3, #768	@ 0x300
 801119e:	6113      	str	r3, [r2, #16]
  FLASH->CR |= FLASH_PSIZE_HALF_WORD;
 80111a0:	4b0a      	ldr	r3, [pc, #40]	@ (80111cc <FLASH_Program_HalfWord+0x44>)
 80111a2:	691b      	ldr	r3, [r3, #16]
 80111a4:	4a09      	ldr	r2, [pc, #36]	@ (80111cc <FLASH_Program_HalfWord+0x44>)
 80111a6:	f443 7380 	orr.w	r3, r3, #256	@ 0x100
 80111aa:	6113      	str	r3, [r2, #16]
  FLASH->CR |= FLASH_CR_PG;
 80111ac:	4b07      	ldr	r3, [pc, #28]	@ (80111cc <FLASH_Program_HalfWord+0x44>)
 80111ae:	691b      	ldr	r3, [r3, #16]
 80111b0:	4a06      	ldr	r2, [pc, #24]	@ (80111cc <FLASH_Program_HalfWord+0x44>)
 80111b2:	f043 0301 	orr.w	r3, r3, #1
 80111b6:	6113      	str	r3, [r2, #16]

  *(__IO uint16_t *)Address = Data;
 80111b8:	687b      	ldr	r3, [r7, #4]
 80111ba:	887a      	ldrh	r2, [r7, #2]
 80111bc:	801a      	strh	r2, [r3, #0]
}
 80111be:	bf00      	nop
 80111c0:	370c      	adds	r7, #12
 80111c2:	46bd      	mov	sp, r7
 80111c4:	f85d 7b04 	ldr.w	r7, [sp], #4
 80111c8:	4770      	bx	lr
 80111ca:	bf00      	nop
 80111cc:	40023c00 	.word	0x40023c00

080111d0 <FLASH_Program_Byte>:
  * @param  Address specifies the address to be programmed.
  * @param  Data specifies the data to be programmed.
  * @retval None
  */
static void FLASH_Program_Byte(uint32_t Address, uint8_t Data)
{
 80111d0:	b480      	push	{r7}
 80111d2:	b083      	sub	sp, #12
 80111d4:	af00      	add	r7, sp, #0
 80111d6:	6078      	str	r0, [r7, #4]
 80111d8:	460b      	mov	r3, r1
 80111da:	70fb      	strb	r3, [r7, #3]
  /* Check the parameters */
  assert_param(IS_FLASH_ADDRESS(Address));

  /* If the previous operation is completed, proceed to program the new data */
  CLEAR_BIT(FLASH->CR, FLASH_CR_PSIZE);
 80111dc:	4b0c      	ldr	r3, [pc, #48]	@ (8011210 <FLASH_Program_Byte+0x40>)
 80111de:	691b      	ldr	r3, [r3, #16]
 80111e0:	4a0b      	ldr	r2, [pc, #44]	@ (8011210 <FLASH_Program_Byte+0x40>)
 80111e2:	f423 7340 	bic.w	r3, r3, #768	@ 0x300
 80111e6:	6113      	str	r3, [r2, #16]
  FLASH->CR |= FLASH_PSIZE_BYTE;
 80111e8:	4b09      	ldr	r3, [pc, #36]	@ (8011210 <FLASH_Program_Byte+0x40>)
 80111ea:	4a09      	ldr	r2, [pc, #36]	@ (8011210 <FLASH_Program_Byte+0x40>)
 80111ec:	691b      	ldr	r3, [r3, #16]
 80111ee:	6113      	str	r3, [r2, #16]
  FLASH->CR |= FLASH_CR_PG;
 80111f0:	4b07      	ldr	r3, [pc, #28]	@ (8011210 <FLASH_Program_Byte+0x40>)
 80111f2:	691b      	ldr	r3, [r3, #16]
 80111f4:	4a06      	ldr	r2, [pc, #24]	@ (8011210 <FLASH_Program_Byte+0x40>)
 80111f6:	f043 0301 	orr.w	r3, r3, #1
 80111fa:	6113      	str	r3, [r2, #16]

  *(__IO uint8_t *)Address = Data;
 80111fc:	687b      	ldr	r3, [r7, #4]
 80111fe:	78fa      	ldrb	r2, [r7, #3]
 8011200:	701a      	strb	r2, [r3, #0]
}
 8011202:	bf00      	nop
 8011204:	370c      	adds	r7, #12
 8011206:	46bd      	mov	sp, r7
 8011208:	f85d 7b04 	ldr.w	r7, [sp], #4
 801120c:	4770      	bx	lr
 801120e:	bf00      	nop
 8011210:	40023c00 	.word	0x40023c00

08011214 <FLASH_SetErrorCode>:
/**
  * @brief  Set the specific FLASH error flag.
  * @retval None
  */
static void FLASH_SetErrorCode(void)
{
 8011214:	b480      	push	{r7}
 8011216:	af00      	add	r7, sp, #0
  if (__HAL_FLASH_GET_FLAG(FLASH_FLAG_WRPERR) != RESET)
 8011218:	4b2f      	ldr	r3, [pc, #188]	@ (80112d8 <FLASH_SetErrorCode+0xc4>)
 801121a:	68db      	ldr	r3, [r3, #12]
 801121c:	f003 0310 	and.w	r3, r3, #16
 8011220:	2b00      	cmp	r3, #0
 8011222:	d008      	beq.n	8011236 <FLASH_SetErrorCode+0x22>
  {
    pFlash.ErrorCode |= HAL_FLASH_ERROR_WRP;
 8011224:	4b2d      	ldr	r3, [pc, #180]	@ (80112dc <FLASH_SetErrorCode+0xc8>)
 8011226:	69db      	ldr	r3, [r3, #28]
 8011228:	f043 0310 	orr.w	r3, r3, #16
 801122c:	4a2b      	ldr	r2, [pc, #172]	@ (80112dc <FLASH_SetErrorCode+0xc8>)
 801122e:	61d3      	str	r3, [r2, #28]

    /* Clear FLASH write protection error pending bit */
    __HAL_FLASH_CLEAR_FLAG(FLASH_FLAG_WRPERR);
 8011230:	4b29      	ldr	r3, [pc, #164]	@ (80112d8 <FLASH_SetErrorCode+0xc4>)
 8011232:	2210      	movs	r2, #16
 8011234:	60da      	str	r2, [r3, #12]
  }

  if (__HAL_FLASH_GET_FLAG(FLASH_FLAG_PGAERR) != RESET)
 8011236:	4b28      	ldr	r3, [pc, #160]	@ (80112d8 <FLASH_SetErrorCode+0xc4>)
 8011238:	68db      	ldr	r3, [r3, #12]
 801123a:	f003 0320 	and.w	r3, r3, #32
 801123e:	2b00      	cmp	r3, #0
 8011240:	d008      	beq.n	8011254 <FLASH_SetErrorCode+0x40>
  {
    pFlash.ErrorCode |= HAL_FLASH_ERROR_PGA;
 8011242:	4b26      	ldr	r3, [pc, #152]	@ (80112dc <FLASH_SetErrorCode+0xc8>)
 8011244:	69db      	ldr	r3, [r3, #28]
 8011246:	f043 0308 	orr.w	r3, r3, #8
 801124a:	4a24      	ldr	r2, [pc, #144]	@ (80112dc <FLASH_SetErrorCode+0xc8>)
 801124c:	61d3      	str	r3, [r2, #28]

    /* Clear FLASH Programming alignment error pending bit */
    __HAL_FLASH_CLEAR_FLAG(FLASH_FLAG_PGAERR);
 801124e:	4b22      	ldr	r3, [pc, #136]	@ (80112d8 <FLASH_SetErrorCode+0xc4>)
 8011250:	2220      	movs	r2, #32
 8011252:	60da      	str	r2, [r3, #12]
  }

  if (__HAL_FLASH_GET_FLAG(FLASH_FLAG_PGPERR) != RESET)
 8011254:	4b20      	ldr	r3, [pc, #128]	@ (80112d8 <FLASH_SetErrorCode+0xc4>)
 8011256:	68db      	ldr	r3, [r3, #12]
 8011258:	f003 0340 	and.w	r3, r3, #64	@ 0x40
 801125c:	2b00      	cmp	r3, #0
 801125e:	d008      	beq.n	8011272 <FLASH_SetErrorCode+0x5e>
  {
    pFlash.ErrorCode |= HAL_FLASH_ERROR_PGP;
 8011260:	4b1e      	ldr	r3, [pc, #120]	@ (80112dc <FLASH_SetErrorCode+0xc8>)
 8011262:	69db      	ldr	r3, [r3, #28]
 8011264:	f043 0304 	orr.w	r3, r3, #4
 8011268:	4a1c      	ldr	r2, [pc, #112]	@ (80112dc <FLASH_SetErrorCode+0xc8>)
 801126a:	61d3      	str	r3, [r2, #28]

    /* Clear FLASH Programming parallelism error pending bit */
    __HAL_FLASH_CLEAR_FLAG(FLASH_FLAG_PGPERR);
 801126c:	4b1a      	ldr	r3, [pc, #104]	@ (80112d8 <FLASH_SetErrorCode+0xc4>)
 801126e:	2240      	movs	r2, #64	@ 0x40
 8011270:	60da      	str	r2, [r3, #12]
  }

  if (__HAL_FLASH_GET_FLAG(FLASH_FLAG_PGSERR) != RESET)
 8011272:	4b19      	ldr	r3, [pc, #100]	@ (80112d8 <FLASH_SetErrorCode+0xc4>)
 8011274:	68db      	ldr	r3, [r3, #12]
 8011276:	f003 0380 	and.w	r3, r3, #128	@ 0x80
 801127a:	2b00      	cmp	r3, #0
 801127c:	d008      	beq.n	8011290 <FLASH_SetErrorCode+0x7c>
  {
    pFlash.ErrorCode |= HAL_FLASH_ERROR_PGS;
 801127e:	4b17      	ldr	r3, [pc, #92]	@ (80112dc <FLASH_SetErrorCode+0xc8>)
 8011280:	69db      	ldr	r3, [r3, #28]
 8011282:	f043 0302 	orr.w	r3, r3, #2
 8011286:	4a15      	ldr	r2, [pc, #84]	@ (80112dc <FLASH_SetErrorCode+0xc8>)
 8011288:	61d3      	str	r3, [r2, #28]

    /* Clear FLASH Programming sequence error pending bit */
    __HAL_FLASH_CLEAR_FLAG(FLASH_FLAG_PGSERR);
 801128a:	4b13      	ldr	r3, [pc, #76]	@ (80112d8 <FLASH_SetErrorCode+0xc4>)
 801128c:	2280      	movs	r2, #128	@ 0x80
 801128e:	60da      	str	r2, [r3, #12]
  }
#if defined(FLASH_SR_RDERR)
  if (__HAL_FLASH_GET_FLAG(FLASH_FLAG_RDERR) != RESET)
 8011290:	4b11      	ldr	r3, [pc, #68]	@ (80112d8 <FLASH_SetErrorCode+0xc4>)
 8011292:	68db      	ldr	r3, [r3, #12]
 8011294:	f403 7380 	and.w	r3, r3, #256	@ 0x100
 8011298:	2b00      	cmp	r3, #0
 801129a:	d009      	beq.n	80112b0 <FLASH_SetErrorCode+0x9c>
  {
    pFlash.ErrorCode |= HAL_FLASH_ERROR_RD;
 801129c:	4b0f      	ldr	r3, [pc, #60]	@ (80112dc <FLASH_SetErrorCode+0xc8>)
 801129e:	69db      	ldr	r3, [r3, #28]
 80112a0:	f043 0301 	orr.w	r3, r3, #1
 80112a4:	4a0d      	ldr	r2, [pc, #52]	@ (80112dc <FLASH_SetErrorCode+0xc8>)
 80112a6:	61d3      	str	r3, [r2, #28]

    /* Clear FLASH Proprietary readout protection error pending bit */
    __HAL_FLASH_CLEAR_FLAG(FLASH_FLAG_RDERR);
 80112a8:	4b0b      	ldr	r3, [pc, #44]	@ (80112d8 <FLASH_SetErrorCode+0xc4>)
 80112aa:	f44f 7280 	mov.w	r2, #256	@ 0x100
 80112ae:	60da      	str	r2, [r3, #12]
  }
#endif /* FLASH_SR_RDERR */
  if (__HAL_FLASH_GET_FLAG(FLASH_FLAG_OPERR) != RESET)
 80112b0:	4b09      	ldr	r3, [pc, #36]	@ (80112d8 <FLASH_SetErrorCode+0xc4>)
 80112b2:	68db      	ldr	r3, [r3, #12]
 80112b4:	f003 0302 	and.w	r3, r3, #2
 80112b8:	2b00      	cmp	r3, #0
 80112ba:	d008      	beq.n	80112ce <FLASH_SetErrorCode+0xba>
  {
    pFlash.ErrorCode |= HAL_FLASH_ERROR_OPERATION;
 80112bc:	4b07      	ldr	r3, [pc, #28]	@ (80112dc <FLASH_SetErrorCode+0xc8>)
 80112be:	69db      	ldr	r3, [r3, #28]
 80112c0:	f043 0320 	orr.w	r3, r3, #32
 80112c4:	4a05      	ldr	r2, [pc, #20]	@ (80112dc <FLASH_SetErrorCode+0xc8>)
 80112c6:	61d3      	str	r3, [r2, #28]

    /* Clear FLASH Operation error pending bit */
    __HAL_FLASH_CLEAR_FLAG(FLASH_FLAG_OPERR);
 80112c8:	4b03      	ldr	r3, [pc, #12]	@ (80112d8 <FLASH_SetErrorCode+0xc4>)
 80112ca:	2202      	movs	r2, #2
 80112cc:	60da      	str	r2, [r3, #12]
  }
}
 80112ce:	bf00      	nop
 80112d0:	46bd      	mov	sp, r7
 80112d2:	f85d 7b04 	ldr.w	r7, [sp], #4
 80112d6:	4770      	bx	lr
 80112d8:	40023c00 	.word	0x40023c00
 80112dc:	20000b50 	.word	0x20000b50

080112e0 <HAL_FLASHEx_Erase>:
  *         (0xFFFFFFFFU means that all the sectors have been correctly erased)
  *
  * @retval HAL Status
  */
HAL_StatusTypeDef HAL_FLASHEx_Erase(FLASH_EraseInitTypeDef *pEraseInit, uint32_t *SectorError)
{
 80112e0:	b580      	push	{r7, lr}
 80112e2:	b084      	sub	sp, #16
 80112e4:	af00      	add	r7, sp, #0
 80112e6:	6078      	str	r0, [r7, #4]
 80112e8:	6039      	str	r1, [r7, #0]
  HAL_StatusTypeDef status;
  uint32_t index = 0U;
 80112ea:	2300      	movs	r3, #0
 80112ec:	60bb      	str	r3, [r7, #8]

  /* Process Locked */
  __HAL_LOCK(&pFlash);
 80112ee:	4b31      	ldr	r3, [pc, #196]	@ (80113b4 <HAL_FLASHEx_Erase+0xd4>)
 80112f0:	7e1b      	ldrb	r3, [r3, #24]
 80112f2:	2b01      	cmp	r3, #1
 80112f4:	d101      	bne.n	80112fa <HAL_FLASHEx_Erase+0x1a>
 80112f6:	2302      	movs	r3, #2
 80112f8:	e058      	b.n	80113ac <HAL_FLASHEx_Erase+0xcc>
 80112fa:	4b2e      	ldr	r3, [pc, #184]	@ (80113b4 <HAL_FLASHEx_Erase+0xd4>)
 80112fc:	2201      	movs	r2, #1
 80112fe:	761a      	strb	r2, [r3, #24]

  /* Check the parameters */
  assert_param(IS_FLASH_TYPEERASE(pEraseInit->TypeErase));

  /* Wait for last operation to be completed */
  status = FLASH_WaitForLastOperation((uint32_t)FLASH_TIMEOUT_VALUE);
 8011300:	f24c 3050 	movw	r0, #50000	@ 0xc350
 8011304:	f7ff feac 	bl	8011060 <FLASH_WaitForLastOperation>
 8011308:	4603      	mov	r3, r0
 801130a:	73fb      	strb	r3, [r7, #15]

  if (status == HAL_OK)
 801130c:	7bfb      	ldrb	r3, [r7, #15]
 801130e:	2b00      	cmp	r3, #0
 8011310:	d148      	bne.n	80113a4 <HAL_FLASHEx_Erase+0xc4>
  {
    /*Initialization of SectorError variable*/
    *SectorError = 0xFFFFFFFFU;
 8011312:	683b      	ldr	r3, [r7, #0]
 8011314:	f04f 32ff 	mov.w	r2, #4294967295
 8011318:	601a      	str	r2, [r3, #0]

    if (pEraseInit->TypeErase == FLASH_TYPEERASE_MASSERASE)
 801131a:	687b      	ldr	r3, [r7, #4]
 801131c:	681b      	ldr	r3, [r3, #0]
 801131e:	2b01      	cmp	r3, #1
 8011320:	d115      	bne.n	801134e <HAL_FLASHEx_Erase+0x6e>
    {
      /*Mass erase to be done*/
      FLASH_MassErase((uint8_t) pEraseInit->VoltageRange, pEraseInit->Banks);
 8011322:	687b      	ldr	r3, [r7, #4]
 8011324:	691b      	ldr	r3, [r3, #16]
 8011326:	b2da      	uxtb	r2, r3
 8011328:	687b      	ldr	r3, [r7, #4]
 801132a:	685b      	ldr	r3, [r3, #4]
 801132c:	4619      	mov	r1, r3
 801132e:	4610      	mov	r0, r2
 8011330:	f000 f844 	bl	80113bc <FLASH_MassErase>

      /* Wait for last operation to be completed */
      status = FLASH_WaitForLastOperation((uint32_t)FLASH_TIMEOUT_VALUE);
 8011334:	f24c 3050 	movw	r0, #50000	@ 0xc350
 8011338:	f7ff fe92 	bl	8011060 <FLASH_WaitForLastOperation>
 801133c:	4603      	mov	r3, r0
 801133e:	73fb      	strb	r3, [r7, #15]

      /* if the erase operation is completed, disable the MER Bit */
      FLASH->CR &= (~FLASH_MER_BIT);
 8011340:	4b1d      	ldr	r3, [pc, #116]	@ (80113b8 <HAL_FLASHEx_Erase+0xd8>)
 8011342:	691b      	ldr	r3, [r3, #16]
 8011344:	4a1c      	ldr	r2, [pc, #112]	@ (80113b8 <HAL_FLASHEx_Erase+0xd8>)
 8011346:	f023 0304 	bic.w	r3, r3, #4
 801134a:	6113      	str	r3, [r2, #16]
 801134c:	e028      	b.n	80113a0 <HAL_FLASHEx_Erase+0xc0>
    {
      /* Check the parameters */
      assert_param(IS_FLASH_NBSECTORS(pEraseInit->NbSectors + pEraseInit->Sector));

      /* Erase by sector by sector to be done*/
      for (index = pEraseInit->Sector; index < (pEraseInit->NbSectors + pEraseInit->Sector); index++)
 801134e:	687b      	ldr	r3, [r7, #4]
 8011350:	689b      	ldr	r3, [r3, #8]
 8011352:	60bb      	str	r3, [r7, #8]
 8011354:	e01c      	b.n	8011390 <HAL_FLASHEx_Erase+0xb0>
      {
        FLASH_Erase_Sector(index, (uint8_t) pEraseInit->VoltageRange);
 8011356:	687b      	ldr	r3, [r7, #4]
 8011358:	691b      	ldr	r3, [r3, #16]
 801135a:	b2db      	uxtb	r3, r3
 801135c:	4619      	mov	r1, r3
 801135e:	68b8      	ldr	r0, [r7, #8]
 8011360:	f000 f850 	bl	8011404 <FLASH_Erase_Sector>

        /* Wait for last operation to be completed */
        status = FLASH_WaitForLastOperation((uint32_t)FLASH_TIMEOUT_VALUE);
 8011364:	f24c 3050 	movw	r0, #50000	@ 0xc350
 8011368:	f7ff fe7a 	bl	8011060 <FLASH_WaitForLastOperation>
 801136c:	4603      	mov	r3, r0
 801136e:	73fb      	strb	r3, [r7, #15]

        /* If the erase operation is completed, disable the SER and SNB Bits */
        CLEAR_BIT(FLASH->CR, (FLASH_CR_SER | FLASH_CR_SNB));
 8011370:	4b11      	ldr	r3, [pc, #68]	@ (80113b8 <HAL_FLASHEx_Erase+0xd8>)
 8011372:	691b      	ldr	r3, [r3, #16]
 8011374:	4a10      	ldr	r2, [pc, #64]	@ (80113b8 <HAL_FLASHEx_Erase+0xd8>)
 8011376:	f023 03fa 	bic.w	r3, r3, #250	@ 0xfa
 801137a:	6113      	str	r3, [r2, #16]

        if (status != HAL_OK)
 801137c:	7bfb      	ldrb	r3, [r7, #15]
 801137e:	2b00      	cmp	r3, #0
 8011380:	d003      	beq.n	801138a <HAL_FLASHEx_Erase+0xaa>
        {
          /* In case of error, stop erase procedure and return the faulty sector*/
          *SectorError = index;
 8011382:	683b      	ldr	r3, [r7, #0]
 8011384:	68ba      	ldr	r2, [r7, #8]
 8011386:	601a      	str	r2, [r3, #0]
          break;
 8011388:	e00a      	b.n	80113a0 <HAL_FLASHEx_Erase+0xc0>
      for (index = pEraseInit->Sector; index < (pEraseInit->NbSectors + pEraseInit->Sector); index++)
 801138a:	68bb      	ldr	r3, [r7, #8]
 801138c:	3301      	adds	r3, #1
 801138e:	60bb      	str	r3, [r7, #8]
 8011390:	687b      	ldr	r3, [r7, #4]
 8011392:	68da      	ldr	r2, [r3, #12]
 8011394:	687b      	ldr	r3, [r7, #4]
 8011396:	689b      	ldr	r3, [r3, #8]
 8011398:	4413      	add	r3, r2
 801139a:	68ba      	ldr	r2, [r7, #8]
 801139c:	429a      	cmp	r2, r3
 801139e:	d3da      	bcc.n	8011356 <HAL_FLASHEx_Erase+0x76>
        }
      }
    }
    /* Flush the caches to be sure of the data consistency */
    FLASH_FlushCaches();
 80113a0:	f000 f878 	bl	8011494 <FLASH_FlushCaches>
  }

  /* Process Unlocked */
  __HAL_UNLOCK(&pFlash);
 80113a4:	4b03      	ldr	r3, [pc, #12]	@ (80113b4 <HAL_FLASHEx_Erase+0xd4>)
 80113a6:	2200      	movs	r2, #0
 80113a8:	761a      	strb	r2, [r3, #24]

  return status;
 80113aa:	7bfb      	ldrb	r3, [r7, #15]
}
 80113ac:	4618      	mov	r0, r3
 80113ae:	3710      	adds	r7, #16
 80113b0:	46bd      	mov	sp, r7
 80113b2:	bd80      	pop	{r7, pc}
 80113b4:	20000b50 	.word	0x20000b50
 80113b8:	40023c00 	.word	0x40023c00

080113bc <FLASH_MassErase>:
  *            @arg FLASH_BANK_1: Bank1 to be erased
  *
  * @retval None
  */
static void FLASH_MassErase(uint8_t VoltageRange, uint32_t Banks)
{
 80113bc:	b480      	push	{r7}
 80113be:	b083      	sub	sp, #12
 80113c0:	af00      	add	r7, sp, #0
 80113c2:	4603      	mov	r3, r0
 80113c4:	6039      	str	r1, [r7, #0]
 80113c6:	71fb      	strb	r3, [r7, #7]
  /* Check the parameters */
  assert_param(IS_VOLTAGERANGE(VoltageRange));
  assert_param(IS_FLASH_BANK(Banks));

  /* If the previous operation is completed, proceed to erase all sectors */
  CLEAR_BIT(FLASH->CR, FLASH_CR_PSIZE);
 80113c8:	4b0d      	ldr	r3, [pc, #52]	@ (8011400 <FLASH_MassErase+0x44>)
 80113ca:	691b      	ldr	r3, [r3, #16]
 80113cc:	4a0c      	ldr	r2, [pc, #48]	@ (8011400 <FLASH_MassErase+0x44>)
 80113ce:	f423 7340 	bic.w	r3, r3, #768	@ 0x300
 80113d2:	6113      	str	r3, [r2, #16]
  FLASH->CR |= FLASH_CR_MER;
 80113d4:	4b0a      	ldr	r3, [pc, #40]	@ (8011400 <FLASH_MassErase+0x44>)
 80113d6:	691b      	ldr	r3, [r3, #16]
 80113d8:	4a09      	ldr	r2, [pc, #36]	@ (8011400 <FLASH_MassErase+0x44>)
 80113da:	f043 0304 	orr.w	r3, r3, #4
 80113de:	6113      	str	r3, [r2, #16]
  FLASH->CR |= FLASH_CR_STRT | ((uint32_t)VoltageRange << 8U);
 80113e0:	4b07      	ldr	r3, [pc, #28]	@ (8011400 <FLASH_MassErase+0x44>)
 80113e2:	691a      	ldr	r2, [r3, #16]
 80113e4:	79fb      	ldrb	r3, [r7, #7]
 80113e6:	021b      	lsls	r3, r3, #8
 80113e8:	4313      	orrs	r3, r2
 80113ea:	4a05      	ldr	r2, [pc, #20]	@ (8011400 <FLASH_MassErase+0x44>)
 80113ec:	f443 3380 	orr.w	r3, r3, #65536	@ 0x10000
 80113f0:	6113      	str	r3, [r2, #16]
}
 80113f2:	bf00      	nop
 80113f4:	370c      	adds	r7, #12
 80113f6:	46bd      	mov	sp, r7
 80113f8:	f85d 7b04 	ldr.w	r7, [sp], #4
 80113fc:	4770      	bx	lr
 80113fe:	bf00      	nop
 8011400:	40023c00 	.word	0x40023c00

08011404 <FLASH_Erase_Sector>:
  *                                  the operation will be done by double word (64-bit)
  *
  * @retval None
  */
void FLASH_Erase_Sector(uint32_t Sector, uint8_t VoltageRange)
{
 8011404:	b480      	push	{r7}
 8011406:	b085      	sub	sp, #20
 8011408:	af00      	add	r7, sp, #0
 801140a:	6078      	str	r0, [r7, #4]
 801140c:	460b      	mov	r3, r1
 801140e:	70fb      	strb	r3, [r7, #3]
  uint32_t tmp_psize = 0U;
 8011410:	2300      	movs	r3, #0
 8011412:	60fb      	str	r3, [r7, #12]

  /* Check the parameters */
  assert_param(IS_FLASH_SECTOR(Sector));
  assert_param(IS_VOLTAGERANGE(VoltageRange));

  if (VoltageRange == FLASH_VOLTAGE_RANGE_1)
 8011414:	78fb      	ldrb	r3, [r7, #3]
 8011416:	2b00      	cmp	r3, #0
 8011418:	d102      	bne.n	8011420 <FLASH_Erase_Sector+0x1c>
  {
    tmp_psize = FLASH_PSIZE_BYTE;
 801141a:	2300      	movs	r3, #0
 801141c:	60fb      	str	r3, [r7, #12]
 801141e:	e010      	b.n	8011442 <FLASH_Erase_Sector+0x3e>
  }
  else if (VoltageRange == FLASH_VOLTAGE_RANGE_2)
 8011420:	78fb      	ldrb	r3, [r7, #3]
 8011422:	2b01      	cmp	r3, #1
 8011424:	d103      	bne.n	801142e <FLASH_Erase_Sector+0x2a>
  {
    tmp_psize = FLASH_PSIZE_HALF_WORD;
 8011426:	f44f 7380 	mov.w	r3, #256	@ 0x100
 801142a:	60fb      	str	r3, [r7, #12]
 801142c:	e009      	b.n	8011442 <FLASH_Erase_Sector+0x3e>
  }
  else if (VoltageRange == FLASH_VOLTAGE_RANGE_3)
 801142e:	78fb      	ldrb	r3, [r7, #3]
 8011430:	2b02      	cmp	r3, #2
 8011432:	d103      	bne.n	801143c <FLASH_Erase_Sector+0x38>
  {
    tmp_psize = FLASH_PSIZE_WORD;
 8011434:	f44f 7300 	mov.w	r3, #512	@ 0x200
 8011438:	60fb      	str	r3, [r7, #12]
 801143a:	e002      	b.n	8011442 <FLASH_Erase_Sector+0x3e>
  }
  else
  {
    tmp_psize = FLASH_PSIZE_DOUBLE_WORD;
 801143c:	f44f 7340 	mov.w	r3, #768	@ 0x300
 8011440:	60fb      	str	r3, [r7, #12]
  }

  /* If the previous operation is completed, proceed to erase the sector */
  CLEAR_BIT(FLASH->CR, FLASH_CR_PSIZE);
 8011442:	4b13      	ldr	r3, [pc, #76]	@ (8011490 <FLASH_Erase_Sector+0x8c>)
 8011444:	691b      	ldr	r3, [r3, #16]
 8011446:	4a12      	ldr	r2, [pc, #72]	@ (8011490 <FLASH_Erase_Sector+0x8c>)
 8011448:	f423 7340 	bic.w	r3, r3, #768	@ 0x300
 801144c:	6113      	str	r3, [r2, #16]
  FLASH->CR |= tmp_psize;
 801144e:	4b10      	ldr	r3, [pc, #64]	@ (8011490 <FLASH_Erase_Sector+0x8c>)
 8011450:	691a      	ldr	r2, [r3, #16]
 8011452:	490f      	ldr	r1, [pc, #60]	@ (8011490 <FLASH_Erase_Sector+0x8c>)
 8011454:	68fb      	ldr	r3, [r7, #12]
 8011456:	4313      	orrs	r3, r2
 8011458:	610b      	str	r3, [r1, #16]
  CLEAR_BIT(FLASH->CR, FLASH_CR_SNB);
 801145a:	4b0d      	ldr	r3, [pc, #52]	@ (8011490 <FLASH_Erase_Sector+0x8c>)
 801145c:	691b      	ldr	r3, [r3, #16]
 801145e:	4a0c      	ldr	r2, [pc, #48]	@ (8011490 <FLASH_Erase_Sector+0x8c>)
 8011460:	f023 03f8 	bic.w	r3, r3, #248	@ 0xf8
 8011464:	6113      	str	r3, [r2, #16]
  FLASH->CR |= FLASH_CR_SER | (Sector << FLASH_CR_SNB_Pos);
 8011466:	4b0a      	ldr	r3, [pc, #40]	@ (8011490 <FLASH_Erase_Sector+0x8c>)
 8011468:	691a      	ldr	r2, [r3, #16]
 801146a:	687b      	ldr	r3, [r7, #4]
 801146c:	00db      	lsls	r3, r3, #3
 801146e:	4313      	orrs	r3, r2
 8011470:	4a07      	ldr	r2, [pc, #28]	@ (8011490 <FLASH_Erase_Sector+0x8c>)
 8011472:	f043 0302 	orr.w	r3, r3, #2
 8011476:	6113      	str	r3, [r2, #16]
  FLASH->CR |= FLASH_CR_STRT;
 8011478:	4b05      	ldr	r3, [pc, #20]	@ (8011490 <FLASH_Erase_Sector+0x8c>)
 801147a:	691b      	ldr	r3, [r3, #16]
 801147c:	4a04      	ldr	r2, [pc, #16]	@ (8011490 <FLASH_Erase_Sector+0x8c>)
 801147e:	f443 3380 	orr.w	r3, r3, #65536	@ 0x10000
 8011482:	6113      	str	r3, [r2, #16]
}
 8011484:	bf00      	nop
 8011486:	3714      	adds	r7, #20
 8011488:	46bd      	mov	sp, r7
 801148a:	f85d 7b04 	ldr.w	r7, [sp], #4
 801148e:	4770      	bx	lr
 8011490:	40023c00 	.word	0x40023c00

08011494 <FLASH_FlushCaches>:
/**
  * @brief  Flush the instruction and data caches
  * @retval None
  */
void FLASH_FlushCaches(void)
{
 8011494:	b480      	push	{r7}
 8011496:	af00      	add	r7, sp, #0
  /* Flush instruction cache  */
  if (READ_BIT(FLASH->ACR, FLASH_ACR_ICEN) != RESET)
 8011498:	4b20      	ldr	r3, [pc, #128]	@ (801151c <FLASH_FlushCaches+0x88>)
 801149a:	681b      	ldr	r3, [r3, #0]
 801149c:	f403 7300 	and.w	r3, r3, #512	@ 0x200
 80114a0:	2b00      	cmp	r3, #0
 80114a2:	d017      	beq.n	80114d4 <FLASH_FlushCaches+0x40>
  {
    /* Disable instruction cache  */
    __HAL_FLASH_INSTRUCTION_CACHE_DISABLE();
 80114a4:	4b1d      	ldr	r3, [pc, #116]	@ (801151c <FLASH_FlushCaches+0x88>)
 80114a6:	681b      	ldr	r3, [r3, #0]
 80114a8:	4a1c      	ldr	r2, [pc, #112]	@ (801151c <FLASH_FlushCaches+0x88>)
 80114aa:	f423 7300 	bic.w	r3, r3, #512	@ 0x200
 80114ae:	6013      	str	r3, [r2, #0]
    /* Reset instruction cache */
    __HAL_FLASH_INSTRUCTION_CACHE_RESET();
 80114b0:	4b1a      	ldr	r3, [pc, #104]	@ (801151c <FLASH_FlushCaches+0x88>)
 80114b2:	681b      	ldr	r3, [r3, #0]
 80114b4:	4a19      	ldr	r2, [pc, #100]	@ (801151c <FLASH_FlushCaches+0x88>)
 80114b6:	f443 6300 	orr.w	r3, r3, #2048	@ 0x800
 80114ba:	6013      	str	r3, [r2, #0]
 80114bc:	4b17      	ldr	r3, [pc, #92]	@ (801151c <FLASH_FlushCaches+0x88>)
 80114be:	681b      	ldr	r3, [r3, #0]
 80114c0:	4a16      	ldr	r2, [pc, #88]	@ (801151c <FLASH_FlushCaches+0x88>)
 80114c2:	f423 6300 	bic.w	r3, r3, #2048	@ 0x800
 80114c6:	6013      	str	r3, [r2, #0]
    /* Enable instruction cache */
    __HAL_FLASH_INSTRUCTION_CACHE_ENABLE();
 80114c8:	4b14      	ldr	r3, [pc, #80]	@ (801151c <FLASH_FlushCaches+0x88>)
 80114ca:	681b      	ldr	r3, [r3, #0]
 80114cc:	4a13      	ldr	r2, [pc, #76]	@ (801151c <FLASH_FlushCaches+0x88>)
 80114ce:	f443 7300 	orr.w	r3, r3, #512	@ 0x200
 80114d2:	6013      	str	r3, [r2, #0]
  }

  /* Flush data cache */
  if (READ_BIT(FLASH->ACR, FLASH_ACR_DCEN) != RESET)
 80114d4:	4b11      	ldr	r3, [pc, #68]	@ (801151c <FLASH_FlushCaches+0x88>)
 80114d6:	681b      	ldr	r3, [r3, #0]
 80114d8:	f403 6380 	and.w	r3, r3, #1024	@ 0x400
 80114dc:	2b00      	cmp	r3, #0
 80114de:	d017      	beq.n	8011510 <FLASH_FlushCaches+0x7c>
  {
    /* Disable data cache  */
    __HAL_FLASH_DATA_CACHE_DISABLE();
 80114e0:	4b0e      	ldr	r3, [pc, #56]	@ (801151c <FLASH_FlushCaches+0x88>)
 80114e2:	681b      	ldr	r3, [r3, #0]
 80114e4:	4a0d      	ldr	r2, [pc, #52]	@ (801151c <FLASH_FlushCaches+0x88>)
 80114e6:	f423 6380 	bic.w	r3, r3, #1024	@ 0x400
 80114ea:	6013      	str	r3, [r2, #0]
    /* Reset data cache */
    __HAL_FLASH_DATA_CACHE_RESET();
 80114ec:	4b0b      	ldr	r3, [pc, #44]	@ (801151c <FLASH_FlushCaches+0x88>)
 80114ee:	681b      	ldr	r3, [r3, #0]
 80114f0:	4a0a      	ldr	r2, [pc, #40]	@ (801151c <FLASH_FlushCaches+0x88>)
 80114f2:	f443 5380 	orr.w	r3, r3, #4096	@ 0x1000
 80114f6:	6013      	str	r3, [r2, #0]
 80114f8:	4b08      	ldr	r3, [pc, #32]	@ (801151c <FLASH_FlushCaches+0x88>)
 80114fa:	681b      	ldr	r3, [r3, #0]
 80114fc:	4a07      	ldr	r2, [pc, #28]	@ (801151c <FLASH_FlushCaches+0x88>)
 80114fe:	f423 5380 	bic.w	r3, r3, #4096	@ 0x1000
 8011502:	6013      	str	r3, [r2, #0]
    /* Enable data cache */
    __HAL_FLASH_DATA_CACHE_ENABLE();
 8011504:	4b05      	ldr	r3, [pc, #20]	@ (801151c <FLASH_FlushCaches+0x88>)
 8011506:	681b      	ldr	r3, [r3, #0]
 8011508:	4a04      	ldr	r2, [pc, #16]	@ (801151c <FLASH_FlushCaches+0x88>)
 801150a:	f443 6380 	orr.w	r3, r3, #1024	@ 0x400
 801150e:	6013      	str	r3, [r2, #0]
  }
}
 8011510:	bf00      	nop
 8011512:	46bd      	mov	sp, r7
 8011514:	f85d 7b04 	ldr.w	r7, [sp], #4
 8011518:	4770      	bx	lr
 801151a:	bf00      	nop
 801151c:	40023c00 	.word	0x40023c00

08011520 <HAL_GPIO_Init>:
  * @param  GPIO_Init pointer to a GPIO_InitTypeDef structure that contains
  *         the configuration information for the specified GPIO peripheral.
  * @retval None
  */
void HAL_GPIO_Init(GPIO_TypeDef  *GPIOx, GPIO_InitTypeDef *GPIO_Init)
{
 8011520:	b480      	push	{r7}
 8011522:	b089      	sub	sp, #36	@ 0x24
 8011524:	af00      	add	r7, sp, #0
 8011526:	6078      	str	r0, [r7, #4]
 8011528:	6039      	str	r1, [r7, #0]
  uint32_t position;
  uint32_t ioposition = 0x00U;
 801152a:	2300      	movs	r3, #0
 801152c:	617b      	str	r3, [r7, #20]
  uint32_t iocurrent = 0x00U;
 801152e:	2300      	movs	r3, #0
 8011530:	613b      	str	r3, [r7, #16]
  uint32_t temp = 0x00U;
 8011532:	2300      	movs	r3, #0
 8011534:	61bb      	str	r3, [r7, #24]
  assert_param(IS_GPIO_ALL_INSTANCE(GPIOx));
  assert_param(IS_GPIO_PIN(GPIO_Init->Pin));
  assert_param(IS_GPIO_MODE(GPIO_Init->Mode));

  /* Configure the port pins */
  for(position = 0U; position < GPIO_NUMBER; position++)
 8011536:	2300      	movs	r3, #0
 8011538:	61fb      	str	r3, [r7, #28]
 801153a:	e165      	b.n	8011808 <HAL_GPIO_Init+0x2e8>
  {
    /* Get the IO position */
    ioposition = 0x01U << position;
 801153c:	2201      	movs	r2, #1
 801153e:	69fb      	ldr	r3, [r7, #28]
 8011540:	fa02 f303 	lsl.w	r3, r2, r3
 8011544:	617b      	str	r3, [r7, #20]
    /* Get the current IO position */
    iocurrent = (uint32_t)(GPIO_Init->Pin) & ioposition;
 8011546:	683b      	ldr	r3, [r7, #0]
 8011548:	681b      	ldr	r3, [r3, #0]
 801154a:	697a      	ldr	r2, [r7, #20]
 801154c:	4013      	ands	r3, r2
 801154e:	613b      	str	r3, [r7, #16]

    if(iocurrent == ioposition)
 8011550:	693a      	ldr	r2, [r7, #16]
 8011552:	697b      	ldr	r3, [r7, #20]
 8011554:	429a      	cmp	r2, r3
 8011556:	f040 8154 	bne.w	8011802 <HAL_GPIO_Init+0x2e2>
    {
      /*--------------------- GPIO Mode Configuration ------------------------*/
      /* In case of Output or Alternate function mode selection */
      if(((GPIO_Init->Mode & GPIO_MODE) == MODE_OUTPUT) || \
 801155a:	683b      	ldr	r3, [r7, #0]
 801155c:	685b      	ldr	r3, [r3, #4]
 801155e:	f003 0303 	and.w	r3, r3, #3
 8011562:	2b01      	cmp	r3, #1
 8011564:	d005      	beq.n	8011572 <HAL_GPIO_Init+0x52>
          (GPIO_Init->Mode & GPIO_MODE) == MODE_AF)
 8011566:	683b      	ldr	r3, [r7, #0]
 8011568:	685b      	ldr	r3, [r3, #4]
 801156a:	f003 0303 	and.w	r3, r3, #3
      if(((GPIO_Init->Mode & GPIO_MODE) == MODE_OUTPUT) || \
 801156e:	2b02      	cmp	r3, #2
 8011570:	d130      	bne.n	80115d4 <HAL_GPIO_Init+0xb4>
      {
        /* Check the Speed parameter */
        assert_param(IS_GPIO_SPEED(GPIO_Init->Speed));
        /* Configure the IO Speed */
        temp = GPIOx->OSPEEDR; 
 8011572:	687b      	ldr	r3, [r7, #4]
 8011574:	689b      	ldr	r3, [r3, #8]
 8011576:	61bb      	str	r3, [r7, #24]
        temp &= ~(GPIO_OSPEEDER_OSPEEDR0 << (position * 2U));
 8011578:	69fb      	ldr	r3, [r7, #28]
 801157a:	005b      	lsls	r3, r3, #1
 801157c:	2203      	movs	r2, #3
 801157e:	fa02 f303 	lsl.w	r3, r2, r3
 8011582:	43db      	mvns	r3, r3
 8011584:	69ba      	ldr	r2, [r7, #24]
 8011586:	4013      	ands	r3, r2
 8011588:	61bb      	str	r3, [r7, #24]
        temp |= (GPIO_Init->Speed << (position * 2U));
 801158a:	683b      	ldr	r3, [r7, #0]
 801158c:	68da      	ldr	r2, [r3, #12]
 801158e:	69fb      	ldr	r3, [r7, #28]
 8011590:	005b      	lsls	r3, r3, #1
 8011592:	fa02 f303 	lsl.w	r3, r2, r3
 8011596:	69ba      	ldr	r2, [r7, #24]
 8011598:	4313      	orrs	r3, r2
 801159a:	61bb      	str	r3, [r7, #24]
        GPIOx->OSPEEDR = temp;
 801159c:	687b      	ldr	r3, [r7, #4]
 801159e:	69ba      	ldr	r2, [r7, #24]
 80115a0:	609a      	str	r2, [r3, #8]

        /* Configure the IO Output Type */
        temp = GPIOx->OTYPER;
 80115a2:	687b      	ldr	r3, [r7, #4]
 80115a4:	685b      	ldr	r3, [r3, #4]
 80115a6:	61bb      	str	r3, [r7, #24]
        temp &= ~(GPIO_OTYPER_OT_0 << position) ;
 80115a8:	2201      	movs	r2, #1
 80115aa:	69fb      	ldr	r3, [r7, #28]
 80115ac:	fa02 f303 	lsl.w	r3, r2, r3
 80115b0:	43db      	mvns	r3, r3
 80115b2:	69ba      	ldr	r2, [r7, #24]
 80115b4:	4013      	ands	r3, r2
 80115b6:	61bb      	str	r3, [r7, #24]
        temp |= (((GPIO_Init->Mode & OUTPUT_TYPE) >> OUTPUT_TYPE_Pos) << position);
 80115b8:	683b      	ldr	r3, [r7, #0]
 80115ba:	685b      	ldr	r3, [r3, #4]
 80115bc:	091b      	lsrs	r3, r3, #4
 80115be:	f003 0201 	and.w	r2, r3, #1
 80115c2:	69fb      	ldr	r3, [r7, #28]
 80115c4:	fa02 f303 	lsl.w	r3, r2, r3
 80115c8:	69ba      	ldr	r2, [r7, #24]
 80115ca:	4313      	orrs	r3, r2
 80115cc:	61bb      	str	r3, [r7, #24]
        GPIOx->OTYPER = temp;
 80115ce:	687b      	ldr	r3, [r7, #4]
 80115d0:	69ba      	ldr	r2, [r7, #24]
 80115d2:	605a      	str	r2, [r3, #4]
       }

      if((GPIO_Init->Mode & GPIO_MODE) != MODE_ANALOG)
 80115d4:	683b      	ldr	r3, [r7, #0]
 80115d6:	685b      	ldr	r3, [r3, #4]
 80115d8:	f003 0303 	and.w	r3, r3, #3
 80115dc:	2b03      	cmp	r3, #3
 80115de:	d017      	beq.n	8011610 <HAL_GPIO_Init+0xf0>
      {
        /* Check the parameters */
        assert_param(IS_GPIO_PULL(GPIO_Init->Pull));
        
        /* Activate the Pull-up or Pull down resistor for the current IO */
        temp = GPIOx->PUPDR;
 80115e0:	687b      	ldr	r3, [r7, #4]
 80115e2:	68db      	ldr	r3, [r3, #12]
 80115e4:	61bb      	str	r3, [r7, #24]
        temp &= ~(GPIO_PUPDR_PUPDR0 << (position * 2U));
 80115e6:	69fb      	ldr	r3, [r7, #28]
 80115e8:	005b      	lsls	r3, r3, #1
 80115ea:	2203      	movs	r2, #3
 80115ec:	fa02 f303 	lsl.w	r3, r2, r3
 80115f0:	43db      	mvns	r3, r3
 80115f2:	69ba      	ldr	r2, [r7, #24]
 80115f4:	4013      	ands	r3, r2
 80115f6:	61bb      	str	r3, [r7, #24]
        temp |= ((GPIO_Init->Pull) << (position * 2U));
 80115f8:	683b      	ldr	r3, [r7, #0]
 80115fa:	689a      	ldr	r2, [r3, #8]
 80115fc:	69fb      	ldr	r3, [r7, #28]
 80115fe:	005b      	lsls	r3, r3, #1
 8011600:	fa02 f303 	lsl.w	r3, r2, r3
 8011604:	69ba      	ldr	r2, [r7, #24]
 8011606:	4313      	orrs	r3, r2
 8011608:	61bb      	str	r3, [r7, #24]
        GPIOx->PUPDR = temp;
 801160a:	687b      	ldr	r3, [r7, #4]
 801160c:	69ba      	ldr	r2, [r7, #24]
 801160e:	60da      	str	r2, [r3, #12]
      }

      /* In case of Alternate function mode selection */
      if((GPIO_Init->Mode & GPIO_MODE) == MODE_AF)
 8011610:	683b      	ldr	r3, [r7, #0]
 8011612:	685b      	ldr	r3, [r3, #4]
 8011614:	f003 0303 	and.w	r3, r3, #3
 8011618:	2b02      	cmp	r3, #2
 801161a:	d123      	bne.n	8011664 <HAL_GPIO_Init+0x144>
      {
        /* Check the Alternate function parameter */
        assert_param(IS_GPIO_AF(GPIO_Init->Alternate));
        /* Configure Alternate function mapped with the current IO */
        temp = GPIOx->AFR[position >> 3U];
 801161c:	69fb      	ldr	r3, [r7, #28]
 801161e:	08da      	lsrs	r2, r3, #3
 8011620:	687b      	ldr	r3, [r7, #4]
 8011622:	3208      	adds	r2, #8
 8011624:	f853 3022 	ldr.w	r3, [r3, r2, lsl #2]
 8011628:	61bb      	str	r3, [r7, #24]
        temp &= ~(0xFU << ((uint32_t)(position & 0x07U) * 4U)) ;
 801162a:	69fb      	ldr	r3, [r7, #28]
 801162c:	f003 0307 	and.w	r3, r3, #7
 8011630:	009b      	lsls	r3, r3, #2
 8011632:	220f      	movs	r2, #15
 8011634:	fa02 f303 	lsl.w	r3, r2, r3
 8011638:	43db      	mvns	r3, r3
 801163a:	69ba      	ldr	r2, [r7, #24]
 801163c:	4013      	ands	r3, r2
 801163e:	61bb      	str	r3, [r7, #24]
        temp |= ((uint32_t)(GPIO_Init->Alternate) << (((uint32_t)position & 0x07U) * 4U));
 8011640:	683b      	ldr	r3, [r7, #0]
 8011642:	691a      	ldr	r2, [r3, #16]
 8011644:	69fb      	ldr	r3, [r7, #28]
 8011646:	f003 0307 	and.w	r3, r3, #7
 801164a:	009b      	lsls	r3, r3, #2
 801164c:	fa02 f303 	lsl.w	r3, r2, r3
 8011650:	69ba      	ldr	r2, [r7, #24]
 8011652:	4313      	orrs	r3, r2
 8011654:	61bb      	str	r3, [r7, #24]
        GPIOx->AFR[position >> 3U] = temp;
 8011656:	69fb      	ldr	r3, [r7, #28]
 8011658:	08da      	lsrs	r2, r3, #3
 801165a:	687b      	ldr	r3, [r7, #4]
 801165c:	3208      	adds	r2, #8
 801165e:	69b9      	ldr	r1, [r7, #24]
 8011660:	f843 1022 	str.w	r1, [r3, r2, lsl #2]
      }

      /* Configure IO Direction mode (Input, Output, Alternate or Analog) */
      temp = GPIOx->MODER;
 8011664:	687b      	ldr	r3, [r7, #4]
 8011666:	681b      	ldr	r3, [r3, #0]
 8011668:	61bb      	str	r3, [r7, #24]
      temp &= ~(GPIO_MODER_MODER0 << (position * 2U));
 801166a:	69fb      	ldr	r3, [r7, #28]
 801166c:	005b      	lsls	r3, r3, #1
 801166e:	2203      	movs	r2, #3
 8011670:	fa02 f303 	lsl.w	r3, r2, r3
 8011674:	43db      	mvns	r3, r3
 8011676:	69ba      	ldr	r2, [r7, #24]
 8011678:	4013      	ands	r3, r2
 801167a:	61bb      	str	r3, [r7, #24]
      temp |= ((GPIO_Init->Mode & GPIO_MODE) << (position * 2U));
 801167c:	683b      	ldr	r3, [r7, #0]
 801167e:	685b      	ldr	r3, [r3, #4]
 8011680:	f003 0203 	and.w	r2, r3, #3
 8011684:	69fb      	ldr	r3, [r7, #28]
 8011686:	005b      	lsls	r3, r3, #1
 8011688:	fa02 f303 	lsl.w	r3, r2, r3
 801168c:	69ba      	ldr	r2, [r7, #24]
 801168e:	4313      	orrs	r3, r2
 8011690:	61bb      	str	r3, [r7, #24]
      GPIOx->MODER = temp;
 8011692:	687b      	ldr	r3, [r7, #4]
 8011694:	69ba      	ldr	r2, [r7, #24]
 8011696:	601a      	str	r2, [r3, #0]

      /*--------------------- EXTI Mode Configuration ------------------------*/
      /* Configure the External Interrupt or event for the current IO */
      if((GPIO_Init->Mode & EXTI_MODE) != 0x00U)
 8011698:	683b      	ldr	r3, [r7, #0]
 801169a:	685b      	ldr	r3, [r3, #4]
 801169c:	f403 3340 	and.w	r3, r3, #196608	@ 0x30000
 80116a0:	2b00      	cmp	r3, #0
 80116a2:	f000 80ae 	beq.w	8011802 <HAL_GPIO_Init+0x2e2>
      {
        /* Enable SYSCFG Clock */
        __HAL_RCC_SYSCFG_CLK_ENABLE();
 80116a6:	2300      	movs	r3, #0
 80116a8:	60fb      	str	r3, [r7, #12]
 80116aa:	4b5d      	ldr	r3, [pc, #372]	@ (8011820 <HAL_GPIO_Init+0x300>)
 80116ac:	6c5b      	ldr	r3, [r3, #68]	@ 0x44
 80116ae:	4a5c      	ldr	r2, [pc, #368]	@ (8011820 <HAL_GPIO_Init+0x300>)
 80116b0:	f443 4380 	orr.w	r3, r3, #16384	@ 0x4000
 80116b4:	6453      	str	r3, [r2, #68]	@ 0x44
 80116b6:	4b5a      	ldr	r3, [pc, #360]	@ (8011820 <HAL_GPIO_Init+0x300>)
 80116b8:	6c5b      	ldr	r3, [r3, #68]	@ 0x44
 80116ba:	f403 4380 	and.w	r3, r3, #16384	@ 0x4000
 80116be:	60fb      	str	r3, [r7, #12]
 80116c0:	68fb      	ldr	r3, [r7, #12]

        temp = SYSCFG->EXTICR[position >> 2U];
 80116c2:	4a58      	ldr	r2, [pc, #352]	@ (8011824 <HAL_GPIO_Init+0x304>)
 80116c4:	69fb      	ldr	r3, [r7, #28]
 80116c6:	089b      	lsrs	r3, r3, #2
 80116c8:	3302      	adds	r3, #2
 80116ca:	f852 3023 	ldr.w	r3, [r2, r3, lsl #2]
 80116ce:	61bb      	str	r3, [r7, #24]
        temp &= ~(0x0FU << (4U * (position & 0x03U)));
 80116d0:	69fb      	ldr	r3, [r7, #28]
 80116d2:	f003 0303 	and.w	r3, r3, #3
 80116d6:	009b      	lsls	r3, r3, #2
 80116d8:	220f      	movs	r2, #15
 80116da:	fa02 f303 	lsl.w	r3, r2, r3
 80116de:	43db      	mvns	r3, r3
 80116e0:	69ba      	ldr	r2, [r7, #24]
 80116e2:	4013      	ands	r3, r2
 80116e4:	61bb      	str	r3, [r7, #24]
        temp |= ((uint32_t)(GPIO_GET_INDEX(GPIOx)) << (4U * (position & 0x03U)));
 80116e6:	687b      	ldr	r3, [r7, #4]
 80116e8:	4a4f      	ldr	r2, [pc, #316]	@ (8011828 <HAL_GPIO_Init+0x308>)
 80116ea:	4293      	cmp	r3, r2
 80116ec:	d025      	beq.n	801173a <HAL_GPIO_Init+0x21a>
 80116ee:	687b      	ldr	r3, [r7, #4]
 80116f0:	4a4e      	ldr	r2, [pc, #312]	@ (801182c <HAL_GPIO_Init+0x30c>)
 80116f2:	4293      	cmp	r3, r2
 80116f4:	d01f      	beq.n	8011736 <HAL_GPIO_Init+0x216>
 80116f6:	687b      	ldr	r3, [r7, #4]
 80116f8:	4a4d      	ldr	r2, [pc, #308]	@ (8011830 <HAL_GPIO_Init+0x310>)
 80116fa:	4293      	cmp	r3, r2
 80116fc:	d019      	beq.n	8011732 <HAL_GPIO_Init+0x212>
 80116fe:	687b      	ldr	r3, [r7, #4]
 8011700:	4a4c      	ldr	r2, [pc, #304]	@ (8011834 <HAL_GPIO_Init+0x314>)
 8011702:	4293      	cmp	r3, r2
 8011704:	d013      	beq.n	801172e <HAL_GPIO_Init+0x20e>
 8011706:	687b      	ldr	r3, [r7, #4]
 8011708:	4a4b      	ldr	r2, [pc, #300]	@ (8011838 <HAL_GPIO_Init+0x318>)
 801170a:	4293      	cmp	r3, r2
 801170c:	d00d      	beq.n	801172a <HAL_GPIO_Init+0x20a>
 801170e:	687b      	ldr	r3, [r7, #4]
 8011710:	4a4a      	ldr	r2, [pc, #296]	@ (801183c <HAL_GPIO_Init+0x31c>)
 8011712:	4293      	cmp	r3, r2
 8011714:	d007      	beq.n	8011726 <HAL_GPIO_Init+0x206>
 8011716:	687b      	ldr	r3, [r7, #4]
 8011718:	4a49      	ldr	r2, [pc, #292]	@ (8011840 <HAL_GPIO_Init+0x320>)
 801171a:	4293      	cmp	r3, r2
 801171c:	d101      	bne.n	8011722 <HAL_GPIO_Init+0x202>
 801171e:	2306      	movs	r3, #6
 8011720:	e00c      	b.n	801173c <HAL_GPIO_Init+0x21c>
 8011722:	2307      	movs	r3, #7
 8011724:	e00a      	b.n	801173c <HAL_GPIO_Init+0x21c>
 8011726:	2305      	movs	r3, #5
 8011728:	e008      	b.n	801173c <HAL_GPIO_Init+0x21c>
 801172a:	2304      	movs	r3, #4
 801172c:	e006      	b.n	801173c <HAL_GPIO_Init+0x21c>
 801172e:	2303      	movs	r3, #3
 8011730:	e004      	b.n	801173c <HAL_GPIO_Init+0x21c>
 8011732:	2302      	movs	r3, #2
 8011734:	e002      	b.n	801173c <HAL_GPIO_Init+0x21c>
 8011736:	2301      	movs	r3, #1
 8011738:	e000      	b.n	801173c <HAL_GPIO_Init+0x21c>
 801173a:	2300      	movs	r3, #0
 801173c:	69fa      	ldr	r2, [r7, #28]
 801173e:	f002 0203 	and.w	r2, r2, #3
 8011742:	0092      	lsls	r2, r2, #2
 8011744:	4093      	lsls	r3, r2
 8011746:	69ba      	ldr	r2, [r7, #24]
 8011748:	4313      	orrs	r3, r2
 801174a:	61bb      	str	r3, [r7, #24]
        SYSCFG->EXTICR[position >> 2U] = temp;
 801174c:	4935      	ldr	r1, [pc, #212]	@ (8011824 <HAL_GPIO_Init+0x304>)
 801174e:	69fb      	ldr	r3, [r7, #28]
 8011750:	089b      	lsrs	r3, r3, #2
 8011752:	3302      	adds	r3, #2
 8011754:	69ba      	ldr	r2, [r7, #24]
 8011756:	f841 2023 	str.w	r2, [r1, r3, lsl #2]

        /* Clear Rising Falling edge configuration */
        temp = EXTI->RTSR;
 801175a:	4b3a      	ldr	r3, [pc, #232]	@ (8011844 <HAL_GPIO_Init+0x324>)
 801175c:	689b      	ldr	r3, [r3, #8]
 801175e:	61bb      	str	r3, [r7, #24]
        temp &= ~((uint32_t)iocurrent);
 8011760:	693b      	ldr	r3, [r7, #16]
 8011762:	43db      	mvns	r3, r3
 8011764:	69ba      	ldr	r2, [r7, #24]
 8011766:	4013      	ands	r3, r2
 8011768:	61bb      	str	r3, [r7, #24]
        if((GPIO_Init->Mode & TRIGGER_RISING) != 0x00U)
 801176a:	683b      	ldr	r3, [r7, #0]
 801176c:	685b      	ldr	r3, [r3, #4]
 801176e:	f403 1380 	and.w	r3, r3, #1048576	@ 0x100000
 8011772:	2b00      	cmp	r3, #0
 8011774:	d003      	beq.n	801177e <HAL_GPIO_Init+0x25e>
        {
          temp |= iocurrent;
 8011776:	69ba      	ldr	r2, [r7, #24]
 8011778:	693b      	ldr	r3, [r7, #16]
 801177a:	4313      	orrs	r3, r2
 801177c:	61bb      	str	r3, [r7, #24]
        }
        EXTI->RTSR = temp;
 801177e:	4a31      	ldr	r2, [pc, #196]	@ (8011844 <HAL_GPIO_Init+0x324>)
 8011780:	69bb      	ldr	r3, [r7, #24]
 8011782:	6093      	str	r3, [r2, #8]

        temp = EXTI->FTSR;
 8011784:	4b2f      	ldr	r3, [pc, #188]	@ (8011844 <HAL_GPIO_Init+0x324>)
 8011786:	68db      	ldr	r3, [r3, #12]
 8011788:	61bb      	str	r3, [r7, #24]
        temp &= ~((uint32_t)iocurrent);
 801178a:	693b      	ldr	r3, [r7, #16]
 801178c:	43db      	mvns	r3, r3
 801178e:	69ba      	ldr	r2, [r7, #24]
 8011790:	4013      	ands	r3, r2
 8011792:	61bb      	str	r3, [r7, #24]
        if((GPIO_Init->Mode & TRIGGER_FALLING) != 0x00U)
 8011794:	683b      	ldr	r3, [r7, #0]
 8011796:	685b      	ldr	r3, [r3, #4]
 8011798:	f403 1300 	and.w	r3, r3, #2097152	@ 0x200000
 801179c:	2b00      	cmp	r3, #0
 801179e:	d003      	beq.n	80117a8 <HAL_GPIO_Init+0x288>
        {
          temp |= iocurrent;
 80117a0:	69ba      	ldr	r2, [r7, #24]
 80117a2:	693b      	ldr	r3, [r7, #16]
 80117a4:	4313      	orrs	r3, r2
 80117a6:	61bb      	str	r3, [r7, #24]
        }
        EXTI->FTSR = temp;
 80117a8:	4a26      	ldr	r2, [pc, #152]	@ (8011844 <HAL_GPIO_Init+0x324>)
 80117aa:	69bb      	ldr	r3, [r7, #24]
 80117ac:	60d3      	str	r3, [r2, #12]

        temp = EXTI->EMR;
 80117ae:	4b25      	ldr	r3, [pc, #148]	@ (8011844 <HAL_GPIO_Init+0x324>)
 80117b0:	685b      	ldr	r3, [r3, #4]
 80117b2:	61bb      	str	r3, [r7, #24]
        temp &= ~((uint32_t)iocurrent);
 80117b4:	693b      	ldr	r3, [r7, #16]
 80117b6:	43db      	mvns	r3, r3
 80117b8:	69ba      	ldr	r2, [r7, #24]
 80117ba:	4013      	ands	r3, r2
 80117bc:	61bb      	str	r3, [r7, #24]
        if((GPIO_Init->Mode & EXTI_EVT) != 0x00U)
 80117be:	683b      	ldr	r3, [r7, #0]
 80117c0:	685b      	ldr	r3, [r3, #4]
 80117c2:	f403 3300 	and.w	r3, r3, #131072	@ 0x20000
 80117c6:	2b00      	cmp	r3, #0
 80117c8:	d003      	beq.n	80117d2 <HAL_GPIO_Init+0x2b2>
        {
          temp |= iocurrent;
 80117ca:	69ba      	ldr	r2, [r7, #24]
 80117cc:	693b      	ldr	r3, [r7, #16]
 80117ce:	4313      	orrs	r3, r2
 80117d0:	61bb      	str	r3, [r7, #24]
        }
        EXTI->EMR = temp;
 80117d2:	4a1c      	ldr	r2, [pc, #112]	@ (8011844 <HAL_GPIO_Init+0x324>)
 80117d4:	69bb      	ldr	r3, [r7, #24]
 80117d6:	6053      	str	r3, [r2, #4]

        /* Clear EXTI line configuration */
        temp = EXTI->IMR;
 80117d8:	4b1a      	ldr	r3, [pc, #104]	@ (8011844 <HAL_GPIO_Init+0x324>)
 80117da:	681b      	ldr	r3, [r3, #0]
 80117dc:	61bb      	str	r3, [r7, #24]
        temp &= ~((uint32_t)iocurrent);
 80117de:	693b      	ldr	r3, [r7, #16]
 80117e0:	43db      	mvns	r3, r3
 80117e2:	69ba      	ldr	r2, [r7, #24]
 80117e4:	4013      	ands	r3, r2
 80117e6:	61bb      	str	r3, [r7, #24]
        if((GPIO_Init->Mode & EXTI_IT) != 0x00U)
 80117e8:	683b      	ldr	r3, [r7, #0]
 80117ea:	685b      	ldr	r3, [r3, #4]
 80117ec:	f403 3380 	and.w	r3, r3, #65536	@ 0x10000
 80117f0:	2b00      	cmp	r3, #0
 80117f2:	d003      	beq.n	80117fc <HAL_GPIO_Init+0x2dc>
        {
          temp |= iocurrent;
 80117f4:	69ba      	ldr	r2, [r7, #24]
 80117f6:	693b      	ldr	r3, [r7, #16]
 80117f8:	4313      	orrs	r3, r2
 80117fa:	61bb      	str	r3, [r7, #24]
        }
        EXTI->IMR = temp;
 80117fc:	4a11      	ldr	r2, [pc, #68]	@ (8011844 <HAL_GPIO_Init+0x324>)
 80117fe:	69bb      	ldr	r3, [r7, #24]
 8011800:	6013      	str	r3, [r2, #0]
  for(position = 0U; position < GPIO_NUMBER; position++)
 8011802:	69fb      	ldr	r3, [r7, #28]
 8011804:	3301      	adds	r3, #1
 8011806:	61fb      	str	r3, [r7, #28]
 8011808:	69fb      	ldr	r3, [r7, #28]
 801180a:	2b0f      	cmp	r3, #15
 801180c:	f67f ae96 	bls.w	801153c <HAL_GPIO_Init+0x1c>
      }
    }
  }
}
 8011810:	bf00      	nop
 8011812:	bf00      	nop
 8011814:	3724      	adds	r7, #36	@ 0x24
 8011816:	46bd      	mov	sp, r7
 8011818:	f85d 7b04 	ldr.w	r7, [sp], #4
 801181c:	4770      	bx	lr
 801181e:	bf00      	nop
 8011820:	40023800 	.word	0x40023800
 8011824:	40013800 	.word	0x40013800
 8011828:	40020000 	.word	0x40020000
 801182c:	40020400 	.word	0x40020400
 8011830:	40020800 	.word	0x40020800
 8011834:	40020c00 	.word	0x40020c00
 8011838:	40021000 	.word	0x40021000
 801183c:	40021400 	.word	0x40021400
 8011840:	40021800 	.word	0x40021800
 8011844:	40013c00 	.word	0x40013c00

08011848 <HAL_GPIO_ReadPin>:
  * @param  GPIO_Pin specifies the port bit to read.
  *         This parameter can be GPIO_PIN_x where x can be (0..15).
  * @retval The input port pin value.
  */
GPIO_PinState HAL_GPIO_ReadPin(GPIO_TypeDef* GPIOx, uint16_t GPIO_Pin)
{
 8011848:	b480      	push	{r7}
 801184a:	b085      	sub	sp, #20
 801184c:	af00      	add	r7, sp, #0
 801184e:	6078      	str	r0, [r7, #4]
 8011850:	460b      	mov	r3, r1
 8011852:	807b      	strh	r3, [r7, #2]
  GPIO_PinState bitstatus;

  /* Check the parameters */
  assert_param(IS_GPIO_PIN(GPIO_Pin));

  if((GPIOx->IDR & GPIO_Pin) != (uint32_t)GPIO_PIN_RESET)
 8011854:	687b      	ldr	r3, [r7, #4]
 8011856:	691a      	ldr	r2, [r3, #16]
 8011858:	887b      	ldrh	r3, [r7, #2]
 801185a:	4013      	ands	r3, r2
 801185c:	2b00      	cmp	r3, #0
 801185e:	d002      	beq.n	8011866 <HAL_GPIO_ReadPin+0x1e>
  {
    bitstatus = GPIO_PIN_SET;
 8011860:	2301      	movs	r3, #1
 8011862:	73fb      	strb	r3, [r7, #15]
 8011864:	e001      	b.n	801186a <HAL_GPIO_ReadPin+0x22>
  }
  else
  {
    bitstatus = GPIO_PIN_RESET;
 8011866:	2300      	movs	r3, #0
 8011868:	73fb      	strb	r3, [r7, #15]
  }
  return bitstatus;
 801186a:	7bfb      	ldrb	r3, [r7, #15]
}
 801186c:	4618      	mov	r0, r3
 801186e:	3714      	adds	r7, #20
 8011870:	46bd      	mov	sp, r7
 8011872:	f85d 7b04 	ldr.w	r7, [sp], #4
 8011876:	4770      	bx	lr

08011878 <HAL_GPIO_WritePin>:
  *            @arg GPIO_PIN_RESET: to clear the port pin
  *            @arg GPIO_PIN_SET: to set the port pin
  * @retval None
  */
void HAL_GPIO_WritePin(GPIO_TypeDef* GPIOx, uint16_t GPIO_Pin, GPIO_PinState PinState)
{
 8011878:	b480      	push	{r7}
 801187a:	b083      	sub	sp, #12
 801187c:	af00      	add	r7, sp, #0
 801187e:	6078      	str	r0, [r7, #4]
 8011880:	460b      	mov	r3, r1
 8011882:	807b      	strh	r3, [r7, #2]
 8011884:	4613      	mov	r3, r2
 8011886:	707b      	strb	r3, [r7, #1]
  /* Check the parameters */
  assert_param(IS_GPIO_PIN(GPIO_Pin));
  assert_param(IS_GPIO_PIN_ACTION(PinState));

  if(PinState != GPIO_PIN_RESET)
 8011888:	787b      	ldrb	r3, [r7, #1]
 801188a:	2b00      	cmp	r3, #0
 801188c:	d003      	beq.n	8011896 <HAL_GPIO_WritePin+0x1e>
  {
    GPIOx->BSRR = GPIO_Pin;
 801188e:	887a      	ldrh	r2, [r7, #2]
 8011890:	687b      	ldr	r3, [r7, #4]
 8011892:	619a      	str	r2, [r3, #24]
  }
  else
  {
    GPIOx->BSRR = (uint32_t)GPIO_Pin << 16U;
  }
}
 8011894:	e003      	b.n	801189e <HAL_GPIO_WritePin+0x26>
    GPIOx->BSRR = (uint32_t)GPIO_Pin << 16U;
 8011896:	887b      	ldrh	r3, [r7, #2]
 8011898:	041a      	lsls	r2, r3, #16
 801189a:	687b      	ldr	r3, [r7, #4]
 801189c:	619a      	str	r2, [r3, #24]
}
 801189e:	bf00      	nop
 80118a0:	370c      	adds	r7, #12
 80118a2:	46bd      	mov	sp, r7
 80118a4:	f85d 7b04 	ldr.w	r7, [sp], #4
 80118a8:	4770      	bx	lr

080118aa <HAL_GPIO_TogglePin>:
  *                      x can be (A..I) to select the GPIO peripheral for STM32F40XX and STM32F427X devices.
  * @param  GPIO_Pin Specifies the pins to be toggled.
  * @retval None
  */
void HAL_GPIO_TogglePin(GPIO_TypeDef* GPIOx, uint16_t GPIO_Pin)
{
 80118aa:	b480      	push	{r7}
 80118ac:	b085      	sub	sp, #20
 80118ae:	af00      	add	r7, sp, #0
 80118b0:	6078      	str	r0, [r7, #4]
 80118b2:	460b      	mov	r3, r1
 80118b4:	807b      	strh	r3, [r7, #2]

  /* Check the parameters */
  assert_param(IS_GPIO_PIN(GPIO_Pin));

  /* get current Output Data Register value */
  odr = GPIOx->ODR;
 80118b6:	687b      	ldr	r3, [r7, #4]
 80118b8:	695b      	ldr	r3, [r3, #20]
 80118ba:	60fb      	str	r3, [r7, #12]

  /* Set selected pins that were at low level, and reset ones that were high */
  GPIOx->BSRR = ((odr & GPIO_Pin) << GPIO_NUMBER) | (~odr & GPIO_Pin);
 80118bc:	887a      	ldrh	r2, [r7, #2]
 80118be:	68fb      	ldr	r3, [r7, #12]
 80118c0:	4013      	ands	r3, r2
 80118c2:	041a      	lsls	r2, r3, #16
 80118c4:	68fb      	ldr	r3, [r7, #12]
 80118c6:	43d9      	mvns	r1, r3
 80118c8:	887b      	ldrh	r3, [r7, #2]
 80118ca:	400b      	ands	r3, r1
 80118cc:	431a      	orrs	r2, r3
 80118ce:	687b      	ldr	r3, [r7, #4]
 80118d0:	619a      	str	r2, [r3, #24]
}
 80118d2:	bf00      	nop
 80118d4:	3714      	adds	r7, #20
 80118d6:	46bd      	mov	sp, r7
 80118d8:	f85d 7b04 	ldr.w	r7, [sp], #4
 80118dc:	4770      	bx	lr
	...

080118e0 <HAL_GPIO_EXTI_IRQHandler>:
  * @brief  This function handles EXTI interrupt request.
  * @param  GPIO_Pin Specifies the pins connected EXTI line
  * @retval None
  */
void HAL_GPIO_EXTI_IRQHandler(uint16_t GPIO_Pin)
{
 80118e0:	b580      	push	{r7, lr}
 80118e2:	b082      	sub	sp, #8
 80118e4:	af00      	add	r7, sp, #0
 80118e6:	4603      	mov	r3, r0
 80118e8:	80fb      	strh	r3, [r7, #6]
  /* EXTI line interrupt detected */
  if(__HAL_GPIO_EXTI_GET_IT(GPIO_Pin) != RESET)
 80118ea:	4b08      	ldr	r3, [pc, #32]	@ (801190c <HAL_GPIO_EXTI_IRQHandler+0x2c>)
 80118ec:	695a      	ldr	r2, [r3, #20]
 80118ee:	88fb      	ldrh	r3, [r7, #6]
 80118f0:	4013      	ands	r3, r2
 80118f2:	2b00      	cmp	r3, #0
 80118f4:	d006      	beq.n	8011904 <HAL_GPIO_EXTI_IRQHandler+0x24>
  {
    __HAL_GPIO_EXTI_CLEAR_IT(GPIO_Pin);
 80118f6:	4a05      	ldr	r2, [pc, #20]	@ (801190c <HAL_GPIO_EXTI_IRQHandler+0x2c>)
 80118f8:	88fb      	ldrh	r3, [r7, #6]
 80118fa:	6153      	str	r3, [r2, #20]
    HAL_GPIO_EXTI_Callback(GPIO_Pin);
 80118fc:	88fb      	ldrh	r3, [r7, #6]
 80118fe:	4618      	mov	r0, r3
 8011900:	f003 fa66 	bl	8014dd0 <HAL_GPIO_EXTI_Callback>
  }
}
 8011904:	bf00      	nop
 8011906:	3708      	adds	r7, #8
 8011908:	46bd      	mov	sp, r7
 801190a:	bd80      	pop	{r7, pc}
 801190c:	40013c00 	.word	0x40013c00

08011910 <HAL_I2C_Init>:
  * @param  hi2c Pointer to a I2C_HandleTypeDef structure that contains
  *                the configuration information for the specified I2C.
  * @retval HAL status
  */
HAL_StatusTypeDef HAL_I2C_Init(I2C_HandleTypeDef *hi2c)
{
 8011910:	b580      	push	{r7, lr}
 8011912:	b084      	sub	sp, #16
 8011914:	af00      	add	r7, sp, #0
 8011916:	6078      	str	r0, [r7, #4]
  uint32_t freqrange;
  uint32_t pclk1;

  /* Check the I2C handle allocation */
  if (hi2c == NULL)
 8011918:	687b      	ldr	r3, [r7, #4]
 801191a:	2b00      	cmp	r3, #0
 801191c:	d101      	bne.n	8011922 <HAL_I2C_Init+0x12>
  {
    return HAL_ERROR;
 801191e:	2301      	movs	r3, #1
 8011920:	e12b      	b.n	8011b7a <HAL_I2C_Init+0x26a>
  assert_param(IS_I2C_DUAL_ADDRESS(hi2c->Init.DualAddressMode));
  assert_param(IS_I2C_OWN_ADDRESS2(hi2c->Init.OwnAddress2));
  assert_param(IS_I2C_GENERAL_CALL(hi2c->Init.GeneralCallMode));
  assert_param(IS_I2C_NO_STRETCH(hi2c->Init.NoStretchMode));

  if (hi2c->State == HAL_I2C_STATE_RESET)
 8011922:	687b      	ldr	r3, [r7, #4]
 8011924:	f893 303d 	ldrb.w	r3, [r3, #61]	@ 0x3d
 8011928:	b2db      	uxtb	r3, r3
 801192a:	2b00      	cmp	r3, #0
 801192c:	d106      	bne.n	801193c <HAL_I2C_Init+0x2c>
  {
    /* Allocate lock resource and initialize it */
    hi2c->Lock = HAL_UNLOCKED;
 801192e:	687b      	ldr	r3, [r7, #4]
 8011930:	2200      	movs	r2, #0
 8011932:	f883 203c 	strb.w	r2, [r3, #60]	@ 0x3c

    /* Init the low level hardware : GPIO, CLOCK, NVIC */
    hi2c->MspInitCallback(hi2c);
#else
    /* Init the low level hardware : GPIO, CLOCK, NVIC */
    HAL_I2C_MspInit(hi2c);
 8011936:	6878      	ldr	r0, [r7, #4]
 8011938:	f7fd fea6 	bl	800f688 <HAL_I2C_MspInit>
#endif /* USE_HAL_I2C_REGISTER_CALLBACKS */
  }

  hi2c->State = HAL_I2C_STATE_BUSY;
 801193c:	687b      	ldr	r3, [r7, #4]
 801193e:	2224      	movs	r2, #36	@ 0x24
 8011940:	f883 203d 	strb.w	r2, [r3, #61]	@ 0x3d

  /* Disable the selected I2C peripheral */
  __HAL_I2C_DISABLE(hi2c);
 8011944:	687b      	ldr	r3, [r7, #4]
 8011946:	681b      	ldr	r3, [r3, #0]
 8011948:	681a      	ldr	r2, [r3, #0]
 801194a:	687b      	ldr	r3, [r7, #4]
 801194c:	681b      	ldr	r3, [r3, #0]
 801194e:	f022 0201 	bic.w	r2, r2, #1
 8011952:	601a      	str	r2, [r3, #0]

  /*Reset I2C*/
  hi2c->Instance->CR1 |= I2C_CR1_SWRST;
 8011954:	687b      	ldr	r3, [r7, #4]
 8011956:	681b      	ldr	r3, [r3, #0]
 8011958:	681a      	ldr	r2, [r3, #0]
 801195a:	687b      	ldr	r3, [r7, #4]
 801195c:	681b      	ldr	r3, [r3, #0]
 801195e:	f442 4200 	orr.w	r2, r2, #32768	@ 0x8000
 8011962:	601a      	str	r2, [r3, #0]
  hi2c->Instance->CR1 &= ~I2C_CR1_SWRST;
 8011964:	687b      	ldr	r3, [r7, #4]
 8011966:	681b      	ldr	r3, [r3, #0]
 8011968:	681a      	ldr	r2, [r3, #0]
 801196a:	687b      	ldr	r3, [r7, #4]
 801196c:	681b      	ldr	r3, [r3, #0]
 801196e:	f422 4200 	bic.w	r2, r2, #32768	@ 0x8000
 8011972:	601a      	str	r2, [r3, #0]

  /* Get PCLK1 frequency */
  pclk1 = HAL_RCC_GetPCLK1Freq();
 8011974:	f000 faa6 	bl	8011ec4 <HAL_RCC_GetPCLK1Freq>
 8011978:	60f8      	str	r0, [r7, #12]

  /* Check the minimum allowed PCLK1 frequency */
  if (I2C_MIN_PCLK_FREQ(pclk1, hi2c->Init.ClockSpeed) == 1U)
 801197a:	687b      	ldr	r3, [r7, #4]
 801197c:	685b      	ldr	r3, [r3, #4]
 801197e:	4a81      	ldr	r2, [pc, #516]	@ (8011b84 <HAL_I2C_Init+0x274>)
 8011980:	4293      	cmp	r3, r2
 8011982:	d807      	bhi.n	8011994 <HAL_I2C_Init+0x84>
 8011984:	68fb      	ldr	r3, [r7, #12]
 8011986:	4a80      	ldr	r2, [pc, #512]	@ (8011b88 <HAL_I2C_Init+0x278>)
 8011988:	4293      	cmp	r3, r2
 801198a:	bf94      	ite	ls
 801198c:	2301      	movls	r3, #1
 801198e:	2300      	movhi	r3, #0
 8011990:	b2db      	uxtb	r3, r3
 8011992:	e006      	b.n	80119a2 <HAL_I2C_Init+0x92>
 8011994:	68fb      	ldr	r3, [r7, #12]
 8011996:	4a7d      	ldr	r2, [pc, #500]	@ (8011b8c <HAL_I2C_Init+0x27c>)
 8011998:	4293      	cmp	r3, r2
 801199a:	bf94      	ite	ls
 801199c:	2301      	movls	r3, #1
 801199e:	2300      	movhi	r3, #0
 80119a0:	b2db      	uxtb	r3, r3
 80119a2:	2b00      	cmp	r3, #0
 80119a4:	d001      	beq.n	80119aa <HAL_I2C_Init+0x9a>
  {
    return HAL_ERROR;
 80119a6:	2301      	movs	r3, #1
 80119a8:	e0e7      	b.n	8011b7a <HAL_I2C_Init+0x26a>
  }

  /* Calculate frequency range */
  freqrange = I2C_FREQRANGE(pclk1);
 80119aa:	68fb      	ldr	r3, [r7, #12]
 80119ac:	4a78      	ldr	r2, [pc, #480]	@ (8011b90 <HAL_I2C_Init+0x280>)
 80119ae:	fba2 2303 	umull	r2, r3, r2, r3
 80119b2:	0c9b      	lsrs	r3, r3, #18
 80119b4:	60bb      	str	r3, [r7, #8]

  /*---------------------------- I2Cx CR2 Configuration ----------------------*/
  /* Configure I2Cx: Frequency range */
  MODIFY_REG(hi2c->Instance->CR2, I2C_CR2_FREQ, freqrange);
 80119b6:	687b      	ldr	r3, [r7, #4]
 80119b8:	681b      	ldr	r3, [r3, #0]
 80119ba:	685b      	ldr	r3, [r3, #4]
 80119bc:	f023 013f 	bic.w	r1, r3, #63	@ 0x3f
 80119c0:	687b      	ldr	r3, [r7, #4]
 80119c2:	681b      	ldr	r3, [r3, #0]
 80119c4:	68ba      	ldr	r2, [r7, #8]
 80119c6:	430a      	orrs	r2, r1
 80119c8:	605a      	str	r2, [r3, #4]

  /*---------------------------- I2Cx TRISE Configuration --------------------*/
  /* Configure I2Cx: Rise Time */
  MODIFY_REG(hi2c->Instance->TRISE, I2C_TRISE_TRISE, I2C_RISE_TIME(freqrange, hi2c->Init.ClockSpeed));
 80119ca:	687b      	ldr	r3, [r7, #4]
 80119cc:	681b      	ldr	r3, [r3, #0]
 80119ce:	6a1b      	ldr	r3, [r3, #32]
 80119d0:	f023 013f 	bic.w	r1, r3, #63	@ 0x3f
 80119d4:	687b      	ldr	r3, [r7, #4]
 80119d6:	685b      	ldr	r3, [r3, #4]
 80119d8:	4a6a      	ldr	r2, [pc, #424]	@ (8011b84 <HAL_I2C_Init+0x274>)
 80119da:	4293      	cmp	r3, r2
 80119dc:	d802      	bhi.n	80119e4 <HAL_I2C_Init+0xd4>
 80119de:	68bb      	ldr	r3, [r7, #8]
 80119e0:	3301      	adds	r3, #1
 80119e2:	e009      	b.n	80119f8 <HAL_I2C_Init+0xe8>
 80119e4:	68bb      	ldr	r3, [r7, #8]
 80119e6:	f44f 7296 	mov.w	r2, #300	@ 0x12c
 80119ea:	fb02 f303 	mul.w	r3, r2, r3
 80119ee:	4a69      	ldr	r2, [pc, #420]	@ (8011b94 <HAL_I2C_Init+0x284>)
 80119f0:	fba2 2303 	umull	r2, r3, r2, r3
 80119f4:	099b      	lsrs	r3, r3, #6
 80119f6:	3301      	adds	r3, #1
 80119f8:	687a      	ldr	r2, [r7, #4]
 80119fa:	6812      	ldr	r2, [r2, #0]
 80119fc:	430b      	orrs	r3, r1
 80119fe:	6213      	str	r3, [r2, #32]

  /*---------------------------- I2Cx CCR Configuration ----------------------*/
  /* Configure I2Cx: Speed */
  MODIFY_REG(hi2c->Instance->CCR, (I2C_CCR_FS | I2C_CCR_DUTY | I2C_CCR_CCR), I2C_SPEED(pclk1, hi2c->Init.ClockSpeed, hi2c->Init.DutyCycle));
 8011a00:	687b      	ldr	r3, [r7, #4]
 8011a02:	681b      	ldr	r3, [r3, #0]
 8011a04:	69db      	ldr	r3, [r3, #28]
 8011a06:	f423 424f 	bic.w	r2, r3, #52992	@ 0xcf00
 8011a0a:	f022 02ff 	bic.w	r2, r2, #255	@ 0xff
 8011a0e:	687b      	ldr	r3, [r7, #4]
 8011a10:	685b      	ldr	r3, [r3, #4]
 8011a12:	495c      	ldr	r1, [pc, #368]	@ (8011b84 <HAL_I2C_Init+0x274>)
 8011a14:	428b      	cmp	r3, r1
 8011a16:	d819      	bhi.n	8011a4c <HAL_I2C_Init+0x13c>
 8011a18:	68fb      	ldr	r3, [r7, #12]
 8011a1a:	1e59      	subs	r1, r3, #1
 8011a1c:	687b      	ldr	r3, [r7, #4]
 8011a1e:	685b      	ldr	r3, [r3, #4]
 8011a20:	005b      	lsls	r3, r3, #1
 8011a22:	fbb1 f3f3 	udiv	r3, r1, r3
 8011a26:	1c59      	adds	r1, r3, #1
 8011a28:	f640 73fc 	movw	r3, #4092	@ 0xffc
 8011a2c:	400b      	ands	r3, r1
 8011a2e:	2b00      	cmp	r3, #0
 8011a30:	d00a      	beq.n	8011a48 <HAL_I2C_Init+0x138>
 8011a32:	68fb      	ldr	r3, [r7, #12]
 8011a34:	1e59      	subs	r1, r3, #1
 8011a36:	687b      	ldr	r3, [r7, #4]
 8011a38:	685b      	ldr	r3, [r3, #4]
 8011a3a:	005b      	lsls	r3, r3, #1
 8011a3c:	fbb1 f3f3 	udiv	r3, r1, r3
 8011a40:	3301      	adds	r3, #1
 8011a42:	f3c3 030b 	ubfx	r3, r3, #0, #12
 8011a46:	e051      	b.n	8011aec <HAL_I2C_Init+0x1dc>
 8011a48:	2304      	movs	r3, #4
 8011a4a:	e04f      	b.n	8011aec <HAL_I2C_Init+0x1dc>
 8011a4c:	687b      	ldr	r3, [r7, #4]
 8011a4e:	689b      	ldr	r3, [r3, #8]
 8011a50:	2b00      	cmp	r3, #0
 8011a52:	d111      	bne.n	8011a78 <HAL_I2C_Init+0x168>
 8011a54:	68fb      	ldr	r3, [r7, #12]
 8011a56:	1e58      	subs	r0, r3, #1
 8011a58:	687b      	ldr	r3, [r7, #4]
 8011a5a:	6859      	ldr	r1, [r3, #4]
 8011a5c:	460b      	mov	r3, r1
 8011a5e:	005b      	lsls	r3, r3, #1
 8011a60:	440b      	add	r3, r1
 8011a62:	fbb0 f3f3 	udiv	r3, r0, r3
 8011a66:	3301      	adds	r3, #1
 8011a68:	f3c3 030b 	ubfx	r3, r3, #0, #12
 8011a6c:	2b00      	cmp	r3, #0
 8011a6e:	bf0c      	ite	eq
 8011a70:	2301      	moveq	r3, #1
 8011a72:	2300      	movne	r3, #0
 8011a74:	b2db      	uxtb	r3, r3
 8011a76:	e012      	b.n	8011a9e <HAL_I2C_Init+0x18e>
 8011a78:	68fb      	ldr	r3, [r7, #12]
 8011a7a:	1e58      	subs	r0, r3, #1
 8011a7c:	687b      	ldr	r3, [r7, #4]
 8011a7e:	6859      	ldr	r1, [r3, #4]
 8011a80:	460b      	mov	r3, r1
 8011a82:	009b      	lsls	r3, r3, #2
 8011a84:	440b      	add	r3, r1
 8011a86:	0099      	lsls	r1, r3, #2
 8011a88:	440b      	add	r3, r1
 8011a8a:	fbb0 f3f3 	udiv	r3, r0, r3
 8011a8e:	3301      	adds	r3, #1
 8011a90:	f3c3 030b 	ubfx	r3, r3, #0, #12
 8011a94:	2b00      	cmp	r3, #0
 8011a96:	bf0c      	ite	eq
 8011a98:	2301      	moveq	r3, #1
 8011a9a:	2300      	movne	r3, #0
 8011a9c:	b2db      	uxtb	r3, r3
 8011a9e:	2b00      	cmp	r3, #0
 8011aa0:	d001      	beq.n	8011aa6 <HAL_I2C_Init+0x196>
 8011aa2:	2301      	movs	r3, #1
 8011aa4:	e022      	b.n	8011aec <HAL_I2C_Init+0x1dc>
 8011aa6:	687b      	ldr	r3, [r7, #4]
 8011aa8:	689b      	ldr	r3, [r3, #8]
 8011aaa:	2b00      	cmp	r3, #0
 8011aac:	d10e      	bne.n	8011acc <HAL_I2C_Init+0x1bc>
 8011aae:	68fb      	ldr	r3, [r7, #12]
 8011ab0:	1e58      	subs	r0, r3, #1
 8011ab2:	687b      	ldr	r3, [r7, #4]
 8011ab4:	6859      	ldr	r1, [r3, #4]
 8011ab6:	460b      	mov	r3, r1
 8011ab8:	005b      	lsls	r3, r3, #1
 8011aba:	440b      	add	r3, r1
 8011abc:	fbb0 f3f3 	udiv	r3, r0, r3
 8011ac0:	3301      	adds	r3, #1
 8011ac2:	f3c3 030b 	ubfx	r3, r3, #0, #12
 8011ac6:	f443 4300 	orr.w	r3, r3, #32768	@ 0x8000
 8011aca:	e00f      	b.n	8011aec <HAL_I2C_Init+0x1dc>
 8011acc:	68fb      	ldr	r3, [r7, #12]
 8011ace:	1e58      	subs	r0, r3, #1
 8011ad0:	687b      	ldr	r3, [r7, #4]
 8011ad2:	6859      	ldr	r1, [r3, #4]
 8011ad4:	460b      	mov	r3, r1
 8011ad6:	009b      	lsls	r3, r3, #2
 8011ad8:	440b      	add	r3, r1
 8011ada:	0099      	lsls	r1, r3, #2
 8011adc:	440b      	add	r3, r1
 8011ade:	fbb0 f3f3 	udiv	r3, r0, r3
 8011ae2:	3301      	adds	r3, #1
 8011ae4:	f3c3 030b 	ubfx	r3, r3, #0, #12
 8011ae8:	f443 4340 	orr.w	r3, r3, #49152	@ 0xc000
 8011aec:	6879      	ldr	r1, [r7, #4]
 8011aee:	6809      	ldr	r1, [r1, #0]
 8011af0:	4313      	orrs	r3, r2
 8011af2:	61cb      	str	r3, [r1, #28]

  /*---------------------------- I2Cx CR1 Configuration ----------------------*/
  /* Configure I2Cx: Generalcall and NoStretch mode */
  MODIFY_REG(hi2c->Instance->CR1, (I2C_CR1_ENGC | I2C_CR1_NOSTRETCH), (hi2c->Init.GeneralCallMode | hi2c->Init.NoStretchMode));
 8011af4:	687b      	ldr	r3, [r7, #4]
 8011af6:	681b      	ldr	r3, [r3, #0]
 8011af8:	681b      	ldr	r3, [r3, #0]
 8011afa:	f023 01c0 	bic.w	r1, r3, #192	@ 0xc0
 8011afe:	687b      	ldr	r3, [r7, #4]
 8011b00:	69da      	ldr	r2, [r3, #28]
 8011b02:	687b      	ldr	r3, [r7, #4]
 8011b04:	6a1b      	ldr	r3, [r3, #32]
 8011b06:	431a      	orrs	r2, r3
 8011b08:	687b      	ldr	r3, [r7, #4]
 8011b0a:	681b      	ldr	r3, [r3, #0]
 8011b0c:	430a      	orrs	r2, r1
 8011b0e:	601a      	str	r2, [r3, #0]

  /*---------------------------- I2Cx OAR1 Configuration ---------------------*/
  /* Configure I2Cx: Own Address1 and addressing mode */
  MODIFY_REG(hi2c->Instance->OAR1, (I2C_OAR1_ADDMODE | I2C_OAR1_ADD8_9 | I2C_OAR1_ADD1_7 | I2C_OAR1_ADD0), (hi2c->Init.AddressingMode | hi2c->Init.OwnAddress1));
 8011b10:	687b      	ldr	r3, [r7, #4]
 8011b12:	681b      	ldr	r3, [r3, #0]
 8011b14:	689b      	ldr	r3, [r3, #8]
 8011b16:	f423 4303 	bic.w	r3, r3, #33536	@ 0x8300
 8011b1a:	f023 03ff 	bic.w	r3, r3, #255	@ 0xff
 8011b1e:	687a      	ldr	r2, [r7, #4]
 8011b20:	6911      	ldr	r1, [r2, #16]
 8011b22:	687a      	ldr	r2, [r7, #4]
 8011b24:	68d2      	ldr	r2, [r2, #12]
 8011b26:	4311      	orrs	r1, r2
 8011b28:	687a      	ldr	r2, [r7, #4]
 8011b2a:	6812      	ldr	r2, [r2, #0]
 8011b2c:	430b      	orrs	r3, r1
 8011b2e:	6093      	str	r3, [r2, #8]

  /*---------------------------- I2Cx OAR2 Configuration ---------------------*/
  /* Configure I2Cx: Dual mode and Own Address2 */
  MODIFY_REG(hi2c->Instance->OAR2, (I2C_OAR2_ENDUAL | I2C_OAR2_ADD2), (hi2c->Init.DualAddressMode | hi2c->Init.OwnAddress2));
 8011b30:	687b      	ldr	r3, [r7, #4]
 8011b32:	681b      	ldr	r3, [r3, #0]
 8011b34:	68db      	ldr	r3, [r3, #12]
 8011b36:	f023 01ff 	bic.w	r1, r3, #255	@ 0xff
 8011b3a:	687b      	ldr	r3, [r7, #4]
 8011b3c:	695a      	ldr	r2, [r3, #20]
 8011b3e:	687b      	ldr	r3, [r7, #4]
 8011b40:	699b      	ldr	r3, [r3, #24]
 8011b42:	431a      	orrs	r2, r3
 8011b44:	687b      	ldr	r3, [r7, #4]
 8011b46:	681b      	ldr	r3, [r3, #0]
 8011b48:	430a      	orrs	r2, r1
 8011b4a:	60da      	str	r2, [r3, #12]

  /* Enable the selected I2C peripheral */
  __HAL_I2C_ENABLE(hi2c);
 8011b4c:	687b      	ldr	r3, [r7, #4]
 8011b4e:	681b      	ldr	r3, [r3, #0]
 8011b50:	681a      	ldr	r2, [r3, #0]
 8011b52:	687b      	ldr	r3, [r7, #4]
 8011b54:	681b      	ldr	r3, [r3, #0]
 8011b56:	f042 0201 	orr.w	r2, r2, #1
 8011b5a:	601a      	str	r2, [r3, #0]

  hi2c->ErrorCode = HAL_I2C_ERROR_NONE;
 8011b5c:	687b      	ldr	r3, [r7, #4]
 8011b5e:	2200      	movs	r2, #0
 8011b60:	641a      	str	r2, [r3, #64]	@ 0x40
  hi2c->State = HAL_I2C_STATE_READY;
 8011b62:	687b      	ldr	r3, [r7, #4]
 8011b64:	2220      	movs	r2, #32
 8011b66:	f883 203d 	strb.w	r2, [r3, #61]	@ 0x3d
  hi2c->PreviousState = I2C_STATE_NONE;
 8011b6a:	687b      	ldr	r3, [r7, #4]
 8011b6c:	2200      	movs	r2, #0
 8011b6e:	631a      	str	r2, [r3, #48]	@ 0x30
  hi2c->Mode = HAL_I2C_MODE_NONE;
 8011b70:	687b      	ldr	r3, [r7, #4]
 8011b72:	2200      	movs	r2, #0
 8011b74:	f883 203e 	strb.w	r2, [r3, #62]	@ 0x3e

  return HAL_OK;
 8011b78:	2300      	movs	r3, #0
}
 8011b7a:	4618      	mov	r0, r3
 8011b7c:	3710      	adds	r7, #16
 8011b7e:	46bd      	mov	sp, r7
 8011b80:	bd80      	pop	{r7, pc}
 8011b82:	bf00      	nop
 8011b84:	000186a0 	.word	0x000186a0
 8011b88:	001e847f 	.word	0x001e847f
 8011b8c:	003d08ff 	.word	0x003d08ff
 8011b90:	431bde83 	.word	0x431bde83
 8011b94:	10624dd3 	.word	0x10624dd3

08011b98 <HAL_IWDG_Init>:
  * @param  hiwdg  pointer to a IWDG_HandleTypeDef structure that contains
  *                the configuration information for the specified IWDG module.
  * @retval HAL status
  */
HAL_StatusTypeDef HAL_IWDG_Init(IWDG_HandleTypeDef *hiwdg)
{
 8011b98:	b580      	push	{r7, lr}
 8011b9a:	b084      	sub	sp, #16
 8011b9c:	af00      	add	r7, sp, #0
 8011b9e:	6078      	str	r0, [r7, #4]
  uint32_t tickstart;

  /* Check the IWDG handle allocation */
  if (hiwdg == NULL)
 8011ba0:	687b      	ldr	r3, [r7, #4]
 8011ba2:	2b00      	cmp	r3, #0
 8011ba4:	d101      	bne.n	8011baa <HAL_IWDG_Init+0x12>
  {
    return HAL_ERROR;
 8011ba6:	2301      	movs	r3, #1
 8011ba8:	e036      	b.n	8011c18 <HAL_IWDG_Init+0x80>
  assert_param(IS_IWDG_ALL_INSTANCE(hiwdg->Instance));
  assert_param(IS_IWDG_PRESCALER(hiwdg->Init.Prescaler));
  assert_param(IS_IWDG_RELOAD(hiwdg->Init.Reload));

  /* Enable IWDG. LSI is turned on automatically */
  __HAL_IWDG_START(hiwdg);
 8011baa:	687b      	ldr	r3, [r7, #4]
 8011bac:	681b      	ldr	r3, [r3, #0]
 8011bae:	f64c 42cc 	movw	r2, #52428	@ 0xcccc
 8011bb2:	601a      	str	r2, [r3, #0]

  /* Enable write access to IWDG_PR and IWDG_RLR registers by writing
  0x5555 in KR */
  IWDG_ENABLE_WRITE_ACCESS(hiwdg);
 8011bb4:	687b      	ldr	r3, [r7, #4]
 8011bb6:	681b      	ldr	r3, [r3, #0]
 8011bb8:	f245 5255 	movw	r2, #21845	@ 0x5555
 8011bbc:	601a      	str	r2, [r3, #0]

  /* Write to IWDG registers the Prescaler & Reload values to work with */
  hiwdg->Instance->PR = hiwdg->Init.Prescaler;
 8011bbe:	687b      	ldr	r3, [r7, #4]
 8011bc0:	681b      	ldr	r3, [r3, #0]
 8011bc2:	687a      	ldr	r2, [r7, #4]
 8011bc4:	6852      	ldr	r2, [r2, #4]
 8011bc6:	605a      	str	r2, [r3, #4]
  hiwdg->Instance->RLR = hiwdg->Init.Reload;
 8011bc8:	687b      	ldr	r3, [r7, #4]
 8011bca:	681b      	ldr	r3, [r3, #0]
 8011bcc:	687a      	ldr	r2, [r7, #4]
 8011bce:	6892      	ldr	r2, [r2, #8]
 8011bd0:	609a      	str	r2, [r3, #8]

  /* Check pending flag, if previous update not done, return timeout */
  tickstart = HAL_GetTick();
 8011bd2:	f7fd ffe7 	bl	800fba4 <HAL_GetTick>
 8011bd6:	60f8      	str	r0, [r7, #12]

  /* Wait for register to be updated */
  while ((hiwdg->Instance->SR & IWDG_KERNEL_UPDATE_FLAGS) != 0x00u)
 8011bd8:	e011      	b.n	8011bfe <HAL_IWDG_Init+0x66>
  {
    if ((HAL_GetTick() - tickstart) > HAL_IWDG_DEFAULT_TIMEOUT)
 8011bda:	f7fd ffe3 	bl	800fba4 <HAL_GetTick>
 8011bde:	4602      	mov	r2, r0
 8011be0:	68fb      	ldr	r3, [r7, #12]
 8011be2:	1ad3      	subs	r3, r2, r3
 8011be4:	f641 0201 	movw	r2, #6145	@ 0x1801
 8011be8:	4293      	cmp	r3, r2
 8011bea:	d908      	bls.n	8011bfe <HAL_IWDG_Init+0x66>
    {
      if ((hiwdg->Instance->SR & IWDG_KERNEL_UPDATE_FLAGS) != 0x00u)
 8011bec:	687b      	ldr	r3, [r7, #4]
 8011bee:	681b      	ldr	r3, [r3, #0]
 8011bf0:	68db      	ldr	r3, [r3, #12]
 8011bf2:	f003 0303 	and.w	r3, r3, #3
 8011bf6:	2b00      	cmp	r3, #0
 8011bf8:	d001      	beq.n	8011bfe <HAL_IWDG_Init+0x66>
      {
        return HAL_TIMEOUT;
 8011bfa:	2303      	movs	r3, #3
 8011bfc:	e00c      	b.n	8011c18 <HAL_IWDG_Init+0x80>
  while ((hiwdg->Instance->SR & IWDG_KERNEL_UPDATE_FLAGS) != 0x00u)
 8011bfe:	687b      	ldr	r3, [r7, #4]
 8011c00:	681b      	ldr	r3, [r3, #0]
 8011c02:	68db      	ldr	r3, [r3, #12]
 8011c04:	f003 0303 	and.w	r3, r3, #3
 8011c08:	2b00      	cmp	r3, #0
 8011c0a:	d1e6      	bne.n	8011bda <HAL_IWDG_Init+0x42>
      }
    }
  }

  /* Reload IWDG counter with value defined in the reload register */
  __HAL_IWDG_RELOAD_COUNTER(hiwdg);
 8011c0c:	687b      	ldr	r3, [r7, #4]
 8011c0e:	681b      	ldr	r3, [r3, #0]
 8011c10:	f64a 22aa 	movw	r2, #43690	@ 0xaaaa
 8011c14:	601a      	str	r2, [r3, #0]

  /* Return function status */
  return HAL_OK;
 8011c16:	2300      	movs	r3, #0
}
 8011c18:	4618      	mov	r0, r3
 8011c1a:	3710      	adds	r7, #16
 8011c1c:	46bd      	mov	sp, r7
 8011c1e:	bd80      	pop	{r7, pc}

08011c20 <HAL_IWDG_Refresh>:
  * @param  hiwdg  pointer to a IWDG_HandleTypeDef structure that contains
  *                the configuration information for the specified IWDG module.
  * @retval HAL status
  */
HAL_StatusTypeDef HAL_IWDG_Refresh(IWDG_HandleTypeDef *hiwdg)
{
 8011c20:	b480      	push	{r7}
 8011c22:	b083      	sub	sp, #12
 8011c24:	af00      	add	r7, sp, #0
 8011c26:	6078      	str	r0, [r7, #4]
  /* Reload IWDG counter with value defined in the reload register */
  __HAL_IWDG_RELOAD_COUNTER(hiwdg);
 8011c28:	687b      	ldr	r3, [r7, #4]
 8011c2a:	681b      	ldr	r3, [r3, #0]
 8011c2c:	f64a 22aa 	movw	r2, #43690	@ 0xaaaa
 8011c30:	601a      	str	r2, [r3, #0]

  /* Return function status */
  return HAL_OK;
 8011c32:	2300      	movs	r3, #0
}
 8011c34:	4618      	mov	r0, r3
 8011c36:	370c      	adds	r7, #12
 8011c38:	46bd      	mov	sp, r7
 8011c3a:	f85d 7b04 	ldr.w	r7, [sp], #4
 8011c3e:	4770      	bx	lr

08011c40 <HAL_PWREx_EnableOverDrive>:
  *         During the Over-drive switch activation, no peripheral clocks should be enabled.   
  *         The peripheral clocks must be enabled once the Over-drive mode is activated.   
  * @retval HAL status
  */
HAL_StatusTypeDef HAL_PWREx_EnableOverDrive(void)
{
 8011c40:	b580      	push	{r7, lr}
 8011c42:	b082      	sub	sp, #8
 8011c44:	af00      	add	r7, sp, #0
  uint32_t tickstart = 0U;
 8011c46:	2300      	movs	r3, #0
 8011c48:	607b      	str	r3, [r7, #4]

  __HAL_RCC_PWR_CLK_ENABLE();
 8011c4a:	2300      	movs	r3, #0
 8011c4c:	603b      	str	r3, [r7, #0]
 8011c4e:	4b20      	ldr	r3, [pc, #128]	@ (8011cd0 <HAL_PWREx_EnableOverDrive+0x90>)
 8011c50:	6c1b      	ldr	r3, [r3, #64]	@ 0x40
 8011c52:	4a1f      	ldr	r2, [pc, #124]	@ (8011cd0 <HAL_PWREx_EnableOverDrive+0x90>)
 8011c54:	f043 5380 	orr.w	r3, r3, #268435456	@ 0x10000000
 8011c58:	6413      	str	r3, [r2, #64]	@ 0x40
 8011c5a:	4b1d      	ldr	r3, [pc, #116]	@ (8011cd0 <HAL_PWREx_EnableOverDrive+0x90>)
 8011c5c:	6c1b      	ldr	r3, [r3, #64]	@ 0x40
 8011c5e:	f003 5380 	and.w	r3, r3, #268435456	@ 0x10000000
 8011c62:	603b      	str	r3, [r7, #0]
 8011c64:	683b      	ldr	r3, [r7, #0]
  
  /* Enable the Over-drive to extend the clock frequency to 180 Mhz */
  __HAL_PWR_OVERDRIVE_ENABLE();
 8011c66:	4b1b      	ldr	r3, [pc, #108]	@ (8011cd4 <HAL_PWREx_EnableOverDrive+0x94>)
 8011c68:	2201      	movs	r2, #1
 8011c6a:	601a      	str	r2, [r3, #0]

  /* Get tick */
  tickstart = HAL_GetTick();
 8011c6c:	f7fd ff9a 	bl	800fba4 <HAL_GetTick>
 8011c70:	6078      	str	r0, [r7, #4]

  while(!__HAL_PWR_GET_FLAG(PWR_FLAG_ODRDY))
 8011c72:	e009      	b.n	8011c88 <HAL_PWREx_EnableOverDrive+0x48>
  {
    if((HAL_GetTick() - tickstart) > PWR_OVERDRIVE_TIMEOUT_VALUE)
 8011c74:	f7fd ff96 	bl	800fba4 <HAL_GetTick>
 8011c78:	4602      	mov	r2, r0
 8011c7a:	687b      	ldr	r3, [r7, #4]
 8011c7c:	1ad3      	subs	r3, r2, r3
 8011c7e:	f5b3 7f7a 	cmp.w	r3, #1000	@ 0x3e8
 8011c82:	d901      	bls.n	8011c88 <HAL_PWREx_EnableOverDrive+0x48>
    {
      return HAL_TIMEOUT;
 8011c84:	2303      	movs	r3, #3
 8011c86:	e01f      	b.n	8011cc8 <HAL_PWREx_EnableOverDrive+0x88>
  while(!__HAL_PWR_GET_FLAG(PWR_FLAG_ODRDY))
 8011c88:	4b13      	ldr	r3, [pc, #76]	@ (8011cd8 <HAL_PWREx_EnableOverDrive+0x98>)
 8011c8a:	685b      	ldr	r3, [r3, #4]
 8011c8c:	f403 3380 	and.w	r3, r3, #65536	@ 0x10000
 8011c90:	f5b3 3f80 	cmp.w	r3, #65536	@ 0x10000
 8011c94:	d1ee      	bne.n	8011c74 <HAL_PWREx_EnableOverDrive+0x34>
    }
  }
  
  /* Enable the Over-drive switch */
  __HAL_PWR_OVERDRIVESWITCHING_ENABLE();
 8011c96:	4b11      	ldr	r3, [pc, #68]	@ (8011cdc <HAL_PWREx_EnableOverDrive+0x9c>)
 8011c98:	2201      	movs	r2, #1
 8011c9a:	601a      	str	r2, [r3, #0]

  /* Get tick */
  tickstart = HAL_GetTick();
 8011c9c:	f7fd ff82 	bl	800fba4 <HAL_GetTick>
 8011ca0:	6078      	str	r0, [r7, #4]

  while(!__HAL_PWR_GET_FLAG(PWR_FLAG_ODSWRDY))
 8011ca2:	e009      	b.n	8011cb8 <HAL_PWREx_EnableOverDrive+0x78>
  {
    if((HAL_GetTick() - tickstart ) > PWR_OVERDRIVE_TIMEOUT_VALUE)
 8011ca4:	f7fd ff7e 	bl	800fba4 <HAL_GetTick>
 8011ca8:	4602      	mov	r2, r0
 8011caa:	687b      	ldr	r3, [r7, #4]
 8011cac:	1ad3      	subs	r3, r2, r3
 8011cae:	f5b3 7f7a 	cmp.w	r3, #1000	@ 0x3e8
 8011cb2:	d901      	bls.n	8011cb8 <HAL_PWREx_EnableOverDrive+0x78>
    {
      return HAL_TIMEOUT;
 8011cb4:	2303      	movs	r3, #3
 8011cb6:	e007      	b.n	8011cc8 <HAL_PWREx_EnableOverDrive+0x88>
  while(!__HAL_PWR_GET_FLAG(PWR_FLAG_ODSWRDY))
 8011cb8:	4b07      	ldr	r3, [pc, #28]	@ (8011cd8 <HAL_PWREx_EnableOverDrive+0x98>)
 8011cba:	685b      	ldr	r3, [r3, #4]
 8011cbc:	f403 3300 	and.w	r3, r3, #131072	@ 0x20000
 8011cc0:	f5b3 3f00 	cmp.w	r3, #131072	@ 0x20000
 8011cc4:	d1ee      	bne.n	8011ca4 <HAL_PWREx_EnableOverDrive+0x64>
    }
  } 
  return HAL_OK;
 8011cc6:	2300      	movs	r3, #0
}
 8011cc8:	4618      	mov	r0, r3
 8011cca:	3708      	adds	r7, #8
 8011ccc:	46bd      	mov	sp, r7
 8011cce:	bd80      	pop	{r7, pc}
 8011cd0:	40023800 	.word	0x40023800
 8011cd4:	420e0040 	.word	0x420e0040
 8011cd8:	40007000 	.word	0x40007000
 8011cdc:	420e0044 	.word	0x420e0044

08011ce0 <HAL_RCC_ClockConfig>:
  *         HPRE[3:0] bits to ensure that HCLK not exceed the maximum allowed frequency
  *         (for more details refer to section above "Initialization/de-initialization functions")
  * @retval None
  */
HAL_StatusTypeDef HAL_RCC_ClockConfig(const RCC_ClkInitTypeDef  *RCC_ClkInitStruct, uint32_t FLatency)
{
 8011ce0:	b580      	push	{r7, lr}
 8011ce2:	b084      	sub	sp, #16
 8011ce4:	af00      	add	r7, sp, #0
 8011ce6:	6078      	str	r0, [r7, #4]
 8011ce8:	6039      	str	r1, [r7, #0]
  uint32_t tickstart;

  /* Check Null pointer */
  if (RCC_ClkInitStruct == NULL)
 8011cea:	687b      	ldr	r3, [r7, #4]
 8011cec:	2b00      	cmp	r3, #0
 8011cee:	d101      	bne.n	8011cf4 <HAL_RCC_ClockConfig+0x14>
  {
    return HAL_ERROR;
 8011cf0:	2301      	movs	r3, #1
 8011cf2:	e0cc      	b.n	8011e8e <HAL_RCC_ClockConfig+0x1ae>
  /* To correctly read data from FLASH memory, the number of wait states (LATENCY)
    must be correctly programmed according to the frequency of the CPU clock
    (HCLK) and the supply voltage of the device. */

  /* Increasing the number of wait states because of higher CPU frequency */
  if (FLatency > __HAL_FLASH_GET_LATENCY())
 8011cf4:	4b68      	ldr	r3, [pc, #416]	@ (8011e98 <HAL_RCC_ClockConfig+0x1b8>)
 8011cf6:	681b      	ldr	r3, [r3, #0]
 8011cf8:	f003 030f 	and.w	r3, r3, #15
 8011cfc:	683a      	ldr	r2, [r7, #0]
 8011cfe:	429a      	cmp	r2, r3
 8011d00:	d90c      	bls.n	8011d1c <HAL_RCC_ClockConfig+0x3c>
  {
    /* Program the new number of wait states to the LATENCY bits in the FLASH_ACR register */
    __HAL_FLASH_SET_LATENCY(FLatency);
 8011d02:	4b65      	ldr	r3, [pc, #404]	@ (8011e98 <HAL_RCC_ClockConfig+0x1b8>)
 8011d04:	683a      	ldr	r2, [r7, #0]
 8011d06:	b2d2      	uxtb	r2, r2
 8011d08:	701a      	strb	r2, [r3, #0]

    /* Check that the new number of wait states is taken into account to access the Flash
    memory by reading the FLASH_ACR register */
    if (__HAL_FLASH_GET_LATENCY() != FLatency)
 8011d0a:	4b63      	ldr	r3, [pc, #396]	@ (8011e98 <HAL_RCC_ClockConfig+0x1b8>)
 8011d0c:	681b      	ldr	r3, [r3, #0]
 8011d0e:	f003 030f 	and.w	r3, r3, #15
 8011d12:	683a      	ldr	r2, [r7, #0]
 8011d14:	429a      	cmp	r2, r3
 8011d16:	d001      	beq.n	8011d1c <HAL_RCC_ClockConfig+0x3c>
    {
      return HAL_ERROR;
 8011d18:	2301      	movs	r3, #1
 8011d1a:	e0b8      	b.n	8011e8e <HAL_RCC_ClockConfig+0x1ae>
    }
  }

  /*-------------------------- HCLK Configuration --------------------------*/
  if (((RCC_ClkInitStruct->ClockType) & RCC_CLOCKTYPE_HCLK) == RCC_CLOCKTYPE_HCLK)
 8011d1c:	687b      	ldr	r3, [r7, #4]
 8011d1e:	681b      	ldr	r3, [r3, #0]
 8011d20:	f003 0302 	and.w	r3, r3, #2
 8011d24:	2b00      	cmp	r3, #0
 8011d26:	d020      	beq.n	8011d6a <HAL_RCC_ClockConfig+0x8a>
  {
    /* Set the highest APBx dividers in order to ensure that we do not go through
       a non-spec phase whatever we decrease or increase HCLK. */
    if (((RCC_ClkInitStruct->ClockType) & RCC_CLOCKTYPE_PCLK1) == RCC_CLOCKTYPE_PCLK1)
 8011d28:	687b      	ldr	r3, [r7, #4]
 8011d2a:	681b      	ldr	r3, [r3, #0]
 8011d2c:	f003 0304 	and.w	r3, r3, #4
 8011d30:	2b00      	cmp	r3, #0
 8011d32:	d005      	beq.n	8011d40 <HAL_RCC_ClockConfig+0x60>
    {
      MODIFY_REG(RCC->CFGR, RCC_CFGR_PPRE1, RCC_HCLK_DIV16);
 8011d34:	4b59      	ldr	r3, [pc, #356]	@ (8011e9c <HAL_RCC_ClockConfig+0x1bc>)
 8011d36:	689b      	ldr	r3, [r3, #8]
 8011d38:	4a58      	ldr	r2, [pc, #352]	@ (8011e9c <HAL_RCC_ClockConfig+0x1bc>)
 8011d3a:	f443 53e0 	orr.w	r3, r3, #7168	@ 0x1c00
 8011d3e:	6093      	str	r3, [r2, #8]
    }

    if (((RCC_ClkInitStruct->ClockType) & RCC_CLOCKTYPE_PCLK2) == RCC_CLOCKTYPE_PCLK2)
 8011d40:	687b      	ldr	r3, [r7, #4]
 8011d42:	681b      	ldr	r3, [r3, #0]
 8011d44:	f003 0308 	and.w	r3, r3, #8
 8011d48:	2b00      	cmp	r3, #0
 8011d4a:	d005      	beq.n	8011d58 <HAL_RCC_ClockConfig+0x78>
    {
      MODIFY_REG(RCC->CFGR, RCC_CFGR_PPRE2, (RCC_HCLK_DIV16 << 3));
 8011d4c:	4b53      	ldr	r3, [pc, #332]	@ (8011e9c <HAL_RCC_ClockConfig+0x1bc>)
 8011d4e:	689b      	ldr	r3, [r3, #8]
 8011d50:	4a52      	ldr	r2, [pc, #328]	@ (8011e9c <HAL_RCC_ClockConfig+0x1bc>)
 8011d52:	f443 4360 	orr.w	r3, r3, #57344	@ 0xe000
 8011d56:	6093      	str	r3, [r2, #8]
    }

    assert_param(IS_RCC_HCLK(RCC_ClkInitStruct->AHBCLKDivider));
    MODIFY_REG(RCC->CFGR, RCC_CFGR_HPRE, RCC_ClkInitStruct->AHBCLKDivider);
 8011d58:	4b50      	ldr	r3, [pc, #320]	@ (8011e9c <HAL_RCC_ClockConfig+0x1bc>)
 8011d5a:	689b      	ldr	r3, [r3, #8]
 8011d5c:	f023 02f0 	bic.w	r2, r3, #240	@ 0xf0
 8011d60:	687b      	ldr	r3, [r7, #4]
 8011d62:	689b      	ldr	r3, [r3, #8]
 8011d64:	494d      	ldr	r1, [pc, #308]	@ (8011e9c <HAL_RCC_ClockConfig+0x1bc>)
 8011d66:	4313      	orrs	r3, r2
 8011d68:	608b      	str	r3, [r1, #8]
  }

  /*------------------------- SYSCLK Configuration ---------------------------*/
  if (((RCC_ClkInitStruct->ClockType) & RCC_CLOCKTYPE_SYSCLK) == RCC_CLOCKTYPE_SYSCLK)
 8011d6a:	687b      	ldr	r3, [r7, #4]
 8011d6c:	681b      	ldr	r3, [r3, #0]
 8011d6e:	f003 0301 	and.w	r3, r3, #1
 8011d72:	2b00      	cmp	r3, #0
 8011d74:	d044      	beq.n	8011e00 <HAL_RCC_ClockConfig+0x120>
  {
    assert_param(IS_RCC_SYSCLKSOURCE(RCC_ClkInitStruct->SYSCLKSource));

    /* HSE is selected as System Clock Source */
    if (RCC_ClkInitStruct->SYSCLKSource == RCC_SYSCLKSOURCE_HSE)
 8011d76:	687b      	ldr	r3, [r7, #4]
 8011d78:	685b      	ldr	r3, [r3, #4]
 8011d7a:	2b01      	cmp	r3, #1
 8011d7c:	d107      	bne.n	8011d8e <HAL_RCC_ClockConfig+0xae>
    {
      /* Check the HSE ready flag */
      if (__HAL_RCC_GET_FLAG(RCC_FLAG_HSERDY) == RESET)
 8011d7e:	4b47      	ldr	r3, [pc, #284]	@ (8011e9c <HAL_RCC_ClockConfig+0x1bc>)
 8011d80:	681b      	ldr	r3, [r3, #0]
 8011d82:	f403 3300 	and.w	r3, r3, #131072	@ 0x20000
 8011d86:	2b00      	cmp	r3, #0
 8011d88:	d119      	bne.n	8011dbe <HAL_RCC_ClockConfig+0xde>
      {
        return HAL_ERROR;
 8011d8a:	2301      	movs	r3, #1
 8011d8c:	e07f      	b.n	8011e8e <HAL_RCC_ClockConfig+0x1ae>
      }
    }
    /* PLL is selected as System Clock Source */
    else if ((RCC_ClkInitStruct->SYSCLKSource == RCC_SYSCLKSOURCE_PLLCLK)   ||
 8011d8e:	687b      	ldr	r3, [r7, #4]
 8011d90:	685b      	ldr	r3, [r3, #4]
 8011d92:	2b02      	cmp	r3, #2
 8011d94:	d003      	beq.n	8011d9e <HAL_RCC_ClockConfig+0xbe>
             (RCC_ClkInitStruct->SYSCLKSource == RCC_SYSCLKSOURCE_PLLRCLK))
 8011d96:	687b      	ldr	r3, [r7, #4]
 8011d98:	685b      	ldr	r3, [r3, #4]
    else if ((RCC_ClkInitStruct->SYSCLKSource == RCC_SYSCLKSOURCE_PLLCLK)   ||
 8011d9a:	2b03      	cmp	r3, #3
 8011d9c:	d107      	bne.n	8011dae <HAL_RCC_ClockConfig+0xce>
    {
      /* Check the PLL ready flag */
      if (__HAL_RCC_GET_FLAG(RCC_FLAG_PLLRDY) == RESET)
 8011d9e:	4b3f      	ldr	r3, [pc, #252]	@ (8011e9c <HAL_RCC_ClockConfig+0x1bc>)
 8011da0:	681b      	ldr	r3, [r3, #0]
 8011da2:	f003 7300 	and.w	r3, r3, #33554432	@ 0x2000000
 8011da6:	2b00      	cmp	r3, #0
 8011da8:	d109      	bne.n	8011dbe <HAL_RCC_ClockConfig+0xde>
      {
        return HAL_ERROR;
 8011daa:	2301      	movs	r3, #1
 8011dac:	e06f      	b.n	8011e8e <HAL_RCC_ClockConfig+0x1ae>
    }
    /* HSI is selected as System Clock Source */
    else
    {
      /* Check the HSI ready flag */
      if (__HAL_RCC_GET_FLAG(RCC_FLAG_HSIRDY) == RESET)
 8011dae:	4b3b      	ldr	r3, [pc, #236]	@ (8011e9c <HAL_RCC_ClockConfig+0x1bc>)
 8011db0:	681b      	ldr	r3, [r3, #0]
 8011db2:	f003 0302 	and.w	r3, r3, #2
 8011db6:	2b00      	cmp	r3, #0
 8011db8:	d101      	bne.n	8011dbe <HAL_RCC_ClockConfig+0xde>
      {
        return HAL_ERROR;
 8011dba:	2301      	movs	r3, #1
 8011dbc:	e067      	b.n	8011e8e <HAL_RCC_ClockConfig+0x1ae>
      }
    }

    __HAL_RCC_SYSCLK_CONFIG(RCC_ClkInitStruct->SYSCLKSource);
 8011dbe:	4b37      	ldr	r3, [pc, #220]	@ (8011e9c <HAL_RCC_ClockConfig+0x1bc>)
 8011dc0:	689b      	ldr	r3, [r3, #8]
 8011dc2:	f023 0203 	bic.w	r2, r3, #3
 8011dc6:	687b      	ldr	r3, [r7, #4]
 8011dc8:	685b      	ldr	r3, [r3, #4]
 8011dca:	4934      	ldr	r1, [pc, #208]	@ (8011e9c <HAL_RCC_ClockConfig+0x1bc>)
 8011dcc:	4313      	orrs	r3, r2
 8011dce:	608b      	str	r3, [r1, #8]

    /* Get Start Tick */
    tickstart = HAL_GetTick();
 8011dd0:	f7fd fee8 	bl	800fba4 <HAL_GetTick>
 8011dd4:	60f8      	str	r0, [r7, #12]

    while (__HAL_RCC_GET_SYSCLK_SOURCE() != (RCC_ClkInitStruct->SYSCLKSource << RCC_CFGR_SWS_Pos))
 8011dd6:	e00a      	b.n	8011dee <HAL_RCC_ClockConfig+0x10e>
    {
      if ((HAL_GetTick() - tickstart) > CLOCKSWITCH_TIMEOUT_VALUE)
 8011dd8:	f7fd fee4 	bl	800fba4 <HAL_GetTick>
 8011ddc:	4602      	mov	r2, r0
 8011dde:	68fb      	ldr	r3, [r7, #12]
 8011de0:	1ad3      	subs	r3, r2, r3
 8011de2:	f241 3288 	movw	r2, #5000	@ 0x1388
 8011de6:	4293      	cmp	r3, r2
 8011de8:	d901      	bls.n	8011dee <HAL_RCC_ClockConfig+0x10e>
      {
        return HAL_TIMEOUT;
 8011dea:	2303      	movs	r3, #3
 8011dec:	e04f      	b.n	8011e8e <HAL_RCC_ClockConfig+0x1ae>
    while (__HAL_RCC_GET_SYSCLK_SOURCE() != (RCC_ClkInitStruct->SYSCLKSource << RCC_CFGR_SWS_Pos))
 8011dee:	4b2b      	ldr	r3, [pc, #172]	@ (8011e9c <HAL_RCC_ClockConfig+0x1bc>)
 8011df0:	689b      	ldr	r3, [r3, #8]
 8011df2:	f003 020c 	and.w	r2, r3, #12
 8011df6:	687b      	ldr	r3, [r7, #4]
 8011df8:	685b      	ldr	r3, [r3, #4]
 8011dfa:	009b      	lsls	r3, r3, #2
 8011dfc:	429a      	cmp	r2, r3
 8011dfe:	d1eb      	bne.n	8011dd8 <HAL_RCC_ClockConfig+0xf8>
      }
    }
  }

  /* Decreasing the number of wait states because of lower CPU frequency */
  if (FLatency < __HAL_FLASH_GET_LATENCY())
 8011e00:	4b25      	ldr	r3, [pc, #148]	@ (8011e98 <HAL_RCC_ClockConfig+0x1b8>)
 8011e02:	681b      	ldr	r3, [r3, #0]
 8011e04:	f003 030f 	and.w	r3, r3, #15
 8011e08:	683a      	ldr	r2, [r7, #0]
 8011e0a:	429a      	cmp	r2, r3
 8011e0c:	d20c      	bcs.n	8011e28 <HAL_RCC_ClockConfig+0x148>
  {
    /* Program the new number of wait states to the LATENCY bits in the FLASH_ACR register */
    __HAL_FLASH_SET_LATENCY(FLatency);
 8011e0e:	4b22      	ldr	r3, [pc, #136]	@ (8011e98 <HAL_RCC_ClockConfig+0x1b8>)
 8011e10:	683a      	ldr	r2, [r7, #0]
 8011e12:	b2d2      	uxtb	r2, r2
 8011e14:	701a      	strb	r2, [r3, #0]

    /* Check that the new number of wait states is taken into account to access the Flash
    memory by reading the FLASH_ACR register */
    if (__HAL_FLASH_GET_LATENCY() != FLatency)
 8011e16:	4b20      	ldr	r3, [pc, #128]	@ (8011e98 <HAL_RCC_ClockConfig+0x1b8>)
 8011e18:	681b      	ldr	r3, [r3, #0]
 8011e1a:	f003 030f 	and.w	r3, r3, #15
 8011e1e:	683a      	ldr	r2, [r7, #0]
 8011e20:	429a      	cmp	r2, r3
 8011e22:	d001      	beq.n	8011e28 <HAL_RCC_ClockConfig+0x148>
    {
      return HAL_ERROR;
 8011e24:	2301      	movs	r3, #1
 8011e26:	e032      	b.n	8011e8e <HAL_RCC_ClockConfig+0x1ae>
    }
  }

  /*-------------------------- PCLK1 Configuration ---------------------------*/
  if (((RCC_ClkInitStruct->ClockType) & RCC_CLOCKTYPE_PCLK1) == RCC_CLOCKTYPE_PCLK1)
 8011e28:	687b      	ldr	r3, [r7, #4]
 8011e2a:	681b      	ldr	r3, [r3, #0]
 8011e2c:	f003 0304 	and.w	r3, r3, #4
 8011e30:	2b00      	cmp	r3, #0
 8011e32:	d008      	beq.n	8011e46 <HAL_RCC_ClockConfig+0x166>
  {
    assert_param(IS_RCC_PCLK(RCC_ClkInitStruct->APB1CLKDivider));
    MODIFY_REG(RCC->CFGR, RCC_CFGR_PPRE1, RCC_ClkInitStruct->APB1CLKDivider);
 8011e34:	4b19      	ldr	r3, [pc, #100]	@ (8011e9c <HAL_RCC_ClockConfig+0x1bc>)
 8011e36:	689b      	ldr	r3, [r3, #8]
 8011e38:	f423 52e0 	bic.w	r2, r3, #7168	@ 0x1c00
 8011e3c:	687b      	ldr	r3, [r7, #4]
 8011e3e:	68db      	ldr	r3, [r3, #12]
 8011e40:	4916      	ldr	r1, [pc, #88]	@ (8011e9c <HAL_RCC_ClockConfig+0x1bc>)
 8011e42:	4313      	orrs	r3, r2
 8011e44:	608b      	str	r3, [r1, #8]
  }

  /*-------------------------- PCLK2 Configuration ---------------------------*/
  if (((RCC_ClkInitStruct->ClockType) & RCC_CLOCKTYPE_PCLK2) == RCC_CLOCKTYPE_PCLK2)
 8011e46:	687b      	ldr	r3, [r7, #4]
 8011e48:	681b      	ldr	r3, [r3, #0]
 8011e4a:	f003 0308 	and.w	r3, r3, #8
 8011e4e:	2b00      	cmp	r3, #0
 8011e50:	d009      	beq.n	8011e66 <HAL_RCC_ClockConfig+0x186>
  {
    assert_param(IS_RCC_PCLK(RCC_ClkInitStruct->APB2CLKDivider));
    MODIFY_REG(RCC->CFGR, RCC_CFGR_PPRE2, ((RCC_ClkInitStruct->APB2CLKDivider) << 3U));
 8011e52:	4b12      	ldr	r3, [pc, #72]	@ (8011e9c <HAL_RCC_ClockConfig+0x1bc>)
 8011e54:	689b      	ldr	r3, [r3, #8]
 8011e56:	f423 4260 	bic.w	r2, r3, #57344	@ 0xe000
 8011e5a:	687b      	ldr	r3, [r7, #4]
 8011e5c:	691b      	ldr	r3, [r3, #16]
 8011e5e:	00db      	lsls	r3, r3, #3
 8011e60:	490e      	ldr	r1, [pc, #56]	@ (8011e9c <HAL_RCC_ClockConfig+0x1bc>)
 8011e62:	4313      	orrs	r3, r2
 8011e64:	608b      	str	r3, [r1, #8]
  }

  /* Update the SystemCoreClock global variable */
  SystemCoreClock = HAL_RCC_GetSysClockFreq() >> AHBPrescTable[(RCC->CFGR & RCC_CFGR_HPRE) >> RCC_CFGR_HPRE_Pos];
 8011e66:	f000 f855 	bl	8011f14 <HAL_RCC_GetSysClockFreq>
 8011e6a:	4602      	mov	r2, r0
 8011e6c:	4b0b      	ldr	r3, [pc, #44]	@ (8011e9c <HAL_RCC_ClockConfig+0x1bc>)
 8011e6e:	689b      	ldr	r3, [r3, #8]
 8011e70:	091b      	lsrs	r3, r3, #4
 8011e72:	f003 030f 	and.w	r3, r3, #15
 8011e76:	490a      	ldr	r1, [pc, #40]	@ (8011ea0 <HAL_RCC_ClockConfig+0x1c0>)
 8011e78:	5ccb      	ldrb	r3, [r1, r3]
 8011e7a:	fa22 f303 	lsr.w	r3, r2, r3
 8011e7e:	4a09      	ldr	r2, [pc, #36]	@ (8011ea4 <HAL_RCC_ClockConfig+0x1c4>)
 8011e80:	6013      	str	r3, [r2, #0]

  /* Configure the source of time base considering new system clocks settings */
  HAL_InitTick(uwTickPrio);
 8011e82:	4b09      	ldr	r3, [pc, #36]	@ (8011ea8 <HAL_RCC_ClockConfig+0x1c8>)
 8011e84:	681b      	ldr	r3, [r3, #0]
 8011e86:	4618      	mov	r0, r3
 8011e88:	f7fd fe48 	bl	800fb1c <HAL_InitTick>

  return HAL_OK;
 8011e8c:	2300      	movs	r3, #0
}
 8011e8e:	4618      	mov	r0, r3
 8011e90:	3710      	adds	r7, #16
 8011e92:	46bd      	mov	sp, r7
 8011e94:	bd80      	pop	{r7, pc}
 8011e96:	bf00      	nop
 8011e98:	40023c00 	.word	0x40023c00
 8011e9c:	40023800 	.word	0x40023800
 8011ea0:	080154c0 	.word	0x080154c0
 8011ea4:	200000c0 	.word	0x200000c0
 8011ea8:	200000c4 	.word	0x200000c4

08011eac <HAL_RCC_GetHCLKFreq>:
  * @note   The SystemCoreClock CMSIS variable is used to store System Clock Frequency
  *         and updated within this function
  * @retval HCLK frequency
  */
uint32_t HAL_RCC_GetHCLKFreq(void)
{
 8011eac:	b480      	push	{r7}
 8011eae:	af00      	add	r7, sp, #0
  return SystemCoreClock;
 8011eb0:	4b03      	ldr	r3, [pc, #12]	@ (8011ec0 <HAL_RCC_GetHCLKFreq+0x14>)
 8011eb2:	681b      	ldr	r3, [r3, #0]
}
 8011eb4:	4618      	mov	r0, r3
 8011eb6:	46bd      	mov	sp, r7
 8011eb8:	f85d 7b04 	ldr.w	r7, [sp], #4
 8011ebc:	4770      	bx	lr
 8011ebe:	bf00      	nop
 8011ec0:	200000c0 	.word	0x200000c0

08011ec4 <HAL_RCC_GetPCLK1Freq>:
  * @note   Each time PCLK1 changes, this function must be called to update the
  *         right PCLK1 value. Otherwise, any configuration based on this function will be incorrect.
  * @retval PCLK1 frequency
  */
uint32_t HAL_RCC_GetPCLK1Freq(void)
{
 8011ec4:	b580      	push	{r7, lr}
 8011ec6:	af00      	add	r7, sp, #0
  /* Get HCLK source and Compute PCLK1 frequency ---------------------------*/
  return (HAL_RCC_GetHCLKFreq() >> APBPrescTable[(RCC->CFGR & RCC_CFGR_PPRE1) >> RCC_CFGR_PPRE1_Pos]);
 8011ec8:	f7ff fff0 	bl	8011eac <HAL_RCC_GetHCLKFreq>
 8011ecc:	4602      	mov	r2, r0
 8011ece:	4b05      	ldr	r3, [pc, #20]	@ (8011ee4 <HAL_RCC_GetPCLK1Freq+0x20>)
 8011ed0:	689b      	ldr	r3, [r3, #8]
 8011ed2:	0a9b      	lsrs	r3, r3, #10
 8011ed4:	f003 0307 	and.w	r3, r3, #7
 8011ed8:	4903      	ldr	r1, [pc, #12]	@ (8011ee8 <HAL_RCC_GetPCLK1Freq+0x24>)
 8011eda:	5ccb      	ldrb	r3, [r1, r3]
 8011edc:	fa22 f303 	lsr.w	r3, r2, r3
}
 8011ee0:	4618      	mov	r0, r3
 8011ee2:	bd80      	pop	{r7, pc}
 8011ee4:	40023800 	.word	0x40023800
 8011ee8:	080154d0 	.word	0x080154d0

08011eec <HAL_RCC_GetPCLK2Freq>:
  * @note   Each time PCLK2 changes, this function must be called to update the
  *         right PCLK2 value. Otherwise, any configuration based on this function will be incorrect.
  * @retval PCLK2 frequency
  */
uint32_t HAL_RCC_GetPCLK2Freq(void)
{
 8011eec:	b580      	push	{r7, lr}
 8011eee:	af00      	add	r7, sp, #0
  /* Get HCLK source and Compute PCLK2 frequency ---------------------------*/
  return (HAL_RCC_GetHCLKFreq() >> APBPrescTable[(RCC->CFGR & RCC_CFGR_PPRE2) >> RCC_CFGR_PPRE2_Pos]);
 8011ef0:	f7ff ffdc 	bl	8011eac <HAL_RCC_GetHCLKFreq>
 8011ef4:	4602      	mov	r2, r0
 8011ef6:	4b05      	ldr	r3, [pc, #20]	@ (8011f0c <HAL_RCC_GetPCLK2Freq+0x20>)
 8011ef8:	689b      	ldr	r3, [r3, #8]
 8011efa:	0b5b      	lsrs	r3, r3, #13
 8011efc:	f003 0307 	and.w	r3, r3, #7
 8011f00:	4903      	ldr	r1, [pc, #12]	@ (8011f10 <HAL_RCC_GetPCLK2Freq+0x24>)
 8011f02:	5ccb      	ldrb	r3, [r1, r3]
 8011f04:	fa22 f303 	lsr.w	r3, r2, r3
}
 8011f08:	4618      	mov	r0, r3
 8011f0a:	bd80      	pop	{r7, pc}
 8011f0c:	40023800 	.word	0x40023800
 8011f10:	080154d0 	.word	0x080154d0

08011f14 <HAL_RCC_GetSysClockFreq>:
  *
  *
  * @retval SYSCLK frequency
  */
uint32_t HAL_RCC_GetSysClockFreq(void)
{
 8011f14:	e92d 4fb0 	stmdb	sp!, {r4, r5, r7, r8, r9, sl, fp, lr}
 8011f18:	b0a6      	sub	sp, #152	@ 0x98
 8011f1a:	af00      	add	r7, sp, #0
  uint32_t pllm = 0U;
 8011f1c:	2300      	movs	r3, #0
 8011f1e:	f8c7 308c 	str.w	r3, [r7, #140]	@ 0x8c
  uint32_t pllvco = 0U;
 8011f22:	2300      	movs	r3, #0
 8011f24:	f8c7 3094 	str.w	r3, [r7, #148]	@ 0x94
  uint32_t pllp = 0U;
 8011f28:	2300      	movs	r3, #0
 8011f2a:	f8c7 3088 	str.w	r3, [r7, #136]	@ 0x88
  uint32_t pllr = 0U;
 8011f2e:	2300      	movs	r3, #0
 8011f30:	f8c7 3084 	str.w	r3, [r7, #132]	@ 0x84
  uint32_t sysclockfreq = 0U;
 8011f34:	2300      	movs	r3, #0
 8011f36:	f8c7 3090 	str.w	r3, [r7, #144]	@ 0x90

  /* Get SYSCLK source -------------------------------------------------------*/
  switch (RCC->CFGR & RCC_CFGR_SWS)
 8011f3a:	4bc8      	ldr	r3, [pc, #800]	@ (801225c <HAL_RCC_GetSysClockFreq+0x348>)
 8011f3c:	689b      	ldr	r3, [r3, #8]
 8011f3e:	f003 030c 	and.w	r3, r3, #12
 8011f42:	2b0c      	cmp	r3, #12
 8011f44:	f200 817e 	bhi.w	8012244 <HAL_RCC_GetSysClockFreq+0x330>
 8011f48:	a201      	add	r2, pc, #4	@ (adr r2, 8011f50 <HAL_RCC_GetSysClockFreq+0x3c>)
 8011f4a:	f852 f023 	ldr.w	pc, [r2, r3, lsl #2]
 8011f4e:	bf00      	nop
 8011f50:	08011f85 	.word	0x08011f85
 8011f54:	08012245 	.word	0x08012245
 8011f58:	08012245 	.word	0x08012245
 8011f5c:	08012245 	.word	0x08012245
 8011f60:	08011f8d 	.word	0x08011f8d
 8011f64:	08012245 	.word	0x08012245
 8011f68:	08012245 	.word	0x08012245
 8011f6c:	08012245 	.word	0x08012245
 8011f70:	08011f95 	.word	0x08011f95
 8011f74:	08012245 	.word	0x08012245
 8011f78:	08012245 	.word	0x08012245
 8011f7c:	08012245 	.word	0x08012245
 8011f80:	080120ff 	.word	0x080120ff
  {
    case RCC_CFGR_SWS_HSI:  /* HSI used as system clock source */
    {
      sysclockfreq = HSI_VALUE;
 8011f84:	4bb6      	ldr	r3, [pc, #728]	@ (8012260 <HAL_RCC_GetSysClockFreq+0x34c>)
 8011f86:	f8c7 3090 	str.w	r3, [r7, #144]	@ 0x90
      break;
 8011f8a:	e15f      	b.n	801224c <HAL_RCC_GetSysClockFreq+0x338>
    }
    case RCC_CFGR_SWS_HSE:  /* HSE used as system clock  source */
    {
      sysclockfreq = HSE_VALUE;
 8011f8c:	4bb5      	ldr	r3, [pc, #724]	@ (8012264 <HAL_RCC_GetSysClockFreq+0x350>)
 8011f8e:	f8c7 3090 	str.w	r3, [r7, #144]	@ 0x90
      break;
 8011f92:	e15b      	b.n	801224c <HAL_RCC_GetSysClockFreq+0x338>
    }
    case RCC_CFGR_SWS_PLL:  /* PLL/PLLP used as system clock  source */
    {
      /* PLL_VCO = (HSE_VALUE or HSI_VALUE / PLLM) * PLLN
      SYSCLK = PLL_VCO / PLLP */
      pllm = RCC->PLLCFGR & RCC_PLLCFGR_PLLM;
 8011f94:	4bb1      	ldr	r3, [pc, #708]	@ (801225c <HAL_RCC_GetSysClockFreq+0x348>)
 8011f96:	685b      	ldr	r3, [r3, #4]
 8011f98:	f003 033f 	and.w	r3, r3, #63	@ 0x3f
 8011f9c:	f8c7 308c 	str.w	r3, [r7, #140]	@ 0x8c
      if (__HAL_RCC_GET_PLL_OSCSOURCE() != RCC_PLLSOURCE_HSI)
 8011fa0:	4bae      	ldr	r3, [pc, #696]	@ (801225c <HAL_RCC_GetSysClockFreq+0x348>)
 8011fa2:	685b      	ldr	r3, [r3, #4]
 8011fa4:	f403 0380 	and.w	r3, r3, #4194304	@ 0x400000
 8011fa8:	2b00      	cmp	r3, #0
 8011faa:	d031      	beq.n	8012010 <HAL_RCC_GetSysClockFreq+0xfc>
      {
        /* HSE used as PLL clock source */
        pllvco = (uint32_t)((((uint64_t) HSE_VALUE * ((uint64_t)((RCC->PLLCFGR & RCC_PLLCFGR_PLLN) >> RCC_PLLCFGR_PLLN_Pos)))) / (uint64_t)pllm);
 8011fac:	4bab      	ldr	r3, [pc, #684]	@ (801225c <HAL_RCC_GetSysClockFreq+0x348>)
 8011fae:	685b      	ldr	r3, [r3, #4]
 8011fb0:	099b      	lsrs	r3, r3, #6
 8011fb2:	2200      	movs	r2, #0
 8011fb4:	66bb      	str	r3, [r7, #104]	@ 0x68
 8011fb6:	66fa      	str	r2, [r7, #108]	@ 0x6c
 8011fb8:	6ebb      	ldr	r3, [r7, #104]	@ 0x68
 8011fba:	f3c3 0308 	ubfx	r3, r3, #0, #9
 8011fbe:	663b      	str	r3, [r7, #96]	@ 0x60
 8011fc0:	2300      	movs	r3, #0
 8011fc2:	667b      	str	r3, [r7, #100]	@ 0x64
 8011fc4:	4ba7      	ldr	r3, [pc, #668]	@ (8012264 <HAL_RCC_GetSysClockFreq+0x350>)
 8011fc6:	e9d7 4518 	ldrd	r4, r5, [r7, #96]	@ 0x60
 8011fca:	462a      	mov	r2, r5
 8011fcc:	fb03 f202 	mul.w	r2, r3, r2
 8011fd0:	2300      	movs	r3, #0
 8011fd2:	4621      	mov	r1, r4
 8011fd4:	fb01 f303 	mul.w	r3, r1, r3
 8011fd8:	4413      	add	r3, r2
 8011fda:	4aa2      	ldr	r2, [pc, #648]	@ (8012264 <HAL_RCC_GetSysClockFreq+0x350>)
 8011fdc:	4621      	mov	r1, r4
 8011fde:	fba1 1202 	umull	r1, r2, r1, r2
 8011fe2:	67fa      	str	r2, [r7, #124]	@ 0x7c
 8011fe4:	460a      	mov	r2, r1
 8011fe6:	67ba      	str	r2, [r7, #120]	@ 0x78
 8011fe8:	6ffa      	ldr	r2, [r7, #124]	@ 0x7c
 8011fea:	4413      	add	r3, r2
 8011fec:	67fb      	str	r3, [r7, #124]	@ 0x7c
 8011fee:	f8d7 308c 	ldr.w	r3, [r7, #140]	@ 0x8c
 8011ff2:	2200      	movs	r2, #0
 8011ff4:	65bb      	str	r3, [r7, #88]	@ 0x58
 8011ff6:	65fa      	str	r2, [r7, #92]	@ 0x5c
 8011ff8:	e9d7 2316 	ldrd	r2, r3, [r7, #88]	@ 0x58
 8011ffc:	e9d7 011e 	ldrd	r0, r1, [r7, #120]	@ 0x78
 8012000:	f7fa fd40 	bl	800ca84 <__aeabi_uldivmod>
 8012004:	4602      	mov	r2, r0
 8012006:	460b      	mov	r3, r1
 8012008:	4613      	mov	r3, r2
 801200a:	f8c7 3094 	str.w	r3, [r7, #148]	@ 0x94
 801200e:	e064      	b.n	80120da <HAL_RCC_GetSysClockFreq+0x1c6>
      }
      else
      {
        /* HSI used as PLL clock source */
        pllvco = (uint32_t)((((uint64_t) HSI_VALUE * ((uint64_t)((RCC->PLLCFGR & RCC_PLLCFGR_PLLN) >> RCC_PLLCFGR_PLLN_Pos)))) / (uint64_t)pllm);
 8012010:	4b92      	ldr	r3, [pc, #584]	@ (801225c <HAL_RCC_GetSysClockFreq+0x348>)
 8012012:	685b      	ldr	r3, [r3, #4]
 8012014:	099b      	lsrs	r3, r3, #6
 8012016:	2200      	movs	r2, #0
 8012018:	653b      	str	r3, [r7, #80]	@ 0x50
 801201a:	657a      	str	r2, [r7, #84]	@ 0x54
 801201c:	6d3b      	ldr	r3, [r7, #80]	@ 0x50
 801201e:	f3c3 0308 	ubfx	r3, r3, #0, #9
 8012022:	64bb      	str	r3, [r7, #72]	@ 0x48
 8012024:	2300      	movs	r3, #0
 8012026:	64fb      	str	r3, [r7, #76]	@ 0x4c
 8012028:	e9d7 4512 	ldrd	r4, r5, [r7, #72]	@ 0x48
 801202c:	4622      	mov	r2, r4
 801202e:	462b      	mov	r3, r5
 8012030:	f04f 0000 	mov.w	r0, #0
 8012034:	f04f 0100 	mov.w	r1, #0
 8012038:	0159      	lsls	r1, r3, #5
 801203a:	ea41 61d2 	orr.w	r1, r1, r2, lsr #27
 801203e:	0150      	lsls	r0, r2, #5
 8012040:	4602      	mov	r2, r0
 8012042:	460b      	mov	r3, r1
 8012044:	4621      	mov	r1, r4
 8012046:	1a51      	subs	r1, r2, r1
 8012048:	6139      	str	r1, [r7, #16]
 801204a:	4629      	mov	r1, r5
 801204c:	eb63 0301 	sbc.w	r3, r3, r1
 8012050:	617b      	str	r3, [r7, #20]
 8012052:	f04f 0200 	mov.w	r2, #0
 8012056:	f04f 0300 	mov.w	r3, #0
 801205a:	e9d7 ab04 	ldrd	sl, fp, [r7, #16]
 801205e:	4659      	mov	r1, fp
 8012060:	018b      	lsls	r3, r1, #6
 8012062:	4651      	mov	r1, sl
 8012064:	ea43 6391 	orr.w	r3, r3, r1, lsr #26
 8012068:	4651      	mov	r1, sl
 801206a:	018a      	lsls	r2, r1, #6
 801206c:	4651      	mov	r1, sl
 801206e:	ebb2 0801 	subs.w	r8, r2, r1
 8012072:	4659      	mov	r1, fp
 8012074:	eb63 0901 	sbc.w	r9, r3, r1
 8012078:	f04f 0200 	mov.w	r2, #0
 801207c:	f04f 0300 	mov.w	r3, #0
 8012080:	ea4f 03c9 	mov.w	r3, r9, lsl #3
 8012084:	ea43 7358 	orr.w	r3, r3, r8, lsr #29
 8012088:	ea4f 02c8 	mov.w	r2, r8, lsl #3
 801208c:	4690      	mov	r8, r2
 801208e:	4699      	mov	r9, r3
 8012090:	4623      	mov	r3, r4
 8012092:	eb18 0303 	adds.w	r3, r8, r3
 8012096:	60bb      	str	r3, [r7, #8]
 8012098:	462b      	mov	r3, r5
 801209a:	eb49 0303 	adc.w	r3, r9, r3
 801209e:	60fb      	str	r3, [r7, #12]
 80120a0:	f04f 0200 	mov.w	r2, #0
 80120a4:	f04f 0300 	mov.w	r3, #0
 80120a8:	e9d7 4502 	ldrd	r4, r5, [r7, #8]
 80120ac:	4629      	mov	r1, r5
 80120ae:	028b      	lsls	r3, r1, #10
 80120b0:	4621      	mov	r1, r4
 80120b2:	ea43 5391 	orr.w	r3, r3, r1, lsr #22
 80120b6:	4621      	mov	r1, r4
 80120b8:	028a      	lsls	r2, r1, #10
 80120ba:	4610      	mov	r0, r2
 80120bc:	4619      	mov	r1, r3
 80120be:	f8d7 308c 	ldr.w	r3, [r7, #140]	@ 0x8c
 80120c2:	2200      	movs	r2, #0
 80120c4:	643b      	str	r3, [r7, #64]	@ 0x40
 80120c6:	647a      	str	r2, [r7, #68]	@ 0x44
 80120c8:	e9d7 2310 	ldrd	r2, r3, [r7, #64]	@ 0x40
 80120cc:	f7fa fcda 	bl	800ca84 <__aeabi_uldivmod>
 80120d0:	4602      	mov	r2, r0
 80120d2:	460b      	mov	r3, r1
 80120d4:	4613      	mov	r3, r2
 80120d6:	f8c7 3094 	str.w	r3, [r7, #148]	@ 0x94
      }
      pllp = ((((RCC->PLLCFGR & RCC_PLLCFGR_PLLP) >> RCC_PLLCFGR_PLLP_Pos) + 1U) * 2U);
 80120da:	4b60      	ldr	r3, [pc, #384]	@ (801225c <HAL_RCC_GetSysClockFreq+0x348>)
 80120dc:	685b      	ldr	r3, [r3, #4]
 80120de:	0c1b      	lsrs	r3, r3, #16
 80120e0:	f003 0303 	and.w	r3, r3, #3
 80120e4:	3301      	adds	r3, #1
 80120e6:	005b      	lsls	r3, r3, #1
 80120e8:	f8c7 3088 	str.w	r3, [r7, #136]	@ 0x88

      sysclockfreq = pllvco / pllp;
 80120ec:	f8d7 2094 	ldr.w	r2, [r7, #148]	@ 0x94
 80120f0:	f8d7 3088 	ldr.w	r3, [r7, #136]	@ 0x88
 80120f4:	fbb2 f3f3 	udiv	r3, r2, r3
 80120f8:	f8c7 3090 	str.w	r3, [r7, #144]	@ 0x90
      break;
 80120fc:	e0a6      	b.n	801224c <HAL_RCC_GetSysClockFreq+0x338>
    }
    case RCC_CFGR_SWS_PLLR:  /* PLL/PLLR used as system clock  source */
    {
      /* PLL_VCO = (HSE_VALUE or HSI_VALUE / PLLM) * PLLN
      SYSCLK = PLL_VCO / PLLR */
      pllm = RCC->PLLCFGR & RCC_PLLCFGR_PLLM;
 80120fe:	4b57      	ldr	r3, [pc, #348]	@ (801225c <HAL_RCC_GetSysClockFreq+0x348>)
 8012100:	685b      	ldr	r3, [r3, #4]
 8012102:	f003 033f 	and.w	r3, r3, #63	@ 0x3f
 8012106:	f8c7 308c 	str.w	r3, [r7, #140]	@ 0x8c
      if (__HAL_RCC_GET_PLL_OSCSOURCE() != RCC_PLLSOURCE_HSI)
 801210a:	4b54      	ldr	r3, [pc, #336]	@ (801225c <HAL_RCC_GetSysClockFreq+0x348>)
 801210c:	685b      	ldr	r3, [r3, #4]
 801210e:	f403 0380 	and.w	r3, r3, #4194304	@ 0x400000
 8012112:	2b00      	cmp	r3, #0
 8012114:	d02a      	beq.n	801216c <HAL_RCC_GetSysClockFreq+0x258>
      {
        /* HSE used as PLL clock source */
        pllvco = (uint32_t)((((uint64_t) HSE_VALUE * ((uint64_t)((RCC->PLLCFGR & RCC_PLLCFGR_PLLN) >> RCC_PLLCFGR_PLLN_Pos)))) / (uint64_t)pllm);
 8012116:	4b51      	ldr	r3, [pc, #324]	@ (801225c <HAL_RCC_GetSysClockFreq+0x348>)
 8012118:	685b      	ldr	r3, [r3, #4]
 801211a:	099b      	lsrs	r3, r3, #6
 801211c:	2200      	movs	r2, #0
 801211e:	63bb      	str	r3, [r7, #56]	@ 0x38
 8012120:	63fa      	str	r2, [r7, #60]	@ 0x3c
 8012122:	6bbb      	ldr	r3, [r7, #56]	@ 0x38
 8012124:	f3c3 0008 	ubfx	r0, r3, #0, #9
 8012128:	2100      	movs	r1, #0
 801212a:	4b4e      	ldr	r3, [pc, #312]	@ (8012264 <HAL_RCC_GetSysClockFreq+0x350>)
 801212c:	fb03 f201 	mul.w	r2, r3, r1
 8012130:	2300      	movs	r3, #0
 8012132:	fb00 f303 	mul.w	r3, r0, r3
 8012136:	4413      	add	r3, r2
 8012138:	4a4a      	ldr	r2, [pc, #296]	@ (8012264 <HAL_RCC_GetSysClockFreq+0x350>)
 801213a:	fba0 1202 	umull	r1, r2, r0, r2
 801213e:	677a      	str	r2, [r7, #116]	@ 0x74
 8012140:	460a      	mov	r2, r1
 8012142:	673a      	str	r2, [r7, #112]	@ 0x70
 8012144:	6f7a      	ldr	r2, [r7, #116]	@ 0x74
 8012146:	4413      	add	r3, r2
 8012148:	677b      	str	r3, [r7, #116]	@ 0x74
 801214a:	f8d7 308c 	ldr.w	r3, [r7, #140]	@ 0x8c
 801214e:	2200      	movs	r2, #0
 8012150:	633b      	str	r3, [r7, #48]	@ 0x30
 8012152:	637a      	str	r2, [r7, #52]	@ 0x34
 8012154:	e9d7 230c 	ldrd	r2, r3, [r7, #48]	@ 0x30
 8012158:	e9d7 011c 	ldrd	r0, r1, [r7, #112]	@ 0x70
 801215c:	f7fa fc92 	bl	800ca84 <__aeabi_uldivmod>
 8012160:	4602      	mov	r2, r0
 8012162:	460b      	mov	r3, r1
 8012164:	4613      	mov	r3, r2
 8012166:	f8c7 3094 	str.w	r3, [r7, #148]	@ 0x94
 801216a:	e05b      	b.n	8012224 <HAL_RCC_GetSysClockFreq+0x310>
      }
      else
      {
        /* HSI used as PLL clock source */
        pllvco = (uint32_t)((((uint64_t) HSI_VALUE * ((uint64_t)((RCC->PLLCFGR & RCC_PLLCFGR_PLLN) >> RCC_PLLCFGR_PLLN_Pos)))) / (uint64_t)pllm);
 801216c:	4b3b      	ldr	r3, [pc, #236]	@ (801225c <HAL_RCC_GetSysClockFreq+0x348>)
 801216e:	685b      	ldr	r3, [r3, #4]
 8012170:	099b      	lsrs	r3, r3, #6
 8012172:	2200      	movs	r2, #0
 8012174:	62bb      	str	r3, [r7, #40]	@ 0x28
 8012176:	62fa      	str	r2, [r7, #44]	@ 0x2c
 8012178:	6abb      	ldr	r3, [r7, #40]	@ 0x28
 801217a:	f3c3 0308 	ubfx	r3, r3, #0, #9
 801217e:	623b      	str	r3, [r7, #32]
 8012180:	2300      	movs	r3, #0
 8012182:	627b      	str	r3, [r7, #36]	@ 0x24
 8012184:	e9d7 8908 	ldrd	r8, r9, [r7, #32]
 8012188:	4642      	mov	r2, r8
 801218a:	464b      	mov	r3, r9
 801218c:	f04f 0000 	mov.w	r0, #0
 8012190:	f04f 0100 	mov.w	r1, #0
 8012194:	0159      	lsls	r1, r3, #5
 8012196:	ea41 61d2 	orr.w	r1, r1, r2, lsr #27
 801219a:	0150      	lsls	r0, r2, #5
 801219c:	4602      	mov	r2, r0
 801219e:	460b      	mov	r3, r1
 80121a0:	4641      	mov	r1, r8
 80121a2:	ebb2 0a01 	subs.w	sl, r2, r1
 80121a6:	4649      	mov	r1, r9
 80121a8:	eb63 0b01 	sbc.w	fp, r3, r1
 80121ac:	f04f 0200 	mov.w	r2, #0
 80121b0:	f04f 0300 	mov.w	r3, #0
 80121b4:	ea4f 138b 	mov.w	r3, fp, lsl #6
 80121b8:	ea43 639a 	orr.w	r3, r3, sl, lsr #26
 80121bc:	ea4f 128a 	mov.w	r2, sl, lsl #6
 80121c0:	ebb2 040a 	subs.w	r4, r2, sl
 80121c4:	eb63 050b 	sbc.w	r5, r3, fp
 80121c8:	f04f 0200 	mov.w	r2, #0
 80121cc:	f04f 0300 	mov.w	r3, #0
 80121d0:	00eb      	lsls	r3, r5, #3
 80121d2:	ea43 7354 	orr.w	r3, r3, r4, lsr #29
 80121d6:	00e2      	lsls	r2, r4, #3
 80121d8:	4614      	mov	r4, r2
 80121da:	461d      	mov	r5, r3
 80121dc:	4643      	mov	r3, r8
 80121de:	18e3      	adds	r3, r4, r3
 80121e0:	603b      	str	r3, [r7, #0]
 80121e2:	464b      	mov	r3, r9
 80121e4:	eb45 0303 	adc.w	r3, r5, r3
 80121e8:	607b      	str	r3, [r7, #4]
 80121ea:	f04f 0200 	mov.w	r2, #0
 80121ee:	f04f 0300 	mov.w	r3, #0
 80121f2:	e9d7 4500 	ldrd	r4, r5, [r7]
 80121f6:	4629      	mov	r1, r5
 80121f8:	028b      	lsls	r3, r1, #10
 80121fa:	4621      	mov	r1, r4
 80121fc:	ea43 5391 	orr.w	r3, r3, r1, lsr #22
 8012200:	4621      	mov	r1, r4
 8012202:	028a      	lsls	r2, r1, #10
 8012204:	4610      	mov	r0, r2
 8012206:	4619      	mov	r1, r3
 8012208:	f8d7 308c 	ldr.w	r3, [r7, #140]	@ 0x8c
 801220c:	2200      	movs	r2, #0
 801220e:	61bb      	str	r3, [r7, #24]
 8012210:	61fa      	str	r2, [r7, #28]
 8012212:	e9d7 2306 	ldrd	r2, r3, [r7, #24]
 8012216:	f7fa fc35 	bl	800ca84 <__aeabi_uldivmod>
 801221a:	4602      	mov	r2, r0
 801221c:	460b      	mov	r3, r1
 801221e:	4613      	mov	r3, r2
 8012220:	f8c7 3094 	str.w	r3, [r7, #148]	@ 0x94
      }
      pllr = ((RCC->PLLCFGR & RCC_PLLCFGR_PLLR) >> RCC_PLLCFGR_PLLR_Pos);
 8012224:	4b0d      	ldr	r3, [pc, #52]	@ (801225c <HAL_RCC_GetSysClockFreq+0x348>)
 8012226:	685b      	ldr	r3, [r3, #4]
 8012228:	0f1b      	lsrs	r3, r3, #28
 801222a:	f003 0307 	and.w	r3, r3, #7
 801222e:	f8c7 3084 	str.w	r3, [r7, #132]	@ 0x84

      sysclockfreq = pllvco / pllr;
 8012232:	f8d7 2094 	ldr.w	r2, [r7, #148]	@ 0x94
 8012236:	f8d7 3084 	ldr.w	r3, [r7, #132]	@ 0x84
 801223a:	fbb2 f3f3 	udiv	r3, r2, r3
 801223e:	f8c7 3090 	str.w	r3, [r7, #144]	@ 0x90
      break;
 8012242:	e003      	b.n	801224c <HAL_RCC_GetSysClockFreq+0x338>
    }
    default:
    {
      sysclockfreq = HSI_VALUE;
 8012244:	4b06      	ldr	r3, [pc, #24]	@ (8012260 <HAL_RCC_GetSysClockFreq+0x34c>)
 8012246:	f8c7 3090 	str.w	r3, [r7, #144]	@ 0x90
      break;
 801224a:	bf00      	nop
    }
  }
  return sysclockfreq;
 801224c:	f8d7 3090 	ldr.w	r3, [r7, #144]	@ 0x90
}
 8012250:	4618      	mov	r0, r3
 8012252:	3798      	adds	r7, #152	@ 0x98
 8012254:	46bd      	mov	sp, r7
 8012256:	e8bd 8fb0 	ldmia.w	sp!, {r4, r5, r7, r8, r9, sl, fp, pc}
 801225a:	bf00      	nop
 801225c:	40023800 	.word	0x40023800
 8012260:	00f42400 	.word	0x00f42400
 8012264:	017d7840 	.word	0x017d7840

08012268 <HAL_RCC_OscConfig>:
  * @note   This function add the PLL/PLLR factor management during PLL configuration this feature
  *         is only available in STM32F410xx/STM32F446xx/STM32F469xx/STM32F479xx/STM32F412Zx/STM32F412Vx/STM32F412Rx/STM32F412Cx devices
  * @retval HAL status
  */
HAL_StatusTypeDef HAL_RCC_OscConfig(const RCC_OscInitTypeDef  *RCC_OscInitStruct)
{
 8012268:	b580      	push	{r7, lr}
 801226a:	b086      	sub	sp, #24
 801226c:	af00      	add	r7, sp, #0
 801226e:	6078      	str	r0, [r7, #4]
  uint32_t tickstart;
  uint32_t pll_config;

  /* Check Null pointer */
  if (RCC_OscInitStruct == NULL)
 8012270:	687b      	ldr	r3, [r7, #4]
 8012272:	2b00      	cmp	r3, #0
 8012274:	d101      	bne.n	801227a <HAL_RCC_OscConfig+0x12>
  {
    return HAL_ERROR;
 8012276:	2301      	movs	r3, #1
 8012278:	e28d      	b.n	8012796 <HAL_RCC_OscConfig+0x52e>
  }

  /* Check the parameters */
  assert_param(IS_RCC_OSCILLATORTYPE(RCC_OscInitStruct->OscillatorType));
  /*------------------------------- HSE Configuration ------------------------*/
  if (((RCC_OscInitStruct->OscillatorType) & RCC_OSCILLATORTYPE_HSE) == RCC_OSCILLATORTYPE_HSE)
 801227a:	687b      	ldr	r3, [r7, #4]
 801227c:	681b      	ldr	r3, [r3, #0]
 801227e:	f003 0301 	and.w	r3, r3, #1
 8012282:	2b00      	cmp	r3, #0
 8012284:	f000 8083 	beq.w	801238e <HAL_RCC_OscConfig+0x126>
  {
    /* Check the parameters */
    assert_param(IS_RCC_HSE(RCC_OscInitStruct->HSEState));
    /* When the HSE is used as system clock or clock source for PLL in these cases HSE will not disabled */
#if defined(STM32F446xx)
    if ((__HAL_RCC_GET_SYSCLK_SOURCE() == RCC_CFGR_SWS_HSE)
 8012288:	4b94      	ldr	r3, [pc, #592]	@ (80124dc <HAL_RCC_OscConfig+0x274>)
 801228a:	689b      	ldr	r3, [r3, #8]
 801228c:	f003 030c 	and.w	r3, r3, #12
 8012290:	2b04      	cmp	r3, #4
 8012292:	d019      	beq.n	80122c8 <HAL_RCC_OscConfig+0x60>
        || \
        ((__HAL_RCC_GET_SYSCLK_SOURCE() == RCC_CFGR_SWS_PLL) && ((RCC->PLLCFGR & RCC_PLLCFGR_PLLSRC) == RCC_PLLCFGR_PLLSRC_HSE)) || \
 8012294:	4b91      	ldr	r3, [pc, #580]	@ (80124dc <HAL_RCC_OscConfig+0x274>)
 8012296:	689b      	ldr	r3, [r3, #8]
 8012298:	f003 030c 	and.w	r3, r3, #12
        || \
 801229c:	2b08      	cmp	r3, #8
 801229e:	d106      	bne.n	80122ae <HAL_RCC_OscConfig+0x46>
        ((__HAL_RCC_GET_SYSCLK_SOURCE() == RCC_CFGR_SWS_PLL) && ((RCC->PLLCFGR & RCC_PLLCFGR_PLLSRC) == RCC_PLLCFGR_PLLSRC_HSE)) || \
 80122a0:	4b8e      	ldr	r3, [pc, #568]	@ (80124dc <HAL_RCC_OscConfig+0x274>)
 80122a2:	685b      	ldr	r3, [r3, #4]
 80122a4:	f403 0380 	and.w	r3, r3, #4194304	@ 0x400000
 80122a8:	f5b3 0f80 	cmp.w	r3, #4194304	@ 0x400000
 80122ac:	d00c      	beq.n	80122c8 <HAL_RCC_OscConfig+0x60>
        ((__HAL_RCC_GET_SYSCLK_SOURCE() == RCC_CFGR_SWS_PLLR) && ((RCC->PLLCFGR & RCC_PLLCFGR_PLLSRC) == RCC_PLLCFGR_PLLSRC_HSE)))
 80122ae:	4b8b      	ldr	r3, [pc, #556]	@ (80124dc <HAL_RCC_OscConfig+0x274>)
 80122b0:	689b      	ldr	r3, [r3, #8]
 80122b2:	f003 030c 	and.w	r3, r3, #12
        ((__HAL_RCC_GET_SYSCLK_SOURCE() == RCC_CFGR_SWS_PLL) && ((RCC->PLLCFGR & RCC_PLLCFGR_PLLSRC) == RCC_PLLCFGR_PLLSRC_HSE)) || \
 80122b6:	2b0c      	cmp	r3, #12
 80122b8:	d112      	bne.n	80122e0 <HAL_RCC_OscConfig+0x78>
        ((__HAL_RCC_GET_SYSCLK_SOURCE() == RCC_CFGR_SWS_PLLR) && ((RCC->PLLCFGR & RCC_PLLCFGR_PLLSRC) == RCC_PLLCFGR_PLLSRC_HSE)))
 80122ba:	4b88      	ldr	r3, [pc, #544]	@ (80124dc <HAL_RCC_OscConfig+0x274>)
 80122bc:	685b      	ldr	r3, [r3, #4]
 80122be:	f403 0380 	and.w	r3, r3, #4194304	@ 0x400000
 80122c2:	f5b3 0f80 	cmp.w	r3, #4194304	@ 0x400000
 80122c6:	d10b      	bne.n	80122e0 <HAL_RCC_OscConfig+0x78>
    if ((__HAL_RCC_GET_SYSCLK_SOURCE() == RCC_CFGR_SWS_HSE)
        || \
        ((__HAL_RCC_GET_SYSCLK_SOURCE() == RCC_CFGR_SWS_PLL) && ((RCC->PLLCFGR & RCC_PLLCFGR_PLLSRC) == RCC_PLLCFGR_PLLSRC_HSE)))
#endif /* STM32F446xx */
    {
      if ((__HAL_RCC_GET_FLAG(RCC_FLAG_HSERDY) != RESET) && (RCC_OscInitStruct->HSEState == RCC_HSE_OFF))
 80122c8:	4b84      	ldr	r3, [pc, #528]	@ (80124dc <HAL_RCC_OscConfig+0x274>)
 80122ca:	681b      	ldr	r3, [r3, #0]
 80122cc:	f403 3300 	and.w	r3, r3, #131072	@ 0x20000
 80122d0:	2b00      	cmp	r3, #0
 80122d2:	d05b      	beq.n	801238c <HAL_RCC_OscConfig+0x124>
 80122d4:	687b      	ldr	r3, [r7, #4]
 80122d6:	685b      	ldr	r3, [r3, #4]
 80122d8:	2b00      	cmp	r3, #0
 80122da:	d157      	bne.n	801238c <HAL_RCC_OscConfig+0x124>
      {
        return HAL_ERROR;
 80122dc:	2301      	movs	r3, #1
 80122de:	e25a      	b.n	8012796 <HAL_RCC_OscConfig+0x52e>
      }
    }
    else
    {
      /* Set the new HSE configuration ---------------------------------------*/
      __HAL_RCC_HSE_CONFIG(RCC_OscInitStruct->HSEState);
 80122e0:	687b      	ldr	r3, [r7, #4]
 80122e2:	685b      	ldr	r3, [r3, #4]
 80122e4:	f5b3 3f80 	cmp.w	r3, #65536	@ 0x10000
 80122e8:	d106      	bne.n	80122f8 <HAL_RCC_OscConfig+0x90>
 80122ea:	4b7c      	ldr	r3, [pc, #496]	@ (80124dc <HAL_RCC_OscConfig+0x274>)
 80122ec:	681b      	ldr	r3, [r3, #0]
 80122ee:	4a7b      	ldr	r2, [pc, #492]	@ (80124dc <HAL_RCC_OscConfig+0x274>)
 80122f0:	f443 3380 	orr.w	r3, r3, #65536	@ 0x10000
 80122f4:	6013      	str	r3, [r2, #0]
 80122f6:	e01d      	b.n	8012334 <HAL_RCC_OscConfig+0xcc>
 80122f8:	687b      	ldr	r3, [r7, #4]
 80122fa:	685b      	ldr	r3, [r3, #4]
 80122fc:	f5b3 2fa0 	cmp.w	r3, #327680	@ 0x50000
 8012300:	d10c      	bne.n	801231c <HAL_RCC_OscConfig+0xb4>
 8012302:	4b76      	ldr	r3, [pc, #472]	@ (80124dc <HAL_RCC_OscConfig+0x274>)
 8012304:	681b      	ldr	r3, [r3, #0]
 8012306:	4a75      	ldr	r2, [pc, #468]	@ (80124dc <HAL_RCC_OscConfig+0x274>)
 8012308:	f443 2380 	orr.w	r3, r3, #262144	@ 0x40000
 801230c:	6013      	str	r3, [r2, #0]
 801230e:	4b73      	ldr	r3, [pc, #460]	@ (80124dc <HAL_RCC_OscConfig+0x274>)
 8012310:	681b      	ldr	r3, [r3, #0]
 8012312:	4a72      	ldr	r2, [pc, #456]	@ (80124dc <HAL_RCC_OscConfig+0x274>)
 8012314:	f443 3380 	orr.w	r3, r3, #65536	@ 0x10000
 8012318:	6013      	str	r3, [r2, #0]
 801231a:	e00b      	b.n	8012334 <HAL_RCC_OscConfig+0xcc>
 801231c:	4b6f      	ldr	r3, [pc, #444]	@ (80124dc <HAL_RCC_OscConfig+0x274>)
 801231e:	681b      	ldr	r3, [r3, #0]
 8012320:	4a6e      	ldr	r2, [pc, #440]	@ (80124dc <HAL_RCC_OscConfig+0x274>)
 8012322:	f423 3380 	bic.w	r3, r3, #65536	@ 0x10000
 8012326:	6013      	str	r3, [r2, #0]
 8012328:	4b6c      	ldr	r3, [pc, #432]	@ (80124dc <HAL_RCC_OscConfig+0x274>)
 801232a:	681b      	ldr	r3, [r3, #0]
 801232c:	4a6b      	ldr	r2, [pc, #428]	@ (80124dc <HAL_RCC_OscConfig+0x274>)
 801232e:	f423 2380 	bic.w	r3, r3, #262144	@ 0x40000
 8012332:	6013      	str	r3, [r2, #0]

      /* Check the HSE State */
      if ((RCC_OscInitStruct->HSEState) != RCC_HSE_OFF)
 8012334:	687b      	ldr	r3, [r7, #4]
 8012336:	685b      	ldr	r3, [r3, #4]
 8012338:	2b00      	cmp	r3, #0
 801233a:	d013      	beq.n	8012364 <HAL_RCC_OscConfig+0xfc>
      {
        /* Get Start Tick*/
        tickstart = HAL_GetTick();
 801233c:	f7fd fc32 	bl	800fba4 <HAL_GetTick>
 8012340:	6138      	str	r0, [r7, #16]

        /* Wait till HSE is ready */
        while (__HAL_RCC_GET_FLAG(RCC_FLAG_HSERDY) == RESET)
 8012342:	e008      	b.n	8012356 <HAL_RCC_OscConfig+0xee>
        {
          if ((HAL_GetTick() - tickstart) > HSE_TIMEOUT_VALUE)
 8012344:	f7fd fc2e 	bl	800fba4 <HAL_GetTick>
 8012348:	4602      	mov	r2, r0
 801234a:	693b      	ldr	r3, [r7, #16]
 801234c:	1ad3      	subs	r3, r2, r3
 801234e:	2b64      	cmp	r3, #100	@ 0x64
 8012350:	d901      	bls.n	8012356 <HAL_RCC_OscConfig+0xee>
          {
            return HAL_TIMEOUT;
 8012352:	2303      	movs	r3, #3
 8012354:	e21f      	b.n	8012796 <HAL_RCC_OscConfig+0x52e>
        while (__HAL_RCC_GET_FLAG(RCC_FLAG_HSERDY) == RESET)
 8012356:	4b61      	ldr	r3, [pc, #388]	@ (80124dc <HAL_RCC_OscConfig+0x274>)
 8012358:	681b      	ldr	r3, [r3, #0]
 801235a:	f403 3300 	and.w	r3, r3, #131072	@ 0x20000
 801235e:	2b00      	cmp	r3, #0
 8012360:	d0f0      	beq.n	8012344 <HAL_RCC_OscConfig+0xdc>
 8012362:	e014      	b.n	801238e <HAL_RCC_OscConfig+0x126>
        }
      }
      else
      {
        /* Get Start Tick*/
        tickstart = HAL_GetTick();
 8012364:	f7fd fc1e 	bl	800fba4 <HAL_GetTick>
 8012368:	6138      	str	r0, [r7, #16]

        /* Wait till HSE is bypassed or disabled */
        while (__HAL_RCC_GET_FLAG(RCC_FLAG_HSERDY) != RESET)
 801236a:	e008      	b.n	801237e <HAL_RCC_OscConfig+0x116>
        {
          if ((HAL_GetTick() - tickstart) > HSE_TIMEOUT_VALUE)
 801236c:	f7fd fc1a 	bl	800fba4 <HAL_GetTick>
 8012370:	4602      	mov	r2, r0
 8012372:	693b      	ldr	r3, [r7, #16]
 8012374:	1ad3      	subs	r3, r2, r3
 8012376:	2b64      	cmp	r3, #100	@ 0x64
 8012378:	d901      	bls.n	801237e <HAL_RCC_OscConfig+0x116>
          {
            return HAL_TIMEOUT;
 801237a:	2303      	movs	r3, #3
 801237c:	e20b      	b.n	8012796 <HAL_RCC_OscConfig+0x52e>
        while (__HAL_RCC_GET_FLAG(RCC_FLAG_HSERDY) != RESET)
 801237e:	4b57      	ldr	r3, [pc, #348]	@ (80124dc <HAL_RCC_OscConfig+0x274>)
 8012380:	681b      	ldr	r3, [r3, #0]
 8012382:	f403 3300 	and.w	r3, r3, #131072	@ 0x20000
 8012386:	2b00      	cmp	r3, #0
 8012388:	d1f0      	bne.n	801236c <HAL_RCC_OscConfig+0x104>
 801238a:	e000      	b.n	801238e <HAL_RCC_OscConfig+0x126>
      if ((__HAL_RCC_GET_FLAG(RCC_FLAG_HSERDY) != RESET) && (RCC_OscInitStruct->HSEState == RCC_HSE_OFF))
 801238c:	bf00      	nop
        }
      }
    }
  }
  /*----------------------------- HSI Configuration --------------------------*/
  if (((RCC_OscInitStruct->OscillatorType) & RCC_OSCILLATORTYPE_HSI) == RCC_OSCILLATORTYPE_HSI)
 801238e:	687b      	ldr	r3, [r7, #4]
 8012390:	681b      	ldr	r3, [r3, #0]
 8012392:	f003 0302 	and.w	r3, r3, #2
 8012396:	2b00      	cmp	r3, #0
 8012398:	d06f      	beq.n	801247a <HAL_RCC_OscConfig+0x212>
    assert_param(IS_RCC_HSI(RCC_OscInitStruct->HSIState));
    assert_param(IS_RCC_CALIBRATION_VALUE(RCC_OscInitStruct->HSICalibrationValue));

    /* Check if HSI is used as system clock or as PLL source when PLL is selected as system clock */
#if defined(STM32F446xx)
    if ((__HAL_RCC_GET_SYSCLK_SOURCE() == RCC_CFGR_SWS_HSI)
 801239a:	4b50      	ldr	r3, [pc, #320]	@ (80124dc <HAL_RCC_OscConfig+0x274>)
 801239c:	689b      	ldr	r3, [r3, #8]
 801239e:	f003 030c 	and.w	r3, r3, #12
 80123a2:	2b00      	cmp	r3, #0
 80123a4:	d017      	beq.n	80123d6 <HAL_RCC_OscConfig+0x16e>
        || \
        ((__HAL_RCC_GET_SYSCLK_SOURCE() == RCC_CFGR_SWS_PLL) && ((RCC->PLLCFGR & RCC_PLLCFGR_PLLSRC) == RCC_PLLCFGR_PLLSRC_HSI)) || \
 80123a6:	4b4d      	ldr	r3, [pc, #308]	@ (80124dc <HAL_RCC_OscConfig+0x274>)
 80123a8:	689b      	ldr	r3, [r3, #8]
 80123aa:	f003 030c 	and.w	r3, r3, #12
        || \
 80123ae:	2b08      	cmp	r3, #8
 80123b0:	d105      	bne.n	80123be <HAL_RCC_OscConfig+0x156>
        ((__HAL_RCC_GET_SYSCLK_SOURCE() == RCC_CFGR_SWS_PLL) && ((RCC->PLLCFGR & RCC_PLLCFGR_PLLSRC) == RCC_PLLCFGR_PLLSRC_HSI)) || \
 80123b2:	4b4a      	ldr	r3, [pc, #296]	@ (80124dc <HAL_RCC_OscConfig+0x274>)
 80123b4:	685b      	ldr	r3, [r3, #4]
 80123b6:	f403 0380 	and.w	r3, r3, #4194304	@ 0x400000
 80123ba:	2b00      	cmp	r3, #0
 80123bc:	d00b      	beq.n	80123d6 <HAL_RCC_OscConfig+0x16e>
        ((__HAL_RCC_GET_SYSCLK_SOURCE() == RCC_CFGR_SWS_PLLR) && ((RCC->PLLCFGR & RCC_PLLCFGR_PLLSRC) == RCC_PLLCFGR_PLLSRC_HSI)))
 80123be:	4b47      	ldr	r3, [pc, #284]	@ (80124dc <HAL_RCC_OscConfig+0x274>)
 80123c0:	689b      	ldr	r3, [r3, #8]
 80123c2:	f003 030c 	and.w	r3, r3, #12
        ((__HAL_RCC_GET_SYSCLK_SOURCE() == RCC_CFGR_SWS_PLL) && ((RCC->PLLCFGR & RCC_PLLCFGR_PLLSRC) == RCC_PLLCFGR_PLLSRC_HSI)) || \
 80123c6:	2b0c      	cmp	r3, #12
 80123c8:	d11c      	bne.n	8012404 <HAL_RCC_OscConfig+0x19c>
        ((__HAL_RCC_GET_SYSCLK_SOURCE() == RCC_CFGR_SWS_PLLR) && ((RCC->PLLCFGR & RCC_PLLCFGR_PLLSRC) == RCC_PLLCFGR_PLLSRC_HSI)))
 80123ca:	4b44      	ldr	r3, [pc, #272]	@ (80124dc <HAL_RCC_OscConfig+0x274>)
 80123cc:	685b      	ldr	r3, [r3, #4]
 80123ce:	f403 0380 	and.w	r3, r3, #4194304	@ 0x400000
 80123d2:	2b00      	cmp	r3, #0
 80123d4:	d116      	bne.n	8012404 <HAL_RCC_OscConfig+0x19c>
        || \
        ((__HAL_RCC_GET_SYSCLK_SOURCE() == RCC_CFGR_SWS_PLL) && ((RCC->PLLCFGR & RCC_PLLCFGR_PLLSRC) == RCC_PLLCFGR_PLLSRC_HSI)))
#endif /* STM32F446xx */
    {
      /* When HSI is used as system clock it will not disabled */
      if ((__HAL_RCC_GET_FLAG(RCC_FLAG_HSIRDY) != RESET) && (RCC_OscInitStruct->HSIState != RCC_HSI_ON))
 80123d6:	4b41      	ldr	r3, [pc, #260]	@ (80124dc <HAL_RCC_OscConfig+0x274>)
 80123d8:	681b      	ldr	r3, [r3, #0]
 80123da:	f003 0302 	and.w	r3, r3, #2
 80123de:	2b00      	cmp	r3, #0
 80123e0:	d005      	beq.n	80123ee <HAL_RCC_OscConfig+0x186>
 80123e2:	687b      	ldr	r3, [r7, #4]
 80123e4:	68db      	ldr	r3, [r3, #12]
 80123e6:	2b01      	cmp	r3, #1
 80123e8:	d001      	beq.n	80123ee <HAL_RCC_OscConfig+0x186>
      {
        return HAL_ERROR;
 80123ea:	2301      	movs	r3, #1
 80123ec:	e1d3      	b.n	8012796 <HAL_RCC_OscConfig+0x52e>
      }
      /* Otherwise, just the calibration is allowed */
      else
      {
        /* Adjusts the Internal High Speed oscillator (HSI) calibration value.*/
        __HAL_RCC_HSI_CALIBRATIONVALUE_ADJUST(RCC_OscInitStruct->HSICalibrationValue);
 80123ee:	4b3b      	ldr	r3, [pc, #236]	@ (80124dc <HAL_RCC_OscConfig+0x274>)
 80123f0:	681b      	ldr	r3, [r3, #0]
 80123f2:	f023 02f8 	bic.w	r2, r3, #248	@ 0xf8
 80123f6:	687b      	ldr	r3, [r7, #4]
 80123f8:	691b      	ldr	r3, [r3, #16]
 80123fa:	00db      	lsls	r3, r3, #3
 80123fc:	4937      	ldr	r1, [pc, #220]	@ (80124dc <HAL_RCC_OscConfig+0x274>)
 80123fe:	4313      	orrs	r3, r2
 8012400:	600b      	str	r3, [r1, #0]
      if ((__HAL_RCC_GET_FLAG(RCC_FLAG_HSIRDY) != RESET) && (RCC_OscInitStruct->HSIState != RCC_HSI_ON))
 8012402:	e03a      	b.n	801247a <HAL_RCC_OscConfig+0x212>
      }
    }
    else
    {
      /* Check the HSI State */
      if ((RCC_OscInitStruct->HSIState) != RCC_HSI_OFF)
 8012404:	687b      	ldr	r3, [r7, #4]
 8012406:	68db      	ldr	r3, [r3, #12]
 8012408:	2b00      	cmp	r3, #0
 801240a:	d020      	beq.n	801244e <HAL_RCC_OscConfig+0x1e6>
      {
        /* Enable the Internal High Speed oscillator (HSI). */
        __HAL_RCC_HSI_ENABLE();
 801240c:	4b34      	ldr	r3, [pc, #208]	@ (80124e0 <HAL_RCC_OscConfig+0x278>)
 801240e:	2201      	movs	r2, #1
 8012410:	601a      	str	r2, [r3, #0]

        /* Get Start Tick*/
        tickstart = HAL_GetTick();
 8012412:	f7fd fbc7 	bl	800fba4 <HAL_GetTick>
 8012416:	6138      	str	r0, [r7, #16]

        /* Wait till HSI is ready */
        while (__HAL_RCC_GET_FLAG(RCC_FLAG_HSIRDY) == RESET)
 8012418:	e008      	b.n	801242c <HAL_RCC_OscConfig+0x1c4>
        {
          if ((HAL_GetTick() - tickstart) > HSI_TIMEOUT_VALUE)
 801241a:	f7fd fbc3 	bl	800fba4 <HAL_GetTick>
 801241e:	4602      	mov	r2, r0
 8012420:	693b      	ldr	r3, [r7, #16]
 8012422:	1ad3      	subs	r3, r2, r3
 8012424:	2b02      	cmp	r3, #2
 8012426:	d901      	bls.n	801242c <HAL_RCC_OscConfig+0x1c4>
          {
            return HAL_TIMEOUT;
 8012428:	2303      	movs	r3, #3
 801242a:	e1b4      	b.n	8012796 <HAL_RCC_OscConfig+0x52e>
        while (__HAL_RCC_GET_FLAG(RCC_FLAG_HSIRDY) == RESET)
 801242c:	4b2b      	ldr	r3, [pc, #172]	@ (80124dc <HAL_RCC_OscConfig+0x274>)
 801242e:	681b      	ldr	r3, [r3, #0]
 8012430:	f003 0302 	and.w	r3, r3, #2
 8012434:	2b00      	cmp	r3, #0
 8012436:	d0f0      	beq.n	801241a <HAL_RCC_OscConfig+0x1b2>
          }
        }

        /* Adjusts the Internal High Speed oscillator (HSI) calibration value.*/
        __HAL_RCC_HSI_CALIBRATIONVALUE_ADJUST(RCC_OscInitStruct->HSICalibrationValue);
 8012438:	4b28      	ldr	r3, [pc, #160]	@ (80124dc <HAL_RCC_OscConfig+0x274>)
 801243a:	681b      	ldr	r3, [r3, #0]
 801243c:	f023 02f8 	bic.w	r2, r3, #248	@ 0xf8
 8012440:	687b      	ldr	r3, [r7, #4]
 8012442:	691b      	ldr	r3, [r3, #16]
 8012444:	00db      	lsls	r3, r3, #3
 8012446:	4925      	ldr	r1, [pc, #148]	@ (80124dc <HAL_RCC_OscConfig+0x274>)
 8012448:	4313      	orrs	r3, r2
 801244a:	600b      	str	r3, [r1, #0]
 801244c:	e015      	b.n	801247a <HAL_RCC_OscConfig+0x212>
      }
      else
      {
        /* Disable the Internal High Speed oscillator (HSI). */
        __HAL_RCC_HSI_DISABLE();
 801244e:	4b24      	ldr	r3, [pc, #144]	@ (80124e0 <HAL_RCC_OscConfig+0x278>)
 8012450:	2200      	movs	r2, #0
 8012452:	601a      	str	r2, [r3, #0]

        /* Get Start Tick*/
        tickstart = HAL_GetTick();
 8012454:	f7fd fba6 	bl	800fba4 <HAL_GetTick>
 8012458:	6138      	str	r0, [r7, #16]

        /* Wait till HSI is ready */
        while (__HAL_RCC_GET_FLAG(RCC_FLAG_HSIRDY) != RESET)
 801245a:	e008      	b.n	801246e <HAL_RCC_OscConfig+0x206>
        {
          if ((HAL_GetTick() - tickstart) > HSI_TIMEOUT_VALUE)
 801245c:	f7fd fba2 	bl	800fba4 <HAL_GetTick>
 8012460:	4602      	mov	r2, r0
 8012462:	693b      	ldr	r3, [r7, #16]
 8012464:	1ad3      	subs	r3, r2, r3
 8012466:	2b02      	cmp	r3, #2
 8012468:	d901      	bls.n	801246e <HAL_RCC_OscConfig+0x206>
          {
            return HAL_TIMEOUT;
 801246a:	2303      	movs	r3, #3
 801246c:	e193      	b.n	8012796 <HAL_RCC_OscConfig+0x52e>
        while (__HAL_RCC_GET_FLAG(RCC_FLAG_HSIRDY) != RESET)
 801246e:	4b1b      	ldr	r3, [pc, #108]	@ (80124dc <HAL_RCC_OscConfig+0x274>)
 8012470:	681b      	ldr	r3, [r3, #0]
 8012472:	f003 0302 	and.w	r3, r3, #2
 8012476:	2b00      	cmp	r3, #0
 8012478:	d1f0      	bne.n	801245c <HAL_RCC_OscConfig+0x1f4>
        }
      }
    }
  }
  /*------------------------------ LSI Configuration -------------------------*/
  if (((RCC_OscInitStruct->OscillatorType) & RCC_OSCILLATORTYPE_LSI) == RCC_OSCILLATORTYPE_LSI)
 801247a:	687b      	ldr	r3, [r7, #4]
 801247c:	681b      	ldr	r3, [r3, #0]
 801247e:	f003 0308 	and.w	r3, r3, #8
 8012482:	2b00      	cmp	r3, #0
 8012484:	d036      	beq.n	80124f4 <HAL_RCC_OscConfig+0x28c>
  {
    /* Check the parameters */
    assert_param(IS_RCC_LSI(RCC_OscInitStruct->LSIState));

    /* Check the LSI State */
    if ((RCC_OscInitStruct->LSIState) != RCC_LSI_OFF)
 8012486:	687b      	ldr	r3, [r7, #4]
 8012488:	695b      	ldr	r3, [r3, #20]
 801248a:	2b00      	cmp	r3, #0
 801248c:	d016      	beq.n	80124bc <HAL_RCC_OscConfig+0x254>
    {
      /* Enable the Internal Low Speed oscillator (LSI). */
      __HAL_RCC_LSI_ENABLE();
 801248e:	4b15      	ldr	r3, [pc, #84]	@ (80124e4 <HAL_RCC_OscConfig+0x27c>)
 8012490:	2201      	movs	r2, #1
 8012492:	601a      	str	r2, [r3, #0]

      /* Get Start Tick*/
      tickstart = HAL_GetTick();
 8012494:	f7fd fb86 	bl	800fba4 <HAL_GetTick>
 8012498:	6138      	str	r0, [r7, #16]

      /* Wait till LSI is ready */
      while (__HAL_RCC_GET_FLAG(RCC_FLAG_LSIRDY) == RESET)
 801249a:	e008      	b.n	80124ae <HAL_RCC_OscConfig+0x246>
      {
        if ((HAL_GetTick() - tickstart) > LSI_TIMEOUT_VALUE)
 801249c:	f7fd fb82 	bl	800fba4 <HAL_GetTick>
 80124a0:	4602      	mov	r2, r0
 80124a2:	693b      	ldr	r3, [r7, #16]
 80124a4:	1ad3      	subs	r3, r2, r3
 80124a6:	2b02      	cmp	r3, #2
 80124a8:	d901      	bls.n	80124ae <HAL_RCC_OscConfig+0x246>
        {
          return HAL_TIMEOUT;
 80124aa:	2303      	movs	r3, #3
 80124ac:	e173      	b.n	8012796 <HAL_RCC_OscConfig+0x52e>
      while (__HAL_RCC_GET_FLAG(RCC_FLAG_LSIRDY) == RESET)
 80124ae:	4b0b      	ldr	r3, [pc, #44]	@ (80124dc <HAL_RCC_OscConfig+0x274>)
 80124b0:	6f5b      	ldr	r3, [r3, #116]	@ 0x74
 80124b2:	f003 0302 	and.w	r3, r3, #2
 80124b6:	2b00      	cmp	r3, #0
 80124b8:	d0f0      	beq.n	801249c <HAL_RCC_OscConfig+0x234>
 80124ba:	e01b      	b.n	80124f4 <HAL_RCC_OscConfig+0x28c>
      }
    }
    else
    {
      /* Disable the Internal Low Speed oscillator (LSI). */
      __HAL_RCC_LSI_DISABLE();
 80124bc:	4b09      	ldr	r3, [pc, #36]	@ (80124e4 <HAL_RCC_OscConfig+0x27c>)
 80124be:	2200      	movs	r2, #0
 80124c0:	601a      	str	r2, [r3, #0]

      /* Get Start Tick*/
      tickstart = HAL_GetTick();
 80124c2:	f7fd fb6f 	bl	800fba4 <HAL_GetTick>
 80124c6:	6138      	str	r0, [r7, #16]

      /* Wait till LSI is ready */
      while (__HAL_RCC_GET_FLAG(RCC_FLAG_LSIRDY) != RESET)
 80124c8:	e00e      	b.n	80124e8 <HAL_RCC_OscConfig+0x280>
      {
        if ((HAL_GetTick() - tickstart) > LSI_TIMEOUT_VALUE)
 80124ca:	f7fd fb6b 	bl	800fba4 <HAL_GetTick>
 80124ce:	4602      	mov	r2, r0
 80124d0:	693b      	ldr	r3, [r7, #16]
 80124d2:	1ad3      	subs	r3, r2, r3
 80124d4:	2b02      	cmp	r3, #2
 80124d6:	d907      	bls.n	80124e8 <HAL_RCC_OscConfig+0x280>
        {
          return HAL_TIMEOUT;
 80124d8:	2303      	movs	r3, #3
 80124da:	e15c      	b.n	8012796 <HAL_RCC_OscConfig+0x52e>
 80124dc:	40023800 	.word	0x40023800
 80124e0:	42470000 	.word	0x42470000
 80124e4:	42470e80 	.word	0x42470e80
      while (__HAL_RCC_GET_FLAG(RCC_FLAG_LSIRDY) != RESET)
 80124e8:	4b8a      	ldr	r3, [pc, #552]	@ (8012714 <HAL_RCC_OscConfig+0x4ac>)
 80124ea:	6f5b      	ldr	r3, [r3, #116]	@ 0x74
 80124ec:	f003 0302 	and.w	r3, r3, #2
 80124f0:	2b00      	cmp	r3, #0
 80124f2:	d1ea      	bne.n	80124ca <HAL_RCC_OscConfig+0x262>
        }
      }
    }
  }
  /*------------------------------ LSE Configuration -------------------------*/
  if (((RCC_OscInitStruct->OscillatorType) & RCC_OSCILLATORTYPE_LSE) == RCC_OSCILLATORTYPE_LSE)
 80124f4:	687b      	ldr	r3, [r7, #4]
 80124f6:	681b      	ldr	r3, [r3, #0]
 80124f8:	f003 0304 	and.w	r3, r3, #4
 80124fc:	2b00      	cmp	r3, #0
 80124fe:	f000 8097 	beq.w	8012630 <HAL_RCC_OscConfig+0x3c8>
  {
    FlagStatus       pwrclkchanged = RESET;
 8012502:	2300      	movs	r3, #0
 8012504:	75fb      	strb	r3, [r7, #23]
    /* Check the parameters */
    assert_param(IS_RCC_LSE(RCC_OscInitStruct->LSEState));

    /* Update LSE configuration in Backup Domain control register    */
    /* Requires to enable write access to Backup Domain of necessary */
    if (__HAL_RCC_PWR_IS_CLK_DISABLED())
 8012506:	4b83      	ldr	r3, [pc, #524]	@ (8012714 <HAL_RCC_OscConfig+0x4ac>)
 8012508:	6c1b      	ldr	r3, [r3, #64]	@ 0x40
 801250a:	f003 5380 	and.w	r3, r3, #268435456	@ 0x10000000
 801250e:	2b00      	cmp	r3, #0
 8012510:	d10f      	bne.n	8012532 <HAL_RCC_OscConfig+0x2ca>
    {
      __HAL_RCC_PWR_CLK_ENABLE();
 8012512:	2300      	movs	r3, #0
 8012514:	60bb      	str	r3, [r7, #8]
 8012516:	4b7f      	ldr	r3, [pc, #508]	@ (8012714 <HAL_RCC_OscConfig+0x4ac>)
 8012518:	6c1b      	ldr	r3, [r3, #64]	@ 0x40
 801251a:	4a7e      	ldr	r2, [pc, #504]	@ (8012714 <HAL_RCC_OscConfig+0x4ac>)
 801251c:	f043 5380 	orr.w	r3, r3, #268435456	@ 0x10000000
 8012520:	6413      	str	r3, [r2, #64]	@ 0x40
 8012522:	4b7c      	ldr	r3, [pc, #496]	@ (8012714 <HAL_RCC_OscConfig+0x4ac>)
 8012524:	6c1b      	ldr	r3, [r3, #64]	@ 0x40
 8012526:	f003 5380 	and.w	r3, r3, #268435456	@ 0x10000000
 801252a:	60bb      	str	r3, [r7, #8]
 801252c:	68bb      	ldr	r3, [r7, #8]
      pwrclkchanged = SET;
 801252e:	2301      	movs	r3, #1
 8012530:	75fb      	strb	r3, [r7, #23]
    }

    if (HAL_IS_BIT_CLR(PWR->CR, PWR_CR_DBP))
 8012532:	4b79      	ldr	r3, [pc, #484]	@ (8012718 <HAL_RCC_OscConfig+0x4b0>)
 8012534:	681b      	ldr	r3, [r3, #0]
 8012536:	f403 7380 	and.w	r3, r3, #256	@ 0x100
 801253a:	2b00      	cmp	r3, #0
 801253c:	d118      	bne.n	8012570 <HAL_RCC_OscConfig+0x308>
    {
      /* Enable write access to Backup domain */
      SET_BIT(PWR->CR, PWR_CR_DBP);
 801253e:	4b76      	ldr	r3, [pc, #472]	@ (8012718 <HAL_RCC_OscConfig+0x4b0>)
 8012540:	681b      	ldr	r3, [r3, #0]
 8012542:	4a75      	ldr	r2, [pc, #468]	@ (8012718 <HAL_RCC_OscConfig+0x4b0>)
 8012544:	f443 7380 	orr.w	r3, r3, #256	@ 0x100
 8012548:	6013      	str	r3, [r2, #0]

      /* Wait for Backup domain Write protection disable */
      tickstart = HAL_GetTick();
 801254a:	f7fd fb2b 	bl	800fba4 <HAL_GetTick>
 801254e:	6138      	str	r0, [r7, #16]

      while (HAL_IS_BIT_CLR(PWR->CR, PWR_CR_DBP))
 8012550:	e008      	b.n	8012564 <HAL_RCC_OscConfig+0x2fc>
      {
        if ((HAL_GetTick() - tickstart) > RCC_DBP_TIMEOUT_VALUE)
 8012552:	f7fd fb27 	bl	800fba4 <HAL_GetTick>
 8012556:	4602      	mov	r2, r0
 8012558:	693b      	ldr	r3, [r7, #16]
 801255a:	1ad3      	subs	r3, r2, r3
 801255c:	2b02      	cmp	r3, #2
 801255e:	d901      	bls.n	8012564 <HAL_RCC_OscConfig+0x2fc>
        {
          return HAL_TIMEOUT;
 8012560:	2303      	movs	r3, #3
 8012562:	e118      	b.n	8012796 <HAL_RCC_OscConfig+0x52e>
      while (HAL_IS_BIT_CLR(PWR->CR, PWR_CR_DBP))
 8012564:	4b6c      	ldr	r3, [pc, #432]	@ (8012718 <HAL_RCC_OscConfig+0x4b0>)
 8012566:	681b      	ldr	r3, [r3, #0]
 8012568:	f403 7380 	and.w	r3, r3, #256	@ 0x100
 801256c:	2b00      	cmp	r3, #0
 801256e:	d0f0      	beq.n	8012552 <HAL_RCC_OscConfig+0x2ea>
        }
      }
    }

    /* Set the new LSE configuration -----------------------------------------*/
    __HAL_RCC_LSE_CONFIG(RCC_OscInitStruct->LSEState);
 8012570:	687b      	ldr	r3, [r7, #4]
 8012572:	689b      	ldr	r3, [r3, #8]
 8012574:	2b01      	cmp	r3, #1
 8012576:	d106      	bne.n	8012586 <HAL_RCC_OscConfig+0x31e>
 8012578:	4b66      	ldr	r3, [pc, #408]	@ (8012714 <HAL_RCC_OscConfig+0x4ac>)
 801257a:	6f1b      	ldr	r3, [r3, #112]	@ 0x70
 801257c:	4a65      	ldr	r2, [pc, #404]	@ (8012714 <HAL_RCC_OscConfig+0x4ac>)
 801257e:	f043 0301 	orr.w	r3, r3, #1
 8012582:	6713      	str	r3, [r2, #112]	@ 0x70
 8012584:	e01c      	b.n	80125c0 <HAL_RCC_OscConfig+0x358>
 8012586:	687b      	ldr	r3, [r7, #4]
 8012588:	689b      	ldr	r3, [r3, #8]
 801258a:	2b05      	cmp	r3, #5
 801258c:	d10c      	bne.n	80125a8 <HAL_RCC_OscConfig+0x340>
 801258e:	4b61      	ldr	r3, [pc, #388]	@ (8012714 <HAL_RCC_OscConfig+0x4ac>)
 8012590:	6f1b      	ldr	r3, [r3, #112]	@ 0x70
 8012592:	4a60      	ldr	r2, [pc, #384]	@ (8012714 <HAL_RCC_OscConfig+0x4ac>)
 8012594:	f043 0304 	orr.w	r3, r3, #4
 8012598:	6713      	str	r3, [r2, #112]	@ 0x70
 801259a:	4b5e      	ldr	r3, [pc, #376]	@ (8012714 <HAL_RCC_OscConfig+0x4ac>)
 801259c:	6f1b      	ldr	r3, [r3, #112]	@ 0x70
 801259e:	4a5d      	ldr	r2, [pc, #372]	@ (8012714 <HAL_RCC_OscConfig+0x4ac>)
 80125a0:	f043 0301 	orr.w	r3, r3, #1
 80125a4:	6713      	str	r3, [r2, #112]	@ 0x70
 80125a6:	e00b      	b.n	80125c0 <HAL_RCC_OscConfig+0x358>
 80125a8:	4b5a      	ldr	r3, [pc, #360]	@ (8012714 <HAL_RCC_OscConfig+0x4ac>)
 80125aa:	6f1b      	ldr	r3, [r3, #112]	@ 0x70
 80125ac:	4a59      	ldr	r2, [pc, #356]	@ (8012714 <HAL_RCC_OscConfig+0x4ac>)
 80125ae:	f023 0301 	bic.w	r3, r3, #1
 80125b2:	6713      	str	r3, [r2, #112]	@ 0x70
 80125b4:	4b57      	ldr	r3, [pc, #348]	@ (8012714 <HAL_RCC_OscConfig+0x4ac>)
 80125b6:	6f1b      	ldr	r3, [r3, #112]	@ 0x70
 80125b8:	4a56      	ldr	r2, [pc, #344]	@ (8012714 <HAL_RCC_OscConfig+0x4ac>)
 80125ba:	f023 0304 	bic.w	r3, r3, #4
 80125be:	6713      	str	r3, [r2, #112]	@ 0x70
    /* Check the LSE State */
    if ((RCC_OscInitStruct->LSEState) != RCC_LSE_OFF)
 80125c0:	687b      	ldr	r3, [r7, #4]
 80125c2:	689b      	ldr	r3, [r3, #8]
 80125c4:	2b00      	cmp	r3, #0
 80125c6:	d015      	beq.n	80125f4 <HAL_RCC_OscConfig+0x38c>
    {
      /* Get Start Tick*/
      tickstart = HAL_GetTick();
 80125c8:	f7fd faec 	bl	800fba4 <HAL_GetTick>
 80125cc:	6138      	str	r0, [r7, #16]

      /* Wait till LSE is ready */
      while (__HAL_RCC_GET_FLAG(RCC_FLAG_LSERDY) == RESET)
 80125ce:	e00a      	b.n	80125e6 <HAL_RCC_OscConfig+0x37e>
      {
        if ((HAL_GetTick() - tickstart) > RCC_LSE_TIMEOUT_VALUE)
 80125d0:	f7fd fae8 	bl	800fba4 <HAL_GetTick>
 80125d4:	4602      	mov	r2, r0
 80125d6:	693b      	ldr	r3, [r7, #16]
 80125d8:	1ad3      	subs	r3, r2, r3
 80125da:	f241 3288 	movw	r2, #5000	@ 0x1388
 80125de:	4293      	cmp	r3, r2
 80125e0:	d901      	bls.n	80125e6 <HAL_RCC_OscConfig+0x37e>
        {
          return HAL_TIMEOUT;
 80125e2:	2303      	movs	r3, #3
 80125e4:	e0d7      	b.n	8012796 <HAL_RCC_OscConfig+0x52e>
      while (__HAL_RCC_GET_FLAG(RCC_FLAG_LSERDY) == RESET)
 80125e6:	4b4b      	ldr	r3, [pc, #300]	@ (8012714 <HAL_RCC_OscConfig+0x4ac>)
 80125e8:	6f1b      	ldr	r3, [r3, #112]	@ 0x70
 80125ea:	f003 0302 	and.w	r3, r3, #2
 80125ee:	2b00      	cmp	r3, #0
 80125f0:	d0ee      	beq.n	80125d0 <HAL_RCC_OscConfig+0x368>
 80125f2:	e014      	b.n	801261e <HAL_RCC_OscConfig+0x3b6>
      }
    }
    else
    {
      /* Get Start Tick*/
      tickstart = HAL_GetTick();
 80125f4:	f7fd fad6 	bl	800fba4 <HAL_GetTick>
 80125f8:	6138      	str	r0, [r7, #16]

      /* Wait till LSE is ready */
      while (__HAL_RCC_GET_FLAG(RCC_FLAG_LSERDY) != RESET)
 80125fa:	e00a      	b.n	8012612 <HAL_RCC_OscConfig+0x3aa>
      {
        if ((HAL_GetTick() - tickstart) > RCC_LSE_TIMEOUT_VALUE)
 80125fc:	f7fd fad2 	bl	800fba4 <HAL_GetTick>
 8012600:	4602      	mov	r2, r0
 8012602:	693b      	ldr	r3, [r7, #16]
 8012604:	1ad3      	subs	r3, r2, r3
 8012606:	f241 3288 	movw	r2, #5000	@ 0x1388
 801260a:	4293      	cmp	r3, r2
 801260c:	d901      	bls.n	8012612 <HAL_RCC_OscConfig+0x3aa>
        {
          return HAL_TIMEOUT;
 801260e:	2303      	movs	r3, #3
 8012610:	e0c1      	b.n	8012796 <HAL_RCC_OscConfig+0x52e>
      while (__HAL_RCC_GET_FLAG(RCC_FLAG_LSERDY) != RESET)
 8012612:	4b40      	ldr	r3, [pc, #256]	@ (8012714 <HAL_RCC_OscConfig+0x4ac>)
 8012614:	6f1b      	ldr	r3, [r3, #112]	@ 0x70
 8012616:	f003 0302 	and.w	r3, r3, #2
 801261a:	2b00      	cmp	r3, #0
 801261c:	d1ee      	bne.n	80125fc <HAL_RCC_OscConfig+0x394>
        }
      }
    }

    /* Restore clock configuration if changed */
    if (pwrclkchanged == SET)
 801261e:	7dfb      	ldrb	r3, [r7, #23]
 8012620:	2b01      	cmp	r3, #1
 8012622:	d105      	bne.n	8012630 <HAL_RCC_OscConfig+0x3c8>
    {
      __HAL_RCC_PWR_CLK_DISABLE();
 8012624:	4b3b      	ldr	r3, [pc, #236]	@ (8012714 <HAL_RCC_OscConfig+0x4ac>)
 8012626:	6c1b      	ldr	r3, [r3, #64]	@ 0x40
 8012628:	4a3a      	ldr	r2, [pc, #232]	@ (8012714 <HAL_RCC_OscConfig+0x4ac>)
 801262a:	f023 5380 	bic.w	r3, r3, #268435456	@ 0x10000000
 801262e:	6413      	str	r3, [r2, #64]	@ 0x40
    }
  }
  /*-------------------------------- PLL Configuration -----------------------*/
  /* Check the parameters */
  assert_param(IS_RCC_PLL(RCC_OscInitStruct->PLL.PLLState));
  if ((RCC_OscInitStruct->PLL.PLLState) != RCC_PLL_NONE)
 8012630:	687b      	ldr	r3, [r7, #4]
 8012632:	699b      	ldr	r3, [r3, #24]
 8012634:	2b00      	cmp	r3, #0
 8012636:	f000 80ad 	beq.w	8012794 <HAL_RCC_OscConfig+0x52c>
  {
    /* Check if the PLL is used as system clock or not */
    if (__HAL_RCC_GET_SYSCLK_SOURCE() != RCC_CFGR_SWS_PLL)
 801263a:	4b36      	ldr	r3, [pc, #216]	@ (8012714 <HAL_RCC_OscConfig+0x4ac>)
 801263c:	689b      	ldr	r3, [r3, #8]
 801263e:	f003 030c 	and.w	r3, r3, #12
 8012642:	2b08      	cmp	r3, #8
 8012644:	d060      	beq.n	8012708 <HAL_RCC_OscConfig+0x4a0>
    {
      if ((RCC_OscInitStruct->PLL.PLLState) == RCC_PLL_ON)
 8012646:	687b      	ldr	r3, [r7, #4]
 8012648:	699b      	ldr	r3, [r3, #24]
 801264a:	2b02      	cmp	r3, #2
 801264c:	d145      	bne.n	80126da <HAL_RCC_OscConfig+0x472>
        assert_param(IS_RCC_PLLP_VALUE(RCC_OscInitStruct->PLL.PLLP));
        assert_param(IS_RCC_PLLQ_VALUE(RCC_OscInitStruct->PLL.PLLQ));
        assert_param(IS_RCC_PLLR_VALUE(RCC_OscInitStruct->PLL.PLLR));

        /* Disable the main PLL. */
        __HAL_RCC_PLL_DISABLE();
 801264e:	4b33      	ldr	r3, [pc, #204]	@ (801271c <HAL_RCC_OscConfig+0x4b4>)
 8012650:	2200      	movs	r2, #0
 8012652:	601a      	str	r2, [r3, #0]

        /* Get Start Tick*/
        tickstart = HAL_GetTick();
 8012654:	f7fd faa6 	bl	800fba4 <HAL_GetTick>
 8012658:	6138      	str	r0, [r7, #16]

        /* Wait till PLL is ready */
        while (__HAL_RCC_GET_FLAG(RCC_FLAG_PLLRDY) != RESET)
 801265a:	e008      	b.n	801266e <HAL_RCC_OscConfig+0x406>
        {
          if ((HAL_GetTick() - tickstart) > PLL_TIMEOUT_VALUE)
 801265c:	f7fd faa2 	bl	800fba4 <HAL_GetTick>
 8012660:	4602      	mov	r2, r0
 8012662:	693b      	ldr	r3, [r7, #16]
 8012664:	1ad3      	subs	r3, r2, r3
 8012666:	2b02      	cmp	r3, #2
 8012668:	d901      	bls.n	801266e <HAL_RCC_OscConfig+0x406>
          {
            return HAL_TIMEOUT;
 801266a:	2303      	movs	r3, #3
 801266c:	e093      	b.n	8012796 <HAL_RCC_OscConfig+0x52e>
        while (__HAL_RCC_GET_FLAG(RCC_FLAG_PLLRDY) != RESET)
 801266e:	4b29      	ldr	r3, [pc, #164]	@ (8012714 <HAL_RCC_OscConfig+0x4ac>)
 8012670:	681b      	ldr	r3, [r3, #0]
 8012672:	f003 7300 	and.w	r3, r3, #33554432	@ 0x2000000
 8012676:	2b00      	cmp	r3, #0
 8012678:	d1f0      	bne.n	801265c <HAL_RCC_OscConfig+0x3f4>
          }
        }

        /* Configure the main PLL clock source, multiplication and division factors. */
        WRITE_REG(RCC->PLLCFGR, (RCC_OscInitStruct->PLL.PLLSource                                            | \
 801267a:	687b      	ldr	r3, [r7, #4]
 801267c:	69da      	ldr	r2, [r3, #28]
 801267e:	687b      	ldr	r3, [r7, #4]
 8012680:	6a1b      	ldr	r3, [r3, #32]
 8012682:	431a      	orrs	r2, r3
 8012684:	687b      	ldr	r3, [r7, #4]
 8012686:	6a5b      	ldr	r3, [r3, #36]	@ 0x24
 8012688:	019b      	lsls	r3, r3, #6
 801268a:	431a      	orrs	r2, r3
 801268c:	687b      	ldr	r3, [r7, #4]
 801268e:	6a9b      	ldr	r3, [r3, #40]	@ 0x28
 8012690:	085b      	lsrs	r3, r3, #1
 8012692:	3b01      	subs	r3, #1
 8012694:	041b      	lsls	r3, r3, #16
 8012696:	431a      	orrs	r2, r3
 8012698:	687b      	ldr	r3, [r7, #4]
 801269a:	6adb      	ldr	r3, [r3, #44]	@ 0x2c
 801269c:	061b      	lsls	r3, r3, #24
 801269e:	431a      	orrs	r2, r3
 80126a0:	687b      	ldr	r3, [r7, #4]
 80126a2:	6b1b      	ldr	r3, [r3, #48]	@ 0x30
 80126a4:	071b      	lsls	r3, r3, #28
 80126a6:	491b      	ldr	r1, [pc, #108]	@ (8012714 <HAL_RCC_OscConfig+0x4ac>)
 80126a8:	4313      	orrs	r3, r2
 80126aa:	604b      	str	r3, [r1, #4]
                                 (RCC_OscInitStruct->PLL.PLLN << RCC_PLLCFGR_PLLN_Pos)                       | \
                                 (((RCC_OscInitStruct->PLL.PLLP >> 1U) - 1U) << RCC_PLLCFGR_PLLP_Pos)        | \
                                 (RCC_OscInitStruct->PLL.PLLQ << RCC_PLLCFGR_PLLQ_Pos)                       | \
                                 (RCC_OscInitStruct->PLL.PLLR << RCC_PLLCFGR_PLLR_Pos)));
        /* Enable the main PLL. */
        __HAL_RCC_PLL_ENABLE();
 80126ac:	4b1b      	ldr	r3, [pc, #108]	@ (801271c <HAL_RCC_OscConfig+0x4b4>)
 80126ae:	2201      	movs	r2, #1
 80126b0:	601a      	str	r2, [r3, #0]

        /* Get Start Tick*/
        tickstart = HAL_GetTick();
 80126b2:	f7fd fa77 	bl	800fba4 <HAL_GetTick>
 80126b6:	6138      	str	r0, [r7, #16]

        /* Wait till PLL is ready */
        while (__HAL_RCC_GET_FLAG(RCC_FLAG_PLLRDY) == RESET)
 80126b8:	e008      	b.n	80126cc <HAL_RCC_OscConfig+0x464>
        {
          if ((HAL_GetTick() - tickstart) > PLL_TIMEOUT_VALUE)
 80126ba:	f7fd fa73 	bl	800fba4 <HAL_GetTick>
 80126be:	4602      	mov	r2, r0
 80126c0:	693b      	ldr	r3, [r7, #16]
 80126c2:	1ad3      	subs	r3, r2, r3
 80126c4:	2b02      	cmp	r3, #2
 80126c6:	d901      	bls.n	80126cc <HAL_RCC_OscConfig+0x464>
          {
            return HAL_TIMEOUT;
 80126c8:	2303      	movs	r3, #3
 80126ca:	e064      	b.n	8012796 <HAL_RCC_OscConfig+0x52e>
        while (__HAL_RCC_GET_FLAG(RCC_FLAG_PLLRDY) == RESET)
 80126cc:	4b11      	ldr	r3, [pc, #68]	@ (8012714 <HAL_RCC_OscConfig+0x4ac>)
 80126ce:	681b      	ldr	r3, [r3, #0]
 80126d0:	f003 7300 	and.w	r3, r3, #33554432	@ 0x2000000
 80126d4:	2b00      	cmp	r3, #0
 80126d6:	d0f0      	beq.n	80126ba <HAL_RCC_OscConfig+0x452>
 80126d8:	e05c      	b.n	8012794 <HAL_RCC_OscConfig+0x52c>
        }
      }
      else
      {
        /* Disable the main PLL. */
        __HAL_RCC_PLL_DISABLE();
 80126da:	4b10      	ldr	r3, [pc, #64]	@ (801271c <HAL_RCC_OscConfig+0x4b4>)
 80126dc:	2200      	movs	r2, #0
 80126de:	601a      	str	r2, [r3, #0]

        /* Get Start Tick*/
        tickstart = HAL_GetTick();
 80126e0:	f7fd fa60 	bl	800fba4 <HAL_GetTick>
 80126e4:	6138      	str	r0, [r7, #16]

        /* Wait till PLL is ready */
        while (__HAL_RCC_GET_FLAG(RCC_FLAG_PLLRDY) != RESET)
 80126e6:	e008      	b.n	80126fa <HAL_RCC_OscConfig+0x492>
        {
          if ((HAL_GetTick() - tickstart) > PLL_TIMEOUT_VALUE)
 80126e8:	f7fd fa5c 	bl	800fba4 <HAL_GetTick>
 80126ec:	4602      	mov	r2, r0
 80126ee:	693b      	ldr	r3, [r7, #16]
 80126f0:	1ad3      	subs	r3, r2, r3
 80126f2:	2b02      	cmp	r3, #2
 80126f4:	d901      	bls.n	80126fa <HAL_RCC_OscConfig+0x492>
          {
            return HAL_TIMEOUT;
 80126f6:	2303      	movs	r3, #3
 80126f8:	e04d      	b.n	8012796 <HAL_RCC_OscConfig+0x52e>
        while (__HAL_RCC_GET_FLAG(RCC_FLAG_PLLRDY) != RESET)
 80126fa:	4b06      	ldr	r3, [pc, #24]	@ (8012714 <HAL_RCC_OscConfig+0x4ac>)
 80126fc:	681b      	ldr	r3, [r3, #0]
 80126fe:	f003 7300 	and.w	r3, r3, #33554432	@ 0x2000000
 8012702:	2b00      	cmp	r3, #0
 8012704:	d1f0      	bne.n	80126e8 <HAL_RCC_OscConfig+0x480>
 8012706:	e045      	b.n	8012794 <HAL_RCC_OscConfig+0x52c>
      }
    }
    else
    {
      /* Check if there is a request to disable the PLL used as System clock source */
      if ((RCC_OscInitStruct->PLL.PLLState) == RCC_PLL_OFF)
 8012708:	687b      	ldr	r3, [r7, #4]
 801270a:	699b      	ldr	r3, [r3, #24]
 801270c:	2b01      	cmp	r3, #1
 801270e:	d107      	bne.n	8012720 <HAL_RCC_OscConfig+0x4b8>
      {
        return HAL_ERROR;
 8012710:	2301      	movs	r3, #1
 8012712:	e040      	b.n	8012796 <HAL_RCC_OscConfig+0x52e>
 8012714:	40023800 	.word	0x40023800
 8012718:	40007000 	.word	0x40007000
 801271c:	42470060 	.word	0x42470060
      }
      else
      {
        /* Do not return HAL_ERROR if request repeats the current configuration */
        pll_config = RCC->PLLCFGR;
 8012720:	4b1f      	ldr	r3, [pc, #124]	@ (80127a0 <HAL_RCC_OscConfig+0x538>)
 8012722:	685b      	ldr	r3, [r3, #4]
 8012724:	60fb      	str	r3, [r7, #12]
#if defined (RCC_PLLCFGR_PLLR)
        if (((RCC_OscInitStruct->PLL.PLLState) == RCC_PLL_OFF) ||
 8012726:	687b      	ldr	r3, [r7, #4]
 8012728:	699b      	ldr	r3, [r3, #24]
 801272a:	2b01      	cmp	r3, #1
 801272c:	d030      	beq.n	8012790 <HAL_RCC_OscConfig+0x528>
            (READ_BIT(pll_config, RCC_PLLCFGR_PLLSRC) != RCC_OscInitStruct->PLL.PLLSource) ||
 801272e:	68fb      	ldr	r3, [r7, #12]
 8012730:	f403 0280 	and.w	r2, r3, #4194304	@ 0x400000
 8012734:	687b      	ldr	r3, [r7, #4]
 8012736:	69db      	ldr	r3, [r3, #28]
        if (((RCC_OscInitStruct->PLL.PLLState) == RCC_PLL_OFF) ||
 8012738:	429a      	cmp	r2, r3
 801273a:	d129      	bne.n	8012790 <HAL_RCC_OscConfig+0x528>
            (READ_BIT(pll_config, RCC_PLLCFGR_PLLM) != (RCC_OscInitStruct->PLL.PLLM) << RCC_PLLCFGR_PLLM_Pos) ||
 801273c:	68fb      	ldr	r3, [r7, #12]
 801273e:	f003 023f 	and.w	r2, r3, #63	@ 0x3f
 8012742:	687b      	ldr	r3, [r7, #4]
 8012744:	6a1b      	ldr	r3, [r3, #32]
            (READ_BIT(pll_config, RCC_PLLCFGR_PLLSRC) != RCC_OscInitStruct->PLL.PLLSource) ||
 8012746:	429a      	cmp	r2, r3
 8012748:	d122      	bne.n	8012790 <HAL_RCC_OscConfig+0x528>
            (READ_BIT(pll_config, RCC_PLLCFGR_PLLN) != (RCC_OscInitStruct->PLL.PLLN) << RCC_PLLCFGR_PLLN_Pos) ||
 801274a:	68fa      	ldr	r2, [r7, #12]
 801274c:	f647 73c0 	movw	r3, #32704	@ 0x7fc0
 8012750:	4013      	ands	r3, r2
 8012752:	687a      	ldr	r2, [r7, #4]
 8012754:	6a52      	ldr	r2, [r2, #36]	@ 0x24
 8012756:	0192      	lsls	r2, r2, #6
            (READ_BIT(pll_config, RCC_PLLCFGR_PLLM) != (RCC_OscInitStruct->PLL.PLLM) << RCC_PLLCFGR_PLLM_Pos) ||
 8012758:	4293      	cmp	r3, r2
 801275a:	d119      	bne.n	8012790 <HAL_RCC_OscConfig+0x528>
            (READ_BIT(pll_config, RCC_PLLCFGR_PLLP) != (((RCC_OscInitStruct->PLL.PLLP >> 1U) - 1U)) << RCC_PLLCFGR_PLLP_Pos) ||
 801275c:	68fb      	ldr	r3, [r7, #12]
 801275e:	f403 3240 	and.w	r2, r3, #196608	@ 0x30000
 8012762:	687b      	ldr	r3, [r7, #4]
 8012764:	6a9b      	ldr	r3, [r3, #40]	@ 0x28
 8012766:	085b      	lsrs	r3, r3, #1
 8012768:	3b01      	subs	r3, #1
 801276a:	041b      	lsls	r3, r3, #16
            (READ_BIT(pll_config, RCC_PLLCFGR_PLLN) != (RCC_OscInitStruct->PLL.PLLN) << RCC_PLLCFGR_PLLN_Pos) ||
 801276c:	429a      	cmp	r2, r3
 801276e:	d10f      	bne.n	8012790 <HAL_RCC_OscConfig+0x528>
            (READ_BIT(pll_config, RCC_PLLCFGR_PLLQ) != (RCC_OscInitStruct->PLL.PLLQ << RCC_PLLCFGR_PLLQ_Pos)) ||
 8012770:	68fb      	ldr	r3, [r7, #12]
 8012772:	f003 6270 	and.w	r2, r3, #251658240	@ 0xf000000
 8012776:	687b      	ldr	r3, [r7, #4]
 8012778:	6adb      	ldr	r3, [r3, #44]	@ 0x2c
 801277a:	061b      	lsls	r3, r3, #24
            (READ_BIT(pll_config, RCC_PLLCFGR_PLLP) != (((RCC_OscInitStruct->PLL.PLLP >> 1U) - 1U)) << RCC_PLLCFGR_PLLP_Pos) ||
 801277c:	429a      	cmp	r2, r3
 801277e:	d107      	bne.n	8012790 <HAL_RCC_OscConfig+0x528>
            (READ_BIT(pll_config, RCC_PLLCFGR_PLLR) != (RCC_OscInitStruct->PLL.PLLR << RCC_PLLCFGR_PLLR_Pos)))
 8012780:	68fb      	ldr	r3, [r7, #12]
 8012782:	f003 42e0 	and.w	r2, r3, #1879048192	@ 0x70000000
 8012786:	687b      	ldr	r3, [r7, #4]
 8012788:	6b1b      	ldr	r3, [r3, #48]	@ 0x30
 801278a:	071b      	lsls	r3, r3, #28
            (READ_BIT(pll_config, RCC_PLLCFGR_PLLQ) != (RCC_OscInitStruct->PLL.PLLQ << RCC_PLLCFGR_PLLQ_Pos)) ||
 801278c:	429a      	cmp	r2, r3
 801278e:	d001      	beq.n	8012794 <HAL_RCC_OscConfig+0x52c>
            (READ_BIT(pll_config, RCC_PLLCFGR_PLLN) != (RCC_OscInitStruct->PLL.PLLN) << RCC_PLLCFGR_PLLN_Pos) ||
            (READ_BIT(pll_config, RCC_PLLCFGR_PLLP) != (((RCC_OscInitStruct->PLL.PLLP >> 1U) - 1U)) << RCC_PLLCFGR_PLLP_Pos) ||
            (READ_BIT(pll_config, RCC_PLLCFGR_PLLQ) != (RCC_OscInitStruct->PLL.PLLQ << RCC_PLLCFGR_PLLQ_Pos)))
#endif /* RCC_PLLCFGR_PLLR */
        {
          return HAL_ERROR;
 8012790:	2301      	movs	r3, #1
 8012792:	e000      	b.n	8012796 <HAL_RCC_OscConfig+0x52e>
        }
      }
    }
  }
  return HAL_OK;
 8012794:	2300      	movs	r3, #0
}
 8012796:	4618      	mov	r0, r3
 8012798:	3718      	adds	r7, #24
 801279a:	46bd      	mov	sp, r7
 801279c:	bd80      	pop	{r7, pc}
 801279e:	bf00      	nop
 80127a0:	40023800 	.word	0x40023800

080127a4 <HAL_SPI_Init>:
  * @param  hspi pointer to a SPI_HandleTypeDef structure that contains
  *               the configuration information for SPI module.
  * @retval HAL status
  */
HAL_StatusTypeDef HAL_SPI_Init(SPI_HandleTypeDef *hspi)
{
 80127a4:	b580      	push	{r7, lr}
 80127a6:	b082      	sub	sp, #8
 80127a8:	af00      	add	r7, sp, #0
 80127aa:	6078      	str	r0, [r7, #4]
  /* Check the SPI handle allocation */
  if (hspi == NULL)
 80127ac:	687b      	ldr	r3, [r7, #4]
 80127ae:	2b00      	cmp	r3, #0
 80127b0:	d101      	bne.n	80127b6 <HAL_SPI_Init+0x12>
  {
    return HAL_ERROR;
 80127b2:	2301      	movs	r3, #1
 80127b4:	e07b      	b.n	80128ae <HAL_SPI_Init+0x10a>
  assert_param(IS_SPI_DATASIZE(hspi->Init.DataSize));
  assert_param(IS_SPI_NSS(hspi->Init.NSS));
  assert_param(IS_SPI_BAUDRATE_PRESCALER(hspi->Init.BaudRatePrescaler));
  assert_param(IS_SPI_FIRST_BIT(hspi->Init.FirstBit));
  assert_param(IS_SPI_TIMODE(hspi->Init.TIMode));
  if (hspi->Init.TIMode == SPI_TIMODE_DISABLE)
 80127b6:	687b      	ldr	r3, [r7, #4]
 80127b8:	6a5b      	ldr	r3, [r3, #36]	@ 0x24
 80127ba:	2b00      	cmp	r3, #0
 80127bc:	d108      	bne.n	80127d0 <HAL_SPI_Init+0x2c>
  {
    assert_param(IS_SPI_CPOL(hspi->Init.CLKPolarity));
    assert_param(IS_SPI_CPHA(hspi->Init.CLKPhase));

    if (hspi->Init.Mode == SPI_MODE_MASTER)
 80127be:	687b      	ldr	r3, [r7, #4]
 80127c0:	685b      	ldr	r3, [r3, #4]
 80127c2:	f5b3 7f82 	cmp.w	r3, #260	@ 0x104
 80127c6:	d009      	beq.n	80127dc <HAL_SPI_Init+0x38>
      assert_param(IS_SPI_BAUDRATE_PRESCALER(hspi->Init.BaudRatePrescaler));
    }
    else
    {
      /* Baudrate prescaler not use in Motoraola Slave mode. force to default value */
      hspi->Init.BaudRatePrescaler = SPI_BAUDRATEPRESCALER_2;
 80127c8:	687b      	ldr	r3, [r7, #4]
 80127ca:	2200      	movs	r2, #0
 80127cc:	61da      	str	r2, [r3, #28]
 80127ce:	e005      	b.n	80127dc <HAL_SPI_Init+0x38>
  else
  {
    assert_param(IS_SPI_BAUDRATE_PRESCALER(hspi->Init.BaudRatePrescaler));

    /* Force polarity and phase to TI protocaol requirements */
    hspi->Init.CLKPolarity = SPI_POLARITY_LOW;
 80127d0:	687b      	ldr	r3, [r7, #4]
 80127d2:	2200      	movs	r2, #0
 80127d4:	611a      	str	r2, [r3, #16]
    hspi->Init.CLKPhase    = SPI_PHASE_1EDGE;
 80127d6:	687b      	ldr	r3, [r7, #4]
 80127d8:	2200      	movs	r2, #0
 80127da:	615a      	str	r2, [r3, #20]
  if (hspi->Init.CRCCalculation == SPI_CRCCALCULATION_ENABLE)
  {
    assert_param(IS_SPI_CRC_POLYNOMIAL(hspi->Init.CRCPolynomial));
  }
#else
  hspi->Init.CRCCalculation = SPI_CRCCALCULATION_DISABLE;
 80127dc:	687b      	ldr	r3, [r7, #4]
 80127de:	2200      	movs	r2, #0
 80127e0:	629a      	str	r2, [r3, #40]	@ 0x28
#endif /* USE_SPI_CRC */

  if (hspi->State == HAL_SPI_STATE_RESET)
 80127e2:	687b      	ldr	r3, [r7, #4]
 80127e4:	f893 3051 	ldrb.w	r3, [r3, #81]	@ 0x51
 80127e8:	b2db      	uxtb	r3, r3
 80127ea:	2b00      	cmp	r3, #0
 80127ec:	d106      	bne.n	80127fc <HAL_SPI_Init+0x58>
  {
    /* Allocate lock resource and initialize it */
    hspi->Lock = HAL_UNLOCKED;
 80127ee:	687b      	ldr	r3, [r7, #4]
 80127f0:	2200      	movs	r2, #0
 80127f2:	f883 2050 	strb.w	r2, [r3, #80]	@ 0x50

    /* Init the low level hardware : GPIO, CLOCK, NVIC... */
    hspi->MspInitCallback(hspi);
#else
    /* Init the low level hardware : GPIO, CLOCK, NVIC... */
    HAL_SPI_MspInit(hspi);
 80127f6:	6878      	ldr	r0, [r7, #4]
 80127f8:	f7fc ff8e 	bl	800f718 <HAL_SPI_MspInit>
#endif /* USE_HAL_SPI_REGISTER_CALLBACKS */
  }

  hspi->State = HAL_SPI_STATE_BUSY;
 80127fc:	687b      	ldr	r3, [r7, #4]
 80127fe:	2202      	movs	r2, #2
 8012800:	f883 2051 	strb.w	r2, [r3, #81]	@ 0x51

  /* Disable the selected SPI peripheral */
  __HAL_SPI_DISABLE(hspi);
 8012804:	687b      	ldr	r3, [r7, #4]
 8012806:	681b      	ldr	r3, [r3, #0]
 8012808:	681a      	ldr	r2, [r3, #0]
 801280a:	687b      	ldr	r3, [r7, #4]
 801280c:	681b      	ldr	r3, [r3, #0]
 801280e:	f022 0240 	bic.w	r2, r2, #64	@ 0x40
 8012812:	601a      	str	r2, [r3, #0]

  /*----------------------- SPIx CR1 & CR2 Configuration ---------------------*/
  /* Configure : SPI Mode, Communication Mode, Data size, Clock polarity and phase, NSS management,
  Communication speed, First bit and CRC calculation state */
  WRITE_REG(hspi->Instance->CR1, ((hspi->Init.Mode & (SPI_CR1_MSTR | SPI_CR1_SSI)) |
 8012814:	687b      	ldr	r3, [r7, #4]
 8012816:	685b      	ldr	r3, [r3, #4]
 8012818:	f403 7282 	and.w	r2, r3, #260	@ 0x104
 801281c:	687b      	ldr	r3, [r7, #4]
 801281e:	689b      	ldr	r3, [r3, #8]
 8012820:	f403 4304 	and.w	r3, r3, #33792	@ 0x8400
 8012824:	431a      	orrs	r2, r3
 8012826:	687b      	ldr	r3, [r7, #4]
 8012828:	68db      	ldr	r3, [r3, #12]
 801282a:	f403 6300 	and.w	r3, r3, #2048	@ 0x800
 801282e:	431a      	orrs	r2, r3
 8012830:	687b      	ldr	r3, [r7, #4]
 8012832:	691b      	ldr	r3, [r3, #16]
 8012834:	f003 0302 	and.w	r3, r3, #2
 8012838:	431a      	orrs	r2, r3
 801283a:	687b      	ldr	r3, [r7, #4]
 801283c:	695b      	ldr	r3, [r3, #20]
 801283e:	f003 0301 	and.w	r3, r3, #1
 8012842:	431a      	orrs	r2, r3
 8012844:	687b      	ldr	r3, [r7, #4]
 8012846:	699b      	ldr	r3, [r3, #24]
 8012848:	f403 7300 	and.w	r3, r3, #512	@ 0x200
 801284c:	431a      	orrs	r2, r3
 801284e:	687b      	ldr	r3, [r7, #4]
 8012850:	69db      	ldr	r3, [r3, #28]
 8012852:	f003 0338 	and.w	r3, r3, #56	@ 0x38
 8012856:	431a      	orrs	r2, r3
 8012858:	687b      	ldr	r3, [r7, #4]
 801285a:	6a1b      	ldr	r3, [r3, #32]
 801285c:	f003 0380 	and.w	r3, r3, #128	@ 0x80
 8012860:	ea42 0103 	orr.w	r1, r2, r3
 8012864:	687b      	ldr	r3, [r7, #4]
 8012866:	6a9b      	ldr	r3, [r3, #40]	@ 0x28
 8012868:	f403 5200 	and.w	r2, r3, #8192	@ 0x2000
 801286c:	687b      	ldr	r3, [r7, #4]
 801286e:	681b      	ldr	r3, [r3, #0]
 8012870:	430a      	orrs	r2, r1
 8012872:	601a      	str	r2, [r3, #0]
                                  (hspi->Init.BaudRatePrescaler & SPI_CR1_BR_Msk) |
                                  (hspi->Init.FirstBit  & SPI_CR1_LSBFIRST) |
                                  (hspi->Init.CRCCalculation & SPI_CR1_CRCEN)));

  /* Configure : NSS management, TI Mode */
  WRITE_REG(hspi->Instance->CR2, (((hspi->Init.NSS >> 16U) & SPI_CR2_SSOE) | (hspi->Init.TIMode & SPI_CR2_FRF)));
 8012874:	687b      	ldr	r3, [r7, #4]
 8012876:	699b      	ldr	r3, [r3, #24]
 8012878:	0c1b      	lsrs	r3, r3, #16
 801287a:	f003 0104 	and.w	r1, r3, #4
 801287e:	687b      	ldr	r3, [r7, #4]
 8012880:	6a5b      	ldr	r3, [r3, #36]	@ 0x24
 8012882:	f003 0210 	and.w	r2, r3, #16
 8012886:	687b      	ldr	r3, [r7, #4]
 8012888:	681b      	ldr	r3, [r3, #0]
 801288a:	430a      	orrs	r2, r1
 801288c:	605a      	str	r2, [r3, #4]
  }
#endif /* USE_SPI_CRC */

#if defined(SPI_I2SCFGR_I2SMOD)
  /* Activate the SPI mode (Make sure that I2SMOD bit in I2SCFGR register is reset) */
  CLEAR_BIT(hspi->Instance->I2SCFGR, SPI_I2SCFGR_I2SMOD);
 801288e:	687b      	ldr	r3, [r7, #4]
 8012890:	681b      	ldr	r3, [r3, #0]
 8012892:	69da      	ldr	r2, [r3, #28]
 8012894:	687b      	ldr	r3, [r7, #4]
 8012896:	681b      	ldr	r3, [r3, #0]
 8012898:	f422 6200 	bic.w	r2, r2, #2048	@ 0x800
 801289c:	61da      	str	r2, [r3, #28]
#endif /* SPI_I2SCFGR_I2SMOD */

  hspi->ErrorCode = HAL_SPI_ERROR_NONE;
 801289e:	687b      	ldr	r3, [r7, #4]
 80128a0:	2200      	movs	r2, #0
 80128a2:	655a      	str	r2, [r3, #84]	@ 0x54
  hspi->State     = HAL_SPI_STATE_READY;
 80128a4:	687b      	ldr	r3, [r7, #4]
 80128a6:	2201      	movs	r2, #1
 80128a8:	f883 2051 	strb.w	r2, [r3, #81]	@ 0x51

  return HAL_OK;
 80128ac:	2300      	movs	r3, #0
}
 80128ae:	4618      	mov	r0, r3
 80128b0:	3708      	adds	r7, #8
 80128b2:	46bd      	mov	sp, r7
 80128b4:	bd80      	pop	{r7, pc}

080128b6 <HAL_TIM_Base_Init>:
  *         Ex: call @ref HAL_TIM_Base_DeInit() before HAL_TIM_Base_Init()
  * @param  htim TIM Base handle
  * @retval HAL status
  */
HAL_StatusTypeDef HAL_TIM_Base_Init(TIM_HandleTypeDef *htim)
{
 80128b6:	b580      	push	{r7, lr}
 80128b8:	b082      	sub	sp, #8
 80128ba:	af00      	add	r7, sp, #0
 80128bc:	6078      	str	r0, [r7, #4]
  /* Check the TIM handle allocation */
  if (htim == NULL)
 80128be:	687b      	ldr	r3, [r7, #4]
 80128c0:	2b00      	cmp	r3, #0
 80128c2:	d101      	bne.n	80128c8 <HAL_TIM_Base_Init+0x12>
  {
    return HAL_ERROR;
 80128c4:	2301      	movs	r3, #1
 80128c6:	e041      	b.n	801294c <HAL_TIM_Base_Init+0x96>
  assert_param(IS_TIM_COUNTER_MODE(htim->Init.CounterMode));
  assert_param(IS_TIM_CLOCKDIVISION_DIV(htim->Init.ClockDivision));
  assert_param(IS_TIM_PERIOD(htim, htim->Init.Period));
  assert_param(IS_TIM_AUTORELOAD_PRELOAD(htim->Init.AutoReloadPreload));

  if (htim->State == HAL_TIM_STATE_RESET)
 80128c8:	687b      	ldr	r3, [r7, #4]
 80128ca:	f893 303d 	ldrb.w	r3, [r3, #61]	@ 0x3d
 80128ce:	b2db      	uxtb	r3, r3
 80128d0:	2b00      	cmp	r3, #0
 80128d2:	d106      	bne.n	80128e2 <HAL_TIM_Base_Init+0x2c>
  {
    /* Allocate lock resource and initialize it */
    htim->Lock = HAL_UNLOCKED;
 80128d4:	687b      	ldr	r3, [r7, #4]
 80128d6:	2200      	movs	r2, #0
 80128d8:	f883 203c 	strb.w	r2, [r3, #60]	@ 0x3c
    }
    /* Init the low level hardware : GPIO, CLOCK, NVIC */
    htim->Base_MspInitCallback(htim);
#else
    /* Init the low level hardware : GPIO, CLOCK, NVIC */
    HAL_TIM_Base_MspInit(htim);
 80128dc:	6878      	ldr	r0, [r7, #4]
 80128de:	f7fc ff93 	bl	800f808 <HAL_TIM_Base_MspInit>
#endif /* USE_HAL_TIM_REGISTER_CALLBACKS */
  }

  /* Set the TIM state */
  htim->State = HAL_TIM_STATE_BUSY;
 80128e2:	687b      	ldr	r3, [r7, #4]
 80128e4:	2202      	movs	r2, #2
 80128e6:	f883 203d 	strb.w	r2, [r3, #61]	@ 0x3d

  /* Set the Time Base configuration */
  TIM_Base_SetConfig(htim->Instance, &htim->Init);
 80128ea:	687b      	ldr	r3, [r7, #4]
 80128ec:	681a      	ldr	r2, [r3, #0]
 80128ee:	687b      	ldr	r3, [r7, #4]
 80128f0:	3304      	adds	r3, #4
 80128f2:	4619      	mov	r1, r3
 80128f4:	4610      	mov	r0, r2
 80128f6:	f000 faab 	bl	8012e50 <TIM_Base_SetConfig>

  /* Initialize the DMA burst operation state */
  htim->DMABurstState = HAL_DMA_BURST_STATE_READY;
 80128fa:	687b      	ldr	r3, [r7, #4]
 80128fc:	2201      	movs	r2, #1
 80128fe:	f883 2046 	strb.w	r2, [r3, #70]	@ 0x46

  /* Initialize the TIM channels state */
  TIM_CHANNEL_STATE_SET_ALL(htim, HAL_TIM_CHANNEL_STATE_READY);
 8012902:	687b      	ldr	r3, [r7, #4]
 8012904:	2201      	movs	r2, #1
 8012906:	f883 203e 	strb.w	r2, [r3, #62]	@ 0x3e
 801290a:	687b      	ldr	r3, [r7, #4]
 801290c:	2201      	movs	r2, #1
 801290e:	f883 203f 	strb.w	r2, [r3, #63]	@ 0x3f
 8012912:	687b      	ldr	r3, [r7, #4]
 8012914:	2201      	movs	r2, #1
 8012916:	f883 2040 	strb.w	r2, [r3, #64]	@ 0x40
 801291a:	687b      	ldr	r3, [r7, #4]
 801291c:	2201      	movs	r2, #1
 801291e:	f883 2041 	strb.w	r2, [r3, #65]	@ 0x41
  TIM_CHANNEL_N_STATE_SET_ALL(htim, HAL_TIM_CHANNEL_STATE_READY);
 8012922:	687b      	ldr	r3, [r7, #4]
 8012924:	2201      	movs	r2, #1
 8012926:	f883 2042 	strb.w	r2, [r3, #66]	@ 0x42
 801292a:	687b      	ldr	r3, [r7, #4]
 801292c:	2201      	movs	r2, #1
 801292e:	f883 2043 	strb.w	r2, [r3, #67]	@ 0x43
 8012932:	687b      	ldr	r3, [r7, #4]
 8012934:	2201      	movs	r2, #1
 8012936:	f883 2044 	strb.w	r2, [r3, #68]	@ 0x44
 801293a:	687b      	ldr	r3, [r7, #4]
 801293c:	2201      	movs	r2, #1
 801293e:	f883 2045 	strb.w	r2, [r3, #69]	@ 0x45

  /* Initialize the TIM state*/
  htim->State = HAL_TIM_STATE_READY;
 8012942:	687b      	ldr	r3, [r7, #4]
 8012944:	2201      	movs	r2, #1
 8012946:	f883 203d 	strb.w	r2, [r3, #61]	@ 0x3d

  return HAL_OK;
 801294a:	2300      	movs	r3, #0
}
 801294c:	4618      	mov	r0, r3
 801294e:	3708      	adds	r7, #8
 8012950:	46bd      	mov	sp, r7
 8012952:	bd80      	pop	{r7, pc}

08012954 <HAL_TIM_Base_Start_IT>:
  * @brief  Starts the TIM Base generation in interrupt mode.
  * @param  htim TIM Base handle
  * @retval HAL status
  */
HAL_StatusTypeDef HAL_TIM_Base_Start_IT(TIM_HandleTypeDef *htim)
{
 8012954:	b480      	push	{r7}
 8012956:	b085      	sub	sp, #20
 8012958:	af00      	add	r7, sp, #0
 801295a:	6078      	str	r0, [r7, #4]

  /* Check the parameters */
  assert_param(IS_TIM_INSTANCE(htim->Instance));

  /* Check the TIM state */
  if (htim->State != HAL_TIM_STATE_READY)
 801295c:	687b      	ldr	r3, [r7, #4]
 801295e:	f893 303d 	ldrb.w	r3, [r3, #61]	@ 0x3d
 8012962:	b2db      	uxtb	r3, r3
 8012964:	2b01      	cmp	r3, #1
 8012966:	d001      	beq.n	801296c <HAL_TIM_Base_Start_IT+0x18>
  {
    return HAL_ERROR;
 8012968:	2301      	movs	r3, #1
 801296a:	e04e      	b.n	8012a0a <HAL_TIM_Base_Start_IT+0xb6>
  }

  /* Set the TIM state */
  htim->State = HAL_TIM_STATE_BUSY;
 801296c:	687b      	ldr	r3, [r7, #4]
 801296e:	2202      	movs	r2, #2
 8012970:	f883 203d 	strb.w	r2, [r3, #61]	@ 0x3d

  /* Enable the TIM Update interrupt */
  __HAL_TIM_ENABLE_IT(htim, TIM_IT_UPDATE);
 8012974:	687b      	ldr	r3, [r7, #4]
 8012976:	681b      	ldr	r3, [r3, #0]
 8012978:	68da      	ldr	r2, [r3, #12]
 801297a:	687b      	ldr	r3, [r7, #4]
 801297c:	681b      	ldr	r3, [r3, #0]
 801297e:	f042 0201 	orr.w	r2, r2, #1
 8012982:	60da      	str	r2, [r3, #12]

  /* Enable the Peripheral, except in trigger mode where enable is automatically done with trigger */
  if (IS_TIM_SLAVE_INSTANCE(htim->Instance))
 8012984:	687b      	ldr	r3, [r7, #4]
 8012986:	681b      	ldr	r3, [r3, #0]
 8012988:	4a23      	ldr	r2, [pc, #140]	@ (8012a18 <HAL_TIM_Base_Start_IT+0xc4>)
 801298a:	4293      	cmp	r3, r2
 801298c:	d022      	beq.n	80129d4 <HAL_TIM_Base_Start_IT+0x80>
 801298e:	687b      	ldr	r3, [r7, #4]
 8012990:	681b      	ldr	r3, [r3, #0]
 8012992:	f1b3 4f80 	cmp.w	r3, #1073741824	@ 0x40000000
 8012996:	d01d      	beq.n	80129d4 <HAL_TIM_Base_Start_IT+0x80>
 8012998:	687b      	ldr	r3, [r7, #4]
 801299a:	681b      	ldr	r3, [r3, #0]
 801299c:	4a1f      	ldr	r2, [pc, #124]	@ (8012a1c <HAL_TIM_Base_Start_IT+0xc8>)
 801299e:	4293      	cmp	r3, r2
 80129a0:	d018      	beq.n	80129d4 <HAL_TIM_Base_Start_IT+0x80>
 80129a2:	687b      	ldr	r3, [r7, #4]
 80129a4:	681b      	ldr	r3, [r3, #0]
 80129a6:	4a1e      	ldr	r2, [pc, #120]	@ (8012a20 <HAL_TIM_Base_Start_IT+0xcc>)
 80129a8:	4293      	cmp	r3, r2
 80129aa:	d013      	beq.n	80129d4 <HAL_TIM_Base_Start_IT+0x80>
 80129ac:	687b      	ldr	r3, [r7, #4]
 80129ae:	681b      	ldr	r3, [r3, #0]
 80129b0:	4a1c      	ldr	r2, [pc, #112]	@ (8012a24 <HAL_TIM_Base_Start_IT+0xd0>)
 80129b2:	4293      	cmp	r3, r2
 80129b4:	d00e      	beq.n	80129d4 <HAL_TIM_Base_Start_IT+0x80>
 80129b6:	687b      	ldr	r3, [r7, #4]
 80129b8:	681b      	ldr	r3, [r3, #0]
 80129ba:	4a1b      	ldr	r2, [pc, #108]	@ (8012a28 <HAL_TIM_Base_Start_IT+0xd4>)
 80129bc:	4293      	cmp	r3, r2
 80129be:	d009      	beq.n	80129d4 <HAL_TIM_Base_Start_IT+0x80>
 80129c0:	687b      	ldr	r3, [r7, #4]
 80129c2:	681b      	ldr	r3, [r3, #0]
 80129c4:	4a19      	ldr	r2, [pc, #100]	@ (8012a2c <HAL_TIM_Base_Start_IT+0xd8>)
 80129c6:	4293      	cmp	r3, r2
 80129c8:	d004      	beq.n	80129d4 <HAL_TIM_Base_Start_IT+0x80>
 80129ca:	687b      	ldr	r3, [r7, #4]
 80129cc:	681b      	ldr	r3, [r3, #0]
 80129ce:	4a18      	ldr	r2, [pc, #96]	@ (8012a30 <HAL_TIM_Base_Start_IT+0xdc>)
 80129d0:	4293      	cmp	r3, r2
 80129d2:	d111      	bne.n	80129f8 <HAL_TIM_Base_Start_IT+0xa4>
  {
    tmpsmcr = htim->Instance->SMCR & TIM_SMCR_SMS;
 80129d4:	687b      	ldr	r3, [r7, #4]
 80129d6:	681b      	ldr	r3, [r3, #0]
 80129d8:	689b      	ldr	r3, [r3, #8]
 80129da:	f003 0307 	and.w	r3, r3, #7
 80129de:	60fb      	str	r3, [r7, #12]
    if (!IS_TIM_SLAVEMODE_TRIGGER_ENABLED(tmpsmcr))
 80129e0:	68fb      	ldr	r3, [r7, #12]
 80129e2:	2b06      	cmp	r3, #6
 80129e4:	d010      	beq.n	8012a08 <HAL_TIM_Base_Start_IT+0xb4>
    {
      __HAL_TIM_ENABLE(htim);
 80129e6:	687b      	ldr	r3, [r7, #4]
 80129e8:	681b      	ldr	r3, [r3, #0]
 80129ea:	681a      	ldr	r2, [r3, #0]
 80129ec:	687b      	ldr	r3, [r7, #4]
 80129ee:	681b      	ldr	r3, [r3, #0]
 80129f0:	f042 0201 	orr.w	r2, r2, #1
 80129f4:	601a      	str	r2, [r3, #0]
    if (!IS_TIM_SLAVEMODE_TRIGGER_ENABLED(tmpsmcr))
 80129f6:	e007      	b.n	8012a08 <HAL_TIM_Base_Start_IT+0xb4>
    }
  }
  else
  {
    __HAL_TIM_ENABLE(htim);
 80129f8:	687b      	ldr	r3, [r7, #4]
 80129fa:	681b      	ldr	r3, [r3, #0]
 80129fc:	681a      	ldr	r2, [r3, #0]
 80129fe:	687b      	ldr	r3, [r7, #4]
 8012a00:	681b      	ldr	r3, [r3, #0]
 8012a02:	f042 0201 	orr.w	r2, r2, #1
 8012a06:	601a      	str	r2, [r3, #0]
  }

  /* Return function status */
  return HAL_OK;
 8012a08:	2300      	movs	r3, #0
}
 8012a0a:	4618      	mov	r0, r3
 8012a0c:	3714      	adds	r7, #20
 8012a0e:	46bd      	mov	sp, r7
 8012a10:	f85d 7b04 	ldr.w	r7, [sp], #4
 8012a14:	4770      	bx	lr
 8012a16:	bf00      	nop
 8012a18:	40010000 	.word	0x40010000
 8012a1c:	40000400 	.word	0x40000400
 8012a20:	40000800 	.word	0x40000800
 8012a24:	40000c00 	.word	0x40000c00
 8012a28:	40010400 	.word	0x40010400
 8012a2c:	40014000 	.word	0x40014000
 8012a30:	40001800 	.word	0x40001800

08012a34 <HAL_TIM_Base_Stop_IT>:
  * @brief  Stops the TIM Base generation in interrupt mode.
  * @param  htim TIM Base handle
  * @retval HAL status
  */
HAL_StatusTypeDef HAL_TIM_Base_Stop_IT(TIM_HandleTypeDef *htim)
{
 8012a34:	b480      	push	{r7}
 8012a36:	b083      	sub	sp, #12
 8012a38:	af00      	add	r7, sp, #0
 8012a3a:	6078      	str	r0, [r7, #4]
  /* Check the parameters */
  assert_param(IS_TIM_INSTANCE(htim->Instance));

  /* Disable the TIM Update interrupt */
  __HAL_TIM_DISABLE_IT(htim, TIM_IT_UPDATE);
 8012a3c:	687b      	ldr	r3, [r7, #4]
 8012a3e:	681b      	ldr	r3, [r3, #0]
 8012a40:	68da      	ldr	r2, [r3, #12]
 8012a42:	687b      	ldr	r3, [r7, #4]
 8012a44:	681b      	ldr	r3, [r3, #0]
 8012a46:	f022 0201 	bic.w	r2, r2, #1
 8012a4a:	60da      	str	r2, [r3, #12]

  /* Disable the Peripheral */
  __HAL_TIM_DISABLE(htim);
 8012a4c:	687b      	ldr	r3, [r7, #4]
 8012a4e:	681b      	ldr	r3, [r3, #0]
 8012a50:	6a1a      	ldr	r2, [r3, #32]
 8012a52:	f241 1311 	movw	r3, #4369	@ 0x1111
 8012a56:	4013      	ands	r3, r2
 8012a58:	2b00      	cmp	r3, #0
 8012a5a:	d10f      	bne.n	8012a7c <HAL_TIM_Base_Stop_IT+0x48>
 8012a5c:	687b      	ldr	r3, [r7, #4]
 8012a5e:	681b      	ldr	r3, [r3, #0]
 8012a60:	6a1a      	ldr	r2, [r3, #32]
 8012a62:	f240 4344 	movw	r3, #1092	@ 0x444
 8012a66:	4013      	ands	r3, r2
 8012a68:	2b00      	cmp	r3, #0
 8012a6a:	d107      	bne.n	8012a7c <HAL_TIM_Base_Stop_IT+0x48>
 8012a6c:	687b      	ldr	r3, [r7, #4]
 8012a6e:	681b      	ldr	r3, [r3, #0]
 8012a70:	681a      	ldr	r2, [r3, #0]
 8012a72:	687b      	ldr	r3, [r7, #4]
 8012a74:	681b      	ldr	r3, [r3, #0]
 8012a76:	f022 0201 	bic.w	r2, r2, #1
 8012a7a:	601a      	str	r2, [r3, #0]

  /* Set the TIM state */
  htim->State = HAL_TIM_STATE_READY;
 8012a7c:	687b      	ldr	r3, [r7, #4]
 8012a7e:	2201      	movs	r2, #1
 8012a80:	f883 203d 	strb.w	r2, [r3, #61]	@ 0x3d

  /* Return function status */
  return HAL_OK;
 8012a84:	2300      	movs	r3, #0
}
 8012a86:	4618      	mov	r0, r3
 8012a88:	370c      	adds	r7, #12
 8012a8a:	46bd      	mov	sp, r7
 8012a8c:	f85d 7b04 	ldr.w	r7, [sp], #4
 8012a90:	4770      	bx	lr

08012a92 <HAL_TIM_IRQHandler>:
  * @brief  This function handles TIM interrupts requests.
  * @param  htim TIM  handle
  * @retval None
  */
void HAL_TIM_IRQHandler(TIM_HandleTypeDef *htim)
{
 8012a92:	b580      	push	{r7, lr}
 8012a94:	b084      	sub	sp, #16
 8012a96:	af00      	add	r7, sp, #0
 8012a98:	6078      	str	r0, [r7, #4]
  uint32_t itsource = htim->Instance->DIER;
 8012a9a:	687b      	ldr	r3, [r7, #4]
 8012a9c:	681b      	ldr	r3, [r3, #0]
 8012a9e:	68db      	ldr	r3, [r3, #12]
 8012aa0:	60fb      	str	r3, [r7, #12]
  uint32_t itflag   = htim->Instance->SR;
 8012aa2:	687b      	ldr	r3, [r7, #4]
 8012aa4:	681b      	ldr	r3, [r3, #0]
 8012aa6:	691b      	ldr	r3, [r3, #16]
 8012aa8:	60bb      	str	r3, [r7, #8]

  /* Capture compare 1 event */
  if ((itflag & (TIM_FLAG_CC1)) == (TIM_FLAG_CC1))
 8012aaa:	68bb      	ldr	r3, [r7, #8]
 8012aac:	f003 0302 	and.w	r3, r3, #2
 8012ab0:	2b00      	cmp	r3, #0
 8012ab2:	d020      	beq.n	8012af6 <HAL_TIM_IRQHandler+0x64>
  {
    if ((itsource & (TIM_IT_CC1)) == (TIM_IT_CC1))
 8012ab4:	68fb      	ldr	r3, [r7, #12]
 8012ab6:	f003 0302 	and.w	r3, r3, #2
 8012aba:	2b00      	cmp	r3, #0
 8012abc:	d01b      	beq.n	8012af6 <HAL_TIM_IRQHandler+0x64>
    {
      {
        __HAL_TIM_CLEAR_FLAG(htim, TIM_FLAG_CC1);
 8012abe:	687b      	ldr	r3, [r7, #4]
 8012ac0:	681b      	ldr	r3, [r3, #0]
 8012ac2:	f06f 0202 	mvn.w	r2, #2
 8012ac6:	611a      	str	r2, [r3, #16]
        htim->Channel = HAL_TIM_ACTIVE_CHANNEL_1;
 8012ac8:	687b      	ldr	r3, [r7, #4]
 8012aca:	2201      	movs	r2, #1
 8012acc:	771a      	strb	r2, [r3, #28]

        /* Input capture event */
        if ((htim->Instance->CCMR1 & TIM_CCMR1_CC1S) != 0x00U)
 8012ace:	687b      	ldr	r3, [r7, #4]
 8012ad0:	681b      	ldr	r3, [r3, #0]
 8012ad2:	699b      	ldr	r3, [r3, #24]
 8012ad4:	f003 0303 	and.w	r3, r3, #3
 8012ad8:	2b00      	cmp	r3, #0
 8012ada:	d003      	beq.n	8012ae4 <HAL_TIM_IRQHandler+0x52>
        {
#if (USE_HAL_TIM_REGISTER_CALLBACKS == 1)
          htim->IC_CaptureCallback(htim);
#else
          HAL_TIM_IC_CaptureCallback(htim);
 8012adc:	6878      	ldr	r0, [r7, #4]
 8012ade:	f000 f999 	bl	8012e14 <HAL_TIM_IC_CaptureCallback>
 8012ae2:	e005      	b.n	8012af0 <HAL_TIM_IRQHandler+0x5e>
        {
#if (USE_HAL_TIM_REGISTER_CALLBACKS == 1)
          htim->OC_DelayElapsedCallback(htim);
          htim->PWM_PulseFinishedCallback(htim);
#else
          HAL_TIM_OC_DelayElapsedCallback(htim);
 8012ae4:	6878      	ldr	r0, [r7, #4]
 8012ae6:	f000 f98b 	bl	8012e00 <HAL_TIM_OC_DelayElapsedCallback>
          HAL_TIM_PWM_PulseFinishedCallback(htim);
 8012aea:	6878      	ldr	r0, [r7, #4]
 8012aec:	f000 f99c 	bl	8012e28 <HAL_TIM_PWM_PulseFinishedCallback>
#endif /* USE_HAL_TIM_REGISTER_CALLBACKS */
        }
        htim->Channel = HAL_TIM_ACTIVE_CHANNEL_CLEARED;
 8012af0:	687b      	ldr	r3, [r7, #4]
 8012af2:	2200      	movs	r2, #0
 8012af4:	771a      	strb	r2, [r3, #28]
      }
    }
  }
  /* Capture compare 2 event */
  if ((itflag & (TIM_FLAG_CC2)) == (TIM_FLAG_CC2))
 8012af6:	68bb      	ldr	r3, [r7, #8]
 8012af8:	f003 0304 	and.w	r3, r3, #4
 8012afc:	2b00      	cmp	r3, #0
 8012afe:	d020      	beq.n	8012b42 <HAL_TIM_IRQHandler+0xb0>
  {
    if ((itsource & (TIM_IT_CC2)) == (TIM_IT_CC2))
 8012b00:	68fb      	ldr	r3, [r7, #12]
 8012b02:	f003 0304 	and.w	r3, r3, #4
 8012b06:	2b00      	cmp	r3, #0
 8012b08:	d01b      	beq.n	8012b42 <HAL_TIM_IRQHandler+0xb0>
    {
      __HAL_TIM_CLEAR_FLAG(htim, TIM_FLAG_CC2);
 8012b0a:	687b      	ldr	r3, [r7, #4]
 8012b0c:	681b      	ldr	r3, [r3, #0]
 8012b0e:	f06f 0204 	mvn.w	r2, #4
 8012b12:	611a      	str	r2, [r3, #16]
      htim->Channel = HAL_TIM_ACTIVE_CHANNEL_2;
 8012b14:	687b      	ldr	r3, [r7, #4]
 8012b16:	2202      	movs	r2, #2
 8012b18:	771a      	strb	r2, [r3, #28]
      /* Input capture event */
      if ((htim->Instance->CCMR1 & TIM_CCMR1_CC2S) != 0x00U)
 8012b1a:	687b      	ldr	r3, [r7, #4]
 8012b1c:	681b      	ldr	r3, [r3, #0]
 8012b1e:	699b      	ldr	r3, [r3, #24]
 8012b20:	f403 7340 	and.w	r3, r3, #768	@ 0x300
 8012b24:	2b00      	cmp	r3, #0
 8012b26:	d003      	beq.n	8012b30 <HAL_TIM_IRQHandler+0x9e>
      {
#if (USE_HAL_TIM_REGISTER_CALLBACKS == 1)
        htim->IC_CaptureCallback(htim);
#else
        HAL_TIM_IC_CaptureCallback(htim);
 8012b28:	6878      	ldr	r0, [r7, #4]
 8012b2a:	f000 f973 	bl	8012e14 <HAL_TIM_IC_CaptureCallback>
 8012b2e:	e005      	b.n	8012b3c <HAL_TIM_IRQHandler+0xaa>
      {
#if (USE_HAL_TIM_REGISTER_CALLBACKS == 1)
        htim->OC_DelayElapsedCallback(htim);
        htim->PWM_PulseFinishedCallback(htim);
#else
        HAL_TIM_OC_DelayElapsedCallback(htim);
 8012b30:	6878      	ldr	r0, [r7, #4]
 8012b32:	f000 f965 	bl	8012e00 <HAL_TIM_OC_DelayElapsedCallback>
        HAL_TIM_PWM_PulseFinishedCallback(htim);
 8012b36:	6878      	ldr	r0, [r7, #4]
 8012b38:	f000 f976 	bl	8012e28 <HAL_TIM_PWM_PulseFinishedCallback>
#endif /* USE_HAL_TIM_REGISTER_CALLBACKS */
      }
      htim->Channel = HAL_TIM_ACTIVE_CHANNEL_CLEARED;
 8012b3c:	687b      	ldr	r3, [r7, #4]
 8012b3e:	2200      	movs	r2, #0
 8012b40:	771a      	strb	r2, [r3, #28]
    }
  }
  /* Capture compare 3 event */
  if ((itflag & (TIM_FLAG_CC3)) == (TIM_FLAG_CC3))
 8012b42:	68bb      	ldr	r3, [r7, #8]
 8012b44:	f003 0308 	and.w	r3, r3, #8
 8012b48:	2b00      	cmp	r3, #0
 8012b4a:	d020      	beq.n	8012b8e <HAL_TIM_IRQHandler+0xfc>
  {
    if ((itsource & (TIM_IT_CC3)) == (TIM_IT_CC3))
 8012b4c:	68fb      	ldr	r3, [r7, #12]
 8012b4e:	f003 0308 	and.w	r3, r3, #8
 8012b52:	2b00      	cmp	r3, #0
 8012b54:	d01b      	beq.n	8012b8e <HAL_TIM_IRQHandler+0xfc>
    {
      __HAL_TIM_CLEAR_FLAG(htim, TIM_FLAG_CC3);
 8012b56:	687b      	ldr	r3, [r7, #4]
 8012b58:	681b      	ldr	r3, [r3, #0]
 8012b5a:	f06f 0208 	mvn.w	r2, #8
 8012b5e:	611a      	str	r2, [r3, #16]
      htim->Channel = HAL_TIM_ACTIVE_CHANNEL_3;
 8012b60:	687b      	ldr	r3, [r7, #4]
 8012b62:	2204      	movs	r2, #4
 8012b64:	771a      	strb	r2, [r3, #28]
      /* Input capture event */
      if ((htim->Instance->CCMR2 & TIM_CCMR2_CC3S) != 0x00U)
 8012b66:	687b      	ldr	r3, [r7, #4]
 8012b68:	681b      	ldr	r3, [r3, #0]
 8012b6a:	69db      	ldr	r3, [r3, #28]
 8012b6c:	f003 0303 	and.w	r3, r3, #3
 8012b70:	2b00      	cmp	r3, #0
 8012b72:	d003      	beq.n	8012b7c <HAL_TIM_IRQHandler+0xea>
      {
#if (USE_HAL_TIM_REGISTER_CALLBACKS == 1)
        htim->IC_CaptureCallback(htim);
#else
        HAL_TIM_IC_CaptureCallback(htim);
 8012b74:	6878      	ldr	r0, [r7, #4]
 8012b76:	f000 f94d 	bl	8012e14 <HAL_TIM_IC_CaptureCallback>
 8012b7a:	e005      	b.n	8012b88 <HAL_TIM_IRQHandler+0xf6>
      {
#if (USE_HAL_TIM_REGISTER_CALLBACKS == 1)
        htim->OC_DelayElapsedCallback(htim);
        htim->PWM_PulseFinishedCallback(htim);
#else
        HAL_TIM_OC_DelayElapsedCallback(htim);
 8012b7c:	6878      	ldr	r0, [r7, #4]
 8012b7e:	f000 f93f 	bl	8012e00 <HAL_TIM_OC_DelayElapsedCallback>
        HAL_TIM_PWM_PulseFinishedCallback(htim);
 8012b82:	6878      	ldr	r0, [r7, #4]
 8012b84:	f000 f950 	bl	8012e28 <HAL_TIM_PWM_PulseFinishedCallback>
#endif /* USE_HAL_TIM_REGISTER_CALLBACKS */
      }
      htim->Channel = HAL_TIM_ACTIVE_CHANNEL_CLEARED;
 8012b88:	687b      	ldr	r3, [r7, #4]
 8012b8a:	2200      	movs	r2, #0
 8012b8c:	771a      	strb	r2, [r3, #28]
    }
  }
  /* Capture compare 4 event */
  if ((itflag & (TIM_FLAG_CC4)) == (TIM_FLAG_CC4))
 8012b8e:	68bb      	ldr	r3, [r7, #8]
 8012b90:	f003 0310 	and.w	r3, r3, #16
 8012b94:	2b00      	cmp	r3, #0
 8012b96:	d020      	beq.n	8012bda <HAL_TIM_IRQHandler+0x148>
  {
    if ((itsource & (TIM_IT_CC4)) == (TIM_IT_CC4))
 8012b98:	68fb      	ldr	r3, [r7, #12]
 8012b9a:	f003 0310 	and.w	r3, r3, #16
 8012b9e:	2b00      	cmp	r3, #0
 8012ba0:	d01b      	beq.n	8012bda <HAL_TIM_IRQHandler+0x148>
    {
      __HAL_TIM_CLEAR_FLAG(htim, TIM_FLAG_CC4);
 8012ba2:	687b      	ldr	r3, [r7, #4]
 8012ba4:	681b      	ldr	r3, [r3, #0]
 8012ba6:	f06f 0210 	mvn.w	r2, #16
 8012baa:	611a      	str	r2, [r3, #16]
      htim->Channel = HAL_TIM_ACTIVE_CHANNEL_4;
 8012bac:	687b      	ldr	r3, [r7, #4]
 8012bae:	2208      	movs	r2, #8
 8012bb0:	771a      	strb	r2, [r3, #28]
      /* Input capture event */
      if ((htim->Instance->CCMR2 & TIM_CCMR2_CC4S) != 0x00U)
 8012bb2:	687b      	ldr	r3, [r7, #4]
 8012bb4:	681b      	ldr	r3, [r3, #0]
 8012bb6:	69db      	ldr	r3, [r3, #28]
 8012bb8:	f403 7340 	and.w	r3, r3, #768	@ 0x300
 8012bbc:	2b00      	cmp	r3, #0
 8012bbe:	d003      	beq.n	8012bc8 <HAL_TIM_IRQHandler+0x136>
      {
#if (USE_HAL_TIM_REGISTER_CALLBACKS == 1)
        htim->IC_CaptureCallback(htim);
#else
        HAL_TIM_IC_CaptureCallback(htim);
 8012bc0:	6878      	ldr	r0, [r7, #4]
 8012bc2:	f000 f927 	bl	8012e14 <HAL_TIM_IC_CaptureCallback>
 8012bc6:	e005      	b.n	8012bd4 <HAL_TIM_IRQHandler+0x142>
      {
#if (USE_HAL_TIM_REGISTER_CALLBACKS == 1)
        htim->OC_DelayElapsedCallback(htim);
        htim->PWM_PulseFinishedCallback(htim);
#else
        HAL_TIM_OC_DelayElapsedCallback(htim);
 8012bc8:	6878      	ldr	r0, [r7, #4]
 8012bca:	f000 f919 	bl	8012e00 <HAL_TIM_OC_DelayElapsedCallback>
        HAL_TIM_PWM_PulseFinishedCallback(htim);
 8012bce:	6878      	ldr	r0, [r7, #4]
 8012bd0:	f000 f92a 	bl	8012e28 <HAL_TIM_PWM_PulseFinishedCallback>
#endif /* USE_HAL_TIM_REGISTER_CALLBACKS */
      }
      htim->Channel = HAL_TIM_ACTIVE_CHANNEL_CLEARED;
 8012bd4:	687b      	ldr	r3, [r7, #4]
 8012bd6:	2200      	movs	r2, #0
 8012bd8:	771a      	strb	r2, [r3, #28]
    }
  }
  /* TIM Update event */
  if ((itflag & (TIM_FLAG_UPDATE)) == (TIM_FLAG_UPDATE))
 8012bda:	68bb      	ldr	r3, [r7, #8]
 8012bdc:	f003 0301 	and.w	r3, r3, #1
 8012be0:	2b00      	cmp	r3, #0
 8012be2:	d00c      	beq.n	8012bfe <HAL_TIM_IRQHandler+0x16c>
  {
    if ((itsource & (TIM_IT_UPDATE)) == (TIM_IT_UPDATE))
 8012be4:	68fb      	ldr	r3, [r7, #12]
 8012be6:	f003 0301 	and.w	r3, r3, #1
 8012bea:	2b00      	cmp	r3, #0
 8012bec:	d007      	beq.n	8012bfe <HAL_TIM_IRQHandler+0x16c>
    {
      __HAL_TIM_CLEAR_FLAG(htim, TIM_FLAG_UPDATE);
 8012bee:	687b      	ldr	r3, [r7, #4]
 8012bf0:	681b      	ldr	r3, [r3, #0]
 8012bf2:	f06f 0201 	mvn.w	r2, #1
 8012bf6:	611a      	str	r2, [r3, #16]
#if (USE_HAL_TIM_REGISTER_CALLBACKS == 1)
      htim->PeriodElapsedCallback(htim);
#else
      HAL_TIM_PeriodElapsedCallback(htim);
 8012bf8:	6878      	ldr	r0, [r7, #4]
 8012bfa:	f7fc fc53 	bl	800f4a4 <HAL_TIM_PeriodElapsedCallback>
#endif /* USE_HAL_TIM_REGISTER_CALLBACKS */
    }
  }
  /* TIM Break input event */
  if ((itflag & (TIM_FLAG_BREAK)) == (TIM_FLAG_BREAK))
 8012bfe:	68bb      	ldr	r3, [r7, #8]
 8012c00:	f003 0380 	and.w	r3, r3, #128	@ 0x80
 8012c04:	2b00      	cmp	r3, #0
 8012c06:	d00c      	beq.n	8012c22 <HAL_TIM_IRQHandler+0x190>
  {
    if ((itsource & (TIM_IT_BREAK)) == (TIM_IT_BREAK))
 8012c08:	68fb      	ldr	r3, [r7, #12]
 8012c0a:	f003 0380 	and.w	r3, r3, #128	@ 0x80
 8012c0e:	2b00      	cmp	r3, #0
 8012c10:	d007      	beq.n	8012c22 <HAL_TIM_IRQHandler+0x190>
    {
      __HAL_TIM_CLEAR_FLAG(htim, TIM_FLAG_BREAK);
 8012c12:	687b      	ldr	r3, [r7, #4]
 8012c14:	681b      	ldr	r3, [r3, #0]
 8012c16:	f06f 0280 	mvn.w	r2, #128	@ 0x80
 8012c1a:	611a      	str	r2, [r3, #16]
#if (USE_HAL_TIM_REGISTER_CALLBACKS == 1)
      htim->BreakCallback(htim);
#else
      HAL_TIMEx_BreakCallback(htim);
 8012c1c:	6878      	ldr	r0, [r7, #4]
 8012c1e:	f000 fadd 	bl	80131dc <HAL_TIMEx_BreakCallback>
#endif /* USE_HAL_TIM_REGISTER_CALLBACKS */
    }
  }
  /* TIM Trigger detection event */
  if ((itflag & (TIM_FLAG_TRIGGER)) == (TIM_FLAG_TRIGGER))
 8012c22:	68bb      	ldr	r3, [r7, #8]
 8012c24:	f003 0340 	and.w	r3, r3, #64	@ 0x40
 8012c28:	2b00      	cmp	r3, #0
 8012c2a:	d00c      	beq.n	8012c46 <HAL_TIM_IRQHandler+0x1b4>
  {
    if ((itsource & (TIM_IT_TRIGGER)) == (TIM_IT_TRIGGER))
 8012c2c:	68fb      	ldr	r3, [r7, #12]
 8012c2e:	f003 0340 	and.w	r3, r3, #64	@ 0x40
 8012c32:	2b00      	cmp	r3, #0
 8012c34:	d007      	beq.n	8012c46 <HAL_TIM_IRQHandler+0x1b4>
    {
      __HAL_TIM_CLEAR_FLAG(htim, TIM_FLAG_TRIGGER);
 8012c36:	687b      	ldr	r3, [r7, #4]
 8012c38:	681b      	ldr	r3, [r3, #0]
 8012c3a:	f06f 0240 	mvn.w	r2, #64	@ 0x40
 8012c3e:	611a      	str	r2, [r3, #16]
#if (USE_HAL_TIM_REGISTER_CALLBACKS == 1)
      htim->TriggerCallback(htim);
#else
      HAL_TIM_TriggerCallback(htim);
 8012c40:	6878      	ldr	r0, [r7, #4]
 8012c42:	f000 f8fb 	bl	8012e3c <HAL_TIM_TriggerCallback>
#endif /* USE_HAL_TIM_REGISTER_CALLBACKS */
    }
  }
  /* TIM commutation event */
  if ((itflag & (TIM_FLAG_COM)) == (TIM_FLAG_COM))
 8012c46:	68bb      	ldr	r3, [r7, #8]
 8012c48:	f003 0320 	and.w	r3, r3, #32
 8012c4c:	2b00      	cmp	r3, #0
 8012c4e:	d00c      	beq.n	8012c6a <HAL_TIM_IRQHandler+0x1d8>
  {
    if ((itsource & (TIM_IT_COM)) == (TIM_IT_COM))
 8012c50:	68fb      	ldr	r3, [r7, #12]
 8012c52:	f003 0320 	and.w	r3, r3, #32
 8012c56:	2b00      	cmp	r3, #0
 8012c58:	d007      	beq.n	8012c6a <HAL_TIM_IRQHandler+0x1d8>
    {
      __HAL_TIM_CLEAR_FLAG(htim, TIM_FLAG_COM);
 8012c5a:	687b      	ldr	r3, [r7, #4]
 8012c5c:	681b      	ldr	r3, [r3, #0]
 8012c5e:	f06f 0220 	mvn.w	r2, #32
 8012c62:	611a      	str	r2, [r3, #16]
#if (USE_HAL_TIM_REGISTER_CALLBACKS == 1)
      htim->CommutationCallback(htim);
#else
      HAL_TIMEx_CommutCallback(htim);
 8012c64:	6878      	ldr	r0, [r7, #4]
 8012c66:	f000 faaf 	bl	80131c8 <HAL_TIMEx_CommutCallback>
#endif /* USE_HAL_TIM_REGISTER_CALLBACKS */
    }
  }
}
 8012c6a:	bf00      	nop
 8012c6c:	3710      	adds	r7, #16
 8012c6e:	46bd      	mov	sp, r7
 8012c70:	bd80      	pop	{r7, pc}

08012c72 <HAL_TIM_ConfigClockSource>:
  * @param  sClockSourceConfig pointer to a TIM_ClockConfigTypeDef structure that
  *         contains the clock source information for the TIM peripheral.
  * @retval HAL status
  */
HAL_StatusTypeDef HAL_TIM_ConfigClockSource(TIM_HandleTypeDef *htim, const TIM_ClockConfigTypeDef *sClockSourceConfig)
{
 8012c72:	b580      	push	{r7, lr}
 8012c74:	b084      	sub	sp, #16
 8012c76:	af00      	add	r7, sp, #0
 8012c78:	6078      	str	r0, [r7, #4]
 8012c7a:	6039      	str	r1, [r7, #0]
  HAL_StatusTypeDef status = HAL_OK;
 8012c7c:	2300      	movs	r3, #0
 8012c7e:	73fb      	strb	r3, [r7, #15]
  uint32_t tmpsmcr;

  /* Process Locked */
  __HAL_LOCK(htim);
 8012c80:	687b      	ldr	r3, [r7, #4]
 8012c82:	f893 303c 	ldrb.w	r3, [r3, #60]	@ 0x3c
 8012c86:	2b01      	cmp	r3, #1
 8012c88:	d101      	bne.n	8012c8e <HAL_TIM_ConfigClockSource+0x1c>
 8012c8a:	2302      	movs	r3, #2
 8012c8c:	e0b4      	b.n	8012df8 <HAL_TIM_ConfigClockSource+0x186>
 8012c8e:	687b      	ldr	r3, [r7, #4]
 8012c90:	2201      	movs	r2, #1
 8012c92:	f883 203c 	strb.w	r2, [r3, #60]	@ 0x3c

  htim->State = HAL_TIM_STATE_BUSY;
 8012c96:	687b      	ldr	r3, [r7, #4]
 8012c98:	2202      	movs	r2, #2
 8012c9a:	f883 203d 	strb.w	r2, [r3, #61]	@ 0x3d

  /* Check the parameters */
  assert_param(IS_TIM_CLOCKSOURCE(sClockSourceConfig->ClockSource));

  /* Reset the SMS, TS, ECE, ETPS and ETRF bits */
  tmpsmcr = htim->Instance->SMCR;
 8012c9e:	687b      	ldr	r3, [r7, #4]
 8012ca0:	681b      	ldr	r3, [r3, #0]
 8012ca2:	689b      	ldr	r3, [r3, #8]
 8012ca4:	60bb      	str	r3, [r7, #8]
  tmpsmcr &= ~(TIM_SMCR_SMS | TIM_SMCR_TS);
 8012ca6:	68bb      	ldr	r3, [r7, #8]
 8012ca8:	f023 0377 	bic.w	r3, r3, #119	@ 0x77
 8012cac:	60bb      	str	r3, [r7, #8]
  tmpsmcr &= ~(TIM_SMCR_ETF | TIM_SMCR_ETPS | TIM_SMCR_ECE | TIM_SMCR_ETP);
 8012cae:	68bb      	ldr	r3, [r7, #8]
 8012cb0:	f423 437f 	bic.w	r3, r3, #65280	@ 0xff00
 8012cb4:	60bb      	str	r3, [r7, #8]
  htim->Instance->SMCR = tmpsmcr;
 8012cb6:	687b      	ldr	r3, [r7, #4]
 8012cb8:	681b      	ldr	r3, [r3, #0]
 8012cba:	68ba      	ldr	r2, [r7, #8]
 8012cbc:	609a      	str	r2, [r3, #8]

  switch (sClockSourceConfig->ClockSource)
 8012cbe:	683b      	ldr	r3, [r7, #0]
 8012cc0:	681b      	ldr	r3, [r3, #0]
 8012cc2:	f5b3 5f00 	cmp.w	r3, #8192	@ 0x2000
 8012cc6:	d03e      	beq.n	8012d46 <HAL_TIM_ConfigClockSource+0xd4>
 8012cc8:	f5b3 5f00 	cmp.w	r3, #8192	@ 0x2000
 8012ccc:	f200 8087 	bhi.w	8012dde <HAL_TIM_ConfigClockSource+0x16c>
 8012cd0:	f5b3 5f80 	cmp.w	r3, #4096	@ 0x1000
 8012cd4:	f000 8086 	beq.w	8012de4 <HAL_TIM_ConfigClockSource+0x172>
 8012cd8:	f5b3 5f80 	cmp.w	r3, #4096	@ 0x1000
 8012cdc:	d87f      	bhi.n	8012dde <HAL_TIM_ConfigClockSource+0x16c>
 8012cde:	2b70      	cmp	r3, #112	@ 0x70
 8012ce0:	d01a      	beq.n	8012d18 <HAL_TIM_ConfigClockSource+0xa6>
 8012ce2:	2b70      	cmp	r3, #112	@ 0x70
 8012ce4:	d87b      	bhi.n	8012dde <HAL_TIM_ConfigClockSource+0x16c>
 8012ce6:	2b60      	cmp	r3, #96	@ 0x60
 8012ce8:	d050      	beq.n	8012d8c <HAL_TIM_ConfigClockSource+0x11a>
 8012cea:	2b60      	cmp	r3, #96	@ 0x60
 8012cec:	d877      	bhi.n	8012dde <HAL_TIM_ConfigClockSource+0x16c>
 8012cee:	2b50      	cmp	r3, #80	@ 0x50
 8012cf0:	d03c      	beq.n	8012d6c <HAL_TIM_ConfigClockSource+0xfa>
 8012cf2:	2b50      	cmp	r3, #80	@ 0x50
 8012cf4:	d873      	bhi.n	8012dde <HAL_TIM_ConfigClockSource+0x16c>
 8012cf6:	2b40      	cmp	r3, #64	@ 0x40
 8012cf8:	d058      	beq.n	8012dac <HAL_TIM_ConfigClockSource+0x13a>
 8012cfa:	2b40      	cmp	r3, #64	@ 0x40
 8012cfc:	d86f      	bhi.n	8012dde <HAL_TIM_ConfigClockSource+0x16c>
 8012cfe:	2b30      	cmp	r3, #48	@ 0x30
 8012d00:	d064      	beq.n	8012dcc <HAL_TIM_ConfigClockSource+0x15a>
 8012d02:	2b30      	cmp	r3, #48	@ 0x30
 8012d04:	d86b      	bhi.n	8012dde <HAL_TIM_ConfigClockSource+0x16c>
 8012d06:	2b20      	cmp	r3, #32
 8012d08:	d060      	beq.n	8012dcc <HAL_TIM_ConfigClockSource+0x15a>
 8012d0a:	2b20      	cmp	r3, #32
 8012d0c:	d867      	bhi.n	8012dde <HAL_TIM_ConfigClockSource+0x16c>
 8012d0e:	2b00      	cmp	r3, #0
 8012d10:	d05c      	beq.n	8012dcc <HAL_TIM_ConfigClockSource+0x15a>
 8012d12:	2b10      	cmp	r3, #16
 8012d14:	d05a      	beq.n	8012dcc <HAL_TIM_ConfigClockSource+0x15a>
 8012d16:	e062      	b.n	8012dde <HAL_TIM_ConfigClockSource+0x16c>
      assert_param(IS_TIM_CLOCKPRESCALER(sClockSourceConfig->ClockPrescaler));
      assert_param(IS_TIM_CLOCKPOLARITY(sClockSourceConfig->ClockPolarity));
      assert_param(IS_TIM_CLOCKFILTER(sClockSourceConfig->ClockFilter));

      /* Configure the ETR Clock source */
      TIM_ETR_SetConfig(htim->Instance,
 8012d18:	687b      	ldr	r3, [r7, #4]
 8012d1a:	6818      	ldr	r0, [r3, #0]
                        sClockSourceConfig->ClockPrescaler,
 8012d1c:	683b      	ldr	r3, [r7, #0]
 8012d1e:	6899      	ldr	r1, [r3, #8]
                        sClockSourceConfig->ClockPolarity,
 8012d20:	683b      	ldr	r3, [r7, #0]
 8012d22:	685a      	ldr	r2, [r3, #4]
                        sClockSourceConfig->ClockFilter);
 8012d24:	683b      	ldr	r3, [r7, #0]
 8012d26:	68db      	ldr	r3, [r3, #12]
      TIM_ETR_SetConfig(htim->Instance,
 8012d28:	f000 f9b2 	bl	8013090 <TIM_ETR_SetConfig>

      /* Select the External clock mode1 and the ETRF trigger */
      tmpsmcr = htim->Instance->SMCR;
 8012d2c:	687b      	ldr	r3, [r7, #4]
 8012d2e:	681b      	ldr	r3, [r3, #0]
 8012d30:	689b      	ldr	r3, [r3, #8]
 8012d32:	60bb      	str	r3, [r7, #8]
      tmpsmcr |= (TIM_SLAVEMODE_EXTERNAL1 | TIM_CLOCKSOURCE_ETRMODE1);
 8012d34:	68bb      	ldr	r3, [r7, #8]
 8012d36:	f043 0377 	orr.w	r3, r3, #119	@ 0x77
 8012d3a:	60bb      	str	r3, [r7, #8]
      /* Write to TIMx SMCR */
      htim->Instance->SMCR = tmpsmcr;
 8012d3c:	687b      	ldr	r3, [r7, #4]
 8012d3e:	681b      	ldr	r3, [r3, #0]
 8012d40:	68ba      	ldr	r2, [r7, #8]
 8012d42:	609a      	str	r2, [r3, #8]
      break;
 8012d44:	e04f      	b.n	8012de6 <HAL_TIM_ConfigClockSource+0x174>
      assert_param(IS_TIM_CLOCKPRESCALER(sClockSourceConfig->ClockPrescaler));
      assert_param(IS_TIM_CLOCKPOLARITY(sClockSourceConfig->ClockPolarity));
      assert_param(IS_TIM_CLOCKFILTER(sClockSourceConfig->ClockFilter));

      /* Configure the ETR Clock source */
      TIM_ETR_SetConfig(htim->Instance,
 8012d46:	687b      	ldr	r3, [r7, #4]
 8012d48:	6818      	ldr	r0, [r3, #0]
                        sClockSourceConfig->ClockPrescaler,
 8012d4a:	683b      	ldr	r3, [r7, #0]
 8012d4c:	6899      	ldr	r1, [r3, #8]
                        sClockSourceConfig->ClockPolarity,
 8012d4e:	683b      	ldr	r3, [r7, #0]
 8012d50:	685a      	ldr	r2, [r3, #4]
                        sClockSourceConfig->ClockFilter);
 8012d52:	683b      	ldr	r3, [r7, #0]
 8012d54:	68db      	ldr	r3, [r3, #12]
      TIM_ETR_SetConfig(htim->Instance,
 8012d56:	f000 f99b 	bl	8013090 <TIM_ETR_SetConfig>
      /* Enable the External clock mode2 */
      htim->Instance->SMCR |= TIM_SMCR_ECE;
 8012d5a:	687b      	ldr	r3, [r7, #4]
 8012d5c:	681b      	ldr	r3, [r3, #0]
 8012d5e:	689a      	ldr	r2, [r3, #8]
 8012d60:	687b      	ldr	r3, [r7, #4]
 8012d62:	681b      	ldr	r3, [r3, #0]
 8012d64:	f442 4280 	orr.w	r2, r2, #16384	@ 0x4000
 8012d68:	609a      	str	r2, [r3, #8]
      break;
 8012d6a:	e03c      	b.n	8012de6 <HAL_TIM_ConfigClockSource+0x174>

      /* Check TI1 input conditioning related parameters */
      assert_param(IS_TIM_CLOCKPOLARITY(sClockSourceConfig->ClockPolarity));
      assert_param(IS_TIM_CLOCKFILTER(sClockSourceConfig->ClockFilter));

      TIM_TI1_ConfigInputStage(htim->Instance,
 8012d6c:	687b      	ldr	r3, [r7, #4]
 8012d6e:	6818      	ldr	r0, [r3, #0]
                               sClockSourceConfig->ClockPolarity,
 8012d70:	683b      	ldr	r3, [r7, #0]
 8012d72:	6859      	ldr	r1, [r3, #4]
                               sClockSourceConfig->ClockFilter);
 8012d74:	683b      	ldr	r3, [r7, #0]
 8012d76:	68db      	ldr	r3, [r3, #12]
      TIM_TI1_ConfigInputStage(htim->Instance,
 8012d78:	461a      	mov	r2, r3
 8012d7a:	f000 f90f 	bl	8012f9c <TIM_TI1_ConfigInputStage>
      TIM_ITRx_SetConfig(htim->Instance, TIM_CLOCKSOURCE_TI1);
 8012d7e:	687b      	ldr	r3, [r7, #4]
 8012d80:	681b      	ldr	r3, [r3, #0]
 8012d82:	2150      	movs	r1, #80	@ 0x50
 8012d84:	4618      	mov	r0, r3
 8012d86:	f000 f968 	bl	801305a <TIM_ITRx_SetConfig>
      break;
 8012d8a:	e02c      	b.n	8012de6 <HAL_TIM_ConfigClockSource+0x174>

      /* Check TI2 input conditioning related parameters */
      assert_param(IS_TIM_CLOCKPOLARITY(sClockSourceConfig->ClockPolarity));
      assert_param(IS_TIM_CLOCKFILTER(sClockSourceConfig->ClockFilter));

      TIM_TI2_ConfigInputStage(htim->Instance,
 8012d8c:	687b      	ldr	r3, [r7, #4]
 8012d8e:	6818      	ldr	r0, [r3, #0]
                               sClockSourceConfig->ClockPolarity,
 8012d90:	683b      	ldr	r3, [r7, #0]
 8012d92:	6859      	ldr	r1, [r3, #4]
                               sClockSourceConfig->ClockFilter);
 8012d94:	683b      	ldr	r3, [r7, #0]
 8012d96:	68db      	ldr	r3, [r3, #12]
      TIM_TI2_ConfigInputStage(htim->Instance,
 8012d98:	461a      	mov	r2, r3
 8012d9a:	f000 f92e 	bl	8012ffa <TIM_TI2_ConfigInputStage>
      TIM_ITRx_SetConfig(htim->Instance, TIM_CLOCKSOURCE_TI2);
 8012d9e:	687b      	ldr	r3, [r7, #4]
 8012da0:	681b      	ldr	r3, [r3, #0]
 8012da2:	2160      	movs	r1, #96	@ 0x60
 8012da4:	4618      	mov	r0, r3
 8012da6:	f000 f958 	bl	801305a <TIM_ITRx_SetConfig>
      break;
 8012daa:	e01c      	b.n	8012de6 <HAL_TIM_ConfigClockSource+0x174>

      /* Check TI1 input conditioning related parameters */
      assert_param(IS_TIM_CLOCKPOLARITY(sClockSourceConfig->ClockPolarity));
      assert_param(IS_TIM_CLOCKFILTER(sClockSourceConfig->ClockFilter));

      TIM_TI1_ConfigInputStage(htim->Instance,
 8012dac:	687b      	ldr	r3, [r7, #4]
 8012dae:	6818      	ldr	r0, [r3, #0]
                               sClockSourceConfig->ClockPolarity,
 8012db0:	683b      	ldr	r3, [r7, #0]
 8012db2:	6859      	ldr	r1, [r3, #4]
                               sClockSourceConfig->ClockFilter);
 8012db4:	683b      	ldr	r3, [r7, #0]
 8012db6:	68db      	ldr	r3, [r3, #12]
      TIM_TI1_ConfigInputStage(htim->Instance,
 8012db8:	461a      	mov	r2, r3
 8012dba:	f000 f8ef 	bl	8012f9c <TIM_TI1_ConfigInputStage>
      TIM_ITRx_SetConfig(htim->Instance, TIM_CLOCKSOURCE_TI1ED);
 8012dbe:	687b      	ldr	r3, [r7, #4]
 8012dc0:	681b      	ldr	r3, [r3, #0]
 8012dc2:	2140      	movs	r1, #64	@ 0x40
 8012dc4:	4618      	mov	r0, r3
 8012dc6:	f000 f948 	bl	801305a <TIM_ITRx_SetConfig>
      break;
 8012dca:	e00c      	b.n	8012de6 <HAL_TIM_ConfigClockSource+0x174>
    case TIM_CLOCKSOURCE_ITR3:
    {
      /* Check whether or not the timer instance supports internal trigger input */
      assert_param(IS_TIM_CLOCKSOURCE_ITRX_INSTANCE(htim->Instance));

      TIM_ITRx_SetConfig(htim->Instance, sClockSourceConfig->ClockSource);
 8012dcc:	687b      	ldr	r3, [r7, #4]
 8012dce:	681a      	ldr	r2, [r3, #0]
 8012dd0:	683b      	ldr	r3, [r7, #0]
 8012dd2:	681b      	ldr	r3, [r3, #0]
 8012dd4:	4619      	mov	r1, r3
 8012dd6:	4610      	mov	r0, r2
 8012dd8:	f000 f93f 	bl	801305a <TIM_ITRx_SetConfig>
      break;
 8012ddc:	e003      	b.n	8012de6 <HAL_TIM_ConfigClockSource+0x174>
    }

    default:
      status = HAL_ERROR;
 8012dde:	2301      	movs	r3, #1
 8012de0:	73fb      	strb	r3, [r7, #15]
      break;
 8012de2:	e000      	b.n	8012de6 <HAL_TIM_ConfigClockSource+0x174>
      break;
 8012de4:	bf00      	nop
  }
  htim->State = HAL_TIM_STATE_READY;
 8012de6:	687b      	ldr	r3, [r7, #4]
 8012de8:	2201      	movs	r2, #1
 8012dea:	f883 203d 	strb.w	r2, [r3, #61]	@ 0x3d

  __HAL_UNLOCK(htim);
 8012dee:	687b      	ldr	r3, [r7, #4]
 8012df0:	2200      	movs	r2, #0
 8012df2:	f883 203c 	strb.w	r2, [r3, #60]	@ 0x3c

  return status;
 8012df6:	7bfb      	ldrb	r3, [r7, #15]
}
 8012df8:	4618      	mov	r0, r3
 8012dfa:	3710      	adds	r7, #16
 8012dfc:	46bd      	mov	sp, r7
 8012dfe:	bd80      	pop	{r7, pc}

08012e00 <HAL_TIM_OC_DelayElapsedCallback>:
  * @brief  Output Compare callback in non-blocking mode
  * @param  htim TIM OC handle
  * @retval None
  */
__weak void HAL_TIM_OC_DelayElapsedCallback(TIM_HandleTypeDef *htim)
{
 8012e00:	b480      	push	{r7}
 8012e02:	b083      	sub	sp, #12
 8012e04:	af00      	add	r7, sp, #0
 8012e06:	6078      	str	r0, [r7, #4]
  UNUSED(htim);

  /* NOTE : This function should not be modified, when the callback is needed,
            the HAL_TIM_OC_DelayElapsedCallback could be implemented in the user file
   */
}
 8012e08:	bf00      	nop
 8012e0a:	370c      	adds	r7, #12
 8012e0c:	46bd      	mov	sp, r7
 8012e0e:	f85d 7b04 	ldr.w	r7, [sp], #4
 8012e12:	4770      	bx	lr

08012e14 <HAL_TIM_IC_CaptureCallback>:
  * @brief  Input Capture callback in non-blocking mode
  * @param  htim TIM IC handle
  * @retval None
  */
__weak void HAL_TIM_IC_CaptureCallback(TIM_HandleTypeDef *htim)
{
 8012e14:	b480      	push	{r7}
 8012e16:	b083      	sub	sp, #12
 8012e18:	af00      	add	r7, sp, #0
 8012e1a:	6078      	str	r0, [r7, #4]
  UNUSED(htim);

  /* NOTE : This function should not be modified, when the callback is needed,
            the HAL_TIM_IC_CaptureCallback could be implemented in the user file
   */
}
 8012e1c:	bf00      	nop
 8012e1e:	370c      	adds	r7, #12
 8012e20:	46bd      	mov	sp, r7
 8012e22:	f85d 7b04 	ldr.w	r7, [sp], #4
 8012e26:	4770      	bx	lr

08012e28 <HAL_TIM_PWM_PulseFinishedCallback>:
  * @brief  PWM Pulse finished callback in non-blocking mode
  * @param  htim TIM handle
  * @retval None
  */
__weak void HAL_TIM_PWM_PulseFinishedCallback(TIM_HandleTypeDef *htim)
{
 8012e28:	b480      	push	{r7}
 8012e2a:	b083      	sub	sp, #12
 8012e2c:	af00      	add	r7, sp, #0
 8012e2e:	6078      	str	r0, [r7, #4]
  UNUSED(htim);

  /* NOTE : This function should not be modified, when the callback is needed,
            the HAL_TIM_PWM_PulseFinishedCallback could be implemented in the user file
   */
}
 8012e30:	bf00      	nop
 8012e32:	370c      	adds	r7, #12
 8012e34:	46bd      	mov	sp, r7
 8012e36:	f85d 7b04 	ldr.w	r7, [sp], #4
 8012e3a:	4770      	bx	lr

08012e3c <HAL_TIM_TriggerCallback>:
  * @brief  Hall Trigger detection callback in non-blocking mode
  * @param  htim TIM handle
  * @retval None
  */
__weak void HAL_TIM_TriggerCallback(TIM_HandleTypeDef *htim)
{
 8012e3c:	b480      	push	{r7}
 8012e3e:	b083      	sub	sp, #12
 8012e40:	af00      	add	r7, sp, #0
 8012e42:	6078      	str	r0, [r7, #4]
  UNUSED(htim);

  /* NOTE : This function should not be modified, when the callback is needed,
            the HAL_TIM_TriggerCallback could be implemented in the user file
   */
}
 8012e44:	bf00      	nop
 8012e46:	370c      	adds	r7, #12
 8012e48:	46bd      	mov	sp, r7
 8012e4a:	f85d 7b04 	ldr.w	r7, [sp], #4
 8012e4e:	4770      	bx	lr

08012e50 <TIM_Base_SetConfig>:
  * @param  TIMx TIM peripheral
  * @param  Structure TIM Base configuration structure
  * @retval None
  */
void TIM_Base_SetConfig(TIM_TypeDef *TIMx, const TIM_Base_InitTypeDef *Structure)
{
 8012e50:	b480      	push	{r7}
 8012e52:	b085      	sub	sp, #20
 8012e54:	af00      	add	r7, sp, #0
 8012e56:	6078      	str	r0, [r7, #4]
 8012e58:	6039      	str	r1, [r7, #0]
  uint32_t tmpcr1;
  tmpcr1 = TIMx->CR1;
 8012e5a:	687b      	ldr	r3, [r7, #4]
 8012e5c:	681b      	ldr	r3, [r3, #0]
 8012e5e:	60fb      	str	r3, [r7, #12]

  /* Set TIM Time Base Unit parameters ---------------------------------------*/
  if (IS_TIM_COUNTER_MODE_SELECT_INSTANCE(TIMx))
 8012e60:	687b      	ldr	r3, [r7, #4]
 8012e62:	4a43      	ldr	r2, [pc, #268]	@ (8012f70 <TIM_Base_SetConfig+0x120>)
 8012e64:	4293      	cmp	r3, r2
 8012e66:	d013      	beq.n	8012e90 <TIM_Base_SetConfig+0x40>
 8012e68:	687b      	ldr	r3, [r7, #4]
 8012e6a:	f1b3 4f80 	cmp.w	r3, #1073741824	@ 0x40000000
 8012e6e:	d00f      	beq.n	8012e90 <TIM_Base_SetConfig+0x40>
 8012e70:	687b      	ldr	r3, [r7, #4]
 8012e72:	4a40      	ldr	r2, [pc, #256]	@ (8012f74 <TIM_Base_SetConfig+0x124>)
 8012e74:	4293      	cmp	r3, r2
 8012e76:	d00b      	beq.n	8012e90 <TIM_Base_SetConfig+0x40>
 8012e78:	687b      	ldr	r3, [r7, #4]
 8012e7a:	4a3f      	ldr	r2, [pc, #252]	@ (8012f78 <TIM_Base_SetConfig+0x128>)
 8012e7c:	4293      	cmp	r3, r2
 8012e7e:	d007      	beq.n	8012e90 <TIM_Base_SetConfig+0x40>
 8012e80:	687b      	ldr	r3, [r7, #4]
 8012e82:	4a3e      	ldr	r2, [pc, #248]	@ (8012f7c <TIM_Base_SetConfig+0x12c>)
 8012e84:	4293      	cmp	r3, r2
 8012e86:	d003      	beq.n	8012e90 <TIM_Base_SetConfig+0x40>
 8012e88:	687b      	ldr	r3, [r7, #4]
 8012e8a:	4a3d      	ldr	r2, [pc, #244]	@ (8012f80 <TIM_Base_SetConfig+0x130>)
 8012e8c:	4293      	cmp	r3, r2
 8012e8e:	d108      	bne.n	8012ea2 <TIM_Base_SetConfig+0x52>
  {
    /* Select the Counter Mode */
    tmpcr1 &= ~(TIM_CR1_DIR | TIM_CR1_CMS);
 8012e90:	68fb      	ldr	r3, [r7, #12]
 8012e92:	f023 0370 	bic.w	r3, r3, #112	@ 0x70
 8012e96:	60fb      	str	r3, [r7, #12]
    tmpcr1 |= Structure->CounterMode;
 8012e98:	683b      	ldr	r3, [r7, #0]
 8012e9a:	685b      	ldr	r3, [r3, #4]
 8012e9c:	68fa      	ldr	r2, [r7, #12]
 8012e9e:	4313      	orrs	r3, r2
 8012ea0:	60fb      	str	r3, [r7, #12]
  }

  if (IS_TIM_CLOCK_DIVISION_INSTANCE(TIMx))
 8012ea2:	687b      	ldr	r3, [r7, #4]
 8012ea4:	4a32      	ldr	r2, [pc, #200]	@ (8012f70 <TIM_Base_SetConfig+0x120>)
 8012ea6:	4293      	cmp	r3, r2
 8012ea8:	d02b      	beq.n	8012f02 <TIM_Base_SetConfig+0xb2>
 8012eaa:	687b      	ldr	r3, [r7, #4]
 8012eac:	f1b3 4f80 	cmp.w	r3, #1073741824	@ 0x40000000
 8012eb0:	d027      	beq.n	8012f02 <TIM_Base_SetConfig+0xb2>
 8012eb2:	687b      	ldr	r3, [r7, #4]
 8012eb4:	4a2f      	ldr	r2, [pc, #188]	@ (8012f74 <TIM_Base_SetConfig+0x124>)
 8012eb6:	4293      	cmp	r3, r2
 8012eb8:	d023      	beq.n	8012f02 <TIM_Base_SetConfig+0xb2>
 8012eba:	687b      	ldr	r3, [r7, #4]
 8012ebc:	4a2e      	ldr	r2, [pc, #184]	@ (8012f78 <TIM_Base_SetConfig+0x128>)
 8012ebe:	4293      	cmp	r3, r2
 8012ec0:	d01f      	beq.n	8012f02 <TIM_Base_SetConfig+0xb2>
 8012ec2:	687b      	ldr	r3, [r7, #4]
 8012ec4:	4a2d      	ldr	r2, [pc, #180]	@ (8012f7c <TIM_Base_SetConfig+0x12c>)
 8012ec6:	4293      	cmp	r3, r2
 8012ec8:	d01b      	beq.n	8012f02 <TIM_Base_SetConfig+0xb2>
 8012eca:	687b      	ldr	r3, [r7, #4]
 8012ecc:	4a2c      	ldr	r2, [pc, #176]	@ (8012f80 <TIM_Base_SetConfig+0x130>)
 8012ece:	4293      	cmp	r3, r2
 8012ed0:	d017      	beq.n	8012f02 <TIM_Base_SetConfig+0xb2>
 8012ed2:	687b      	ldr	r3, [r7, #4]
 8012ed4:	4a2b      	ldr	r2, [pc, #172]	@ (8012f84 <TIM_Base_SetConfig+0x134>)
 8012ed6:	4293      	cmp	r3, r2
 8012ed8:	d013      	beq.n	8012f02 <TIM_Base_SetConfig+0xb2>
 8012eda:	687b      	ldr	r3, [r7, #4]
 8012edc:	4a2a      	ldr	r2, [pc, #168]	@ (8012f88 <TIM_Base_SetConfig+0x138>)
 8012ede:	4293      	cmp	r3, r2
 8012ee0:	d00f      	beq.n	8012f02 <TIM_Base_SetConfig+0xb2>
 8012ee2:	687b      	ldr	r3, [r7, #4]
 8012ee4:	4a29      	ldr	r2, [pc, #164]	@ (8012f8c <TIM_Base_SetConfig+0x13c>)
 8012ee6:	4293      	cmp	r3, r2
 8012ee8:	d00b      	beq.n	8012f02 <TIM_Base_SetConfig+0xb2>
 8012eea:	687b      	ldr	r3, [r7, #4]
 8012eec:	4a28      	ldr	r2, [pc, #160]	@ (8012f90 <TIM_Base_SetConfig+0x140>)
 8012eee:	4293      	cmp	r3, r2
 8012ef0:	d007      	beq.n	8012f02 <TIM_Base_SetConfig+0xb2>
 8012ef2:	687b      	ldr	r3, [r7, #4]
 8012ef4:	4a27      	ldr	r2, [pc, #156]	@ (8012f94 <TIM_Base_SetConfig+0x144>)
 8012ef6:	4293      	cmp	r3, r2
 8012ef8:	d003      	beq.n	8012f02 <TIM_Base_SetConfig+0xb2>
 8012efa:	687b      	ldr	r3, [r7, #4]
 8012efc:	4a26      	ldr	r2, [pc, #152]	@ (8012f98 <TIM_Base_SetConfig+0x148>)
 8012efe:	4293      	cmp	r3, r2
 8012f00:	d108      	bne.n	8012f14 <TIM_Base_SetConfig+0xc4>
  {
    /* Set the clock division */
    tmpcr1 &= ~TIM_CR1_CKD;
 8012f02:	68fb      	ldr	r3, [r7, #12]
 8012f04:	f423 7340 	bic.w	r3, r3, #768	@ 0x300
 8012f08:	60fb      	str	r3, [r7, #12]
    tmpcr1 |= (uint32_t)Structure->ClockDivision;
 8012f0a:	683b      	ldr	r3, [r7, #0]
 8012f0c:	68db      	ldr	r3, [r3, #12]
 8012f0e:	68fa      	ldr	r2, [r7, #12]
 8012f10:	4313      	orrs	r3, r2
 8012f12:	60fb      	str	r3, [r7, #12]
  }

  /* Set the auto-reload preload */
  MODIFY_REG(tmpcr1, TIM_CR1_ARPE, Structure->AutoReloadPreload);
 8012f14:	68fb      	ldr	r3, [r7, #12]
 8012f16:	f023 0280 	bic.w	r2, r3, #128	@ 0x80
 8012f1a:	683b      	ldr	r3, [r7, #0]
 8012f1c:	695b      	ldr	r3, [r3, #20]
 8012f1e:	4313      	orrs	r3, r2
 8012f20:	60fb      	str	r3, [r7, #12]

  /* Set the Autoreload value */
  TIMx->ARR = (uint32_t)Structure->Period ;
 8012f22:	683b      	ldr	r3, [r7, #0]
 8012f24:	689a      	ldr	r2, [r3, #8]
 8012f26:	687b      	ldr	r3, [r7, #4]
 8012f28:	62da      	str	r2, [r3, #44]	@ 0x2c

  /* Set the Prescaler value */
  TIMx->PSC = Structure->Prescaler;
 8012f2a:	683b      	ldr	r3, [r7, #0]
 8012f2c:	681a      	ldr	r2, [r3, #0]
 8012f2e:	687b      	ldr	r3, [r7, #4]
 8012f30:	629a      	str	r2, [r3, #40]	@ 0x28

  if (IS_TIM_REPETITION_COUNTER_INSTANCE(TIMx))
 8012f32:	687b      	ldr	r3, [r7, #4]
 8012f34:	4a0e      	ldr	r2, [pc, #56]	@ (8012f70 <TIM_Base_SetConfig+0x120>)
 8012f36:	4293      	cmp	r3, r2
 8012f38:	d003      	beq.n	8012f42 <TIM_Base_SetConfig+0xf2>
 8012f3a:	687b      	ldr	r3, [r7, #4]
 8012f3c:	4a10      	ldr	r2, [pc, #64]	@ (8012f80 <TIM_Base_SetConfig+0x130>)
 8012f3e:	4293      	cmp	r3, r2
 8012f40:	d103      	bne.n	8012f4a <TIM_Base_SetConfig+0xfa>
  {
    /* Set the Repetition Counter value */
    TIMx->RCR = Structure->RepetitionCounter;
 8012f42:	683b      	ldr	r3, [r7, #0]
 8012f44:	691a      	ldr	r2, [r3, #16]
 8012f46:	687b      	ldr	r3, [r7, #4]
 8012f48:	631a      	str	r2, [r3, #48]	@ 0x30
  }

  /* Disable Update Event (UEV) with Update Generation (UG)
     by changing Update Request Source (URS) to avoid Update flag (UIF) */
  SET_BIT(TIMx->CR1, TIM_CR1_URS);
 8012f4a:	687b      	ldr	r3, [r7, #4]
 8012f4c:	681b      	ldr	r3, [r3, #0]
 8012f4e:	f043 0204 	orr.w	r2, r3, #4
 8012f52:	687b      	ldr	r3, [r7, #4]
 8012f54:	601a      	str	r2, [r3, #0]

  /* Generate an update event to reload the Prescaler
     and the repetition counter (only for advanced timer) value immediately */
  TIMx->EGR = TIM_EGR_UG;
 8012f56:	687b      	ldr	r3, [r7, #4]
 8012f58:	2201      	movs	r2, #1
 8012f5a:	615a      	str	r2, [r3, #20]

  TIMx->CR1 = tmpcr1;
 8012f5c:	687b      	ldr	r3, [r7, #4]
 8012f5e:	68fa      	ldr	r2, [r7, #12]
 8012f60:	601a      	str	r2, [r3, #0]
}
 8012f62:	bf00      	nop
 8012f64:	3714      	adds	r7, #20
 8012f66:	46bd      	mov	sp, r7
 8012f68:	f85d 7b04 	ldr.w	r7, [sp], #4
 8012f6c:	4770      	bx	lr
 8012f6e:	bf00      	nop
 8012f70:	40010000 	.word	0x40010000
 8012f74:	40000400 	.word	0x40000400
 8012f78:	40000800 	.word	0x40000800
 8012f7c:	40000c00 	.word	0x40000c00
 8012f80:	40010400 	.word	0x40010400
 8012f84:	40014000 	.word	0x40014000
 8012f88:	40014400 	.word	0x40014400
 8012f8c:	40014800 	.word	0x40014800
 8012f90:	40001800 	.word	0x40001800
 8012f94:	40001c00 	.word	0x40001c00
 8012f98:	40002000 	.word	0x40002000

08012f9c <TIM_TI1_ConfigInputStage>:
  * @param  TIM_ICFilter Specifies the Input Capture Filter.
  *          This parameter must be a value between 0x00 and 0x0F.
  * @retval None
  */
static void TIM_TI1_ConfigInputStage(TIM_TypeDef *TIMx, uint32_t TIM_ICPolarity, uint32_t TIM_ICFilter)
{
 8012f9c:	b480      	push	{r7}
 8012f9e:	b087      	sub	sp, #28
 8012fa0:	af00      	add	r7, sp, #0
 8012fa2:	60f8      	str	r0, [r7, #12]
 8012fa4:	60b9      	str	r1, [r7, #8]
 8012fa6:	607a      	str	r2, [r7, #4]
  uint32_t tmpccmr1;
  uint32_t tmpccer;

  /* Disable the Channel 1: Reset the CC1E Bit */
  tmpccer = TIMx->CCER;
 8012fa8:	68fb      	ldr	r3, [r7, #12]
 8012faa:	6a1b      	ldr	r3, [r3, #32]
 8012fac:	617b      	str	r3, [r7, #20]
  TIMx->CCER &= ~TIM_CCER_CC1E;
 8012fae:	68fb      	ldr	r3, [r7, #12]
 8012fb0:	6a1b      	ldr	r3, [r3, #32]
 8012fb2:	f023 0201 	bic.w	r2, r3, #1
 8012fb6:	68fb      	ldr	r3, [r7, #12]
 8012fb8:	621a      	str	r2, [r3, #32]
  tmpccmr1 = TIMx->CCMR1;
 8012fba:	68fb      	ldr	r3, [r7, #12]
 8012fbc:	699b      	ldr	r3, [r3, #24]
 8012fbe:	613b      	str	r3, [r7, #16]

  /* Set the filter */
  tmpccmr1 &= ~TIM_CCMR1_IC1F;
 8012fc0:	693b      	ldr	r3, [r7, #16]
 8012fc2:	f023 03f0 	bic.w	r3, r3, #240	@ 0xf0
 8012fc6:	613b      	str	r3, [r7, #16]
  tmpccmr1 |= (TIM_ICFilter << 4U);
 8012fc8:	687b      	ldr	r3, [r7, #4]
 8012fca:	011b      	lsls	r3, r3, #4
 8012fcc:	693a      	ldr	r2, [r7, #16]
 8012fce:	4313      	orrs	r3, r2
 8012fd0:	613b      	str	r3, [r7, #16]

  /* Select the Polarity and set the CC1E Bit */
  tmpccer &= ~(TIM_CCER_CC1P | TIM_CCER_CC1NP);
 8012fd2:	697b      	ldr	r3, [r7, #20]
 8012fd4:	f023 030a 	bic.w	r3, r3, #10
 8012fd8:	617b      	str	r3, [r7, #20]
  tmpccer |= TIM_ICPolarity;
 8012fda:	697a      	ldr	r2, [r7, #20]
 8012fdc:	68bb      	ldr	r3, [r7, #8]
 8012fde:	4313      	orrs	r3, r2
 8012fe0:	617b      	str	r3, [r7, #20]

  /* Write to TIMx CCMR1 and CCER registers */
  TIMx->CCMR1 = tmpccmr1;
 8012fe2:	68fb      	ldr	r3, [r7, #12]
 8012fe4:	693a      	ldr	r2, [r7, #16]
 8012fe6:	619a      	str	r2, [r3, #24]
  TIMx->CCER = tmpccer;
 8012fe8:	68fb      	ldr	r3, [r7, #12]
 8012fea:	697a      	ldr	r2, [r7, #20]
 8012fec:	621a      	str	r2, [r3, #32]
}
 8012fee:	bf00      	nop
 8012ff0:	371c      	adds	r7, #28
 8012ff2:	46bd      	mov	sp, r7
 8012ff4:	f85d 7b04 	ldr.w	r7, [sp], #4
 8012ff8:	4770      	bx	lr

08012ffa <TIM_TI2_ConfigInputStage>:
  * @param  TIM_ICFilter Specifies the Input Capture Filter.
  *          This parameter must be a value between 0x00 and 0x0F.
  * @retval None
  */
static void TIM_TI2_ConfigInputStage(TIM_TypeDef *TIMx, uint32_t TIM_ICPolarity, uint32_t TIM_ICFilter)
{
 8012ffa:	b480      	push	{r7}
 8012ffc:	b087      	sub	sp, #28
 8012ffe:	af00      	add	r7, sp, #0
 8013000:	60f8      	str	r0, [r7, #12]
 8013002:	60b9      	str	r1, [r7, #8]
 8013004:	607a      	str	r2, [r7, #4]
  uint32_t tmpccmr1;
  uint32_t tmpccer;

  /* Disable the Channel 2: Reset the CC2E Bit */
  tmpccer = TIMx->CCER;
 8013006:	68fb      	ldr	r3, [r7, #12]
 8013008:	6a1b      	ldr	r3, [r3, #32]
 801300a:	617b      	str	r3, [r7, #20]
  TIMx->CCER &= ~TIM_CCER_CC2E;
 801300c:	68fb      	ldr	r3, [r7, #12]
 801300e:	6a1b      	ldr	r3, [r3, #32]
 8013010:	f023 0210 	bic.w	r2, r3, #16
 8013014:	68fb      	ldr	r3, [r7, #12]
 8013016:	621a      	str	r2, [r3, #32]
  tmpccmr1 = TIMx->CCMR1;
 8013018:	68fb      	ldr	r3, [r7, #12]
 801301a:	699b      	ldr	r3, [r3, #24]
 801301c:	613b      	str	r3, [r7, #16]

  /* Set the filter */
  tmpccmr1 &= ~TIM_CCMR1_IC2F;
 801301e:	693b      	ldr	r3, [r7, #16]
 8013020:	f423 4370 	bic.w	r3, r3, #61440	@ 0xf000
 8013024:	613b      	str	r3, [r7, #16]
  tmpccmr1 |= (TIM_ICFilter << 12U);
 8013026:	687b      	ldr	r3, [r7, #4]
 8013028:	031b      	lsls	r3, r3, #12
 801302a:	693a      	ldr	r2, [r7, #16]
 801302c:	4313      	orrs	r3, r2
 801302e:	613b      	str	r3, [r7, #16]

  /* Select the Polarity and set the CC2E Bit */
  tmpccer &= ~(TIM_CCER_CC2P | TIM_CCER_CC2NP);
 8013030:	697b      	ldr	r3, [r7, #20]
 8013032:	f023 03a0 	bic.w	r3, r3, #160	@ 0xa0
 8013036:	617b      	str	r3, [r7, #20]
  tmpccer |= (TIM_ICPolarity << 4U);
 8013038:	68bb      	ldr	r3, [r7, #8]
 801303a:	011b      	lsls	r3, r3, #4
 801303c:	697a      	ldr	r2, [r7, #20]
 801303e:	4313      	orrs	r3, r2
 8013040:	617b      	str	r3, [r7, #20]

  /* Write to TIMx CCMR1 and CCER registers */
  TIMx->CCMR1 = tmpccmr1 ;
 8013042:	68fb      	ldr	r3, [r7, #12]
 8013044:	693a      	ldr	r2, [r7, #16]
 8013046:	619a      	str	r2, [r3, #24]
  TIMx->CCER = tmpccer;
 8013048:	68fb      	ldr	r3, [r7, #12]
 801304a:	697a      	ldr	r2, [r7, #20]
 801304c:	621a      	str	r2, [r3, #32]
}
 801304e:	bf00      	nop
 8013050:	371c      	adds	r7, #28
 8013052:	46bd      	mov	sp, r7
 8013054:	f85d 7b04 	ldr.w	r7, [sp], #4
 8013058:	4770      	bx	lr

0801305a <TIM_ITRx_SetConfig>:
  *            @arg TIM_TS_TI2FP2: Filtered Timer Input 2
  *            @arg TIM_TS_ETRF: External Trigger input
  * @retval None
  */
static void TIM_ITRx_SetConfig(TIM_TypeDef *TIMx, uint32_t InputTriggerSource)
{
 801305a:	b480      	push	{r7}
 801305c:	b085      	sub	sp, #20
 801305e:	af00      	add	r7, sp, #0
 8013060:	6078      	str	r0, [r7, #4]
 8013062:	6039      	str	r1, [r7, #0]
  uint32_t tmpsmcr;

  /* Get the TIMx SMCR register value */
  tmpsmcr = TIMx->SMCR;
 8013064:	687b      	ldr	r3, [r7, #4]
 8013066:	689b      	ldr	r3, [r3, #8]
 8013068:	60fb      	str	r3, [r7, #12]
  /* Reset the TS Bits */
  tmpsmcr &= ~TIM_SMCR_TS;
 801306a:	68fb      	ldr	r3, [r7, #12]
 801306c:	f023 0370 	bic.w	r3, r3, #112	@ 0x70
 8013070:	60fb      	str	r3, [r7, #12]
  /* Set the Input Trigger source and the slave mode*/
  tmpsmcr |= (InputTriggerSource | TIM_SLAVEMODE_EXTERNAL1);
 8013072:	683a      	ldr	r2, [r7, #0]
 8013074:	68fb      	ldr	r3, [r7, #12]
 8013076:	4313      	orrs	r3, r2
 8013078:	f043 0307 	orr.w	r3, r3, #7
 801307c:	60fb      	str	r3, [r7, #12]
  /* Write to TIMx SMCR */
  TIMx->SMCR = tmpsmcr;
 801307e:	687b      	ldr	r3, [r7, #4]
 8013080:	68fa      	ldr	r2, [r7, #12]
 8013082:	609a      	str	r2, [r3, #8]
}
 8013084:	bf00      	nop
 8013086:	3714      	adds	r7, #20
 8013088:	46bd      	mov	sp, r7
 801308a:	f85d 7b04 	ldr.w	r7, [sp], #4
 801308e:	4770      	bx	lr

08013090 <TIM_ETR_SetConfig>:
  *          This parameter must be a value between 0x00 and 0x0F
  * @retval None
  */
void TIM_ETR_SetConfig(TIM_TypeDef *TIMx, uint32_t TIM_ExtTRGPrescaler,
                       uint32_t TIM_ExtTRGPolarity, uint32_t ExtTRGFilter)
{
 8013090:	b480      	push	{r7}
 8013092:	b087      	sub	sp, #28
 8013094:	af00      	add	r7, sp, #0
 8013096:	60f8      	str	r0, [r7, #12]
 8013098:	60b9      	str	r1, [r7, #8]
 801309a:	607a      	str	r2, [r7, #4]
 801309c:	603b      	str	r3, [r7, #0]
  uint32_t tmpsmcr;

  tmpsmcr = TIMx->SMCR;
 801309e:	68fb      	ldr	r3, [r7, #12]
 80130a0:	689b      	ldr	r3, [r3, #8]
 80130a2:	617b      	str	r3, [r7, #20]

  /* Reset the ETR Bits */
  tmpsmcr &= ~(TIM_SMCR_ETF | TIM_SMCR_ETPS | TIM_SMCR_ECE | TIM_SMCR_ETP);
 80130a4:	697b      	ldr	r3, [r7, #20]
 80130a6:	f423 437f 	bic.w	r3, r3, #65280	@ 0xff00
 80130aa:	617b      	str	r3, [r7, #20]

  /* Set the Prescaler, the Filter value and the Polarity */
  tmpsmcr |= (uint32_t)(TIM_ExtTRGPrescaler | (TIM_ExtTRGPolarity | (ExtTRGFilter << 8U)));
 80130ac:	683b      	ldr	r3, [r7, #0]
 80130ae:	021a      	lsls	r2, r3, #8
 80130b0:	687b      	ldr	r3, [r7, #4]
 80130b2:	431a      	orrs	r2, r3
 80130b4:	68bb      	ldr	r3, [r7, #8]
 80130b6:	4313      	orrs	r3, r2
 80130b8:	697a      	ldr	r2, [r7, #20]
 80130ba:	4313      	orrs	r3, r2
 80130bc:	617b      	str	r3, [r7, #20]

  /* Write to TIMx SMCR */
  TIMx->SMCR = tmpsmcr;
 80130be:	68fb      	ldr	r3, [r7, #12]
 80130c0:	697a      	ldr	r2, [r7, #20]
 80130c2:	609a      	str	r2, [r3, #8]
}
 80130c4:	bf00      	nop
 80130c6:	371c      	adds	r7, #28
 80130c8:	46bd      	mov	sp, r7
 80130ca:	f85d 7b04 	ldr.w	r7, [sp], #4
 80130ce:	4770      	bx	lr

080130d0 <HAL_TIMEx_MasterConfigSynchronization>:
  *         mode.
  * @retval HAL status
  */
HAL_StatusTypeDef HAL_TIMEx_MasterConfigSynchronization(TIM_HandleTypeDef *htim,
                                                        const TIM_MasterConfigTypeDef *sMasterConfig)
{
 80130d0:	b480      	push	{r7}
 80130d2:	b085      	sub	sp, #20
 80130d4:	af00      	add	r7, sp, #0
 80130d6:	6078      	str	r0, [r7, #4]
 80130d8:	6039      	str	r1, [r7, #0]
  assert_param(IS_TIM_MASTER_INSTANCE(htim->Instance));
  assert_param(IS_TIM_TRGO_SOURCE(sMasterConfig->MasterOutputTrigger));
  assert_param(IS_TIM_MSM_STATE(sMasterConfig->MasterSlaveMode));

  /* Check input state */
  __HAL_LOCK(htim);
 80130da:	687b      	ldr	r3, [r7, #4]
 80130dc:	f893 303c 	ldrb.w	r3, [r3, #60]	@ 0x3c
 80130e0:	2b01      	cmp	r3, #1
 80130e2:	d101      	bne.n	80130e8 <HAL_TIMEx_MasterConfigSynchronization+0x18>
 80130e4:	2302      	movs	r3, #2
 80130e6:	e05a      	b.n	801319e <HAL_TIMEx_MasterConfigSynchronization+0xce>
 80130e8:	687b      	ldr	r3, [r7, #4]
 80130ea:	2201      	movs	r2, #1
 80130ec:	f883 203c 	strb.w	r2, [r3, #60]	@ 0x3c

  /* Change the handler state */
  htim->State = HAL_TIM_STATE_BUSY;
 80130f0:	687b      	ldr	r3, [r7, #4]
 80130f2:	2202      	movs	r2, #2
 80130f4:	f883 203d 	strb.w	r2, [r3, #61]	@ 0x3d

  /* Get the TIMx CR2 register value */
  tmpcr2 = htim->Instance->CR2;
 80130f8:	687b      	ldr	r3, [r7, #4]
 80130fa:	681b      	ldr	r3, [r3, #0]
 80130fc:	685b      	ldr	r3, [r3, #4]
 80130fe:	60fb      	str	r3, [r7, #12]

  /* Get the TIMx SMCR register value */
  tmpsmcr = htim->Instance->SMCR;
 8013100:	687b      	ldr	r3, [r7, #4]
 8013102:	681b      	ldr	r3, [r3, #0]
 8013104:	689b      	ldr	r3, [r3, #8]
 8013106:	60bb      	str	r3, [r7, #8]

  /* Reset the MMS Bits */
  tmpcr2 &= ~TIM_CR2_MMS;
 8013108:	68fb      	ldr	r3, [r7, #12]
 801310a:	f023 0370 	bic.w	r3, r3, #112	@ 0x70
 801310e:	60fb      	str	r3, [r7, #12]
  /* Select the TRGO source */
  tmpcr2 |=  sMasterConfig->MasterOutputTrigger;
 8013110:	683b      	ldr	r3, [r7, #0]
 8013112:	681b      	ldr	r3, [r3, #0]
 8013114:	68fa      	ldr	r2, [r7, #12]
 8013116:	4313      	orrs	r3, r2
 8013118:	60fb      	str	r3, [r7, #12]

  /* Update TIMx CR2 */
  htim->Instance->CR2 = tmpcr2;
 801311a:	687b      	ldr	r3, [r7, #4]
 801311c:	681b      	ldr	r3, [r3, #0]
 801311e:	68fa      	ldr	r2, [r7, #12]
 8013120:	605a      	str	r2, [r3, #4]

  if (IS_TIM_SLAVE_INSTANCE(htim->Instance))
 8013122:	687b      	ldr	r3, [r7, #4]
 8013124:	681b      	ldr	r3, [r3, #0]
 8013126:	4a21      	ldr	r2, [pc, #132]	@ (80131ac <HAL_TIMEx_MasterConfigSynchronization+0xdc>)
 8013128:	4293      	cmp	r3, r2
 801312a:	d022      	beq.n	8013172 <HAL_TIMEx_MasterConfigSynchronization+0xa2>
 801312c:	687b      	ldr	r3, [r7, #4]
 801312e:	681b      	ldr	r3, [r3, #0]
 8013130:	f1b3 4f80 	cmp.w	r3, #1073741824	@ 0x40000000
 8013134:	d01d      	beq.n	8013172 <HAL_TIMEx_MasterConfigSynchronization+0xa2>
 8013136:	687b      	ldr	r3, [r7, #4]
 8013138:	681b      	ldr	r3, [r3, #0]
 801313a:	4a1d      	ldr	r2, [pc, #116]	@ (80131b0 <HAL_TIMEx_MasterConfigSynchronization+0xe0>)
 801313c:	4293      	cmp	r3, r2
 801313e:	d018      	beq.n	8013172 <HAL_TIMEx_MasterConfigSynchronization+0xa2>
 8013140:	687b      	ldr	r3, [r7, #4]
 8013142:	681b      	ldr	r3, [r3, #0]
 8013144:	4a1b      	ldr	r2, [pc, #108]	@ (80131b4 <HAL_TIMEx_MasterConfigSynchronization+0xe4>)
 8013146:	4293      	cmp	r3, r2
 8013148:	d013      	beq.n	8013172 <HAL_TIMEx_MasterConfigSynchronization+0xa2>
 801314a:	687b      	ldr	r3, [r7, #4]
 801314c:	681b      	ldr	r3, [r3, #0]
 801314e:	4a1a      	ldr	r2, [pc, #104]	@ (80131b8 <HAL_TIMEx_MasterConfigSynchronization+0xe8>)
 8013150:	4293      	cmp	r3, r2
 8013152:	d00e      	beq.n	8013172 <HAL_TIMEx_MasterConfigSynchronization+0xa2>
 8013154:	687b      	ldr	r3, [r7, #4]
 8013156:	681b      	ldr	r3, [r3, #0]
 8013158:	4a18      	ldr	r2, [pc, #96]	@ (80131bc <HAL_TIMEx_MasterConfigSynchronization+0xec>)
 801315a:	4293      	cmp	r3, r2
 801315c:	d009      	beq.n	8013172 <HAL_TIMEx_MasterConfigSynchronization+0xa2>
 801315e:	687b      	ldr	r3, [r7, #4]
 8013160:	681b      	ldr	r3, [r3, #0]
 8013162:	4a17      	ldr	r2, [pc, #92]	@ (80131c0 <HAL_TIMEx_MasterConfigSynchronization+0xf0>)
 8013164:	4293      	cmp	r3, r2
 8013166:	d004      	beq.n	8013172 <HAL_TIMEx_MasterConfigSynchronization+0xa2>
 8013168:	687b      	ldr	r3, [r7, #4]
 801316a:	681b      	ldr	r3, [r3, #0]
 801316c:	4a15      	ldr	r2, [pc, #84]	@ (80131c4 <HAL_TIMEx_MasterConfigSynchronization+0xf4>)
 801316e:	4293      	cmp	r3, r2
 8013170:	d10c      	bne.n	801318c <HAL_TIMEx_MasterConfigSynchronization+0xbc>
  {
    /* Reset the MSM Bit */
    tmpsmcr &= ~TIM_SMCR_MSM;
 8013172:	68bb      	ldr	r3, [r7, #8]
 8013174:	f023 0380 	bic.w	r3, r3, #128	@ 0x80
 8013178:	60bb      	str	r3, [r7, #8]
    /* Set master mode */
    tmpsmcr |= sMasterConfig->MasterSlaveMode;
 801317a:	683b      	ldr	r3, [r7, #0]
 801317c:	685b      	ldr	r3, [r3, #4]
 801317e:	68ba      	ldr	r2, [r7, #8]
 8013180:	4313      	orrs	r3, r2
 8013182:	60bb      	str	r3, [r7, #8]

    /* Update TIMx SMCR */
    htim->Instance->SMCR = tmpsmcr;
 8013184:	687b      	ldr	r3, [r7, #4]
 8013186:	681b      	ldr	r3, [r3, #0]
 8013188:	68ba      	ldr	r2, [r7, #8]
 801318a:	609a      	str	r2, [r3, #8]
  }

  /* Change the htim state */
  htim->State = HAL_TIM_STATE_READY;
 801318c:	687b      	ldr	r3, [r7, #4]
 801318e:	2201      	movs	r2, #1
 8013190:	f883 203d 	strb.w	r2, [r3, #61]	@ 0x3d

  __HAL_UNLOCK(htim);
 8013194:	687b      	ldr	r3, [r7, #4]
 8013196:	2200      	movs	r2, #0
 8013198:	f883 203c 	strb.w	r2, [r3, #60]	@ 0x3c

  return HAL_OK;
 801319c:	2300      	movs	r3, #0
}
 801319e:	4618      	mov	r0, r3
 80131a0:	3714      	adds	r7, #20
 80131a2:	46bd      	mov	sp, r7
 80131a4:	f85d 7b04 	ldr.w	r7, [sp], #4
 80131a8:	4770      	bx	lr
 80131aa:	bf00      	nop
 80131ac:	40010000 	.word	0x40010000
 80131b0:	40000400 	.word	0x40000400
 80131b4:	40000800 	.word	0x40000800
 80131b8:	40000c00 	.word	0x40000c00
 80131bc:	40010400 	.word	0x40010400
 80131c0:	40014000 	.word	0x40014000
 80131c4:	40001800 	.word	0x40001800

080131c8 <HAL_TIMEx_CommutCallback>:
  * @brief  Commutation callback in non-blocking mode
  * @param  htim TIM handle
  * @retval None
  */
__weak void HAL_TIMEx_CommutCallback(TIM_HandleTypeDef *htim)
{
 80131c8:	b480      	push	{r7}
 80131ca:	b083      	sub	sp, #12
 80131cc:	af00      	add	r7, sp, #0
 80131ce:	6078      	str	r0, [r7, #4]
  UNUSED(htim);

  /* NOTE : This function should not be modified, when the callback is needed,
            the HAL_TIMEx_CommutCallback could be implemented in the user file
   */
}
 80131d0:	bf00      	nop
 80131d2:	370c      	adds	r7, #12
 80131d4:	46bd      	mov	sp, r7
 80131d6:	f85d 7b04 	ldr.w	r7, [sp], #4
 80131da:	4770      	bx	lr

080131dc <HAL_TIMEx_BreakCallback>:
  * @brief  Break detection callback in non-blocking mode
  * @param  htim TIM handle
  * @retval None
  */
__weak void HAL_TIMEx_BreakCallback(TIM_HandleTypeDef *htim)
{
 80131dc:	b480      	push	{r7}
 80131de:	b083      	sub	sp, #12
 80131e0:	af00      	add	r7, sp, #0
 80131e2:	6078      	str	r0, [r7, #4]
  UNUSED(htim);

  /* NOTE : This function should not be modified, when the callback is needed,
            the HAL_TIMEx_BreakCallback could be implemented in the user file
   */
}
 80131e4:	bf00      	nop
 80131e6:	370c      	adds	r7, #12
 80131e8:	46bd      	mov	sp, r7
 80131ea:	f85d 7b04 	ldr.w	r7, [sp], #4
 80131ee:	4770      	bx	lr

080131f0 <HAL_UART_Init>:
  * @param  huart  Pointer to a UART_HandleTypeDef structure that contains
  *                the configuration information for the specified UART module.
  * @retval HAL status
  */
HAL_StatusTypeDef HAL_UART_Init(UART_HandleTypeDef *huart)
{
 80131f0:	b580      	push	{r7, lr}
 80131f2:	b082      	sub	sp, #8
 80131f4:	af00      	add	r7, sp, #0
 80131f6:	6078      	str	r0, [r7, #4]
  /* Check the UART handle allocation */
  if (huart == NULL)
 80131f8:	687b      	ldr	r3, [r7, #4]
 80131fa:	2b00      	cmp	r3, #0
 80131fc:	d101      	bne.n	8013202 <HAL_UART_Init+0x12>
  {
    return HAL_ERROR;
 80131fe:	2301      	movs	r3, #1
 8013200:	e042      	b.n	8013288 <HAL_UART_Init+0x98>
    assert_param(IS_UART_INSTANCE(huart->Instance));
  }
  assert_param(IS_UART_WORD_LENGTH(huart->Init.WordLength));
  assert_param(IS_UART_OVERSAMPLING(huart->Init.OverSampling));

  if (huart->gState == HAL_UART_STATE_RESET)
 8013202:	687b      	ldr	r3, [r7, #4]
 8013204:	f893 3041 	ldrb.w	r3, [r3, #65]	@ 0x41
 8013208:	b2db      	uxtb	r3, r3
 801320a:	2b00      	cmp	r3, #0
 801320c:	d106      	bne.n	801321c <HAL_UART_Init+0x2c>
  {
    /* Allocate lock resource and initialize it */
    huart->Lock = HAL_UNLOCKED;
 801320e:	687b      	ldr	r3, [r7, #4]
 8013210:	2200      	movs	r2, #0
 8013212:	f883 2040 	strb.w	r2, [r3, #64]	@ 0x40

    /* Init the low level hardware */
    huart->MspInitCallback(huart);
#else
    /* Init the low level hardware : GPIO, CLOCK */
    HAL_UART_MspInit(huart);
 8013216:	6878      	ldr	r0, [r7, #4]
 8013218:	f7fc fb1c 	bl	800f854 <HAL_UART_MspInit>
#endif /* (USE_HAL_UART_REGISTER_CALLBACKS) */
  }

  huart->gState = HAL_UART_STATE_BUSY;
 801321c:	687b      	ldr	r3, [r7, #4]
 801321e:	2224      	movs	r2, #36	@ 0x24
 8013220:	f883 2041 	strb.w	r2, [r3, #65]	@ 0x41

  /* Disable the peripheral */
  __HAL_UART_DISABLE(huart);
 8013224:	687b      	ldr	r3, [r7, #4]
 8013226:	681b      	ldr	r3, [r3, #0]
 8013228:	68da      	ldr	r2, [r3, #12]
 801322a:	687b      	ldr	r3, [r7, #4]
 801322c:	681b      	ldr	r3, [r3, #0]
 801322e:	f422 5200 	bic.w	r2, r2, #8192	@ 0x2000
 8013232:	60da      	str	r2, [r3, #12]

  /* Set the UART Communication parameters */
  UART_SetConfig(huart);
 8013234:	6878      	ldr	r0, [r7, #4]
 8013236:	f000 ff81 	bl	801413c <UART_SetConfig>

  /* In asynchronous mode, the following bits must be kept cleared:
     - LINEN and CLKEN bits in the USART_CR2 register,
     - SCEN, HDSEL and IREN  bits in the USART_CR3 register.*/
  CLEAR_BIT(huart->Instance->CR2, (USART_CR2_LINEN | USART_CR2_CLKEN));
 801323a:	687b      	ldr	r3, [r7, #4]
 801323c:	681b      	ldr	r3, [r3, #0]
 801323e:	691a      	ldr	r2, [r3, #16]
 8013240:	687b      	ldr	r3, [r7, #4]
 8013242:	681b      	ldr	r3, [r3, #0]
 8013244:	f422 4290 	bic.w	r2, r2, #18432	@ 0x4800
 8013248:	611a      	str	r2, [r3, #16]
  CLEAR_BIT(huart->Instance->CR3, (USART_CR3_SCEN | USART_CR3_HDSEL | USART_CR3_IREN));
 801324a:	687b      	ldr	r3, [r7, #4]
 801324c:	681b      	ldr	r3, [r3, #0]
 801324e:	695a      	ldr	r2, [r3, #20]
 8013250:	687b      	ldr	r3, [r7, #4]
 8013252:	681b      	ldr	r3, [r3, #0]
 8013254:	f022 022a 	bic.w	r2, r2, #42	@ 0x2a
 8013258:	615a      	str	r2, [r3, #20]

  /* Enable the peripheral */
  __HAL_UART_ENABLE(huart);
 801325a:	687b      	ldr	r3, [r7, #4]
 801325c:	681b      	ldr	r3, [r3, #0]
 801325e:	68da      	ldr	r2, [r3, #12]
 8013260:	687b      	ldr	r3, [r7, #4]
 8013262:	681b      	ldr	r3, [r3, #0]
 8013264:	f442 5200 	orr.w	r2, r2, #8192	@ 0x2000
 8013268:	60da      	str	r2, [r3, #12]

  /* Initialize the UART state */
  huart->ErrorCode = HAL_UART_ERROR_NONE;
 801326a:	687b      	ldr	r3, [r7, #4]
 801326c:	2200      	movs	r2, #0
 801326e:	645a      	str	r2, [r3, #68]	@ 0x44
  huart->gState = HAL_UART_STATE_READY;
 8013270:	687b      	ldr	r3, [r7, #4]
 8013272:	2220      	movs	r2, #32
 8013274:	f883 2041 	strb.w	r2, [r3, #65]	@ 0x41
  huart->RxState = HAL_UART_STATE_READY;
 8013278:	687b      	ldr	r3, [r7, #4]
 801327a:	2220      	movs	r2, #32
 801327c:	f883 2042 	strb.w	r2, [r3, #66]	@ 0x42
  huart->RxEventType = HAL_UART_RXEVENT_TC;
 8013280:	687b      	ldr	r3, [r7, #4]
 8013282:	2200      	movs	r2, #0
 8013284:	635a      	str	r2, [r3, #52]	@ 0x34

  return HAL_OK;
 8013286:	2300      	movs	r3, #0
}
 8013288:	4618      	mov	r0, r3
 801328a:	3708      	adds	r7, #8
 801328c:	46bd      	mov	sp, r7
 801328e:	bd80      	pop	{r7, pc}

08013290 <HAL_UART_Transmit_IT>:
  * @param  pData Pointer to data buffer (u8 or u16 data elements).
  * @param  Size  Amount of data elements (u8 or u16) to be sent
  * @retval HAL status
  */
HAL_StatusTypeDef HAL_UART_Transmit_IT(UART_HandleTypeDef *huart, const uint8_t *pData, uint16_t Size)
{
 8013290:	b480      	push	{r7}
 8013292:	b085      	sub	sp, #20
 8013294:	af00      	add	r7, sp, #0
 8013296:	60f8      	str	r0, [r7, #12]
 8013298:	60b9      	str	r1, [r7, #8]
 801329a:	4613      	mov	r3, r2
 801329c:	80fb      	strh	r3, [r7, #6]
  /* Check that a Tx process is not already ongoing */
  if (huart->gState == HAL_UART_STATE_READY)
 801329e:	68fb      	ldr	r3, [r7, #12]
 80132a0:	f893 3041 	ldrb.w	r3, [r3, #65]	@ 0x41
 80132a4:	b2db      	uxtb	r3, r3
 80132a6:	2b20      	cmp	r3, #32
 80132a8:	d121      	bne.n	80132ee <HAL_UART_Transmit_IT+0x5e>
  {
    if ((pData == NULL) || (Size == 0U))
 80132aa:	68bb      	ldr	r3, [r7, #8]
 80132ac:	2b00      	cmp	r3, #0
 80132ae:	d002      	beq.n	80132b6 <HAL_UART_Transmit_IT+0x26>
 80132b0:	88fb      	ldrh	r3, [r7, #6]
 80132b2:	2b00      	cmp	r3, #0
 80132b4:	d101      	bne.n	80132ba <HAL_UART_Transmit_IT+0x2a>
    {
      return HAL_ERROR;
 80132b6:	2301      	movs	r3, #1
 80132b8:	e01a      	b.n	80132f0 <HAL_UART_Transmit_IT+0x60>
    }

    huart->pTxBuffPtr = pData;
 80132ba:	68fb      	ldr	r3, [r7, #12]
 80132bc:	68ba      	ldr	r2, [r7, #8]
 80132be:	621a      	str	r2, [r3, #32]
    huart->TxXferSize = Size;
 80132c0:	68fb      	ldr	r3, [r7, #12]
 80132c2:	88fa      	ldrh	r2, [r7, #6]
 80132c4:	849a      	strh	r2, [r3, #36]	@ 0x24
    huart->TxXferCount = Size;
 80132c6:	68fb      	ldr	r3, [r7, #12]
 80132c8:	88fa      	ldrh	r2, [r7, #6]
 80132ca:	84da      	strh	r2, [r3, #38]	@ 0x26

    huart->ErrorCode = HAL_UART_ERROR_NONE;
 80132cc:	68fb      	ldr	r3, [r7, #12]
 80132ce:	2200      	movs	r2, #0
 80132d0:	645a      	str	r2, [r3, #68]	@ 0x44
    huart->gState = HAL_UART_STATE_BUSY_TX;
 80132d2:	68fb      	ldr	r3, [r7, #12]
 80132d4:	2221      	movs	r2, #33	@ 0x21
 80132d6:	f883 2041 	strb.w	r2, [r3, #65]	@ 0x41

    /* Enable the UART Transmit data register empty Interrupt */
    __HAL_UART_ENABLE_IT(huart, UART_IT_TXE);
 80132da:	68fb      	ldr	r3, [r7, #12]
 80132dc:	681b      	ldr	r3, [r3, #0]
 80132de:	68da      	ldr	r2, [r3, #12]
 80132e0:	68fb      	ldr	r3, [r7, #12]
 80132e2:	681b      	ldr	r3, [r3, #0]
 80132e4:	f042 0280 	orr.w	r2, r2, #128	@ 0x80
 80132e8:	60da      	str	r2, [r3, #12]

    return HAL_OK;
 80132ea:	2300      	movs	r3, #0
 80132ec:	e000      	b.n	80132f0 <HAL_UART_Transmit_IT+0x60>
  }
  else
  {
    return HAL_BUSY;
 80132ee:	2302      	movs	r3, #2
  }
}
 80132f0:	4618      	mov	r0, r3
 80132f2:	3714      	adds	r7, #20
 80132f4:	46bd      	mov	sp, r7
 80132f6:	f85d 7b04 	ldr.w	r7, [sp], #4
 80132fa:	4770      	bx	lr

080132fc <HAL_UART_Receive_IT>:
  * @param  pData Pointer to data buffer (u8 or u16 data elements).
  * @param  Size  Amount of data elements (u8 or u16) to be received.
  * @retval HAL status
  */
HAL_StatusTypeDef HAL_UART_Receive_IT(UART_HandleTypeDef *huart, uint8_t *pData, uint16_t Size)
{
 80132fc:	b580      	push	{r7, lr}
 80132fe:	b084      	sub	sp, #16
 8013300:	af00      	add	r7, sp, #0
 8013302:	60f8      	str	r0, [r7, #12]
 8013304:	60b9      	str	r1, [r7, #8]
 8013306:	4613      	mov	r3, r2
 8013308:	80fb      	strh	r3, [r7, #6]
  /* Check that a Rx process is not already ongoing */
  if (huart->RxState == HAL_UART_STATE_READY)
 801330a:	68fb      	ldr	r3, [r7, #12]
 801330c:	f893 3042 	ldrb.w	r3, [r3, #66]	@ 0x42
 8013310:	b2db      	uxtb	r3, r3
 8013312:	2b20      	cmp	r3, #32
 8013314:	d112      	bne.n	801333c <HAL_UART_Receive_IT+0x40>
  {
    if ((pData == NULL) || (Size == 0U))
 8013316:	68bb      	ldr	r3, [r7, #8]
 8013318:	2b00      	cmp	r3, #0
 801331a:	d002      	beq.n	8013322 <HAL_UART_Receive_IT+0x26>
 801331c:	88fb      	ldrh	r3, [r7, #6]
 801331e:	2b00      	cmp	r3, #0
 8013320:	d101      	bne.n	8013326 <HAL_UART_Receive_IT+0x2a>
    {
      return HAL_ERROR;
 8013322:	2301      	movs	r3, #1
 8013324:	e00b      	b.n	801333e <HAL_UART_Receive_IT+0x42>
    }

    /* Set Reception type to Standard reception */
    huart->ReceptionType = HAL_UART_RECEPTION_STANDARD;
 8013326:	68fb      	ldr	r3, [r7, #12]
 8013328:	2200      	movs	r2, #0
 801332a:	631a      	str	r2, [r3, #48]	@ 0x30

    return (UART_Start_Receive_IT(huart, pData, Size));
 801332c:	88fb      	ldrh	r3, [r7, #6]
 801332e:	461a      	mov	r2, r3
 8013330:	68b9      	ldr	r1, [r7, #8]
 8013332:	68f8      	ldr	r0, [r7, #12]
 8013334:	f000 fcb6 	bl	8013ca4 <UART_Start_Receive_IT>
 8013338:	4603      	mov	r3, r0
 801333a:	e000      	b.n	801333e <HAL_UART_Receive_IT+0x42>
  }
  else
  {
    return HAL_BUSY;
 801333c:	2302      	movs	r3, #2
  }
}
 801333e:	4618      	mov	r0, r3
 8013340:	3710      	adds	r7, #16
 8013342:	46bd      	mov	sp, r7
 8013344:	bd80      	pop	{r7, pc}
	...

08013348 <HAL_UART_Abort_IT>:
  * @note   This procedure is executed in Interrupt mode, meaning that abort procedure could be
  *         considered as completed only when user abort complete callback is executed (not when exiting function).
  * @retval HAL status
  */
HAL_StatusTypeDef HAL_UART_Abort_IT(UART_HandleTypeDef *huart)
{
 8013348:	b580      	push	{r7, lr}
 801334a:	b0a2      	sub	sp, #136	@ 0x88
 801334c:	af00      	add	r7, sp, #0
 801334e:	6078      	str	r0, [r7, #4]
  uint32_t AbortCplt = 0x01U;
 8013350:	2301      	movs	r3, #1
 8013352:	f8c7 3084 	str.w	r3, [r7, #132]	@ 0x84

  /* Disable TXEIE, TCIE, RXNE, PE and ERR (Frame error, noise error, overrun error) interrupts */
  ATOMIC_CLEAR_BIT(huart->Instance->CR1, (USART_CR1_RXNEIE | USART_CR1_PEIE | USART_CR1_TXEIE | USART_CR1_TCIE));
 8013356:	687b      	ldr	r3, [r7, #4]
 8013358:	681b      	ldr	r3, [r3, #0]
 801335a:	330c      	adds	r3, #12
 801335c:	663b      	str	r3, [r7, #96]	@ 0x60
   __ASM volatile ("ldrex %0, %1" : "=r" (result) : "Q" (*addr) );
 801335e:	6e3b      	ldr	r3, [r7, #96]	@ 0x60
 8013360:	e853 3f00 	ldrex	r3, [r3]
 8013364:	65fb      	str	r3, [r7, #92]	@ 0x5c
   return(result);
 8013366:	6dfb      	ldr	r3, [r7, #92]	@ 0x5c
 8013368:	f423 73f0 	bic.w	r3, r3, #480	@ 0x1e0
 801336c:	f8c7 3080 	str.w	r3, [r7, #128]	@ 0x80
 8013370:	687b      	ldr	r3, [r7, #4]
 8013372:	681b      	ldr	r3, [r3, #0]
 8013374:	330c      	adds	r3, #12
 8013376:	f8d7 2080 	ldr.w	r2, [r7, #128]	@ 0x80
 801337a:	66fa      	str	r2, [r7, #108]	@ 0x6c
 801337c:	66bb      	str	r3, [r7, #104]	@ 0x68
   __ASM volatile ("strex %0, %2, %1" : "=&r" (result), "=Q" (*addr) : "r" (value) );
 801337e:	6eb9      	ldr	r1, [r7, #104]	@ 0x68
 8013380:	6efa      	ldr	r2, [r7, #108]	@ 0x6c
 8013382:	e841 2300 	strex	r3, r2, [r1]
 8013386:	667b      	str	r3, [r7, #100]	@ 0x64
   return(result);
 8013388:	6e7b      	ldr	r3, [r7, #100]	@ 0x64
 801338a:	2b00      	cmp	r3, #0
 801338c:	d1e3      	bne.n	8013356 <HAL_UART_Abort_IT+0xe>
  ATOMIC_CLEAR_BIT(huart->Instance->CR3, USART_CR3_EIE);
 801338e:	687b      	ldr	r3, [r7, #4]
 8013390:	681b      	ldr	r3, [r3, #0]
 8013392:	3314      	adds	r3, #20
 8013394:	64fb      	str	r3, [r7, #76]	@ 0x4c
   __ASM volatile ("ldrex %0, %1" : "=r" (result) : "Q" (*addr) );
 8013396:	6cfb      	ldr	r3, [r7, #76]	@ 0x4c
 8013398:	e853 3f00 	ldrex	r3, [r3]
 801339c:	64bb      	str	r3, [r7, #72]	@ 0x48
   return(result);
 801339e:	6cbb      	ldr	r3, [r7, #72]	@ 0x48
 80133a0:	f023 0301 	bic.w	r3, r3, #1
 80133a4:	67fb      	str	r3, [r7, #124]	@ 0x7c
 80133a6:	687b      	ldr	r3, [r7, #4]
 80133a8:	681b      	ldr	r3, [r3, #0]
 80133aa:	3314      	adds	r3, #20
 80133ac:	6ffa      	ldr	r2, [r7, #124]	@ 0x7c
 80133ae:	65ba      	str	r2, [r7, #88]	@ 0x58
 80133b0:	657b      	str	r3, [r7, #84]	@ 0x54
   __ASM volatile ("strex %0, %2, %1" : "=&r" (result), "=Q" (*addr) : "r" (value) );
 80133b2:	6d79      	ldr	r1, [r7, #84]	@ 0x54
 80133b4:	6dba      	ldr	r2, [r7, #88]	@ 0x58
 80133b6:	e841 2300 	strex	r3, r2, [r1]
 80133ba:	653b      	str	r3, [r7, #80]	@ 0x50
   return(result);
 80133bc:	6d3b      	ldr	r3, [r7, #80]	@ 0x50
 80133be:	2b00      	cmp	r3, #0
 80133c0:	d1e5      	bne.n	801338e <HAL_UART_Abort_IT+0x46>

  /* If Reception till IDLE event was ongoing, disable IDLEIE interrupt */
  if (huart->ReceptionType == HAL_UART_RECEPTION_TOIDLE)
 80133c2:	687b      	ldr	r3, [r7, #4]
 80133c4:	6b1b      	ldr	r3, [r3, #48]	@ 0x30
 80133c6:	2b01      	cmp	r3, #1
 80133c8:	d119      	bne.n	80133fe <HAL_UART_Abort_IT+0xb6>
  {
    ATOMIC_CLEAR_BIT(huart->Instance->CR1, (USART_CR1_IDLEIE));
 80133ca:	687b      	ldr	r3, [r7, #4]
 80133cc:	681b      	ldr	r3, [r3, #0]
 80133ce:	330c      	adds	r3, #12
 80133d0:	63bb      	str	r3, [r7, #56]	@ 0x38
   __ASM volatile ("ldrex %0, %1" : "=r" (result) : "Q" (*addr) );
 80133d2:	6bbb      	ldr	r3, [r7, #56]	@ 0x38
 80133d4:	e853 3f00 	ldrex	r3, [r3]
 80133d8:	637b      	str	r3, [r7, #52]	@ 0x34
   return(result);
 80133da:	6b7b      	ldr	r3, [r7, #52]	@ 0x34
 80133dc:	f023 0310 	bic.w	r3, r3, #16
 80133e0:	67bb      	str	r3, [r7, #120]	@ 0x78
 80133e2:	687b      	ldr	r3, [r7, #4]
 80133e4:	681b      	ldr	r3, [r3, #0]
 80133e6:	330c      	adds	r3, #12
 80133e8:	6fba      	ldr	r2, [r7, #120]	@ 0x78
 80133ea:	647a      	str	r2, [r7, #68]	@ 0x44
 80133ec:	643b      	str	r3, [r7, #64]	@ 0x40
   __ASM volatile ("strex %0, %2, %1" : "=&r" (result), "=Q" (*addr) : "r" (value) );
 80133ee:	6c39      	ldr	r1, [r7, #64]	@ 0x40
 80133f0:	6c7a      	ldr	r2, [r7, #68]	@ 0x44
 80133f2:	e841 2300 	strex	r3, r2, [r1]
 80133f6:	63fb      	str	r3, [r7, #60]	@ 0x3c
   return(result);
 80133f8:	6bfb      	ldr	r3, [r7, #60]	@ 0x3c
 80133fa:	2b00      	cmp	r3, #0
 80133fc:	d1e5      	bne.n	80133ca <HAL_UART_Abort_IT+0x82>
  }

  /* If DMA Tx and/or DMA Rx Handles are associated to UART Handle, DMA Abort complete callbacks should be initialised
     before any call to DMA Abort functions */
  /* DMA Tx Handle is valid */
  if (huart->hdmatx != NULL)
 80133fe:	687b      	ldr	r3, [r7, #4]
 8013400:	6b9b      	ldr	r3, [r3, #56]	@ 0x38
 8013402:	2b00      	cmp	r3, #0
 8013404:	d00f      	beq.n	8013426 <HAL_UART_Abort_IT+0xde>
  {
    /* Set DMA Abort Complete callback if UART DMA Tx request if enabled.
       Otherwise, set it to NULL */
    if (HAL_IS_BIT_SET(huart->Instance->CR3, USART_CR3_DMAT))
 8013406:	687b      	ldr	r3, [r7, #4]
 8013408:	681b      	ldr	r3, [r3, #0]
 801340a:	695b      	ldr	r3, [r3, #20]
 801340c:	f003 0380 	and.w	r3, r3, #128	@ 0x80
 8013410:	2b80      	cmp	r3, #128	@ 0x80
 8013412:	d104      	bne.n	801341e <HAL_UART_Abort_IT+0xd6>
    {
      huart->hdmatx->XferAbortCallback = UART_DMATxAbortCallback;
 8013414:	687b      	ldr	r3, [r7, #4]
 8013416:	6b9b      	ldr	r3, [r3, #56]	@ 0x38
 8013418:	4a53      	ldr	r2, [pc, #332]	@ (8013568 <HAL_UART_Abort_IT+0x220>)
 801341a:	651a      	str	r2, [r3, #80]	@ 0x50
 801341c:	e003      	b.n	8013426 <HAL_UART_Abort_IT+0xde>
    }
    else
    {
      huart->hdmatx->XferAbortCallback = NULL;
 801341e:	687b      	ldr	r3, [r7, #4]
 8013420:	6b9b      	ldr	r3, [r3, #56]	@ 0x38
 8013422:	2200      	movs	r2, #0
 8013424:	651a      	str	r2, [r3, #80]	@ 0x50
    }
  }
  /* DMA Rx Handle is valid */
  if (huart->hdmarx != NULL)
 8013426:	687b      	ldr	r3, [r7, #4]
 8013428:	6bdb      	ldr	r3, [r3, #60]	@ 0x3c
 801342a:	2b00      	cmp	r3, #0
 801342c:	d00f      	beq.n	801344e <HAL_UART_Abort_IT+0x106>
  {
    /* Set DMA Abort Complete callback if UART DMA Rx request if enabled.
       Otherwise, set it to NULL */
    if (HAL_IS_BIT_SET(huart->Instance->CR3, USART_CR3_DMAR))
 801342e:	687b      	ldr	r3, [r7, #4]
 8013430:	681b      	ldr	r3, [r3, #0]
 8013432:	695b      	ldr	r3, [r3, #20]
 8013434:	f003 0340 	and.w	r3, r3, #64	@ 0x40
 8013438:	2b40      	cmp	r3, #64	@ 0x40
 801343a:	d104      	bne.n	8013446 <HAL_UART_Abort_IT+0xfe>
    {
      huart->hdmarx->XferAbortCallback = UART_DMARxAbortCallback;
 801343c:	687b      	ldr	r3, [r7, #4]
 801343e:	6bdb      	ldr	r3, [r3, #60]	@ 0x3c
 8013440:	4a4a      	ldr	r2, [pc, #296]	@ (801356c <HAL_UART_Abort_IT+0x224>)
 8013442:	651a      	str	r2, [r3, #80]	@ 0x50
 8013444:	e003      	b.n	801344e <HAL_UART_Abort_IT+0x106>
    }
    else
    {
      huart->hdmarx->XferAbortCallback = NULL;
 8013446:	687b      	ldr	r3, [r7, #4]
 8013448:	6bdb      	ldr	r3, [r3, #60]	@ 0x3c
 801344a:	2200      	movs	r2, #0
 801344c:	651a      	str	r2, [r3, #80]	@ 0x50
    }
  }

  /* Disable the UART DMA Tx request if enabled */
  if (HAL_IS_BIT_SET(huart->Instance->CR3, USART_CR3_DMAT))
 801344e:	687b      	ldr	r3, [r7, #4]
 8013450:	681b      	ldr	r3, [r3, #0]
 8013452:	695b      	ldr	r3, [r3, #20]
 8013454:	f003 0380 	and.w	r3, r3, #128	@ 0x80
 8013458:	2b80      	cmp	r3, #128	@ 0x80
 801345a:	d12d      	bne.n	80134b8 <HAL_UART_Abort_IT+0x170>
  {
    /* Disable DMA Tx at UART level */
    ATOMIC_CLEAR_BIT(huart->Instance->CR3, USART_CR3_DMAT);
 801345c:	687b      	ldr	r3, [r7, #4]
 801345e:	681b      	ldr	r3, [r3, #0]
 8013460:	3314      	adds	r3, #20
 8013462:	627b      	str	r3, [r7, #36]	@ 0x24
   __ASM volatile ("ldrex %0, %1" : "=r" (result) : "Q" (*addr) );
 8013464:	6a7b      	ldr	r3, [r7, #36]	@ 0x24
 8013466:	e853 3f00 	ldrex	r3, [r3]
 801346a:	623b      	str	r3, [r7, #32]
   return(result);
 801346c:	6a3b      	ldr	r3, [r7, #32]
 801346e:	f023 0380 	bic.w	r3, r3, #128	@ 0x80
 8013472:	677b      	str	r3, [r7, #116]	@ 0x74
 8013474:	687b      	ldr	r3, [r7, #4]
 8013476:	681b      	ldr	r3, [r3, #0]
 8013478:	3314      	adds	r3, #20
 801347a:	6f7a      	ldr	r2, [r7, #116]	@ 0x74
 801347c:	633a      	str	r2, [r7, #48]	@ 0x30
 801347e:	62fb      	str	r3, [r7, #44]	@ 0x2c
   __ASM volatile ("strex %0, %2, %1" : "=&r" (result), "=Q" (*addr) : "r" (value) );
 8013480:	6af9      	ldr	r1, [r7, #44]	@ 0x2c
 8013482:	6b3a      	ldr	r2, [r7, #48]	@ 0x30
 8013484:	e841 2300 	strex	r3, r2, [r1]
 8013488:	62bb      	str	r3, [r7, #40]	@ 0x28
   return(result);
 801348a:	6abb      	ldr	r3, [r7, #40]	@ 0x28
 801348c:	2b00      	cmp	r3, #0
 801348e:	d1e5      	bne.n	801345c <HAL_UART_Abort_IT+0x114>

    /* Abort the UART DMA Tx stream : use non blocking DMA Abort API (callback) */
    if (huart->hdmatx != NULL)
 8013490:	687b      	ldr	r3, [r7, #4]
 8013492:	6b9b      	ldr	r3, [r3, #56]	@ 0x38
 8013494:	2b00      	cmp	r3, #0
 8013496:	d00f      	beq.n	80134b8 <HAL_UART_Abort_IT+0x170>
    {
      /* UART Tx DMA Abort callback has already been initialised :
         will lead to call HAL_UART_AbortCpltCallback() at end of DMA abort procedure */

      /* Abort DMA TX */
      if (HAL_DMA_Abort_IT(huart->hdmatx) != HAL_OK)
 8013498:	687b      	ldr	r3, [r7, #4]
 801349a:	6b9b      	ldr	r3, [r3, #56]	@ 0x38
 801349c:	4618      	mov	r0, r3
 801349e:	f7fd facf 	bl	8010a40 <HAL_DMA_Abort_IT>
 80134a2:	4603      	mov	r3, r0
 80134a4:	2b00      	cmp	r3, #0
 80134a6:	d004      	beq.n	80134b2 <HAL_UART_Abort_IT+0x16a>
      {
        huart->hdmatx->XferAbortCallback = NULL;
 80134a8:	687b      	ldr	r3, [r7, #4]
 80134aa:	6b9b      	ldr	r3, [r3, #56]	@ 0x38
 80134ac:	2200      	movs	r2, #0
 80134ae:	651a      	str	r2, [r3, #80]	@ 0x50
 80134b0:	e002      	b.n	80134b8 <HAL_UART_Abort_IT+0x170>
      }
      else
      {
        AbortCplt = 0x00U;
 80134b2:	2300      	movs	r3, #0
 80134b4:	f8c7 3084 	str.w	r3, [r7, #132]	@ 0x84
      }
    }
  }

  /* Disable the UART DMA Rx request if enabled */
  if (HAL_IS_BIT_SET(huart->Instance->CR3, USART_CR3_DMAR))
 80134b8:	687b      	ldr	r3, [r7, #4]
 80134ba:	681b      	ldr	r3, [r3, #0]
 80134bc:	695b      	ldr	r3, [r3, #20]
 80134be:	f003 0340 	and.w	r3, r3, #64	@ 0x40
 80134c2:	2b40      	cmp	r3, #64	@ 0x40
 80134c4:	d130      	bne.n	8013528 <HAL_UART_Abort_IT+0x1e0>
  {
    ATOMIC_CLEAR_BIT(huart->Instance->CR3, USART_CR3_DMAR);
 80134c6:	687b      	ldr	r3, [r7, #4]
 80134c8:	681b      	ldr	r3, [r3, #0]
 80134ca:	3314      	adds	r3, #20
 80134cc:	613b      	str	r3, [r7, #16]
   __ASM volatile ("ldrex %0, %1" : "=r" (result) : "Q" (*addr) );
 80134ce:	693b      	ldr	r3, [r7, #16]
 80134d0:	e853 3f00 	ldrex	r3, [r3]
 80134d4:	60fb      	str	r3, [r7, #12]
   return(result);
 80134d6:	68fb      	ldr	r3, [r7, #12]
 80134d8:	f023 0340 	bic.w	r3, r3, #64	@ 0x40
 80134dc:	673b      	str	r3, [r7, #112]	@ 0x70
 80134de:	687b      	ldr	r3, [r7, #4]
 80134e0:	681b      	ldr	r3, [r3, #0]
 80134e2:	3314      	adds	r3, #20
 80134e4:	6f3a      	ldr	r2, [r7, #112]	@ 0x70
 80134e6:	61fa      	str	r2, [r7, #28]
 80134e8:	61bb      	str	r3, [r7, #24]
   __ASM volatile ("strex %0, %2, %1" : "=&r" (result), "=Q" (*addr) : "r" (value) );
 80134ea:	69b9      	ldr	r1, [r7, #24]
 80134ec:	69fa      	ldr	r2, [r7, #28]
 80134ee:	e841 2300 	strex	r3, r2, [r1]
 80134f2:	617b      	str	r3, [r7, #20]
   return(result);
 80134f4:	697b      	ldr	r3, [r7, #20]
 80134f6:	2b00      	cmp	r3, #0
 80134f8:	d1e5      	bne.n	80134c6 <HAL_UART_Abort_IT+0x17e>

    /* Abort the UART DMA Rx stream : use non blocking DMA Abort API (callback) */
    if (huart->hdmarx != NULL)
 80134fa:	687b      	ldr	r3, [r7, #4]
 80134fc:	6bdb      	ldr	r3, [r3, #60]	@ 0x3c
 80134fe:	2b00      	cmp	r3, #0
 8013500:	d012      	beq.n	8013528 <HAL_UART_Abort_IT+0x1e0>
    {
      /* UART Rx DMA Abort callback has already been initialised :
         will lead to call HAL_UART_AbortCpltCallback() at end of DMA abort procedure */

      /* Abort DMA RX */
      if (HAL_DMA_Abort_IT(huart->hdmarx) != HAL_OK)
 8013502:	687b      	ldr	r3, [r7, #4]
 8013504:	6bdb      	ldr	r3, [r3, #60]	@ 0x3c
 8013506:	4618      	mov	r0, r3
 8013508:	f7fd fa9a 	bl	8010a40 <HAL_DMA_Abort_IT>
 801350c:	4603      	mov	r3, r0
 801350e:	2b00      	cmp	r3, #0
 8013510:	d007      	beq.n	8013522 <HAL_UART_Abort_IT+0x1da>
      {
        huart->hdmarx->XferAbortCallback = NULL;
 8013512:	687b      	ldr	r3, [r7, #4]
 8013514:	6bdb      	ldr	r3, [r3, #60]	@ 0x3c
 8013516:	2200      	movs	r2, #0
 8013518:	651a      	str	r2, [r3, #80]	@ 0x50
        AbortCplt = 0x01U;
 801351a:	2301      	movs	r3, #1
 801351c:	f8c7 3084 	str.w	r3, [r7, #132]	@ 0x84
 8013520:	e002      	b.n	8013528 <HAL_UART_Abort_IT+0x1e0>
      }
      else
      {
        AbortCplt = 0x00U;
 8013522:	2300      	movs	r3, #0
 8013524:	f8c7 3084 	str.w	r3, [r7, #132]	@ 0x84
      }
    }
  }

  /* if no DMA abort complete callback execution is required => call user Abort Complete callback */
  if (AbortCplt == 0x01U)
 8013528:	f8d7 3084 	ldr.w	r3, [r7, #132]	@ 0x84
 801352c:	2b01      	cmp	r3, #1
 801352e:	d116      	bne.n	801355e <HAL_UART_Abort_IT+0x216>
  {
    /* Reset Tx and Rx transfer counters */
    huart->TxXferCount = 0x00U;
 8013530:	687b      	ldr	r3, [r7, #4]
 8013532:	2200      	movs	r2, #0
 8013534:	84da      	strh	r2, [r3, #38]	@ 0x26
    huart->RxXferCount = 0x00U;
 8013536:	687b      	ldr	r3, [r7, #4]
 8013538:	2200      	movs	r2, #0
 801353a:	85da      	strh	r2, [r3, #46]	@ 0x2e

    /* Reset ErrorCode */
    huart->ErrorCode = HAL_UART_ERROR_NONE;
 801353c:	687b      	ldr	r3, [r7, #4]
 801353e:	2200      	movs	r2, #0
 8013540:	645a      	str	r2, [r3, #68]	@ 0x44

    /* Restore huart->gState and huart->RxState to Ready */
    huart->gState  = HAL_UART_STATE_READY;
 8013542:	687b      	ldr	r3, [r7, #4]
 8013544:	2220      	movs	r2, #32
 8013546:	f883 2041 	strb.w	r2, [r3, #65]	@ 0x41
    huart->RxState = HAL_UART_STATE_READY;
 801354a:	687b      	ldr	r3, [r7, #4]
 801354c:	2220      	movs	r2, #32
 801354e:	f883 2042 	strb.w	r2, [r3, #66]	@ 0x42
    huart->ReceptionType = HAL_UART_RECEPTION_STANDARD;
 8013552:	687b      	ldr	r3, [r7, #4]
 8013554:	2200      	movs	r2, #0
 8013556:	631a      	str	r2, [r3, #48]	@ 0x30
#if (USE_HAL_UART_REGISTER_CALLBACKS == 1)
    /* Call registered Abort complete callback */
    huart->AbortCpltCallback(huart);
#else
    /* Call legacy weak Abort complete callback */
    HAL_UART_AbortCpltCallback(huart);
 8013558:	6878      	ldr	r0, [r7, #4]
 801355a:	f000 fb83 	bl	8013c64 <HAL_UART_AbortCpltCallback>
#endif /* USE_HAL_UART_REGISTER_CALLBACKS */
  }

  return HAL_OK;
 801355e:	2300      	movs	r3, #0
}
 8013560:	4618      	mov	r0, r3
 8013562:	3788      	adds	r7, #136	@ 0x88
 8013564:	46bd      	mov	sp, r7
 8013566:	bd80      	pop	{r7, pc}
 8013568:	08013e01 	.word	0x08013e01
 801356c:	08013e61 	.word	0x08013e61

08013570 <HAL_UART_AbortReceive_IT>:
  * @note   This procedure is executed in Interrupt mode, meaning that abort procedure could be
  *         considered as completed only when user abort complete callback is executed (not when exiting function).
  * @retval HAL status
  */
HAL_StatusTypeDef HAL_UART_AbortReceive_IT(UART_HandleTypeDef *huart)
{
 8013570:	b580      	push	{r7, lr}
 8013572:	b09a      	sub	sp, #104	@ 0x68
 8013574:	af00      	add	r7, sp, #0
 8013576:	6078      	str	r0, [r7, #4]
  /* Disable RXNE, PE and ERR (Frame error, noise error, overrun error) interrupts */
  ATOMIC_CLEAR_BIT(huart->Instance->CR1, (USART_CR1_RXNEIE | USART_CR1_PEIE));
 8013578:	687b      	ldr	r3, [r7, #4]
 801357a:	681b      	ldr	r3, [r3, #0]
 801357c:	330c      	adds	r3, #12
 801357e:	64bb      	str	r3, [r7, #72]	@ 0x48
   __ASM volatile ("ldrex %0, %1" : "=r" (result) : "Q" (*addr) );
 8013580:	6cbb      	ldr	r3, [r7, #72]	@ 0x48
 8013582:	e853 3f00 	ldrex	r3, [r3]
 8013586:	647b      	str	r3, [r7, #68]	@ 0x44
   return(result);
 8013588:	6c7b      	ldr	r3, [r7, #68]	@ 0x44
 801358a:	f423 7390 	bic.w	r3, r3, #288	@ 0x120
 801358e:	667b      	str	r3, [r7, #100]	@ 0x64
 8013590:	687b      	ldr	r3, [r7, #4]
 8013592:	681b      	ldr	r3, [r3, #0]
 8013594:	330c      	adds	r3, #12
 8013596:	6e7a      	ldr	r2, [r7, #100]	@ 0x64
 8013598:	657a      	str	r2, [r7, #84]	@ 0x54
 801359a:	653b      	str	r3, [r7, #80]	@ 0x50
   __ASM volatile ("strex %0, %2, %1" : "=&r" (result), "=Q" (*addr) : "r" (value) );
 801359c:	6d39      	ldr	r1, [r7, #80]	@ 0x50
 801359e:	6d7a      	ldr	r2, [r7, #84]	@ 0x54
 80135a0:	e841 2300 	strex	r3, r2, [r1]
 80135a4:	64fb      	str	r3, [r7, #76]	@ 0x4c
   return(result);
 80135a6:	6cfb      	ldr	r3, [r7, #76]	@ 0x4c
 80135a8:	2b00      	cmp	r3, #0
 80135aa:	d1e5      	bne.n	8013578 <HAL_UART_AbortReceive_IT+0x8>
  ATOMIC_CLEAR_BIT(huart->Instance->CR3, USART_CR3_EIE);
 80135ac:	687b      	ldr	r3, [r7, #4]
 80135ae:	681b      	ldr	r3, [r3, #0]
 80135b0:	3314      	adds	r3, #20
 80135b2:	637b      	str	r3, [r7, #52]	@ 0x34
   __ASM volatile ("ldrex %0, %1" : "=r" (result) : "Q" (*addr) );
 80135b4:	6b7b      	ldr	r3, [r7, #52]	@ 0x34
 80135b6:	e853 3f00 	ldrex	r3, [r3]
 80135ba:	633b      	str	r3, [r7, #48]	@ 0x30
   return(result);
 80135bc:	6b3b      	ldr	r3, [r7, #48]	@ 0x30
 80135be:	f023 0301 	bic.w	r3, r3, #1
 80135c2:	663b      	str	r3, [r7, #96]	@ 0x60
 80135c4:	687b      	ldr	r3, [r7, #4]
 80135c6:	681b      	ldr	r3, [r3, #0]
 80135c8:	3314      	adds	r3, #20
 80135ca:	6e3a      	ldr	r2, [r7, #96]	@ 0x60
 80135cc:	643a      	str	r2, [r7, #64]	@ 0x40
 80135ce:	63fb      	str	r3, [r7, #60]	@ 0x3c
   __ASM volatile ("strex %0, %2, %1" : "=&r" (result), "=Q" (*addr) : "r" (value) );
 80135d0:	6bf9      	ldr	r1, [r7, #60]	@ 0x3c
 80135d2:	6c3a      	ldr	r2, [r7, #64]	@ 0x40
 80135d4:	e841 2300 	strex	r3, r2, [r1]
 80135d8:	63bb      	str	r3, [r7, #56]	@ 0x38
   return(result);
 80135da:	6bbb      	ldr	r3, [r7, #56]	@ 0x38
 80135dc:	2b00      	cmp	r3, #0
 80135de:	d1e5      	bne.n	80135ac <HAL_UART_AbortReceive_IT+0x3c>

  /* If Reception till IDLE event was ongoing, disable IDLEIE interrupt */
  if (huart->ReceptionType == HAL_UART_RECEPTION_TOIDLE)
 80135e0:	687b      	ldr	r3, [r7, #4]
 80135e2:	6b1b      	ldr	r3, [r3, #48]	@ 0x30
 80135e4:	2b01      	cmp	r3, #1
 80135e6:	d119      	bne.n	801361c <HAL_UART_AbortReceive_IT+0xac>
  {
    ATOMIC_CLEAR_BIT(huart->Instance->CR1, (USART_CR1_IDLEIE));
 80135e8:	687b      	ldr	r3, [r7, #4]
 80135ea:	681b      	ldr	r3, [r3, #0]
 80135ec:	330c      	adds	r3, #12
 80135ee:	623b      	str	r3, [r7, #32]
   __ASM volatile ("ldrex %0, %1" : "=r" (result) : "Q" (*addr) );
 80135f0:	6a3b      	ldr	r3, [r7, #32]
 80135f2:	e853 3f00 	ldrex	r3, [r3]
 80135f6:	61fb      	str	r3, [r7, #28]
   return(result);
 80135f8:	69fb      	ldr	r3, [r7, #28]
 80135fa:	f023 0310 	bic.w	r3, r3, #16
 80135fe:	65fb      	str	r3, [r7, #92]	@ 0x5c
 8013600:	687b      	ldr	r3, [r7, #4]
 8013602:	681b      	ldr	r3, [r3, #0]
 8013604:	330c      	adds	r3, #12
 8013606:	6dfa      	ldr	r2, [r7, #92]	@ 0x5c
 8013608:	62fa      	str	r2, [r7, #44]	@ 0x2c
 801360a:	62bb      	str	r3, [r7, #40]	@ 0x28
   __ASM volatile ("strex %0, %2, %1" : "=&r" (result), "=Q" (*addr) : "r" (value) );
 801360c:	6ab9      	ldr	r1, [r7, #40]	@ 0x28
 801360e:	6afa      	ldr	r2, [r7, #44]	@ 0x2c
 8013610:	e841 2300 	strex	r3, r2, [r1]
 8013614:	627b      	str	r3, [r7, #36]	@ 0x24
   return(result);
 8013616:	6a7b      	ldr	r3, [r7, #36]	@ 0x24
 8013618:	2b00      	cmp	r3, #0
 801361a:	d1e5      	bne.n	80135e8 <HAL_UART_AbortReceive_IT+0x78>
  }

  /* Disable the UART DMA Rx request if enabled */
  if (HAL_IS_BIT_SET(huart->Instance->CR3, USART_CR3_DMAR))
 801361c:	687b      	ldr	r3, [r7, #4]
 801361e:	681b      	ldr	r3, [r3, #0]
 8013620:	695b      	ldr	r3, [r3, #20]
 8013622:	f003 0340 	and.w	r3, r3, #64	@ 0x40
 8013626:	2b40      	cmp	r3, #64	@ 0x40
 8013628:	d13f      	bne.n	80136aa <HAL_UART_AbortReceive_IT+0x13a>
  {
    ATOMIC_CLEAR_BIT(huart->Instance->CR3, USART_CR3_DMAR);
 801362a:	687b      	ldr	r3, [r7, #4]
 801362c:	681b      	ldr	r3, [r3, #0]
 801362e:	3314      	adds	r3, #20
 8013630:	60fb      	str	r3, [r7, #12]
   __ASM volatile ("ldrex %0, %1" : "=r" (result) : "Q" (*addr) );
 8013632:	68fb      	ldr	r3, [r7, #12]
 8013634:	e853 3f00 	ldrex	r3, [r3]
 8013638:	60bb      	str	r3, [r7, #8]
   return(result);
 801363a:	68bb      	ldr	r3, [r7, #8]
 801363c:	f023 0340 	bic.w	r3, r3, #64	@ 0x40
 8013640:	65bb      	str	r3, [r7, #88]	@ 0x58
 8013642:	687b      	ldr	r3, [r7, #4]
 8013644:	681b      	ldr	r3, [r3, #0]
 8013646:	3314      	adds	r3, #20
 8013648:	6dba      	ldr	r2, [r7, #88]	@ 0x58
 801364a:	61ba      	str	r2, [r7, #24]
 801364c:	617b      	str	r3, [r7, #20]
   __ASM volatile ("strex %0, %2, %1" : "=&r" (result), "=Q" (*addr) : "r" (value) );
 801364e:	6979      	ldr	r1, [r7, #20]
 8013650:	69ba      	ldr	r2, [r7, #24]
 8013652:	e841 2300 	strex	r3, r2, [r1]
 8013656:	613b      	str	r3, [r7, #16]
   return(result);
 8013658:	693b      	ldr	r3, [r7, #16]
 801365a:	2b00      	cmp	r3, #0
 801365c:	d1e5      	bne.n	801362a <HAL_UART_AbortReceive_IT+0xba>

    /* Abort the UART DMA Rx stream : use blocking DMA Abort API (no callback) */
    if (huart->hdmarx != NULL)
 801365e:	687b      	ldr	r3, [r7, #4]
 8013660:	6bdb      	ldr	r3, [r3, #60]	@ 0x3c
 8013662:	2b00      	cmp	r3, #0
 8013664:	d013      	beq.n	801368e <HAL_UART_AbortReceive_IT+0x11e>
    {
      /* Set the UART DMA Abort callback :
         will lead to call HAL_UART_AbortCpltCallback() at end of DMA abort procedure */
      huart->hdmarx->XferAbortCallback = UART_DMARxOnlyAbortCallback;
 8013666:	687b      	ldr	r3, [r7, #4]
 8013668:	6bdb      	ldr	r3, [r3, #60]	@ 0x3c
 801366a:	4a19      	ldr	r2, [pc, #100]	@ (80136d0 <HAL_UART_AbortReceive_IT+0x160>)
 801366c:	651a      	str	r2, [r3, #80]	@ 0x50

      /* Abort DMA RX */
      if (HAL_DMA_Abort_IT(huart->hdmarx) != HAL_OK)
 801366e:	687b      	ldr	r3, [r7, #4]
 8013670:	6bdb      	ldr	r3, [r3, #60]	@ 0x3c
 8013672:	4618      	mov	r0, r3
 8013674:	f7fd f9e4 	bl	8010a40 <HAL_DMA_Abort_IT>
 8013678:	4603      	mov	r3, r0
 801367a:	2b00      	cmp	r3, #0
 801367c:	d022      	beq.n	80136c4 <HAL_UART_AbortReceive_IT+0x154>
      {
        /* Call Directly huart->hdmarx->XferAbortCallback function in case of error */
        huart->hdmarx->XferAbortCallback(huart->hdmarx);
 801367e:	687b      	ldr	r3, [r7, #4]
 8013680:	6bdb      	ldr	r3, [r3, #60]	@ 0x3c
 8013682:	6d1b      	ldr	r3, [r3, #80]	@ 0x50
 8013684:	687a      	ldr	r2, [r7, #4]
 8013686:	6bd2      	ldr	r2, [r2, #60]	@ 0x3c
 8013688:	4610      	mov	r0, r2
 801368a:	4798      	blx	r3
 801368c:	e01a      	b.n	80136c4 <HAL_UART_AbortReceive_IT+0x154>
      }
    }
    else
    {
      /* Reset Rx transfer counter */
      huart->RxXferCount = 0x00U;
 801368e:	687b      	ldr	r3, [r7, #4]
 8013690:	2200      	movs	r2, #0
 8013692:	85da      	strh	r2, [r3, #46]	@ 0x2e

      /* Restore huart->RxState to Ready */
      huart->RxState = HAL_UART_STATE_READY;
 8013694:	687b      	ldr	r3, [r7, #4]
 8013696:	2220      	movs	r2, #32
 8013698:	f883 2042 	strb.w	r2, [r3, #66]	@ 0x42
      huart->ReceptionType = HAL_UART_RECEPTION_STANDARD;
 801369c:	687b      	ldr	r3, [r7, #4]
 801369e:	2200      	movs	r2, #0
 80136a0:	631a      	str	r2, [r3, #48]	@ 0x30
#if (USE_HAL_UART_REGISTER_CALLBACKS == 1)
      /* Call registered Abort Receive Complete Callback */
      huart->AbortReceiveCpltCallback(huart);
#else
      /* Call legacy weak Abort Receive Complete Callback */
      HAL_UART_AbortReceiveCpltCallback(huart);
 80136a2:	6878      	ldr	r0, [r7, #4]
 80136a4:	f000 fae8 	bl	8013c78 <HAL_UART_AbortReceiveCpltCallback>
 80136a8:	e00c      	b.n	80136c4 <HAL_UART_AbortReceive_IT+0x154>
    }
  }
  else
  {
    /* Reset Rx transfer counter */
    huart->RxXferCount = 0x00U;
 80136aa:	687b      	ldr	r3, [r7, #4]
 80136ac:	2200      	movs	r2, #0
 80136ae:	85da      	strh	r2, [r3, #46]	@ 0x2e

    /* Restore huart->RxState to Ready */
    huart->RxState = HAL_UART_STATE_READY;
 80136b0:	687b      	ldr	r3, [r7, #4]
 80136b2:	2220      	movs	r2, #32
 80136b4:	f883 2042 	strb.w	r2, [r3, #66]	@ 0x42
    huart->ReceptionType = HAL_UART_RECEPTION_STANDARD;
 80136b8:	687b      	ldr	r3, [r7, #4]
 80136ba:	2200      	movs	r2, #0
 80136bc:	631a      	str	r2, [r3, #48]	@ 0x30
#if (USE_HAL_UART_REGISTER_CALLBACKS == 1)
    /* Call registered Abort Receive Complete Callback */
    huart->AbortReceiveCpltCallback(huart);
#else
    /* Call legacy weak Abort Receive Complete Callback */
    HAL_UART_AbortReceiveCpltCallback(huart);
 80136be:	6878      	ldr	r0, [r7, #4]
 80136c0:	f000 fada 	bl	8013c78 <HAL_UART_AbortReceiveCpltCallback>
#endif /* USE_HAL_UART_REGISTER_CALLBACKS */
  }

  return HAL_OK;
 80136c4:	2300      	movs	r3, #0
}
 80136c6:	4618      	mov	r0, r3
 80136c8:	3768      	adds	r7, #104	@ 0x68
 80136ca:	46bd      	mov	sp, r7
 80136cc:	bd80      	pop	{r7, pc}
 80136ce:	bf00      	nop
 80136d0:	08013ec1 	.word	0x08013ec1

080136d4 <HAL_UART_IRQHandler>:
  * @param  huart  Pointer to a UART_HandleTypeDef structure that contains
  *                the configuration information for the specified UART module.
  * @retval None
  */
void HAL_UART_IRQHandler(UART_HandleTypeDef *huart)
{
 80136d4:	b580      	push	{r7, lr}
 80136d6:	b0ba      	sub	sp, #232	@ 0xe8
 80136d8:	af00      	add	r7, sp, #0
 80136da:	6078      	str	r0, [r7, #4]
  uint32_t isrflags   = READ_REG(huart->Instance->SR);
 80136dc:	687b      	ldr	r3, [r7, #4]
 80136de:	681b      	ldr	r3, [r3, #0]
 80136e0:	681b      	ldr	r3, [r3, #0]
 80136e2:	f8c7 30e4 	str.w	r3, [r7, #228]	@ 0xe4
  uint32_t cr1its     = READ_REG(huart->Instance->CR1);
 80136e6:	687b      	ldr	r3, [r7, #4]
 80136e8:	681b      	ldr	r3, [r3, #0]
 80136ea:	68db      	ldr	r3, [r3, #12]
 80136ec:	f8c7 30e0 	str.w	r3, [r7, #224]	@ 0xe0
  uint32_t cr3its     = READ_REG(huart->Instance->CR3);
 80136f0:	687b      	ldr	r3, [r7, #4]
 80136f2:	681b      	ldr	r3, [r3, #0]
 80136f4:	695b      	ldr	r3, [r3, #20]
 80136f6:	f8c7 30dc 	str.w	r3, [r7, #220]	@ 0xdc
  uint32_t errorflags = 0x00U;
 80136fa:	2300      	movs	r3, #0
 80136fc:	f8c7 30d8 	str.w	r3, [r7, #216]	@ 0xd8
  uint32_t dmarequest = 0x00U;
 8013700:	2300      	movs	r3, #0
 8013702:	f8c7 30d4 	str.w	r3, [r7, #212]	@ 0xd4

  /* If no error occurs */
  errorflags = (isrflags & (uint32_t)(USART_SR_PE | USART_SR_FE | USART_SR_ORE | USART_SR_NE));
 8013706:	f8d7 30e4 	ldr.w	r3, [r7, #228]	@ 0xe4
 801370a:	f003 030f 	and.w	r3, r3, #15
 801370e:	f8c7 30d8 	str.w	r3, [r7, #216]	@ 0xd8
  if (errorflags == RESET)
 8013712:	f8d7 30d8 	ldr.w	r3, [r7, #216]	@ 0xd8
 8013716:	2b00      	cmp	r3, #0
 8013718:	d10f      	bne.n	801373a <HAL_UART_IRQHandler+0x66>
  {
    /* UART in mode Receiver -------------------------------------------------*/
    if (((isrflags & USART_SR_RXNE) != RESET) && ((cr1its & USART_CR1_RXNEIE) != RESET))
 801371a:	f8d7 30e4 	ldr.w	r3, [r7, #228]	@ 0xe4
 801371e:	f003 0320 	and.w	r3, r3, #32
 8013722:	2b00      	cmp	r3, #0
 8013724:	d009      	beq.n	801373a <HAL_UART_IRQHandler+0x66>
 8013726:	f8d7 30e0 	ldr.w	r3, [r7, #224]	@ 0xe0
 801372a:	f003 0320 	and.w	r3, r3, #32
 801372e:	2b00      	cmp	r3, #0
 8013730:	d003      	beq.n	801373a <HAL_UART_IRQHandler+0x66>
    {
      UART_Receive_IT(huart);
 8013732:	6878      	ldr	r0, [r7, #4]
 8013734:	f000 fc44 	bl	8013fc0 <UART_Receive_IT>
      return;
 8013738:	e273      	b.n	8013c22 <HAL_UART_IRQHandler+0x54e>
    }
  }

  /* If some errors occur */
  if ((errorflags != RESET) && (((cr3its & USART_CR3_EIE) != RESET)
 801373a:	f8d7 30d8 	ldr.w	r3, [r7, #216]	@ 0xd8
 801373e:	2b00      	cmp	r3, #0
 8013740:	f000 80de 	beq.w	8013900 <HAL_UART_IRQHandler+0x22c>
 8013744:	f8d7 30dc 	ldr.w	r3, [r7, #220]	@ 0xdc
 8013748:	f003 0301 	and.w	r3, r3, #1
 801374c:	2b00      	cmp	r3, #0
 801374e:	d106      	bne.n	801375e <HAL_UART_IRQHandler+0x8a>
                                || ((cr1its & (USART_CR1_RXNEIE | USART_CR1_PEIE)) != RESET)))
 8013750:	f8d7 30e0 	ldr.w	r3, [r7, #224]	@ 0xe0
 8013754:	f403 7390 	and.w	r3, r3, #288	@ 0x120
 8013758:	2b00      	cmp	r3, #0
 801375a:	f000 80d1 	beq.w	8013900 <HAL_UART_IRQHandler+0x22c>
  {
    /* UART parity error interrupt occurred ----------------------------------*/
    if (((isrflags & USART_SR_PE) != RESET) && ((cr1its & USART_CR1_PEIE) != RESET))
 801375e:	f8d7 30e4 	ldr.w	r3, [r7, #228]	@ 0xe4
 8013762:	f003 0301 	and.w	r3, r3, #1
 8013766:	2b00      	cmp	r3, #0
 8013768:	d00b      	beq.n	8013782 <HAL_UART_IRQHandler+0xae>
 801376a:	f8d7 30e0 	ldr.w	r3, [r7, #224]	@ 0xe0
 801376e:	f403 7380 	and.w	r3, r3, #256	@ 0x100
 8013772:	2b00      	cmp	r3, #0
 8013774:	d005      	beq.n	8013782 <HAL_UART_IRQHandler+0xae>
    {
      huart->ErrorCode |= HAL_UART_ERROR_PE;
 8013776:	687b      	ldr	r3, [r7, #4]
 8013778:	6c5b      	ldr	r3, [r3, #68]	@ 0x44
 801377a:	f043 0201 	orr.w	r2, r3, #1
 801377e:	687b      	ldr	r3, [r7, #4]
 8013780:	645a      	str	r2, [r3, #68]	@ 0x44
    }

    /* UART noise error interrupt occurred -----------------------------------*/
    if (((isrflags & USART_SR_NE) != RESET) && ((cr3its & USART_CR3_EIE) != RESET))
 8013782:	f8d7 30e4 	ldr.w	r3, [r7, #228]	@ 0xe4
 8013786:	f003 0304 	and.w	r3, r3, #4
 801378a:	2b00      	cmp	r3, #0
 801378c:	d00b      	beq.n	80137a6 <HAL_UART_IRQHandler+0xd2>
 801378e:	f8d7 30dc 	ldr.w	r3, [r7, #220]	@ 0xdc
 8013792:	f003 0301 	and.w	r3, r3, #1
 8013796:	2b00      	cmp	r3, #0
 8013798:	d005      	beq.n	80137a6 <HAL_UART_IRQHandler+0xd2>
    {
      huart->ErrorCode |= HAL_UART_ERROR_NE;
 801379a:	687b      	ldr	r3, [r7, #4]
 801379c:	6c5b      	ldr	r3, [r3, #68]	@ 0x44
 801379e:	f043 0202 	orr.w	r2, r3, #2
 80137a2:	687b      	ldr	r3, [r7, #4]
 80137a4:	645a      	str	r2, [r3, #68]	@ 0x44
    }

    /* UART frame error interrupt occurred -----------------------------------*/
    if (((isrflags & USART_SR_FE) != RESET) && ((cr3its & USART_CR3_EIE) != RESET))
 80137a6:	f8d7 30e4 	ldr.w	r3, [r7, #228]	@ 0xe4
 80137aa:	f003 0302 	and.w	r3, r3, #2
 80137ae:	2b00      	cmp	r3, #0
 80137b0:	d00b      	beq.n	80137ca <HAL_UART_IRQHandler+0xf6>
 80137b2:	f8d7 30dc 	ldr.w	r3, [r7, #220]	@ 0xdc
 80137b6:	f003 0301 	and.w	r3, r3, #1
 80137ba:	2b00      	cmp	r3, #0
 80137bc:	d005      	beq.n	80137ca <HAL_UART_IRQHandler+0xf6>
    {
      huart->ErrorCode |= HAL_UART_ERROR_FE;
 80137be:	687b      	ldr	r3, [r7, #4]
 80137c0:	6c5b      	ldr	r3, [r3, #68]	@ 0x44
 80137c2:	f043 0204 	orr.w	r2, r3, #4
 80137c6:	687b      	ldr	r3, [r7, #4]
 80137c8:	645a      	str	r2, [r3, #68]	@ 0x44
    }

    /* UART Over-Run interrupt occurred --------------------------------------*/
    if (((isrflags & USART_SR_ORE) != RESET) && (((cr1its & USART_CR1_RXNEIE) != RESET)
 80137ca:	f8d7 30e4 	ldr.w	r3, [r7, #228]	@ 0xe4
 80137ce:	f003 0308 	and.w	r3, r3, #8
 80137d2:	2b00      	cmp	r3, #0
 80137d4:	d011      	beq.n	80137fa <HAL_UART_IRQHandler+0x126>
 80137d6:	f8d7 30e0 	ldr.w	r3, [r7, #224]	@ 0xe0
 80137da:	f003 0320 	and.w	r3, r3, #32
 80137de:	2b00      	cmp	r3, #0
 80137e0:	d105      	bne.n	80137ee <HAL_UART_IRQHandler+0x11a>
                                                 || ((cr3its & USART_CR3_EIE) != RESET)))
 80137e2:	f8d7 30dc 	ldr.w	r3, [r7, #220]	@ 0xdc
 80137e6:	f003 0301 	and.w	r3, r3, #1
 80137ea:	2b00      	cmp	r3, #0
 80137ec:	d005      	beq.n	80137fa <HAL_UART_IRQHandler+0x126>
    {
      huart->ErrorCode |= HAL_UART_ERROR_ORE;
 80137ee:	687b      	ldr	r3, [r7, #4]
 80137f0:	6c5b      	ldr	r3, [r3, #68]	@ 0x44
 80137f2:	f043 0208 	orr.w	r2, r3, #8
 80137f6:	687b      	ldr	r3, [r7, #4]
 80137f8:	645a      	str	r2, [r3, #68]	@ 0x44
    }

    /* Call UART Error Call back function if need be --------------------------*/
    if (huart->ErrorCode != HAL_UART_ERROR_NONE)
 80137fa:	687b      	ldr	r3, [r7, #4]
 80137fc:	6c5b      	ldr	r3, [r3, #68]	@ 0x44
 80137fe:	2b00      	cmp	r3, #0
 8013800:	f000 820a 	beq.w	8013c18 <HAL_UART_IRQHandler+0x544>
    {
      /* UART in mode Receiver -----------------------------------------------*/
      if (((isrflags & USART_SR_RXNE) != RESET) && ((cr1its & USART_CR1_RXNEIE) != RESET))
 8013804:	f8d7 30e4 	ldr.w	r3, [r7, #228]	@ 0xe4
 8013808:	f003 0320 	and.w	r3, r3, #32
 801380c:	2b00      	cmp	r3, #0
 801380e:	d008      	beq.n	8013822 <HAL_UART_IRQHandler+0x14e>
 8013810:	f8d7 30e0 	ldr.w	r3, [r7, #224]	@ 0xe0
 8013814:	f003 0320 	and.w	r3, r3, #32
 8013818:	2b00      	cmp	r3, #0
 801381a:	d002      	beq.n	8013822 <HAL_UART_IRQHandler+0x14e>
      {
        UART_Receive_IT(huart);
 801381c:	6878      	ldr	r0, [r7, #4]
 801381e:	f000 fbcf 	bl	8013fc0 <UART_Receive_IT>
      }

      /* If Overrun error occurs, or if any error occurs in DMA mode reception,
         consider error as blocking */
      dmarequest = HAL_IS_BIT_SET(huart->Instance->CR3, USART_CR3_DMAR);
 8013822:	687b      	ldr	r3, [r7, #4]
 8013824:	681b      	ldr	r3, [r3, #0]
 8013826:	695b      	ldr	r3, [r3, #20]
 8013828:	f003 0340 	and.w	r3, r3, #64	@ 0x40
 801382c:	2b40      	cmp	r3, #64	@ 0x40
 801382e:	bf0c      	ite	eq
 8013830:	2301      	moveq	r3, #1
 8013832:	2300      	movne	r3, #0
 8013834:	b2db      	uxtb	r3, r3
 8013836:	f8c7 30d4 	str.w	r3, [r7, #212]	@ 0xd4
      if (((huart->ErrorCode & HAL_UART_ERROR_ORE) != RESET) || dmarequest)
 801383a:	687b      	ldr	r3, [r7, #4]
 801383c:	6c5b      	ldr	r3, [r3, #68]	@ 0x44
 801383e:	f003 0308 	and.w	r3, r3, #8
 8013842:	2b00      	cmp	r3, #0
 8013844:	d103      	bne.n	801384e <HAL_UART_IRQHandler+0x17a>
 8013846:	f8d7 30d4 	ldr.w	r3, [r7, #212]	@ 0xd4
 801384a:	2b00      	cmp	r3, #0
 801384c:	d04f      	beq.n	80138ee <HAL_UART_IRQHandler+0x21a>
      {
        /* Blocking error : transfer is aborted
           Set the UART state ready to be able to start again the process,
           Disable Rx Interrupts, and disable Rx DMA request, if ongoing */
        UART_EndRxTransfer(huart);
 801384e:	6878      	ldr	r0, [r7, #4]
 8013850:	f000 fa62 	bl	8013d18 <UART_EndRxTransfer>

        /* Disable the UART DMA Rx request if enabled */
        if (HAL_IS_BIT_SET(huart->Instance->CR3, USART_CR3_DMAR))
 8013854:	687b      	ldr	r3, [r7, #4]
 8013856:	681b      	ldr	r3, [r3, #0]
 8013858:	695b      	ldr	r3, [r3, #20]
 801385a:	f003 0340 	and.w	r3, r3, #64	@ 0x40
 801385e:	2b40      	cmp	r3, #64	@ 0x40
 8013860:	d141      	bne.n	80138e6 <HAL_UART_IRQHandler+0x212>
        {
          ATOMIC_CLEAR_BIT(huart->Instance->CR3, USART_CR3_DMAR);
 8013862:	687b      	ldr	r3, [r7, #4]
 8013864:	681b      	ldr	r3, [r3, #0]
 8013866:	3314      	adds	r3, #20
 8013868:	f8c7 309c 	str.w	r3, [r7, #156]	@ 0x9c
   __ASM volatile ("ldrex %0, %1" : "=r" (result) : "Q" (*addr) );
 801386c:	f8d7 309c 	ldr.w	r3, [r7, #156]	@ 0x9c
 8013870:	e853 3f00 	ldrex	r3, [r3]
 8013874:	f8c7 3098 	str.w	r3, [r7, #152]	@ 0x98
   return(result);
 8013878:	f8d7 3098 	ldr.w	r3, [r7, #152]	@ 0x98
 801387c:	f023 0340 	bic.w	r3, r3, #64	@ 0x40
 8013880:	f8c7 30d0 	str.w	r3, [r7, #208]	@ 0xd0
 8013884:	687b      	ldr	r3, [r7, #4]
 8013886:	681b      	ldr	r3, [r3, #0]
 8013888:	3314      	adds	r3, #20
 801388a:	f8d7 20d0 	ldr.w	r2, [r7, #208]	@ 0xd0
 801388e:	f8c7 20a8 	str.w	r2, [r7, #168]	@ 0xa8
 8013892:	f8c7 30a4 	str.w	r3, [r7, #164]	@ 0xa4
   __ASM volatile ("strex %0, %2, %1" : "=&r" (result), "=Q" (*addr) : "r" (value) );
 8013896:	f8d7 10a4 	ldr.w	r1, [r7, #164]	@ 0xa4
 801389a:	f8d7 20a8 	ldr.w	r2, [r7, #168]	@ 0xa8
 801389e:	e841 2300 	strex	r3, r2, [r1]
 80138a2:	f8c7 30a0 	str.w	r3, [r7, #160]	@ 0xa0
   return(result);
 80138a6:	f8d7 30a0 	ldr.w	r3, [r7, #160]	@ 0xa0
 80138aa:	2b00      	cmp	r3, #0
 80138ac:	d1d9      	bne.n	8013862 <HAL_UART_IRQHandler+0x18e>

          /* Abort the UART DMA Rx stream */
          if (huart->hdmarx != NULL)
 80138ae:	687b      	ldr	r3, [r7, #4]
 80138b0:	6bdb      	ldr	r3, [r3, #60]	@ 0x3c
 80138b2:	2b00      	cmp	r3, #0
 80138b4:	d013      	beq.n	80138de <HAL_UART_IRQHandler+0x20a>
          {
            /* Set the UART DMA Abort callback :
               will lead to call HAL_UART_ErrorCallback() at end of DMA abort procedure */
            huart->hdmarx->XferAbortCallback = UART_DMAAbortOnError;
 80138b6:	687b      	ldr	r3, [r7, #4]
 80138b8:	6bdb      	ldr	r3, [r3, #60]	@ 0x3c
 80138ba:	4a8a      	ldr	r2, [pc, #552]	@ (8013ae4 <HAL_UART_IRQHandler+0x410>)
 80138bc:	651a      	str	r2, [r3, #80]	@ 0x50
            if (HAL_DMA_Abort_IT(huart->hdmarx) != HAL_OK)
 80138be:	687b      	ldr	r3, [r7, #4]
 80138c0:	6bdb      	ldr	r3, [r3, #60]	@ 0x3c
 80138c2:	4618      	mov	r0, r3
 80138c4:	f7fd f8bc 	bl	8010a40 <HAL_DMA_Abort_IT>
 80138c8:	4603      	mov	r3, r0
 80138ca:	2b00      	cmp	r3, #0
 80138cc:	d016      	beq.n	80138fc <HAL_UART_IRQHandler+0x228>
            {
              /* Call Directly XferAbortCallback function in case of error */
              huart->hdmarx->XferAbortCallback(huart->hdmarx);
 80138ce:	687b      	ldr	r3, [r7, #4]
 80138d0:	6bdb      	ldr	r3, [r3, #60]	@ 0x3c
 80138d2:	6d1b      	ldr	r3, [r3, #80]	@ 0x50
 80138d4:	687a      	ldr	r2, [r7, #4]
 80138d6:	6bd2      	ldr	r2, [r2, #60]	@ 0x3c
 80138d8:	4610      	mov	r0, r2
 80138da:	4798      	blx	r3
        if (HAL_IS_BIT_SET(huart->Instance->CR3, USART_CR3_DMAR))
 80138dc:	e00e      	b.n	80138fc <HAL_UART_IRQHandler+0x228>
#if (USE_HAL_UART_REGISTER_CALLBACKS == 1)
            /*Call registered error callback*/
            huart->ErrorCallback(huart);
#else
            /*Call legacy weak error callback*/
            HAL_UART_ErrorCallback(huart);
 80138de:	6878      	ldr	r0, [r7, #4]
 80138e0:	f000 f9b6 	bl	8013c50 <HAL_UART_ErrorCallback>
        if (HAL_IS_BIT_SET(huart->Instance->CR3, USART_CR3_DMAR))
 80138e4:	e00a      	b.n	80138fc <HAL_UART_IRQHandler+0x228>
#if (USE_HAL_UART_REGISTER_CALLBACKS == 1)
          /*Call registered error callback*/
          huart->ErrorCallback(huart);
#else
          /*Call legacy weak error callback*/
          HAL_UART_ErrorCallback(huart);
 80138e6:	6878      	ldr	r0, [r7, #4]
 80138e8:	f000 f9b2 	bl	8013c50 <HAL_UART_ErrorCallback>
        if (HAL_IS_BIT_SET(huart->Instance->CR3, USART_CR3_DMAR))
 80138ec:	e006      	b.n	80138fc <HAL_UART_IRQHandler+0x228>
#if (USE_HAL_UART_REGISTER_CALLBACKS == 1)
        /*Call registered error callback*/
        huart->ErrorCallback(huart);
#else
        /*Call legacy weak error callback*/
        HAL_UART_ErrorCallback(huart);
 80138ee:	6878      	ldr	r0, [r7, #4]
 80138f0:	f000 f9ae 	bl	8013c50 <HAL_UART_ErrorCallback>
#endif /* USE_HAL_UART_REGISTER_CALLBACKS */

        huart->ErrorCode = HAL_UART_ERROR_NONE;
 80138f4:	687b      	ldr	r3, [r7, #4]
 80138f6:	2200      	movs	r2, #0
 80138f8:	645a      	str	r2, [r3, #68]	@ 0x44
      }
    }
    return;
 80138fa:	e18d      	b.n	8013c18 <HAL_UART_IRQHandler+0x544>
        if (HAL_IS_BIT_SET(huart->Instance->CR3, USART_CR3_DMAR))
 80138fc:	bf00      	nop
    return;
 80138fe:	e18b      	b.n	8013c18 <HAL_UART_IRQHandler+0x544>
  } /* End if some error occurs */

  /* Check current reception Mode :
     If Reception till IDLE event has been selected : */
  if ((huart->ReceptionType == HAL_UART_RECEPTION_TOIDLE)
 8013900:	687b      	ldr	r3, [r7, #4]
 8013902:	6b1b      	ldr	r3, [r3, #48]	@ 0x30
 8013904:	2b01      	cmp	r3, #1
 8013906:	f040 8167 	bne.w	8013bd8 <HAL_UART_IRQHandler+0x504>
      && ((isrflags & USART_SR_IDLE) != 0U)
 801390a:	f8d7 30e4 	ldr.w	r3, [r7, #228]	@ 0xe4
 801390e:	f003 0310 	and.w	r3, r3, #16
 8013912:	2b00      	cmp	r3, #0
 8013914:	f000 8160 	beq.w	8013bd8 <HAL_UART_IRQHandler+0x504>
      && ((cr1its & USART_CR1_IDLEIE) != 0U))
 8013918:	f8d7 30e0 	ldr.w	r3, [r7, #224]	@ 0xe0
 801391c:	f003 0310 	and.w	r3, r3, #16
 8013920:	2b00      	cmp	r3, #0
 8013922:	f000 8159 	beq.w	8013bd8 <HAL_UART_IRQHandler+0x504>
  {
    __HAL_UART_CLEAR_IDLEFLAG(huart);
 8013926:	2300      	movs	r3, #0
 8013928:	60bb      	str	r3, [r7, #8]
 801392a:	687b      	ldr	r3, [r7, #4]
 801392c:	681b      	ldr	r3, [r3, #0]
 801392e:	681b      	ldr	r3, [r3, #0]
 8013930:	60bb      	str	r3, [r7, #8]
 8013932:	687b      	ldr	r3, [r7, #4]
 8013934:	681b      	ldr	r3, [r3, #0]
 8013936:	685b      	ldr	r3, [r3, #4]
 8013938:	60bb      	str	r3, [r7, #8]
 801393a:	68bb      	ldr	r3, [r7, #8]

    /* Check if DMA mode is enabled in UART */
    if (HAL_IS_BIT_SET(huart->Instance->CR3, USART_CR3_DMAR))
 801393c:	687b      	ldr	r3, [r7, #4]
 801393e:	681b      	ldr	r3, [r3, #0]
 8013940:	695b      	ldr	r3, [r3, #20]
 8013942:	f003 0340 	and.w	r3, r3, #64	@ 0x40
 8013946:	2b40      	cmp	r3, #64	@ 0x40
 8013948:	f040 80ce 	bne.w	8013ae8 <HAL_UART_IRQHandler+0x414>
    {
      /* DMA mode enabled */
      /* Check received length : If all expected data are received, do nothing,
         (DMA cplt callback will be called).
         Otherwise, if at least one data has already been received, IDLE event is to be notified to user */
      uint16_t nb_remaining_rx_data = (uint16_t) __HAL_DMA_GET_COUNTER(huart->hdmarx);
 801394c:	687b      	ldr	r3, [r7, #4]
 801394e:	6bdb      	ldr	r3, [r3, #60]	@ 0x3c
 8013950:	681b      	ldr	r3, [r3, #0]
 8013952:	685b      	ldr	r3, [r3, #4]
 8013954:	f8a7 30be 	strh.w	r3, [r7, #190]	@ 0xbe
      if ((nb_remaining_rx_data > 0U)
 8013958:	f8b7 30be 	ldrh.w	r3, [r7, #190]	@ 0xbe
 801395c:	2b00      	cmp	r3, #0
 801395e:	f000 80a9 	beq.w	8013ab4 <HAL_UART_IRQHandler+0x3e0>
          && (nb_remaining_rx_data < huart->RxXferSize))
 8013962:	687b      	ldr	r3, [r7, #4]
 8013964:	8d9b      	ldrh	r3, [r3, #44]	@ 0x2c
 8013966:	f8b7 20be 	ldrh.w	r2, [r7, #190]	@ 0xbe
 801396a:	429a      	cmp	r2, r3
 801396c:	f080 80a2 	bcs.w	8013ab4 <HAL_UART_IRQHandler+0x3e0>
      {
        /* Reception is not complete */
        huart->RxXferCount = nb_remaining_rx_data;
 8013970:	687b      	ldr	r3, [r7, #4]
 8013972:	f8b7 20be 	ldrh.w	r2, [r7, #190]	@ 0xbe
 8013976:	85da      	strh	r2, [r3, #46]	@ 0x2e

        /* In Normal mode, end DMA xfer and HAL UART Rx process*/
        if (huart->hdmarx->Init.Mode != DMA_CIRCULAR)
 8013978:	687b      	ldr	r3, [r7, #4]
 801397a:	6bdb      	ldr	r3, [r3, #60]	@ 0x3c
 801397c:	69db      	ldr	r3, [r3, #28]
 801397e:	f5b3 7f80 	cmp.w	r3, #256	@ 0x100
 8013982:	f000 8088 	beq.w	8013a96 <HAL_UART_IRQHandler+0x3c2>
        {
          /* Disable PE and ERR (Frame error, noise error, overrun error) interrupts */
          ATOMIC_CLEAR_BIT(huart->Instance->CR1, USART_CR1_PEIE);
 8013986:	687b      	ldr	r3, [r7, #4]
 8013988:	681b      	ldr	r3, [r3, #0]
 801398a:	330c      	adds	r3, #12
 801398c:	f8c7 3088 	str.w	r3, [r7, #136]	@ 0x88
   __ASM volatile ("ldrex %0, %1" : "=r" (result) : "Q" (*addr) );
 8013990:	f8d7 3088 	ldr.w	r3, [r7, #136]	@ 0x88
 8013994:	e853 3f00 	ldrex	r3, [r3]
 8013998:	f8c7 3084 	str.w	r3, [r7, #132]	@ 0x84
   return(result);
 801399c:	f8d7 3084 	ldr.w	r3, [r7, #132]	@ 0x84
 80139a0:	f423 7380 	bic.w	r3, r3, #256	@ 0x100
 80139a4:	f8c7 30b8 	str.w	r3, [r7, #184]	@ 0xb8
 80139a8:	687b      	ldr	r3, [r7, #4]
 80139aa:	681b      	ldr	r3, [r3, #0]
 80139ac:	330c      	adds	r3, #12
 80139ae:	f8d7 20b8 	ldr.w	r2, [r7, #184]	@ 0xb8
 80139b2:	f8c7 2094 	str.w	r2, [r7, #148]	@ 0x94
 80139b6:	f8c7 3090 	str.w	r3, [r7, #144]	@ 0x90
   __ASM volatile ("strex %0, %2, %1" : "=&r" (result), "=Q" (*addr) : "r" (value) );
 80139ba:	f8d7 1090 	ldr.w	r1, [r7, #144]	@ 0x90
 80139be:	f8d7 2094 	ldr.w	r2, [r7, #148]	@ 0x94
 80139c2:	e841 2300 	strex	r3, r2, [r1]
 80139c6:	f8c7 308c 	str.w	r3, [r7, #140]	@ 0x8c
   return(result);
 80139ca:	f8d7 308c 	ldr.w	r3, [r7, #140]	@ 0x8c
 80139ce:	2b00      	cmp	r3, #0
 80139d0:	d1d9      	bne.n	8013986 <HAL_UART_IRQHandler+0x2b2>
          ATOMIC_CLEAR_BIT(huart->Instance->CR3, USART_CR3_EIE);
 80139d2:	687b      	ldr	r3, [r7, #4]
 80139d4:	681b      	ldr	r3, [r3, #0]
 80139d6:	3314      	adds	r3, #20
 80139d8:	677b      	str	r3, [r7, #116]	@ 0x74
   __ASM volatile ("ldrex %0, %1" : "=r" (result) : "Q" (*addr) );
 80139da:	6f7b      	ldr	r3, [r7, #116]	@ 0x74
 80139dc:	e853 3f00 	ldrex	r3, [r3]
 80139e0:	673b      	str	r3, [r7, #112]	@ 0x70
   return(result);
 80139e2:	6f3b      	ldr	r3, [r7, #112]	@ 0x70
 80139e4:	f023 0301 	bic.w	r3, r3, #1
 80139e8:	f8c7 30b4 	str.w	r3, [r7, #180]	@ 0xb4
 80139ec:	687b      	ldr	r3, [r7, #4]
 80139ee:	681b      	ldr	r3, [r3, #0]
 80139f0:	3314      	adds	r3, #20
 80139f2:	f8d7 20b4 	ldr.w	r2, [r7, #180]	@ 0xb4
 80139f6:	f8c7 2080 	str.w	r2, [r7, #128]	@ 0x80
 80139fa:	67fb      	str	r3, [r7, #124]	@ 0x7c
   __ASM volatile ("strex %0, %2, %1" : "=&r" (result), "=Q" (*addr) : "r" (value) );
 80139fc:	6ff9      	ldr	r1, [r7, #124]	@ 0x7c
 80139fe:	f8d7 2080 	ldr.w	r2, [r7, #128]	@ 0x80
 8013a02:	e841 2300 	strex	r3, r2, [r1]
 8013a06:	67bb      	str	r3, [r7, #120]	@ 0x78
   return(result);
 8013a08:	6fbb      	ldr	r3, [r7, #120]	@ 0x78
 8013a0a:	2b00      	cmp	r3, #0
 8013a0c:	d1e1      	bne.n	80139d2 <HAL_UART_IRQHandler+0x2fe>

          /* Disable the DMA transfer for the receiver request by resetting the DMAR bit
             in the UART CR3 register */
          ATOMIC_CLEAR_BIT(huart->Instance->CR3, USART_CR3_DMAR);
 8013a0e:	687b      	ldr	r3, [r7, #4]
 8013a10:	681b      	ldr	r3, [r3, #0]
 8013a12:	3314      	adds	r3, #20
 8013a14:	663b      	str	r3, [r7, #96]	@ 0x60
   __ASM volatile ("ldrex %0, %1" : "=r" (result) : "Q" (*addr) );
 8013a16:	6e3b      	ldr	r3, [r7, #96]	@ 0x60
 8013a18:	e853 3f00 	ldrex	r3, [r3]
 8013a1c:	65fb      	str	r3, [r7, #92]	@ 0x5c
   return(result);
 8013a1e:	6dfb      	ldr	r3, [r7, #92]	@ 0x5c
 8013a20:	f023 0340 	bic.w	r3, r3, #64	@ 0x40
 8013a24:	f8c7 30b0 	str.w	r3, [r7, #176]	@ 0xb0
 8013a28:	687b      	ldr	r3, [r7, #4]
 8013a2a:	681b      	ldr	r3, [r3, #0]
 8013a2c:	3314      	adds	r3, #20
 8013a2e:	f8d7 20b0 	ldr.w	r2, [r7, #176]	@ 0xb0
 8013a32:	66fa      	str	r2, [r7, #108]	@ 0x6c
 8013a34:	66bb      	str	r3, [r7, #104]	@ 0x68
   __ASM volatile ("strex %0, %2, %1" : "=&r" (result), "=Q" (*addr) : "r" (value) );
 8013a36:	6eb9      	ldr	r1, [r7, #104]	@ 0x68
 8013a38:	6efa      	ldr	r2, [r7, #108]	@ 0x6c
 8013a3a:	e841 2300 	strex	r3, r2, [r1]
 8013a3e:	667b      	str	r3, [r7, #100]	@ 0x64
   return(result);
 8013a40:	6e7b      	ldr	r3, [r7, #100]	@ 0x64
 8013a42:	2b00      	cmp	r3, #0
 8013a44:	d1e3      	bne.n	8013a0e <HAL_UART_IRQHandler+0x33a>

          /* At end of Rx process, restore huart->RxState to Ready */
          huart->RxState = HAL_UART_STATE_READY;
 8013a46:	687b      	ldr	r3, [r7, #4]
 8013a48:	2220      	movs	r2, #32
 8013a4a:	f883 2042 	strb.w	r2, [r3, #66]	@ 0x42
          huart->ReceptionType = HAL_UART_RECEPTION_STANDARD;
 8013a4e:	687b      	ldr	r3, [r7, #4]
 8013a50:	2200      	movs	r2, #0
 8013a52:	631a      	str	r2, [r3, #48]	@ 0x30

          ATOMIC_CLEAR_BIT(huart->Instance->CR1, USART_CR1_IDLEIE);
 8013a54:	687b      	ldr	r3, [r7, #4]
 8013a56:	681b      	ldr	r3, [r3, #0]
 8013a58:	330c      	adds	r3, #12
 8013a5a:	64fb      	str	r3, [r7, #76]	@ 0x4c
   __ASM volatile ("ldrex %0, %1" : "=r" (result) : "Q" (*addr) );
 8013a5c:	6cfb      	ldr	r3, [r7, #76]	@ 0x4c
 8013a5e:	e853 3f00 	ldrex	r3, [r3]
 8013a62:	64bb      	str	r3, [r7, #72]	@ 0x48
   return(result);
 8013a64:	6cbb      	ldr	r3, [r7, #72]	@ 0x48
 8013a66:	f023 0310 	bic.w	r3, r3, #16
 8013a6a:	f8c7 30ac 	str.w	r3, [r7, #172]	@ 0xac
 8013a6e:	687b      	ldr	r3, [r7, #4]
 8013a70:	681b      	ldr	r3, [r3, #0]
 8013a72:	330c      	adds	r3, #12
 8013a74:	f8d7 20ac 	ldr.w	r2, [r7, #172]	@ 0xac
 8013a78:	65ba      	str	r2, [r7, #88]	@ 0x58
 8013a7a:	657b      	str	r3, [r7, #84]	@ 0x54
   __ASM volatile ("strex %0, %2, %1" : "=&r" (result), "=Q" (*addr) : "r" (value) );
 8013a7c:	6d79      	ldr	r1, [r7, #84]	@ 0x54
 8013a7e:	6dba      	ldr	r2, [r7, #88]	@ 0x58
 8013a80:	e841 2300 	strex	r3, r2, [r1]
 8013a84:	653b      	str	r3, [r7, #80]	@ 0x50
   return(result);
 8013a86:	6d3b      	ldr	r3, [r7, #80]	@ 0x50
 8013a88:	2b00      	cmp	r3, #0
 8013a8a:	d1e3      	bne.n	8013a54 <HAL_UART_IRQHandler+0x380>

          /* Last bytes received, so no need as the abort is immediate */
          (void)HAL_DMA_Abort(huart->hdmarx);
 8013a8c:	687b      	ldr	r3, [r7, #4]
 8013a8e:	6bdb      	ldr	r3, [r3, #60]	@ 0x3c
 8013a90:	4618      	mov	r0, r3
 8013a92:	f7fc ff65 	bl	8010960 <HAL_DMA_Abort>
        }

        /* Initialize type of RxEvent that correspond to RxEvent callback execution;
        In this case, Rx Event type is Idle Event */
        huart->RxEventType = HAL_UART_RXEVENT_IDLE;
 8013a96:	687b      	ldr	r3, [r7, #4]
 8013a98:	2202      	movs	r2, #2
 8013a9a:	635a      	str	r2, [r3, #52]	@ 0x34
#if (USE_HAL_UART_REGISTER_CALLBACKS == 1)
        /*Call registered Rx Event callback*/
        huart->RxEventCallback(huart, (huart->RxXferSize - huart->RxXferCount));
#else
        /*Call legacy weak Rx Event callback*/
        HAL_UARTEx_RxEventCallback(huart, (huart->RxXferSize - huart->RxXferCount));
 8013a9c:	687b      	ldr	r3, [r7, #4]
 8013a9e:	8d9a      	ldrh	r2, [r3, #44]	@ 0x2c
 8013aa0:	687b      	ldr	r3, [r7, #4]
 8013aa2:	8ddb      	ldrh	r3, [r3, #46]	@ 0x2e
 8013aa4:	b29b      	uxth	r3, r3
 8013aa6:	1ad3      	subs	r3, r2, r3
 8013aa8:	b29b      	uxth	r3, r3
 8013aaa:	4619      	mov	r1, r3
 8013aac:	6878      	ldr	r0, [r7, #4]
 8013aae:	f000 f8ed 	bl	8013c8c <HAL_UARTEx_RxEventCallback>
            HAL_UARTEx_RxEventCallback(huart, huart->RxXferSize);
#endif /* (USE_HAL_UART_REGISTER_CALLBACKS) */
          }
        }
      }
      return;
 8013ab2:	e0b3      	b.n	8013c1c <HAL_UART_IRQHandler+0x548>
        if (nb_remaining_rx_data == huart->RxXferSize)
 8013ab4:	687b      	ldr	r3, [r7, #4]
 8013ab6:	8d9b      	ldrh	r3, [r3, #44]	@ 0x2c
 8013ab8:	f8b7 20be 	ldrh.w	r2, [r7, #190]	@ 0xbe
 8013abc:	429a      	cmp	r2, r3
 8013abe:	f040 80ad 	bne.w	8013c1c <HAL_UART_IRQHandler+0x548>
          if (huart->hdmarx->Init.Mode == DMA_CIRCULAR)
 8013ac2:	687b      	ldr	r3, [r7, #4]
 8013ac4:	6bdb      	ldr	r3, [r3, #60]	@ 0x3c
 8013ac6:	69db      	ldr	r3, [r3, #28]
 8013ac8:	f5b3 7f80 	cmp.w	r3, #256	@ 0x100
 8013acc:	f040 80a6 	bne.w	8013c1c <HAL_UART_IRQHandler+0x548>
            huart->RxEventType = HAL_UART_RXEVENT_IDLE;
 8013ad0:	687b      	ldr	r3, [r7, #4]
 8013ad2:	2202      	movs	r2, #2
 8013ad4:	635a      	str	r2, [r3, #52]	@ 0x34
            HAL_UARTEx_RxEventCallback(huart, huart->RxXferSize);
 8013ad6:	687b      	ldr	r3, [r7, #4]
 8013ad8:	8d9b      	ldrh	r3, [r3, #44]	@ 0x2c
 8013ada:	4619      	mov	r1, r3
 8013adc:	6878      	ldr	r0, [r7, #4]
 8013ade:	f000 f8d5 	bl	8013c8c <HAL_UARTEx_RxEventCallback>
      return;
 8013ae2:	e09b      	b.n	8013c1c <HAL_UART_IRQHandler+0x548>
 8013ae4:	08013ddf 	.word	0x08013ddf
    else
    {
      /* DMA mode not enabled */
      /* Check received length : If all expected data are received, do nothing.
         Otherwise, if at least one data has already been received, IDLE event is to be notified to user */
      uint16_t nb_rx_data = huart->RxXferSize - huart->RxXferCount;
 8013ae8:	687b      	ldr	r3, [r7, #4]
 8013aea:	8d9a      	ldrh	r2, [r3, #44]	@ 0x2c
 8013aec:	687b      	ldr	r3, [r7, #4]
 8013aee:	8ddb      	ldrh	r3, [r3, #46]	@ 0x2e
 8013af0:	b29b      	uxth	r3, r3
 8013af2:	1ad3      	subs	r3, r2, r3
 8013af4:	f8a7 30ce 	strh.w	r3, [r7, #206]	@ 0xce
      if ((huart->RxXferCount > 0U)
 8013af8:	687b      	ldr	r3, [r7, #4]
 8013afa:	8ddb      	ldrh	r3, [r3, #46]	@ 0x2e
 8013afc:	b29b      	uxth	r3, r3
 8013afe:	2b00      	cmp	r3, #0
 8013b00:	f000 808e 	beq.w	8013c20 <HAL_UART_IRQHandler+0x54c>
          && (nb_rx_data > 0U))
 8013b04:	f8b7 30ce 	ldrh.w	r3, [r7, #206]	@ 0xce
 8013b08:	2b00      	cmp	r3, #0
 8013b0a:	f000 8089 	beq.w	8013c20 <HAL_UART_IRQHandler+0x54c>
      {
        /* Disable the UART Parity Error Interrupt and RXNE interrupts */
        ATOMIC_CLEAR_BIT(huart->Instance->CR1, (USART_CR1_RXNEIE | USART_CR1_PEIE));
 8013b0e:	687b      	ldr	r3, [r7, #4]
 8013b10:	681b      	ldr	r3, [r3, #0]
 8013b12:	330c      	adds	r3, #12
 8013b14:	63bb      	str	r3, [r7, #56]	@ 0x38
   __ASM volatile ("ldrex %0, %1" : "=r" (result) : "Q" (*addr) );
 8013b16:	6bbb      	ldr	r3, [r7, #56]	@ 0x38
 8013b18:	e853 3f00 	ldrex	r3, [r3]
 8013b1c:	637b      	str	r3, [r7, #52]	@ 0x34
   return(result);
 8013b1e:	6b7b      	ldr	r3, [r7, #52]	@ 0x34
 8013b20:	f423 7390 	bic.w	r3, r3, #288	@ 0x120
 8013b24:	f8c7 30c8 	str.w	r3, [r7, #200]	@ 0xc8
 8013b28:	687b      	ldr	r3, [r7, #4]
 8013b2a:	681b      	ldr	r3, [r3, #0]
 8013b2c:	330c      	adds	r3, #12
 8013b2e:	f8d7 20c8 	ldr.w	r2, [r7, #200]	@ 0xc8
 8013b32:	647a      	str	r2, [r7, #68]	@ 0x44
 8013b34:	643b      	str	r3, [r7, #64]	@ 0x40
   __ASM volatile ("strex %0, %2, %1" : "=&r" (result), "=Q" (*addr) : "r" (value) );
 8013b36:	6c39      	ldr	r1, [r7, #64]	@ 0x40
 8013b38:	6c7a      	ldr	r2, [r7, #68]	@ 0x44
 8013b3a:	e841 2300 	strex	r3, r2, [r1]
 8013b3e:	63fb      	str	r3, [r7, #60]	@ 0x3c
   return(result);
 8013b40:	6bfb      	ldr	r3, [r7, #60]	@ 0x3c
 8013b42:	2b00      	cmp	r3, #0
 8013b44:	d1e3      	bne.n	8013b0e <HAL_UART_IRQHandler+0x43a>

        /* Disable the UART Error Interrupt: (Frame error, noise error, overrun error) */
        ATOMIC_CLEAR_BIT(huart->Instance->CR3, USART_CR3_EIE);
 8013b46:	687b      	ldr	r3, [r7, #4]
 8013b48:	681b      	ldr	r3, [r3, #0]
 8013b4a:	3314      	adds	r3, #20
 8013b4c:	627b      	str	r3, [r7, #36]	@ 0x24
   __ASM volatile ("ldrex %0, %1" : "=r" (result) : "Q" (*addr) );
 8013b4e:	6a7b      	ldr	r3, [r7, #36]	@ 0x24
 8013b50:	e853 3f00 	ldrex	r3, [r3]
 8013b54:	623b      	str	r3, [r7, #32]
   return(result);
 8013b56:	6a3b      	ldr	r3, [r7, #32]
 8013b58:	f023 0301 	bic.w	r3, r3, #1
 8013b5c:	f8c7 30c4 	str.w	r3, [r7, #196]	@ 0xc4
 8013b60:	687b      	ldr	r3, [r7, #4]
 8013b62:	681b      	ldr	r3, [r3, #0]
 8013b64:	3314      	adds	r3, #20
 8013b66:	f8d7 20c4 	ldr.w	r2, [r7, #196]	@ 0xc4
 8013b6a:	633a      	str	r2, [r7, #48]	@ 0x30
 8013b6c:	62fb      	str	r3, [r7, #44]	@ 0x2c
   __ASM volatile ("strex %0, %2, %1" : "=&r" (result), "=Q" (*addr) : "r" (value) );
 8013b6e:	6af9      	ldr	r1, [r7, #44]	@ 0x2c
 8013b70:	6b3a      	ldr	r2, [r7, #48]	@ 0x30
 8013b72:	e841 2300 	strex	r3, r2, [r1]
 8013b76:	62bb      	str	r3, [r7, #40]	@ 0x28
   return(result);
 8013b78:	6abb      	ldr	r3, [r7, #40]	@ 0x28
 8013b7a:	2b00      	cmp	r3, #0
 8013b7c:	d1e3      	bne.n	8013b46 <HAL_UART_IRQHandler+0x472>

        /* Rx process is completed, restore huart->RxState to Ready */
        huart->RxState = HAL_UART_STATE_READY;
 8013b7e:	687b      	ldr	r3, [r7, #4]
 8013b80:	2220      	movs	r2, #32
 8013b82:	f883 2042 	strb.w	r2, [r3, #66]	@ 0x42
        huart->ReceptionType = HAL_UART_RECEPTION_STANDARD;
 8013b86:	687b      	ldr	r3, [r7, #4]
 8013b88:	2200      	movs	r2, #0
 8013b8a:	631a      	str	r2, [r3, #48]	@ 0x30

        ATOMIC_CLEAR_BIT(huart->Instance->CR1, USART_CR1_IDLEIE);
 8013b8c:	687b      	ldr	r3, [r7, #4]
 8013b8e:	681b      	ldr	r3, [r3, #0]
 8013b90:	330c      	adds	r3, #12
 8013b92:	613b      	str	r3, [r7, #16]
   __ASM volatile ("ldrex %0, %1" : "=r" (result) : "Q" (*addr) );
 8013b94:	693b      	ldr	r3, [r7, #16]
 8013b96:	e853 3f00 	ldrex	r3, [r3]
 8013b9a:	60fb      	str	r3, [r7, #12]
   return(result);
 8013b9c:	68fb      	ldr	r3, [r7, #12]
 8013b9e:	f023 0310 	bic.w	r3, r3, #16
 8013ba2:	f8c7 30c0 	str.w	r3, [r7, #192]	@ 0xc0
 8013ba6:	687b      	ldr	r3, [r7, #4]
 8013ba8:	681b      	ldr	r3, [r3, #0]
 8013baa:	330c      	adds	r3, #12
 8013bac:	f8d7 20c0 	ldr.w	r2, [r7, #192]	@ 0xc0
 8013bb0:	61fa      	str	r2, [r7, #28]
 8013bb2:	61bb      	str	r3, [r7, #24]
   __ASM volatile ("strex %0, %2, %1" : "=&r" (result), "=Q" (*addr) : "r" (value) );
 8013bb4:	69b9      	ldr	r1, [r7, #24]
 8013bb6:	69fa      	ldr	r2, [r7, #28]
 8013bb8:	e841 2300 	strex	r3, r2, [r1]
 8013bbc:	617b      	str	r3, [r7, #20]
   return(result);
 8013bbe:	697b      	ldr	r3, [r7, #20]
 8013bc0:	2b00      	cmp	r3, #0
 8013bc2:	d1e3      	bne.n	8013b8c <HAL_UART_IRQHandler+0x4b8>

        /* Initialize type of RxEvent that correspond to RxEvent callback execution;
           In this case, Rx Event type is Idle Event */
        huart->RxEventType = HAL_UART_RXEVENT_IDLE;
 8013bc4:	687b      	ldr	r3, [r7, #4]
 8013bc6:	2202      	movs	r2, #2
 8013bc8:	635a      	str	r2, [r3, #52]	@ 0x34
#if (USE_HAL_UART_REGISTER_CALLBACKS == 1)
        /*Call registered Rx complete callback*/
        huart->RxEventCallback(huart, nb_rx_data);
#else
        /*Call legacy weak Rx Event callback*/
        HAL_UARTEx_RxEventCallback(huart, nb_rx_data);
 8013bca:	f8b7 30ce 	ldrh.w	r3, [r7, #206]	@ 0xce
 8013bce:	4619      	mov	r1, r3
 8013bd0:	6878      	ldr	r0, [r7, #4]
 8013bd2:	f000 f85b 	bl	8013c8c <HAL_UARTEx_RxEventCallback>
#endif /* USE_HAL_UART_REGISTER_CALLBACKS */
      }
      return;
 8013bd6:	e023      	b.n	8013c20 <HAL_UART_IRQHandler+0x54c>
    }
  }

  /* UART in mode Transmitter ------------------------------------------------*/
  if (((isrflags & USART_SR_TXE) != RESET) && ((cr1its & USART_CR1_TXEIE) != RESET))
 8013bd8:	f8d7 30e4 	ldr.w	r3, [r7, #228]	@ 0xe4
 8013bdc:	f003 0380 	and.w	r3, r3, #128	@ 0x80
 8013be0:	2b00      	cmp	r3, #0
 8013be2:	d009      	beq.n	8013bf8 <HAL_UART_IRQHandler+0x524>
 8013be4:	f8d7 30e0 	ldr.w	r3, [r7, #224]	@ 0xe0
 8013be8:	f003 0380 	and.w	r3, r3, #128	@ 0x80
 8013bec:	2b00      	cmp	r3, #0
 8013bee:	d003      	beq.n	8013bf8 <HAL_UART_IRQHandler+0x524>
  {
    UART_Transmit_IT(huart);
 8013bf0:	6878      	ldr	r0, [r7, #4]
 8013bf2:	f000 f97d 	bl	8013ef0 <UART_Transmit_IT>
    return;
 8013bf6:	e014      	b.n	8013c22 <HAL_UART_IRQHandler+0x54e>
  }

  /* UART in mode Transmitter end --------------------------------------------*/
  if (((isrflags & USART_SR_TC) != RESET) && ((cr1its & USART_CR1_TCIE) != RESET))
 8013bf8:	f8d7 30e4 	ldr.w	r3, [r7, #228]	@ 0xe4
 8013bfc:	f003 0340 	and.w	r3, r3, #64	@ 0x40
 8013c00:	2b00      	cmp	r3, #0
 8013c02:	d00e      	beq.n	8013c22 <HAL_UART_IRQHandler+0x54e>
 8013c04:	f8d7 30e0 	ldr.w	r3, [r7, #224]	@ 0xe0
 8013c08:	f003 0340 	and.w	r3, r3, #64	@ 0x40
 8013c0c:	2b00      	cmp	r3, #0
 8013c0e:	d008      	beq.n	8013c22 <HAL_UART_IRQHandler+0x54e>
  {
    UART_EndTransmit_IT(huart);
 8013c10:	6878      	ldr	r0, [r7, #4]
 8013c12:	f000 f9bd 	bl	8013f90 <UART_EndTransmit_IT>
    return;
 8013c16:	e004      	b.n	8013c22 <HAL_UART_IRQHandler+0x54e>
    return;
 8013c18:	bf00      	nop
 8013c1a:	e002      	b.n	8013c22 <HAL_UART_IRQHandler+0x54e>
      return;
 8013c1c:	bf00      	nop
 8013c1e:	e000      	b.n	8013c22 <HAL_UART_IRQHandler+0x54e>
      return;
 8013c20:	bf00      	nop
  }
}
 8013c22:	37e8      	adds	r7, #232	@ 0xe8
 8013c24:	46bd      	mov	sp, r7
 8013c26:	bd80      	pop	{r7, pc}

08013c28 <HAL_UART_TxCpltCallback>:
  * @param  huart  Pointer to a UART_HandleTypeDef structure that contains
  *                the configuration information for the specified UART module.
  * @retval None
  */
__weak void HAL_UART_TxCpltCallback(UART_HandleTypeDef *huart)
{
 8013c28:	b480      	push	{r7}
 8013c2a:	b083      	sub	sp, #12
 8013c2c:	af00      	add	r7, sp, #0
 8013c2e:	6078      	str	r0, [r7, #4]
  /* Prevent unused argument(s) compilation warning */
  UNUSED(huart);
  /* NOTE: This function should not be modified, when the callback is needed,
           the HAL_UART_TxCpltCallback could be implemented in the user file
   */
}
 8013c30:	bf00      	nop
 8013c32:	370c      	adds	r7, #12
 8013c34:	46bd      	mov	sp, r7
 8013c36:	f85d 7b04 	ldr.w	r7, [sp], #4
 8013c3a:	4770      	bx	lr

08013c3c <HAL_UART_RxCpltCallback>:
  * @param  huart  Pointer to a UART_HandleTypeDef structure that contains
  *                the configuration information for the specified UART module.
  * @retval None
  */
__weak void HAL_UART_RxCpltCallback(UART_HandleTypeDef *huart)
{
 8013c3c:	b480      	push	{r7}
 8013c3e:	b083      	sub	sp, #12
 8013c40:	af00      	add	r7, sp, #0
 8013c42:	6078      	str	r0, [r7, #4]
  /* Prevent unused argument(s) compilation warning */
  UNUSED(huart);
  /* NOTE: This function should not be modified, when the callback is needed,
           the HAL_UART_RxCpltCallback could be implemented in the user file
   */
}
 8013c44:	bf00      	nop
 8013c46:	370c      	adds	r7, #12
 8013c48:	46bd      	mov	sp, r7
 8013c4a:	f85d 7b04 	ldr.w	r7, [sp], #4
 8013c4e:	4770      	bx	lr

08013c50 <HAL_UART_ErrorCallback>:
  * @param  huart  Pointer to a UART_HandleTypeDef structure that contains
  *                the configuration information for the specified UART module.
  * @retval None
  */
__weak void HAL_UART_ErrorCallback(UART_HandleTypeDef *huart)
{
 8013c50:	b480      	push	{r7}
 8013c52:	b083      	sub	sp, #12
 8013c54:	af00      	add	r7, sp, #0
 8013c56:	6078      	str	r0, [r7, #4]
  /* Prevent unused argument(s) compilation warning */
  UNUSED(huart);
  /* NOTE: This function should not be modified, when the callback is needed,
           the HAL_UART_ErrorCallback could be implemented in the user file
   */
}
 8013c58:	bf00      	nop
 8013c5a:	370c      	adds	r7, #12
 8013c5c:	46bd      	mov	sp, r7
 8013c5e:	f85d 7b04 	ldr.w	r7, [sp], #4
 8013c62:	4770      	bx	lr

08013c64 <HAL_UART_AbortCpltCallback>:
  * @brief  UART Abort Complete callback.
  * @param  huart UART handle.
  * @retval None
  */
__weak void HAL_UART_AbortCpltCallback(UART_HandleTypeDef *huart)
{
 8013c64:	b480      	push	{r7}
 8013c66:	b083      	sub	sp, #12
 8013c68:	af00      	add	r7, sp, #0
 8013c6a:	6078      	str	r0, [r7, #4]
  UNUSED(huart);

  /* NOTE : This function should not be modified, when the callback is needed,
            the HAL_UART_AbortCpltCallback can be implemented in the user file.
   */
}
 8013c6c:	bf00      	nop
 8013c6e:	370c      	adds	r7, #12
 8013c70:	46bd      	mov	sp, r7
 8013c72:	f85d 7b04 	ldr.w	r7, [sp], #4
 8013c76:	4770      	bx	lr

08013c78 <HAL_UART_AbortReceiveCpltCallback>:
  * @brief  UART Abort Receive Complete callback.
  * @param  huart UART handle.
  * @retval None
  */
__weak void HAL_UART_AbortReceiveCpltCallback(UART_HandleTypeDef *huart)
{
 8013c78:	b480      	push	{r7}
 8013c7a:	b083      	sub	sp, #12
 8013c7c:	af00      	add	r7, sp, #0
 8013c7e:	6078      	str	r0, [r7, #4]
  UNUSED(huart);

  /* NOTE : This function should not be modified, when the callback is needed,
            the HAL_UART_AbortReceiveCpltCallback can be implemented in the user file.
   */
}
 8013c80:	bf00      	nop
 8013c82:	370c      	adds	r7, #12
 8013c84:	46bd      	mov	sp, r7
 8013c86:	f85d 7b04 	ldr.w	r7, [sp], #4
 8013c8a:	4770      	bx	lr

08013c8c <HAL_UARTEx_RxEventCallback>:
  * @param  Size  Number of data available in application reception buffer (indicates a position in
  *               reception buffer until which, data are available)
  * @retval None
  */
__weak void HAL_UARTEx_RxEventCallback(UART_HandleTypeDef *huart, uint16_t Size)
{
 8013c8c:	b480      	push	{r7}
 8013c8e:	b083      	sub	sp, #12
 8013c90:	af00      	add	r7, sp, #0
 8013c92:	6078      	str	r0, [r7, #4]
 8013c94:	460b      	mov	r3, r1
 8013c96:	807b      	strh	r3, [r7, #2]
  UNUSED(Size);

  /* NOTE : This function should not be modified, when the callback is needed,
            the HAL_UARTEx_RxEventCallback can be implemented in the user file.
   */
}
 8013c98:	bf00      	nop
 8013c9a:	370c      	adds	r7, #12
 8013c9c:	46bd      	mov	sp, r7
 8013c9e:	f85d 7b04 	ldr.w	r7, [sp], #4
 8013ca2:	4770      	bx	lr

08013ca4 <UART_Start_Receive_IT>:
  * @param  pData Pointer to data buffer (u8 or u16 data elements).
  * @param  Size  Amount of data elements (u8 or u16) to be received.
  * @retval HAL status
  */
HAL_StatusTypeDef UART_Start_Receive_IT(UART_HandleTypeDef *huart, uint8_t *pData, uint16_t Size)
{
 8013ca4:	b480      	push	{r7}
 8013ca6:	b085      	sub	sp, #20
 8013ca8:	af00      	add	r7, sp, #0
 8013caa:	60f8      	str	r0, [r7, #12]
 8013cac:	60b9      	str	r1, [r7, #8]
 8013cae:	4613      	mov	r3, r2
 8013cb0:	80fb      	strh	r3, [r7, #6]
  huart->pRxBuffPtr = pData;
 8013cb2:	68fb      	ldr	r3, [r7, #12]
 8013cb4:	68ba      	ldr	r2, [r7, #8]
 8013cb6:	629a      	str	r2, [r3, #40]	@ 0x28
  huart->RxXferSize = Size;
 8013cb8:	68fb      	ldr	r3, [r7, #12]
 8013cba:	88fa      	ldrh	r2, [r7, #6]
 8013cbc:	859a      	strh	r2, [r3, #44]	@ 0x2c
  huart->RxXferCount = Size;
 8013cbe:	68fb      	ldr	r3, [r7, #12]
 8013cc0:	88fa      	ldrh	r2, [r7, #6]
 8013cc2:	85da      	strh	r2, [r3, #46]	@ 0x2e

  huart->ErrorCode = HAL_UART_ERROR_NONE;
 8013cc4:	68fb      	ldr	r3, [r7, #12]
 8013cc6:	2200      	movs	r2, #0
 8013cc8:	645a      	str	r2, [r3, #68]	@ 0x44
  huart->RxState = HAL_UART_STATE_BUSY_RX;
 8013cca:	68fb      	ldr	r3, [r7, #12]
 8013ccc:	2222      	movs	r2, #34	@ 0x22
 8013cce:	f883 2042 	strb.w	r2, [r3, #66]	@ 0x42

  if (huart->Init.Parity != UART_PARITY_NONE)
 8013cd2:	68fb      	ldr	r3, [r7, #12]
 8013cd4:	691b      	ldr	r3, [r3, #16]
 8013cd6:	2b00      	cmp	r3, #0
 8013cd8:	d007      	beq.n	8013cea <UART_Start_Receive_IT+0x46>
  {
    /* Enable the UART Parity Error Interrupt */
    __HAL_UART_ENABLE_IT(huart, UART_IT_PE);
 8013cda:	68fb      	ldr	r3, [r7, #12]
 8013cdc:	681b      	ldr	r3, [r3, #0]
 8013cde:	68da      	ldr	r2, [r3, #12]
 8013ce0:	68fb      	ldr	r3, [r7, #12]
 8013ce2:	681b      	ldr	r3, [r3, #0]
 8013ce4:	f442 7280 	orr.w	r2, r2, #256	@ 0x100
 8013ce8:	60da      	str	r2, [r3, #12]
  }

  /* Enable the UART Error Interrupt: (Frame error, noise error, overrun error) */
  __HAL_UART_ENABLE_IT(huart, UART_IT_ERR);
 8013cea:	68fb      	ldr	r3, [r7, #12]
 8013cec:	681b      	ldr	r3, [r3, #0]
 8013cee:	695a      	ldr	r2, [r3, #20]
 8013cf0:	68fb      	ldr	r3, [r7, #12]
 8013cf2:	681b      	ldr	r3, [r3, #0]
 8013cf4:	f042 0201 	orr.w	r2, r2, #1
 8013cf8:	615a      	str	r2, [r3, #20]

  /* Enable the UART Data Register not empty Interrupt */
  __HAL_UART_ENABLE_IT(huart, UART_IT_RXNE);
 8013cfa:	68fb      	ldr	r3, [r7, #12]
 8013cfc:	681b      	ldr	r3, [r3, #0]
 8013cfe:	68da      	ldr	r2, [r3, #12]
 8013d00:	68fb      	ldr	r3, [r7, #12]
 8013d02:	681b      	ldr	r3, [r3, #0]
 8013d04:	f042 0220 	orr.w	r2, r2, #32
 8013d08:	60da      	str	r2, [r3, #12]

  return HAL_OK;
 8013d0a:	2300      	movs	r3, #0
}
 8013d0c:	4618      	mov	r0, r3
 8013d0e:	3714      	adds	r7, #20
 8013d10:	46bd      	mov	sp, r7
 8013d12:	f85d 7b04 	ldr.w	r7, [sp], #4
 8013d16:	4770      	bx	lr

08013d18 <UART_EndRxTransfer>:
  * @brief  End ongoing Rx transfer on UART peripheral (following error detection or Reception completion).
  * @param  huart UART handle.
  * @retval None
  */
static void UART_EndRxTransfer(UART_HandleTypeDef *huart)
{
 8013d18:	b480      	push	{r7}
 8013d1a:	b095      	sub	sp, #84	@ 0x54
 8013d1c:	af00      	add	r7, sp, #0
 8013d1e:	6078      	str	r0, [r7, #4]
  /* Disable RXNE, PE and ERR (Frame error, noise error, overrun error) interrupts */
  ATOMIC_CLEAR_BIT(huart->Instance->CR1, (USART_CR1_RXNEIE | USART_CR1_PEIE));
 8013d20:	687b      	ldr	r3, [r7, #4]
 8013d22:	681b      	ldr	r3, [r3, #0]
 8013d24:	330c      	adds	r3, #12
 8013d26:	637b      	str	r3, [r7, #52]	@ 0x34
   __ASM volatile ("ldrex %0, %1" : "=r" (result) : "Q" (*addr) );
 8013d28:	6b7b      	ldr	r3, [r7, #52]	@ 0x34
 8013d2a:	e853 3f00 	ldrex	r3, [r3]
 8013d2e:	633b      	str	r3, [r7, #48]	@ 0x30
   return(result);
 8013d30:	6b3b      	ldr	r3, [r7, #48]	@ 0x30
 8013d32:	f423 7390 	bic.w	r3, r3, #288	@ 0x120
 8013d36:	64fb      	str	r3, [r7, #76]	@ 0x4c
 8013d38:	687b      	ldr	r3, [r7, #4]
 8013d3a:	681b      	ldr	r3, [r3, #0]
 8013d3c:	330c      	adds	r3, #12
 8013d3e:	6cfa      	ldr	r2, [r7, #76]	@ 0x4c
 8013d40:	643a      	str	r2, [r7, #64]	@ 0x40
 8013d42:	63fb      	str	r3, [r7, #60]	@ 0x3c
   __ASM volatile ("strex %0, %2, %1" : "=&r" (result), "=Q" (*addr) : "r" (value) );
 8013d44:	6bf9      	ldr	r1, [r7, #60]	@ 0x3c
 8013d46:	6c3a      	ldr	r2, [r7, #64]	@ 0x40
 8013d48:	e841 2300 	strex	r3, r2, [r1]
 8013d4c:	63bb      	str	r3, [r7, #56]	@ 0x38
   return(result);
 8013d4e:	6bbb      	ldr	r3, [r7, #56]	@ 0x38
 8013d50:	2b00      	cmp	r3, #0
 8013d52:	d1e5      	bne.n	8013d20 <UART_EndRxTransfer+0x8>
  ATOMIC_CLEAR_BIT(huart->Instance->CR3, USART_CR3_EIE);
 8013d54:	687b      	ldr	r3, [r7, #4]
 8013d56:	681b      	ldr	r3, [r3, #0]
 8013d58:	3314      	adds	r3, #20
 8013d5a:	623b      	str	r3, [r7, #32]
   __ASM volatile ("ldrex %0, %1" : "=r" (result) : "Q" (*addr) );
 8013d5c:	6a3b      	ldr	r3, [r7, #32]
 8013d5e:	e853 3f00 	ldrex	r3, [r3]
 8013d62:	61fb      	str	r3, [r7, #28]
   return(result);
 8013d64:	69fb      	ldr	r3, [r7, #28]
 8013d66:	f023 0301 	bic.w	r3, r3, #1
 8013d6a:	64bb      	str	r3, [r7, #72]	@ 0x48
 8013d6c:	687b      	ldr	r3, [r7, #4]
 8013d6e:	681b      	ldr	r3, [r3, #0]
 8013d70:	3314      	adds	r3, #20
 8013d72:	6cba      	ldr	r2, [r7, #72]	@ 0x48
 8013d74:	62fa      	str	r2, [r7, #44]	@ 0x2c
 8013d76:	62bb      	str	r3, [r7, #40]	@ 0x28
   __ASM volatile ("strex %0, %2, %1" : "=&r" (result), "=Q" (*addr) : "r" (value) );
 8013d78:	6ab9      	ldr	r1, [r7, #40]	@ 0x28
 8013d7a:	6afa      	ldr	r2, [r7, #44]	@ 0x2c
 8013d7c:	e841 2300 	strex	r3, r2, [r1]
 8013d80:	627b      	str	r3, [r7, #36]	@ 0x24
   return(result);
 8013d82:	6a7b      	ldr	r3, [r7, #36]	@ 0x24
 8013d84:	2b00      	cmp	r3, #0
 8013d86:	d1e5      	bne.n	8013d54 <UART_EndRxTransfer+0x3c>

  /* In case of reception waiting for IDLE event, disable also the IDLE IE interrupt source */
  if (huart->ReceptionType == HAL_UART_RECEPTION_TOIDLE)
 8013d88:	687b      	ldr	r3, [r7, #4]
 8013d8a:	6b1b      	ldr	r3, [r3, #48]	@ 0x30
 8013d8c:	2b01      	cmp	r3, #1
 8013d8e:	d119      	bne.n	8013dc4 <UART_EndRxTransfer+0xac>
  {
    ATOMIC_CLEAR_BIT(huart->Instance->CR1, USART_CR1_IDLEIE);
 8013d90:	687b      	ldr	r3, [r7, #4]
 8013d92:	681b      	ldr	r3, [r3, #0]
 8013d94:	330c      	adds	r3, #12
 8013d96:	60fb      	str	r3, [r7, #12]
   __ASM volatile ("ldrex %0, %1" : "=r" (result) : "Q" (*addr) );
 8013d98:	68fb      	ldr	r3, [r7, #12]
 8013d9a:	e853 3f00 	ldrex	r3, [r3]
 8013d9e:	60bb      	str	r3, [r7, #8]
   return(result);
 8013da0:	68bb      	ldr	r3, [r7, #8]
 8013da2:	f023 0310 	bic.w	r3, r3, #16
 8013da6:	647b      	str	r3, [r7, #68]	@ 0x44
 8013da8:	687b      	ldr	r3, [r7, #4]
 8013daa:	681b      	ldr	r3, [r3, #0]
 8013dac:	330c      	adds	r3, #12
 8013dae:	6c7a      	ldr	r2, [r7, #68]	@ 0x44
 8013db0:	61ba      	str	r2, [r7, #24]
 8013db2:	617b      	str	r3, [r7, #20]
   __ASM volatile ("strex %0, %2, %1" : "=&r" (result), "=Q" (*addr) : "r" (value) );
 8013db4:	6979      	ldr	r1, [r7, #20]
 8013db6:	69ba      	ldr	r2, [r7, #24]
 8013db8:	e841 2300 	strex	r3, r2, [r1]
 8013dbc:	613b      	str	r3, [r7, #16]
   return(result);
 8013dbe:	693b      	ldr	r3, [r7, #16]
 8013dc0:	2b00      	cmp	r3, #0
 8013dc2:	d1e5      	bne.n	8013d90 <UART_EndRxTransfer+0x78>
  }

  /* At end of Rx process, restore huart->RxState to Ready */
  huart->RxState = HAL_UART_STATE_READY;
 8013dc4:	687b      	ldr	r3, [r7, #4]
 8013dc6:	2220      	movs	r2, #32
 8013dc8:	f883 2042 	strb.w	r2, [r3, #66]	@ 0x42
  huart->ReceptionType = HAL_UART_RECEPTION_STANDARD;
 8013dcc:	687b      	ldr	r3, [r7, #4]
 8013dce:	2200      	movs	r2, #0
 8013dd0:	631a      	str	r2, [r3, #48]	@ 0x30
}
 8013dd2:	bf00      	nop
 8013dd4:	3754      	adds	r7, #84	@ 0x54
 8013dd6:	46bd      	mov	sp, r7
 8013dd8:	f85d 7b04 	ldr.w	r7, [sp], #4
 8013ddc:	4770      	bx	lr

08013dde <UART_DMAAbortOnError>:
  * @param  hdma  Pointer to a DMA_HandleTypeDef structure that contains
  *               the configuration information for the specified DMA module.
  * @retval None
  */
static void UART_DMAAbortOnError(DMA_HandleTypeDef *hdma)
{
 8013dde:	b580      	push	{r7, lr}
 8013de0:	b084      	sub	sp, #16
 8013de2:	af00      	add	r7, sp, #0
 8013de4:	6078      	str	r0, [r7, #4]
  UART_HandleTypeDef *huart = (UART_HandleTypeDef *)((DMA_HandleTypeDef *)hdma)->Parent;
 8013de6:	687b      	ldr	r3, [r7, #4]
 8013de8:	6b9b      	ldr	r3, [r3, #56]	@ 0x38
 8013dea:	60fb      	str	r3, [r7, #12]
  huart->RxXferCount = 0x00U;
 8013dec:	68fb      	ldr	r3, [r7, #12]
 8013dee:	2200      	movs	r2, #0
 8013df0:	85da      	strh	r2, [r3, #46]	@ 0x2e
#if (USE_HAL_UART_REGISTER_CALLBACKS == 1)
  /*Call registered error callback*/
  huart->ErrorCallback(huart);
#else
  /*Call legacy weak error callback*/
  HAL_UART_ErrorCallback(huart);
 8013df2:	68f8      	ldr	r0, [r7, #12]
 8013df4:	f7ff ff2c 	bl	8013c50 <HAL_UART_ErrorCallback>
#endif /* USE_HAL_UART_REGISTER_CALLBACKS */
}
 8013df8:	bf00      	nop
 8013dfa:	3710      	adds	r7, #16
 8013dfc:	46bd      	mov	sp, r7
 8013dfe:	bd80      	pop	{r7, pc}

08013e00 <UART_DMATxAbortCallback>:
  * @param  hdma  Pointer to a DMA_HandleTypeDef structure that contains
  *               the configuration information for the specified DMA module.
  * @retval None
  */
static void UART_DMATxAbortCallback(DMA_HandleTypeDef *hdma)
{
 8013e00:	b580      	push	{r7, lr}
 8013e02:	b084      	sub	sp, #16
 8013e04:	af00      	add	r7, sp, #0
 8013e06:	6078      	str	r0, [r7, #4]
  UART_HandleTypeDef *huart = (UART_HandleTypeDef *)((DMA_HandleTypeDef *)hdma)->Parent;
 8013e08:	687b      	ldr	r3, [r7, #4]
 8013e0a:	6b9b      	ldr	r3, [r3, #56]	@ 0x38
 8013e0c:	60fb      	str	r3, [r7, #12]

  huart->hdmatx->XferAbortCallback = NULL;
 8013e0e:	68fb      	ldr	r3, [r7, #12]
 8013e10:	6b9b      	ldr	r3, [r3, #56]	@ 0x38
 8013e12:	2200      	movs	r2, #0
 8013e14:	651a      	str	r2, [r3, #80]	@ 0x50

  /* Check if an Abort process is still ongoing */
  if (huart->hdmarx != NULL)
 8013e16:	68fb      	ldr	r3, [r7, #12]
 8013e18:	6bdb      	ldr	r3, [r3, #60]	@ 0x3c
 8013e1a:	2b00      	cmp	r3, #0
 8013e1c:	d004      	beq.n	8013e28 <UART_DMATxAbortCallback+0x28>
  {
    if (huart->hdmarx->XferAbortCallback != NULL)
 8013e1e:	68fb      	ldr	r3, [r7, #12]
 8013e20:	6bdb      	ldr	r3, [r3, #60]	@ 0x3c
 8013e22:	6d1b      	ldr	r3, [r3, #80]	@ 0x50
 8013e24:	2b00      	cmp	r3, #0
 8013e26:	d117      	bne.n	8013e58 <UART_DMATxAbortCallback+0x58>
      return;
    }
  }

  /* No Abort process still ongoing : All DMA channels are aborted, call user Abort Complete callback */
  huart->TxXferCount = 0x00U;
 8013e28:	68fb      	ldr	r3, [r7, #12]
 8013e2a:	2200      	movs	r2, #0
 8013e2c:	84da      	strh	r2, [r3, #38]	@ 0x26
  huart->RxXferCount = 0x00U;
 8013e2e:	68fb      	ldr	r3, [r7, #12]
 8013e30:	2200      	movs	r2, #0
 8013e32:	85da      	strh	r2, [r3, #46]	@ 0x2e

  /* Reset ErrorCode */
  huart->ErrorCode = HAL_UART_ERROR_NONE;
 8013e34:	68fb      	ldr	r3, [r7, #12]
 8013e36:	2200      	movs	r2, #0
 8013e38:	645a      	str	r2, [r3, #68]	@ 0x44

  /* Restore huart->gState and huart->RxState to Ready */
  huart->gState  = HAL_UART_STATE_READY;
 8013e3a:	68fb      	ldr	r3, [r7, #12]
 8013e3c:	2220      	movs	r2, #32
 8013e3e:	f883 2041 	strb.w	r2, [r3, #65]	@ 0x41
  huart->RxState = HAL_UART_STATE_READY;
 8013e42:	68fb      	ldr	r3, [r7, #12]
 8013e44:	2220      	movs	r2, #32
 8013e46:	f883 2042 	strb.w	r2, [r3, #66]	@ 0x42
  huart->ReceptionType = HAL_UART_RECEPTION_STANDARD;
 8013e4a:	68fb      	ldr	r3, [r7, #12]
 8013e4c:	2200      	movs	r2, #0
 8013e4e:	631a      	str	r2, [r3, #48]	@ 0x30
#if (USE_HAL_UART_REGISTER_CALLBACKS == 1)
  /* Call registered Abort complete callback */
  huart->AbortCpltCallback(huart);
#else
  /* Call legacy weak Abort complete callback */
  HAL_UART_AbortCpltCallback(huart);
 8013e50:	68f8      	ldr	r0, [r7, #12]
 8013e52:	f7ff ff07 	bl	8013c64 <HAL_UART_AbortCpltCallback>
 8013e56:	e000      	b.n	8013e5a <UART_DMATxAbortCallback+0x5a>
      return;
 8013e58:	bf00      	nop
#endif /* USE_HAL_UART_REGISTER_CALLBACKS */
}
 8013e5a:	3710      	adds	r7, #16
 8013e5c:	46bd      	mov	sp, r7
 8013e5e:	bd80      	pop	{r7, pc}

08013e60 <UART_DMARxAbortCallback>:
  * @param  hdma  Pointer to a DMA_HandleTypeDef structure that contains
  *               the configuration information for the specified DMA module.
  * @retval None
  */
static void UART_DMARxAbortCallback(DMA_HandleTypeDef *hdma)
{
 8013e60:	b580      	push	{r7, lr}
 8013e62:	b084      	sub	sp, #16
 8013e64:	af00      	add	r7, sp, #0
 8013e66:	6078      	str	r0, [r7, #4]
  UART_HandleTypeDef *huart = (UART_HandleTypeDef *)((DMA_HandleTypeDef *)hdma)->Parent;
 8013e68:	687b      	ldr	r3, [r7, #4]
 8013e6a:	6b9b      	ldr	r3, [r3, #56]	@ 0x38
 8013e6c:	60fb      	str	r3, [r7, #12]

  huart->hdmarx->XferAbortCallback = NULL;
 8013e6e:	68fb      	ldr	r3, [r7, #12]
 8013e70:	6bdb      	ldr	r3, [r3, #60]	@ 0x3c
 8013e72:	2200      	movs	r2, #0
 8013e74:	651a      	str	r2, [r3, #80]	@ 0x50

  /* Check if an Abort process is still ongoing */
  if (huart->hdmatx != NULL)
 8013e76:	68fb      	ldr	r3, [r7, #12]
 8013e78:	6b9b      	ldr	r3, [r3, #56]	@ 0x38
 8013e7a:	2b00      	cmp	r3, #0
 8013e7c:	d004      	beq.n	8013e88 <UART_DMARxAbortCallback+0x28>
  {
    if (huart->hdmatx->XferAbortCallback != NULL)
 8013e7e:	68fb      	ldr	r3, [r7, #12]
 8013e80:	6b9b      	ldr	r3, [r3, #56]	@ 0x38
 8013e82:	6d1b      	ldr	r3, [r3, #80]	@ 0x50
 8013e84:	2b00      	cmp	r3, #0
 8013e86:	d117      	bne.n	8013eb8 <UART_DMARxAbortCallback+0x58>
      return;
    }
  }

  /* No Abort process still ongoing : All DMA channels are aborted, call user Abort Complete callback */
  huart->TxXferCount = 0x00U;
 8013e88:	68fb      	ldr	r3, [r7, #12]
 8013e8a:	2200      	movs	r2, #0
 8013e8c:	84da      	strh	r2, [r3, #38]	@ 0x26
  huart->RxXferCount = 0x00U;
 8013e8e:	68fb      	ldr	r3, [r7, #12]
 8013e90:	2200      	movs	r2, #0
 8013e92:	85da      	strh	r2, [r3, #46]	@ 0x2e

  /* Reset ErrorCode */
  huart->ErrorCode = HAL_UART_ERROR_NONE;
 8013e94:	68fb      	ldr	r3, [r7, #12]
 8013e96:	2200      	movs	r2, #0
 8013e98:	645a      	str	r2, [r3, #68]	@ 0x44

  /* Restore huart->gState and huart->RxState to Ready */
  huart->gState  = HAL_UART_STATE_READY;
 8013e9a:	68fb      	ldr	r3, [r7, #12]
 8013e9c:	2220      	movs	r2, #32
 8013e9e:	f883 2041 	strb.w	r2, [r3, #65]	@ 0x41
  huart->RxState = HAL_UART_STATE_READY;
 8013ea2:	68fb      	ldr	r3, [r7, #12]
 8013ea4:	2220      	movs	r2, #32
 8013ea6:	f883 2042 	strb.w	r2, [r3, #66]	@ 0x42
  huart->ReceptionType = HAL_UART_RECEPTION_STANDARD;
 8013eaa:	68fb      	ldr	r3, [r7, #12]
 8013eac:	2200      	movs	r2, #0
 8013eae:	631a      	str	r2, [r3, #48]	@ 0x30
#if (USE_HAL_UART_REGISTER_CALLBACKS == 1)
  /* Call registered Abort complete callback */
  huart->AbortCpltCallback(huart);
#else
  /* Call legacy weak Abort complete callback */
  HAL_UART_AbortCpltCallback(huart);
 8013eb0:	68f8      	ldr	r0, [r7, #12]
 8013eb2:	f7ff fed7 	bl	8013c64 <HAL_UART_AbortCpltCallback>
 8013eb6:	e000      	b.n	8013eba <UART_DMARxAbortCallback+0x5a>
      return;
 8013eb8:	bf00      	nop
#endif /* USE_HAL_UART_REGISTER_CALLBACKS */
}
 8013eba:	3710      	adds	r7, #16
 8013ebc:	46bd      	mov	sp, r7
 8013ebe:	bd80      	pop	{r7, pc}

08013ec0 <UART_DMARxOnlyAbortCallback>:
  * @param  hdma  Pointer to a DMA_HandleTypeDef structure that contains
  *               the configuration information for the specified DMA module.
  * @retval None
  */
static void UART_DMARxOnlyAbortCallback(DMA_HandleTypeDef *hdma)
{
 8013ec0:	b580      	push	{r7, lr}
 8013ec2:	b084      	sub	sp, #16
 8013ec4:	af00      	add	r7, sp, #0
 8013ec6:	6078      	str	r0, [r7, #4]
  UART_HandleTypeDef *huart = (UART_HandleTypeDef *)((DMA_HandleTypeDef *)hdma)->Parent;
 8013ec8:	687b      	ldr	r3, [r7, #4]
 8013eca:	6b9b      	ldr	r3, [r3, #56]	@ 0x38
 8013ecc:	60fb      	str	r3, [r7, #12]

  huart->RxXferCount = 0x00U;
 8013ece:	68fb      	ldr	r3, [r7, #12]
 8013ed0:	2200      	movs	r2, #0
 8013ed2:	85da      	strh	r2, [r3, #46]	@ 0x2e

  /* Restore huart->RxState to Ready */
  huart->RxState = HAL_UART_STATE_READY;
 8013ed4:	68fb      	ldr	r3, [r7, #12]
 8013ed6:	2220      	movs	r2, #32
 8013ed8:	f883 2042 	strb.w	r2, [r3, #66]	@ 0x42
  huart->ReceptionType = HAL_UART_RECEPTION_STANDARD;
 8013edc:	68fb      	ldr	r3, [r7, #12]
 8013ede:	2200      	movs	r2, #0
 8013ee0:	631a      	str	r2, [r3, #48]	@ 0x30
#if (USE_HAL_UART_REGISTER_CALLBACKS == 1)
  /* Call registered Abort Receive Complete Callback */
  huart->AbortReceiveCpltCallback(huart);
#else
  /* Call legacy weak Abort Receive Complete Callback */
  HAL_UART_AbortReceiveCpltCallback(huart);
 8013ee2:	68f8      	ldr	r0, [r7, #12]
 8013ee4:	f7ff fec8 	bl	8013c78 <HAL_UART_AbortReceiveCpltCallback>
#endif /* USE_HAL_UART_REGISTER_CALLBACKS */
}
 8013ee8:	bf00      	nop
 8013eea:	3710      	adds	r7, #16
 8013eec:	46bd      	mov	sp, r7
 8013eee:	bd80      	pop	{r7, pc}

08013ef0 <UART_Transmit_IT>:
  * @param  huart  Pointer to a UART_HandleTypeDef structure that contains
  *                the configuration information for the specified UART module.
  * @retval HAL status
  */
static HAL_StatusTypeDef UART_Transmit_IT(UART_HandleTypeDef *huart)
{
 8013ef0:	b480      	push	{r7}
 8013ef2:	b085      	sub	sp, #20
 8013ef4:	af00      	add	r7, sp, #0
 8013ef6:	6078      	str	r0, [r7, #4]
  const uint16_t *tmp;

  /* Check that a Tx process is ongoing */
  if (huart->gState == HAL_UART_STATE_BUSY_TX)
 8013ef8:	687b      	ldr	r3, [r7, #4]
 8013efa:	f893 3041 	ldrb.w	r3, [r3, #65]	@ 0x41
 8013efe:	b2db      	uxtb	r3, r3
 8013f00:	2b21      	cmp	r3, #33	@ 0x21
 8013f02:	d13e      	bne.n	8013f82 <UART_Transmit_IT+0x92>
  {
    if ((huart->Init.WordLength == UART_WORDLENGTH_9B) && (huart->Init.Parity == UART_PARITY_NONE))
 8013f04:	687b      	ldr	r3, [r7, #4]
 8013f06:	689b      	ldr	r3, [r3, #8]
 8013f08:	f5b3 5f80 	cmp.w	r3, #4096	@ 0x1000
 8013f0c:	d114      	bne.n	8013f38 <UART_Transmit_IT+0x48>
 8013f0e:	687b      	ldr	r3, [r7, #4]
 8013f10:	691b      	ldr	r3, [r3, #16]
 8013f12:	2b00      	cmp	r3, #0
 8013f14:	d110      	bne.n	8013f38 <UART_Transmit_IT+0x48>
    {
      tmp = (const uint16_t *) huart->pTxBuffPtr;
 8013f16:	687b      	ldr	r3, [r7, #4]
 8013f18:	6a1b      	ldr	r3, [r3, #32]
 8013f1a:	60fb      	str	r3, [r7, #12]
      huart->Instance->DR = (uint16_t)(*tmp & (uint16_t)0x01FF);
 8013f1c:	68fb      	ldr	r3, [r7, #12]
 8013f1e:	881b      	ldrh	r3, [r3, #0]
 8013f20:	461a      	mov	r2, r3
 8013f22:	687b      	ldr	r3, [r7, #4]
 8013f24:	681b      	ldr	r3, [r3, #0]
 8013f26:	f3c2 0208 	ubfx	r2, r2, #0, #9
 8013f2a:	605a      	str	r2, [r3, #4]
      huart->pTxBuffPtr += 2U;
 8013f2c:	687b      	ldr	r3, [r7, #4]
 8013f2e:	6a1b      	ldr	r3, [r3, #32]
 8013f30:	1c9a      	adds	r2, r3, #2
 8013f32:	687b      	ldr	r3, [r7, #4]
 8013f34:	621a      	str	r2, [r3, #32]
 8013f36:	e008      	b.n	8013f4a <UART_Transmit_IT+0x5a>
    }
    else
    {
      huart->Instance->DR = (uint8_t)(*huart->pTxBuffPtr++ & (uint8_t)0x00FF);
 8013f38:	687b      	ldr	r3, [r7, #4]
 8013f3a:	6a1b      	ldr	r3, [r3, #32]
 8013f3c:	1c59      	adds	r1, r3, #1
 8013f3e:	687a      	ldr	r2, [r7, #4]
 8013f40:	6211      	str	r1, [r2, #32]
 8013f42:	781a      	ldrb	r2, [r3, #0]
 8013f44:	687b      	ldr	r3, [r7, #4]
 8013f46:	681b      	ldr	r3, [r3, #0]
 8013f48:	605a      	str	r2, [r3, #4]
    }

    if (--huart->TxXferCount == 0U)
 8013f4a:	687b      	ldr	r3, [r7, #4]
 8013f4c:	8cdb      	ldrh	r3, [r3, #38]	@ 0x26
 8013f4e:	b29b      	uxth	r3, r3
 8013f50:	3b01      	subs	r3, #1
 8013f52:	b29b      	uxth	r3, r3
 8013f54:	687a      	ldr	r2, [r7, #4]
 8013f56:	4619      	mov	r1, r3
 8013f58:	84d1      	strh	r1, [r2, #38]	@ 0x26
 8013f5a:	2b00      	cmp	r3, #0
 8013f5c:	d10f      	bne.n	8013f7e <UART_Transmit_IT+0x8e>
    {
      /* Disable the UART Transmit Data Register Empty Interrupt */
      __HAL_UART_DISABLE_IT(huart, UART_IT_TXE);
 8013f5e:	687b      	ldr	r3, [r7, #4]
 8013f60:	681b      	ldr	r3, [r3, #0]
 8013f62:	68da      	ldr	r2, [r3, #12]
 8013f64:	687b      	ldr	r3, [r7, #4]
 8013f66:	681b      	ldr	r3, [r3, #0]
 8013f68:	f022 0280 	bic.w	r2, r2, #128	@ 0x80
 8013f6c:	60da      	str	r2, [r3, #12]

      /* Enable the UART Transmit Complete Interrupt */
      __HAL_UART_ENABLE_IT(huart, UART_IT_TC);
 8013f6e:	687b      	ldr	r3, [r7, #4]
 8013f70:	681b      	ldr	r3, [r3, #0]
 8013f72:	68da      	ldr	r2, [r3, #12]
 8013f74:	687b      	ldr	r3, [r7, #4]
 8013f76:	681b      	ldr	r3, [r3, #0]
 8013f78:	f042 0240 	orr.w	r2, r2, #64	@ 0x40
 8013f7c:	60da      	str	r2, [r3, #12]
    }
    return HAL_OK;
 8013f7e:	2300      	movs	r3, #0
 8013f80:	e000      	b.n	8013f84 <UART_Transmit_IT+0x94>
  }
  else
  {
    return HAL_BUSY;
 8013f82:	2302      	movs	r3, #2
  }
}
 8013f84:	4618      	mov	r0, r3
 8013f86:	3714      	adds	r7, #20
 8013f88:	46bd      	mov	sp, r7
 8013f8a:	f85d 7b04 	ldr.w	r7, [sp], #4
 8013f8e:	4770      	bx	lr

08013f90 <UART_EndTransmit_IT>:
  * @param  huart  Pointer to a UART_HandleTypeDef structure that contains
  *                the configuration information for the specified UART module.
  * @retval HAL status
  */
static HAL_StatusTypeDef UART_EndTransmit_IT(UART_HandleTypeDef *huart)
{
 8013f90:	b580      	push	{r7, lr}
 8013f92:	b082      	sub	sp, #8
 8013f94:	af00      	add	r7, sp, #0
 8013f96:	6078      	str	r0, [r7, #4]
  /* Disable the UART Transmit Complete Interrupt */
  __HAL_UART_DISABLE_IT(huart, UART_IT_TC);
 8013f98:	687b      	ldr	r3, [r7, #4]
 8013f9a:	681b      	ldr	r3, [r3, #0]
 8013f9c:	68da      	ldr	r2, [r3, #12]
 8013f9e:	687b      	ldr	r3, [r7, #4]
 8013fa0:	681b      	ldr	r3, [r3, #0]
 8013fa2:	f022 0240 	bic.w	r2, r2, #64	@ 0x40
 8013fa6:	60da      	str	r2, [r3, #12]

  /* Tx process is ended, restore huart->gState to Ready */
  huart->gState = HAL_UART_STATE_READY;
 8013fa8:	687b      	ldr	r3, [r7, #4]
 8013faa:	2220      	movs	r2, #32
 8013fac:	f883 2041 	strb.w	r2, [r3, #65]	@ 0x41
#if (USE_HAL_UART_REGISTER_CALLBACKS == 1)
  /*Call registered Tx complete callback*/
  huart->TxCpltCallback(huart);
#else
  /*Call legacy weak Tx complete callback*/
  HAL_UART_TxCpltCallback(huart);
 8013fb0:	6878      	ldr	r0, [r7, #4]
 8013fb2:	f7ff fe39 	bl	8013c28 <HAL_UART_TxCpltCallback>
#endif /* USE_HAL_UART_REGISTER_CALLBACKS */

  return HAL_OK;
 8013fb6:	2300      	movs	r3, #0
}
 8013fb8:	4618      	mov	r0, r3
 8013fba:	3708      	adds	r7, #8
 8013fbc:	46bd      	mov	sp, r7
 8013fbe:	bd80      	pop	{r7, pc}

08013fc0 <UART_Receive_IT>:
  * @param  huart  Pointer to a UART_HandleTypeDef structure that contains
  *                the configuration information for the specified UART module.
  * @retval HAL status
  */
static HAL_StatusTypeDef UART_Receive_IT(UART_HandleTypeDef *huart)
{
 8013fc0:	b580      	push	{r7, lr}
 8013fc2:	b08c      	sub	sp, #48	@ 0x30
 8013fc4:	af00      	add	r7, sp, #0
 8013fc6:	6078      	str	r0, [r7, #4]
  uint8_t  *pdata8bits = NULL;
 8013fc8:	2300      	movs	r3, #0
 8013fca:	62fb      	str	r3, [r7, #44]	@ 0x2c
  uint16_t *pdata16bits = NULL;
 8013fcc:	2300      	movs	r3, #0
 8013fce:	62bb      	str	r3, [r7, #40]	@ 0x28

  /* Check that a Rx process is ongoing */
  if (huart->RxState == HAL_UART_STATE_BUSY_RX)
 8013fd0:	687b      	ldr	r3, [r7, #4]
 8013fd2:	f893 3042 	ldrb.w	r3, [r3, #66]	@ 0x42
 8013fd6:	b2db      	uxtb	r3, r3
 8013fd8:	2b22      	cmp	r3, #34	@ 0x22
 8013fda:	f040 80aa 	bne.w	8014132 <UART_Receive_IT+0x172>
  {
    if ((huart->Init.WordLength == UART_WORDLENGTH_9B) && (huart->Init.Parity == UART_PARITY_NONE))
 8013fde:	687b      	ldr	r3, [r7, #4]
 8013fe0:	689b      	ldr	r3, [r3, #8]
 8013fe2:	f5b3 5f80 	cmp.w	r3, #4096	@ 0x1000
 8013fe6:	d115      	bne.n	8014014 <UART_Receive_IT+0x54>
 8013fe8:	687b      	ldr	r3, [r7, #4]
 8013fea:	691b      	ldr	r3, [r3, #16]
 8013fec:	2b00      	cmp	r3, #0
 8013fee:	d111      	bne.n	8014014 <UART_Receive_IT+0x54>
    {
      /* Unused pdata8bits */
      UNUSED(pdata8bits);
      pdata16bits = (uint16_t *) huart->pRxBuffPtr;
 8013ff0:	687b      	ldr	r3, [r7, #4]
 8013ff2:	6a9b      	ldr	r3, [r3, #40]	@ 0x28
 8013ff4:	62bb      	str	r3, [r7, #40]	@ 0x28
      *pdata16bits = (uint16_t)(huart->Instance->DR & (uint16_t)0x01FF);
 8013ff6:	687b      	ldr	r3, [r7, #4]
 8013ff8:	681b      	ldr	r3, [r3, #0]
 8013ffa:	685b      	ldr	r3, [r3, #4]
 8013ffc:	b29b      	uxth	r3, r3
 8013ffe:	f3c3 0308 	ubfx	r3, r3, #0, #9
 8014002:	b29a      	uxth	r2, r3
 8014004:	6abb      	ldr	r3, [r7, #40]	@ 0x28
 8014006:	801a      	strh	r2, [r3, #0]
      huart->pRxBuffPtr += 2U;
 8014008:	687b      	ldr	r3, [r7, #4]
 801400a:	6a9b      	ldr	r3, [r3, #40]	@ 0x28
 801400c:	1c9a      	adds	r2, r3, #2
 801400e:	687b      	ldr	r3, [r7, #4]
 8014010:	629a      	str	r2, [r3, #40]	@ 0x28
 8014012:	e024      	b.n	801405e <UART_Receive_IT+0x9e>
    }
    else
    {
      pdata8bits = (uint8_t *) huart->pRxBuffPtr;
 8014014:	687b      	ldr	r3, [r7, #4]
 8014016:	6a9b      	ldr	r3, [r3, #40]	@ 0x28
 8014018:	62fb      	str	r3, [r7, #44]	@ 0x2c
      /* Unused pdata16bits */
      UNUSED(pdata16bits);

      if ((huart->Init.WordLength == UART_WORDLENGTH_9B) || ((huart->Init.WordLength == UART_WORDLENGTH_8B) && (huart->Init.Parity == UART_PARITY_NONE)))
 801401a:	687b      	ldr	r3, [r7, #4]
 801401c:	689b      	ldr	r3, [r3, #8]
 801401e:	f5b3 5f80 	cmp.w	r3, #4096	@ 0x1000
 8014022:	d007      	beq.n	8014034 <UART_Receive_IT+0x74>
 8014024:	687b      	ldr	r3, [r7, #4]
 8014026:	689b      	ldr	r3, [r3, #8]
 8014028:	2b00      	cmp	r3, #0
 801402a:	d10a      	bne.n	8014042 <UART_Receive_IT+0x82>
 801402c:	687b      	ldr	r3, [r7, #4]
 801402e:	691b      	ldr	r3, [r3, #16]
 8014030:	2b00      	cmp	r3, #0
 8014032:	d106      	bne.n	8014042 <UART_Receive_IT+0x82>
      {
        *pdata8bits = (uint8_t)(huart->Instance->DR & (uint8_t)0x00FF);
 8014034:	687b      	ldr	r3, [r7, #4]
 8014036:	681b      	ldr	r3, [r3, #0]
 8014038:	685b      	ldr	r3, [r3, #4]
 801403a:	b2da      	uxtb	r2, r3
 801403c:	6afb      	ldr	r3, [r7, #44]	@ 0x2c
 801403e:	701a      	strb	r2, [r3, #0]
 8014040:	e008      	b.n	8014054 <UART_Receive_IT+0x94>
      }
      else
      {
        *pdata8bits = (uint8_t)(huart->Instance->DR & (uint8_t)0x007F);
 8014042:	687b      	ldr	r3, [r7, #4]
 8014044:	681b      	ldr	r3, [r3, #0]
 8014046:	685b      	ldr	r3, [r3, #4]
 8014048:	b2db      	uxtb	r3, r3
 801404a:	f003 037f 	and.w	r3, r3, #127	@ 0x7f
 801404e:	b2da      	uxtb	r2, r3
 8014050:	6afb      	ldr	r3, [r7, #44]	@ 0x2c
 8014052:	701a      	strb	r2, [r3, #0]
      }
      huart->pRxBuffPtr += 1U;
 8014054:	687b      	ldr	r3, [r7, #4]
 8014056:	6a9b      	ldr	r3, [r3, #40]	@ 0x28
 8014058:	1c5a      	adds	r2, r3, #1
 801405a:	687b      	ldr	r3, [r7, #4]
 801405c:	629a      	str	r2, [r3, #40]	@ 0x28
    }

    if (--huart->RxXferCount == 0U)
 801405e:	687b      	ldr	r3, [r7, #4]
 8014060:	8ddb      	ldrh	r3, [r3, #46]	@ 0x2e
 8014062:	b29b      	uxth	r3, r3
 8014064:	3b01      	subs	r3, #1
 8014066:	b29b      	uxth	r3, r3
 8014068:	687a      	ldr	r2, [r7, #4]
 801406a:	4619      	mov	r1, r3
 801406c:	85d1      	strh	r1, [r2, #46]	@ 0x2e
 801406e:	2b00      	cmp	r3, #0
 8014070:	d15d      	bne.n	801412e <UART_Receive_IT+0x16e>
    {
      /* Disable the UART Data Register not empty Interrupt */
      __HAL_UART_DISABLE_IT(huart, UART_IT_RXNE);
 8014072:	687b      	ldr	r3, [r7, #4]
 8014074:	681b      	ldr	r3, [r3, #0]
 8014076:	68da      	ldr	r2, [r3, #12]
 8014078:	687b      	ldr	r3, [r7, #4]
 801407a:	681b      	ldr	r3, [r3, #0]
 801407c:	f022 0220 	bic.w	r2, r2, #32
 8014080:	60da      	str	r2, [r3, #12]

      /* Disable the UART Parity Error Interrupt */
      __HAL_UART_DISABLE_IT(huart, UART_IT_PE);
 8014082:	687b      	ldr	r3, [r7, #4]
 8014084:	681b      	ldr	r3, [r3, #0]
 8014086:	68da      	ldr	r2, [r3, #12]
 8014088:	687b      	ldr	r3, [r7, #4]
 801408a:	681b      	ldr	r3, [r3, #0]
 801408c:	f422 7280 	bic.w	r2, r2, #256	@ 0x100
 8014090:	60da      	str	r2, [r3, #12]

      /* Disable the UART Error Interrupt: (Frame error, noise error, overrun error) */
      __HAL_UART_DISABLE_IT(huart, UART_IT_ERR);
 8014092:	687b      	ldr	r3, [r7, #4]
 8014094:	681b      	ldr	r3, [r3, #0]
 8014096:	695a      	ldr	r2, [r3, #20]
 8014098:	687b      	ldr	r3, [r7, #4]
 801409a:	681b      	ldr	r3, [r3, #0]
 801409c:	f022 0201 	bic.w	r2, r2, #1
 80140a0:	615a      	str	r2, [r3, #20]

      /* Rx process is completed, restore huart->RxState to Ready */
      huart->RxState = HAL_UART_STATE_READY;
 80140a2:	687b      	ldr	r3, [r7, #4]
 80140a4:	2220      	movs	r2, #32
 80140a6:	f883 2042 	strb.w	r2, [r3, #66]	@ 0x42

      /* Initialize type of RxEvent to Transfer Complete */
      huart->RxEventType = HAL_UART_RXEVENT_TC;
 80140aa:	687b      	ldr	r3, [r7, #4]
 80140ac:	2200      	movs	r2, #0
 80140ae:	635a      	str	r2, [r3, #52]	@ 0x34

      /* Check current reception Mode :
         If Reception till IDLE event has been selected : */
      if (huart->ReceptionType == HAL_UART_RECEPTION_TOIDLE)
 80140b0:	687b      	ldr	r3, [r7, #4]
 80140b2:	6b1b      	ldr	r3, [r3, #48]	@ 0x30
 80140b4:	2b01      	cmp	r3, #1
 80140b6:	d135      	bne.n	8014124 <UART_Receive_IT+0x164>
      {
        /* Set reception type to Standard */
        huart->ReceptionType = HAL_UART_RECEPTION_STANDARD;
 80140b8:	687b      	ldr	r3, [r7, #4]
 80140ba:	2200      	movs	r2, #0
 80140bc:	631a      	str	r2, [r3, #48]	@ 0x30

        /* Disable IDLE interrupt */
        ATOMIC_CLEAR_BIT(huart->Instance->CR1, USART_CR1_IDLEIE);
 80140be:	687b      	ldr	r3, [r7, #4]
 80140c0:	681b      	ldr	r3, [r3, #0]
 80140c2:	330c      	adds	r3, #12
 80140c4:	617b      	str	r3, [r7, #20]
   __ASM volatile ("ldrex %0, %1" : "=r" (result) : "Q" (*addr) );
 80140c6:	697b      	ldr	r3, [r7, #20]
 80140c8:	e853 3f00 	ldrex	r3, [r3]
 80140cc:	613b      	str	r3, [r7, #16]
   return(result);
 80140ce:	693b      	ldr	r3, [r7, #16]
 80140d0:	f023 0310 	bic.w	r3, r3, #16
 80140d4:	627b      	str	r3, [r7, #36]	@ 0x24
 80140d6:	687b      	ldr	r3, [r7, #4]
 80140d8:	681b      	ldr	r3, [r3, #0]
 80140da:	330c      	adds	r3, #12
 80140dc:	6a7a      	ldr	r2, [r7, #36]	@ 0x24
 80140de:	623a      	str	r2, [r7, #32]
 80140e0:	61fb      	str	r3, [r7, #28]
   __ASM volatile ("strex %0, %2, %1" : "=&r" (result), "=Q" (*addr) : "r" (value) );
 80140e2:	69f9      	ldr	r1, [r7, #28]
 80140e4:	6a3a      	ldr	r2, [r7, #32]
 80140e6:	e841 2300 	strex	r3, r2, [r1]
 80140ea:	61bb      	str	r3, [r7, #24]
   return(result);
 80140ec:	69bb      	ldr	r3, [r7, #24]
 80140ee:	2b00      	cmp	r3, #0
 80140f0:	d1e5      	bne.n	80140be <UART_Receive_IT+0xfe>

        /* Check if IDLE flag is set */
        if (__HAL_UART_GET_FLAG(huart, UART_FLAG_IDLE))
 80140f2:	687b      	ldr	r3, [r7, #4]
 80140f4:	681b      	ldr	r3, [r3, #0]
 80140f6:	681b      	ldr	r3, [r3, #0]
 80140f8:	f003 0310 	and.w	r3, r3, #16
 80140fc:	2b10      	cmp	r3, #16
 80140fe:	d10a      	bne.n	8014116 <UART_Receive_IT+0x156>
        {
          /* Clear IDLE flag in ISR */
          __HAL_UART_CLEAR_IDLEFLAG(huart);
 8014100:	2300      	movs	r3, #0
 8014102:	60fb      	str	r3, [r7, #12]
 8014104:	687b      	ldr	r3, [r7, #4]
 8014106:	681b      	ldr	r3, [r3, #0]
 8014108:	681b      	ldr	r3, [r3, #0]
 801410a:	60fb      	str	r3, [r7, #12]
 801410c:	687b      	ldr	r3, [r7, #4]
 801410e:	681b      	ldr	r3, [r3, #0]
 8014110:	685b      	ldr	r3, [r3, #4]
 8014112:	60fb      	str	r3, [r7, #12]
 8014114:	68fb      	ldr	r3, [r7, #12]
#if (USE_HAL_UART_REGISTER_CALLBACKS == 1)
        /*Call registered Rx Event callback*/
        huart->RxEventCallback(huart, huart->RxXferSize);
#else
        /*Call legacy weak Rx Event callback*/
        HAL_UARTEx_RxEventCallback(huart, huart->RxXferSize);
 8014116:	687b      	ldr	r3, [r7, #4]
 8014118:	8d9b      	ldrh	r3, [r3, #44]	@ 0x2c
 801411a:	4619      	mov	r1, r3
 801411c:	6878      	ldr	r0, [r7, #4]
 801411e:	f7ff fdb5 	bl	8013c8c <HAL_UARTEx_RxEventCallback>
 8014122:	e002      	b.n	801412a <UART_Receive_IT+0x16a>
#if (USE_HAL_UART_REGISTER_CALLBACKS == 1)
        /*Call registered Rx complete callback*/
        huart->RxCpltCallback(huart);
#else
        /*Call legacy weak Rx complete callback*/
        HAL_UART_RxCpltCallback(huart);
 8014124:	6878      	ldr	r0, [r7, #4]
 8014126:	f7ff fd89 	bl	8013c3c <HAL_UART_RxCpltCallback>
#endif /* USE_HAL_UART_REGISTER_CALLBACKS */
      }

      return HAL_OK;
 801412a:	2300      	movs	r3, #0
 801412c:	e002      	b.n	8014134 <UART_Receive_IT+0x174>
    }
    return HAL_OK;
 801412e:	2300      	movs	r3, #0
 8014130:	e000      	b.n	8014134 <UART_Receive_IT+0x174>
  }
  else
  {
    return HAL_BUSY;
 8014132:	2302      	movs	r3, #2
  }
}
 8014134:	4618      	mov	r0, r3
 8014136:	3730      	adds	r7, #48	@ 0x30
 8014138:	46bd      	mov	sp, r7
 801413a:	bd80      	pop	{r7, pc}

0801413c <UART_SetConfig>:
  * @param  huart  Pointer to a UART_HandleTypeDef structure that contains
  *                the configuration information for the specified UART module.
  * @retval None
  */
static void UART_SetConfig(UART_HandleTypeDef *huart)
{
 801413c:	e92d 4fb0 	stmdb	sp!, {r4, r5, r7, r8, r9, sl, fp, lr}
 8014140:	b0c0      	sub	sp, #256	@ 0x100
 8014142:	af00      	add	r7, sp, #0
 8014144:	f8c7 00f4 	str.w	r0, [r7, #244]	@ 0xf4
  assert_param(IS_UART_MODE(huart->Init.Mode));

  /*-------------------------- USART CR2 Configuration -----------------------*/
  /* Configure the UART Stop Bits: Set STOP[13:12] bits
     according to huart->Init.StopBits value */
  MODIFY_REG(huart->Instance->CR2, USART_CR2_STOP, huart->Init.StopBits);
 8014148:	f8d7 30f4 	ldr.w	r3, [r7, #244]	@ 0xf4
 801414c:	681b      	ldr	r3, [r3, #0]
 801414e:	691b      	ldr	r3, [r3, #16]
 8014150:	f423 5040 	bic.w	r0, r3, #12288	@ 0x3000
 8014154:	f8d7 30f4 	ldr.w	r3, [r7, #244]	@ 0xf4
 8014158:	68d9      	ldr	r1, [r3, #12]
 801415a:	f8d7 30f4 	ldr.w	r3, [r7, #244]	@ 0xf4
 801415e:	681a      	ldr	r2, [r3, #0]
 8014160:	ea40 0301 	orr.w	r3, r0, r1
 8014164:	6113      	str	r3, [r2, #16]
     Set the M bits according to huart->Init.WordLength value
     Set PCE and PS bits according to huart->Init.Parity value
     Set TE and RE bits according to huart->Init.Mode value
     Set OVER8 bit according to huart->Init.OverSampling value */

  tmpreg = (uint32_t)huart->Init.WordLength | huart->Init.Parity | huart->Init.Mode | huart->Init.OverSampling;
 8014166:	f8d7 30f4 	ldr.w	r3, [r7, #244]	@ 0xf4
 801416a:	689a      	ldr	r2, [r3, #8]
 801416c:	f8d7 30f4 	ldr.w	r3, [r7, #244]	@ 0xf4
 8014170:	691b      	ldr	r3, [r3, #16]
 8014172:	431a      	orrs	r2, r3
 8014174:	f8d7 30f4 	ldr.w	r3, [r7, #244]	@ 0xf4
 8014178:	695b      	ldr	r3, [r3, #20]
 801417a:	431a      	orrs	r2, r3
 801417c:	f8d7 30f4 	ldr.w	r3, [r7, #244]	@ 0xf4
 8014180:	69db      	ldr	r3, [r3, #28]
 8014182:	4313      	orrs	r3, r2
 8014184:	f8c7 30f8 	str.w	r3, [r7, #248]	@ 0xf8
  MODIFY_REG(huart->Instance->CR1,
 8014188:	f8d7 30f4 	ldr.w	r3, [r7, #244]	@ 0xf4
 801418c:	681b      	ldr	r3, [r3, #0]
 801418e:	68db      	ldr	r3, [r3, #12]
 8014190:	f423 4116 	bic.w	r1, r3, #38400	@ 0x9600
 8014194:	f021 010c 	bic.w	r1, r1, #12
 8014198:	f8d7 30f4 	ldr.w	r3, [r7, #244]	@ 0xf4
 801419c:	681a      	ldr	r2, [r3, #0]
 801419e:	f8d7 30f8 	ldr.w	r3, [r7, #248]	@ 0xf8
 80141a2:	430b      	orrs	r3, r1
 80141a4:	60d3      	str	r3, [r2, #12]
             (uint32_t)(USART_CR1_M | USART_CR1_PCE | USART_CR1_PS | USART_CR1_TE | USART_CR1_RE | USART_CR1_OVER8),
             tmpreg);

  /*-------------------------- USART CR3 Configuration -----------------------*/
  /* Configure the UART HFC: Set CTSE and RTSE bits according to huart->Init.HwFlowCtl value */
  MODIFY_REG(huart->Instance->CR3, (USART_CR3_RTSE | USART_CR3_CTSE), huart->Init.HwFlowCtl);
 80141a6:	f8d7 30f4 	ldr.w	r3, [r7, #244]	@ 0xf4
 80141aa:	681b      	ldr	r3, [r3, #0]
 80141ac:	695b      	ldr	r3, [r3, #20]
 80141ae:	f423 7040 	bic.w	r0, r3, #768	@ 0x300
 80141b2:	f8d7 30f4 	ldr.w	r3, [r7, #244]	@ 0xf4
 80141b6:	6999      	ldr	r1, [r3, #24]
 80141b8:	f8d7 30f4 	ldr.w	r3, [r7, #244]	@ 0xf4
 80141bc:	681a      	ldr	r2, [r3, #0]
 80141be:	ea40 0301 	orr.w	r3, r0, r1
 80141c2:	6153      	str	r3, [r2, #20]
    if ((huart->Instance == USART1) || (huart->Instance == USART6) || (huart->Instance == UART9) || (huart->Instance == UART10))
    {
      pclk = HAL_RCC_GetPCLK2Freq();
    }
#elif defined(USART6)
    if ((huart->Instance == USART1) || (huart->Instance == USART6))
 80141c4:	f8d7 30f4 	ldr.w	r3, [r7, #244]	@ 0xf4
 80141c8:	681a      	ldr	r2, [r3, #0]
 80141ca:	4b8f      	ldr	r3, [pc, #572]	@ (8014408 <UART_SetConfig+0x2cc>)
 80141cc:	429a      	cmp	r2, r3
 80141ce:	d005      	beq.n	80141dc <UART_SetConfig+0xa0>
 80141d0:	f8d7 30f4 	ldr.w	r3, [r7, #244]	@ 0xf4
 80141d4:	681a      	ldr	r2, [r3, #0]
 80141d6:	4b8d      	ldr	r3, [pc, #564]	@ (801440c <UART_SetConfig+0x2d0>)
 80141d8:	429a      	cmp	r2, r3
 80141da:	d104      	bne.n	80141e6 <UART_SetConfig+0xaa>
    {
      pclk = HAL_RCC_GetPCLK2Freq();
 80141dc:	f7fd fe86 	bl	8011eec <HAL_RCC_GetPCLK2Freq>
 80141e0:	f8c7 00fc 	str.w	r0, [r7, #252]	@ 0xfc
 80141e4:	e003      	b.n	80141ee <UART_SetConfig+0xb2>
      pclk = HAL_RCC_GetPCLK2Freq();
    }
#endif /* USART6 */
    else
    {
      pclk = HAL_RCC_GetPCLK1Freq();
 80141e6:	f7fd fe6d 	bl	8011ec4 <HAL_RCC_GetPCLK1Freq>
 80141ea:	f8c7 00fc 	str.w	r0, [r7, #252]	@ 0xfc
    }
  /*-------------------------- USART BRR Configuration ---------------------*/
  if (huart->Init.OverSampling == UART_OVERSAMPLING_8)
 80141ee:	f8d7 30f4 	ldr.w	r3, [r7, #244]	@ 0xf4
 80141f2:	69db      	ldr	r3, [r3, #28]
 80141f4:	f5b3 4f00 	cmp.w	r3, #32768	@ 0x8000
 80141f8:	f040 810c 	bne.w	8014414 <UART_SetConfig+0x2d8>
  {
    huart->Instance->BRR = UART_BRR_SAMPLING8(pclk, huart->Init.BaudRate);
 80141fc:	f8d7 30fc 	ldr.w	r3, [r7, #252]	@ 0xfc
 8014200:	2200      	movs	r2, #0
 8014202:	f8c7 30e8 	str.w	r3, [r7, #232]	@ 0xe8
 8014206:	f8c7 20ec 	str.w	r2, [r7, #236]	@ 0xec
 801420a:	e9d7 453a 	ldrd	r4, r5, [r7, #232]	@ 0xe8
 801420e:	4622      	mov	r2, r4
 8014210:	462b      	mov	r3, r5
 8014212:	1891      	adds	r1, r2, r2
 8014214:	65b9      	str	r1, [r7, #88]	@ 0x58
 8014216:	415b      	adcs	r3, r3
 8014218:	65fb      	str	r3, [r7, #92]	@ 0x5c
 801421a:	e9d7 2316 	ldrd	r2, r3, [r7, #88]	@ 0x58
 801421e:	4621      	mov	r1, r4
 8014220:	eb12 0801 	adds.w	r8, r2, r1
 8014224:	4629      	mov	r1, r5
 8014226:	eb43 0901 	adc.w	r9, r3, r1
 801422a:	f04f 0200 	mov.w	r2, #0
 801422e:	f04f 0300 	mov.w	r3, #0
 8014232:	ea4f 03c9 	mov.w	r3, r9, lsl #3
 8014236:	ea43 7358 	orr.w	r3, r3, r8, lsr #29
 801423a:	ea4f 02c8 	mov.w	r2, r8, lsl #3
 801423e:	4690      	mov	r8, r2
 8014240:	4699      	mov	r9, r3
 8014242:	4623      	mov	r3, r4
 8014244:	eb18 0303 	adds.w	r3, r8, r3
 8014248:	f8c7 30e0 	str.w	r3, [r7, #224]	@ 0xe0
 801424c:	462b      	mov	r3, r5
 801424e:	eb49 0303 	adc.w	r3, r9, r3
 8014252:	f8c7 30e4 	str.w	r3, [r7, #228]	@ 0xe4
 8014256:	f8d7 30f4 	ldr.w	r3, [r7, #244]	@ 0xf4
 801425a:	685b      	ldr	r3, [r3, #4]
 801425c:	2200      	movs	r2, #0
 801425e:	f8c7 30d8 	str.w	r3, [r7, #216]	@ 0xd8
 8014262:	f8c7 20dc 	str.w	r2, [r7, #220]	@ 0xdc
 8014266:	e9d7 1236 	ldrd	r1, r2, [r7, #216]	@ 0xd8
 801426a:	460b      	mov	r3, r1
 801426c:	18db      	adds	r3, r3, r3
 801426e:	653b      	str	r3, [r7, #80]	@ 0x50
 8014270:	4613      	mov	r3, r2
 8014272:	eb42 0303 	adc.w	r3, r2, r3
 8014276:	657b      	str	r3, [r7, #84]	@ 0x54
 8014278:	e9d7 2314 	ldrd	r2, r3, [r7, #80]	@ 0x50
 801427c:	e9d7 0138 	ldrd	r0, r1, [r7, #224]	@ 0xe0
 8014280:	f7f8 fc00 	bl	800ca84 <__aeabi_uldivmod>
 8014284:	4602      	mov	r2, r0
 8014286:	460b      	mov	r3, r1
 8014288:	4b61      	ldr	r3, [pc, #388]	@ (8014410 <UART_SetConfig+0x2d4>)
 801428a:	fba3 2302 	umull	r2, r3, r3, r2
 801428e:	095b      	lsrs	r3, r3, #5
 8014290:	011c      	lsls	r4, r3, #4
 8014292:	f8d7 30fc 	ldr.w	r3, [r7, #252]	@ 0xfc
 8014296:	2200      	movs	r2, #0
 8014298:	f8c7 30d0 	str.w	r3, [r7, #208]	@ 0xd0
 801429c:	f8c7 20d4 	str.w	r2, [r7, #212]	@ 0xd4
 80142a0:	e9d7 8934 	ldrd	r8, r9, [r7, #208]	@ 0xd0
 80142a4:	4642      	mov	r2, r8
 80142a6:	464b      	mov	r3, r9
 80142a8:	1891      	adds	r1, r2, r2
 80142aa:	64b9      	str	r1, [r7, #72]	@ 0x48
 80142ac:	415b      	adcs	r3, r3
 80142ae:	64fb      	str	r3, [r7, #76]	@ 0x4c
 80142b0:	e9d7 2312 	ldrd	r2, r3, [r7, #72]	@ 0x48
 80142b4:	4641      	mov	r1, r8
 80142b6:	eb12 0a01 	adds.w	sl, r2, r1
 80142ba:	4649      	mov	r1, r9
 80142bc:	eb43 0b01 	adc.w	fp, r3, r1
 80142c0:	f04f 0200 	mov.w	r2, #0
 80142c4:	f04f 0300 	mov.w	r3, #0
 80142c8:	ea4f 03cb 	mov.w	r3, fp, lsl #3
 80142cc:	ea43 735a 	orr.w	r3, r3, sl, lsr #29
 80142d0:	ea4f 02ca 	mov.w	r2, sl, lsl #3
 80142d4:	4692      	mov	sl, r2
 80142d6:	469b      	mov	fp, r3
 80142d8:	4643      	mov	r3, r8
 80142da:	eb1a 0303 	adds.w	r3, sl, r3
 80142de:	f8c7 30c8 	str.w	r3, [r7, #200]	@ 0xc8
 80142e2:	464b      	mov	r3, r9
 80142e4:	eb4b 0303 	adc.w	r3, fp, r3
 80142e8:	f8c7 30cc 	str.w	r3, [r7, #204]	@ 0xcc
 80142ec:	f8d7 30f4 	ldr.w	r3, [r7, #244]	@ 0xf4
 80142f0:	685b      	ldr	r3, [r3, #4]
 80142f2:	2200      	movs	r2, #0
 80142f4:	f8c7 30c0 	str.w	r3, [r7, #192]	@ 0xc0
 80142f8:	f8c7 20c4 	str.w	r2, [r7, #196]	@ 0xc4
 80142fc:	e9d7 1230 	ldrd	r1, r2, [r7, #192]	@ 0xc0
 8014300:	460b      	mov	r3, r1
 8014302:	18db      	adds	r3, r3, r3
 8014304:	643b      	str	r3, [r7, #64]	@ 0x40
 8014306:	4613      	mov	r3, r2
 8014308:	eb42 0303 	adc.w	r3, r2, r3
 801430c:	647b      	str	r3, [r7, #68]	@ 0x44
 801430e:	e9d7 2310 	ldrd	r2, r3, [r7, #64]	@ 0x40
 8014312:	e9d7 0132 	ldrd	r0, r1, [r7, #200]	@ 0xc8
 8014316:	f7f8 fbb5 	bl	800ca84 <__aeabi_uldivmod>
 801431a:	4602      	mov	r2, r0
 801431c:	460b      	mov	r3, r1
 801431e:	4611      	mov	r1, r2
 8014320:	4b3b      	ldr	r3, [pc, #236]	@ (8014410 <UART_SetConfig+0x2d4>)
 8014322:	fba3 2301 	umull	r2, r3, r3, r1
 8014326:	095b      	lsrs	r3, r3, #5
 8014328:	2264      	movs	r2, #100	@ 0x64
 801432a:	fb02 f303 	mul.w	r3, r2, r3
 801432e:	1acb      	subs	r3, r1, r3
 8014330:	00db      	lsls	r3, r3, #3
 8014332:	f103 0232 	add.w	r2, r3, #50	@ 0x32
 8014336:	4b36      	ldr	r3, [pc, #216]	@ (8014410 <UART_SetConfig+0x2d4>)
 8014338:	fba3 2302 	umull	r2, r3, r3, r2
 801433c:	095b      	lsrs	r3, r3, #5
 801433e:	005b      	lsls	r3, r3, #1
 8014340:	f403 73f8 	and.w	r3, r3, #496	@ 0x1f0
 8014344:	441c      	add	r4, r3
 8014346:	f8d7 30fc 	ldr.w	r3, [r7, #252]	@ 0xfc
 801434a:	2200      	movs	r2, #0
 801434c:	f8c7 30b8 	str.w	r3, [r7, #184]	@ 0xb8
 8014350:	f8c7 20bc 	str.w	r2, [r7, #188]	@ 0xbc
 8014354:	e9d7 892e 	ldrd	r8, r9, [r7, #184]	@ 0xb8
 8014358:	4642      	mov	r2, r8
 801435a:	464b      	mov	r3, r9
 801435c:	1891      	adds	r1, r2, r2
 801435e:	63b9      	str	r1, [r7, #56]	@ 0x38
 8014360:	415b      	adcs	r3, r3
 8014362:	63fb      	str	r3, [r7, #60]	@ 0x3c
 8014364:	e9d7 230e 	ldrd	r2, r3, [r7, #56]	@ 0x38
 8014368:	4641      	mov	r1, r8
 801436a:	1851      	adds	r1, r2, r1
 801436c:	6339      	str	r1, [r7, #48]	@ 0x30
 801436e:	4649      	mov	r1, r9
 8014370:	414b      	adcs	r3, r1
 8014372:	637b      	str	r3, [r7, #52]	@ 0x34
 8014374:	f04f 0200 	mov.w	r2, #0
 8014378:	f04f 0300 	mov.w	r3, #0
 801437c:	e9d7 ab0c 	ldrd	sl, fp, [r7, #48]	@ 0x30
 8014380:	4659      	mov	r1, fp
 8014382:	00cb      	lsls	r3, r1, #3
 8014384:	4651      	mov	r1, sl
 8014386:	ea43 7351 	orr.w	r3, r3, r1, lsr #29
 801438a:	4651      	mov	r1, sl
 801438c:	00ca      	lsls	r2, r1, #3
 801438e:	4610      	mov	r0, r2
 8014390:	4619      	mov	r1, r3
 8014392:	4603      	mov	r3, r0
 8014394:	4642      	mov	r2, r8
 8014396:	189b      	adds	r3, r3, r2
 8014398:	f8c7 30b0 	str.w	r3, [r7, #176]	@ 0xb0
 801439c:	464b      	mov	r3, r9
 801439e:	460a      	mov	r2, r1
 80143a0:	eb42 0303 	adc.w	r3, r2, r3
 80143a4:	f8c7 30b4 	str.w	r3, [r7, #180]	@ 0xb4
 80143a8:	f8d7 30f4 	ldr.w	r3, [r7, #244]	@ 0xf4
 80143ac:	685b      	ldr	r3, [r3, #4]
 80143ae:	2200      	movs	r2, #0
 80143b0:	f8c7 30a8 	str.w	r3, [r7, #168]	@ 0xa8
 80143b4:	f8c7 20ac 	str.w	r2, [r7, #172]	@ 0xac
 80143b8:	e9d7 122a 	ldrd	r1, r2, [r7, #168]	@ 0xa8
 80143bc:	460b      	mov	r3, r1
 80143be:	18db      	adds	r3, r3, r3
 80143c0:	62bb      	str	r3, [r7, #40]	@ 0x28
 80143c2:	4613      	mov	r3, r2
 80143c4:	eb42 0303 	adc.w	r3, r2, r3
 80143c8:	62fb      	str	r3, [r7, #44]	@ 0x2c
 80143ca:	e9d7 230a 	ldrd	r2, r3, [r7, #40]	@ 0x28
 80143ce:	e9d7 012c 	ldrd	r0, r1, [r7, #176]	@ 0xb0
 80143d2:	f7f8 fb57 	bl	800ca84 <__aeabi_uldivmod>
 80143d6:	4602      	mov	r2, r0
 80143d8:	460b      	mov	r3, r1
 80143da:	4b0d      	ldr	r3, [pc, #52]	@ (8014410 <UART_SetConfig+0x2d4>)
 80143dc:	fba3 1302 	umull	r1, r3, r3, r2
 80143e0:	095b      	lsrs	r3, r3, #5
 80143e2:	2164      	movs	r1, #100	@ 0x64
 80143e4:	fb01 f303 	mul.w	r3, r1, r3
 80143e8:	1ad3      	subs	r3, r2, r3
 80143ea:	00db      	lsls	r3, r3, #3
 80143ec:	3332      	adds	r3, #50	@ 0x32
 80143ee:	4a08      	ldr	r2, [pc, #32]	@ (8014410 <UART_SetConfig+0x2d4>)
 80143f0:	fba2 2303 	umull	r2, r3, r2, r3
 80143f4:	095b      	lsrs	r3, r3, #5
 80143f6:	f003 0207 	and.w	r2, r3, #7
 80143fa:	f8d7 30f4 	ldr.w	r3, [r7, #244]	@ 0xf4
 80143fe:	681b      	ldr	r3, [r3, #0]
 8014400:	4422      	add	r2, r4
 8014402:	609a      	str	r2, [r3, #8]
  }
  else
  {
    huart->Instance->BRR = UART_BRR_SAMPLING16(pclk, huart->Init.BaudRate);
  }
}
 8014404:	e106      	b.n	8014614 <UART_SetConfig+0x4d8>
 8014406:	bf00      	nop
 8014408:	40011000 	.word	0x40011000
 801440c:	40011400 	.word	0x40011400
 8014410:	51eb851f 	.word	0x51eb851f
    huart->Instance->BRR = UART_BRR_SAMPLING16(pclk, huart->Init.BaudRate);
 8014414:	f8d7 30fc 	ldr.w	r3, [r7, #252]	@ 0xfc
 8014418:	2200      	movs	r2, #0
 801441a:	f8c7 30a0 	str.w	r3, [r7, #160]	@ 0xa0
 801441e:	f8c7 20a4 	str.w	r2, [r7, #164]	@ 0xa4
 8014422:	e9d7 8928 	ldrd	r8, r9, [r7, #160]	@ 0xa0
 8014426:	4642      	mov	r2, r8
 8014428:	464b      	mov	r3, r9
 801442a:	1891      	adds	r1, r2, r2
 801442c:	6239      	str	r1, [r7, #32]
 801442e:	415b      	adcs	r3, r3
 8014430:	627b      	str	r3, [r7, #36]	@ 0x24
 8014432:	e9d7 2308 	ldrd	r2, r3, [r7, #32]
 8014436:	4641      	mov	r1, r8
 8014438:	1854      	adds	r4, r2, r1
 801443a:	4649      	mov	r1, r9
 801443c:	eb43 0501 	adc.w	r5, r3, r1
 8014440:	f04f 0200 	mov.w	r2, #0
 8014444:	f04f 0300 	mov.w	r3, #0
 8014448:	00eb      	lsls	r3, r5, #3
 801444a:	ea43 7354 	orr.w	r3, r3, r4, lsr #29
 801444e:	00e2      	lsls	r2, r4, #3
 8014450:	4614      	mov	r4, r2
 8014452:	461d      	mov	r5, r3
 8014454:	4643      	mov	r3, r8
 8014456:	18e3      	adds	r3, r4, r3
 8014458:	f8c7 3098 	str.w	r3, [r7, #152]	@ 0x98
 801445c:	464b      	mov	r3, r9
 801445e:	eb45 0303 	adc.w	r3, r5, r3
 8014462:	f8c7 309c 	str.w	r3, [r7, #156]	@ 0x9c
 8014466:	f8d7 30f4 	ldr.w	r3, [r7, #244]	@ 0xf4
 801446a:	685b      	ldr	r3, [r3, #4]
 801446c:	2200      	movs	r2, #0
 801446e:	f8c7 3090 	str.w	r3, [r7, #144]	@ 0x90
 8014472:	f8c7 2094 	str.w	r2, [r7, #148]	@ 0x94
 8014476:	f04f 0200 	mov.w	r2, #0
 801447a:	f04f 0300 	mov.w	r3, #0
 801447e:	e9d7 4524 	ldrd	r4, r5, [r7, #144]	@ 0x90
 8014482:	4629      	mov	r1, r5
 8014484:	008b      	lsls	r3, r1, #2
 8014486:	4621      	mov	r1, r4
 8014488:	ea43 7391 	orr.w	r3, r3, r1, lsr #30
 801448c:	4621      	mov	r1, r4
 801448e:	008a      	lsls	r2, r1, #2
 8014490:	e9d7 0126 	ldrd	r0, r1, [r7, #152]	@ 0x98
 8014494:	f7f8 faf6 	bl	800ca84 <__aeabi_uldivmod>
 8014498:	4602      	mov	r2, r0
 801449a:	460b      	mov	r3, r1
 801449c:	4b60      	ldr	r3, [pc, #384]	@ (8014620 <UART_SetConfig+0x4e4>)
 801449e:	fba3 2302 	umull	r2, r3, r3, r2
 80144a2:	095b      	lsrs	r3, r3, #5
 80144a4:	011c      	lsls	r4, r3, #4
 80144a6:	f8d7 30fc 	ldr.w	r3, [r7, #252]	@ 0xfc
 80144aa:	2200      	movs	r2, #0
 80144ac:	f8c7 3088 	str.w	r3, [r7, #136]	@ 0x88
 80144b0:	f8c7 208c 	str.w	r2, [r7, #140]	@ 0x8c
 80144b4:	e9d7 8922 	ldrd	r8, r9, [r7, #136]	@ 0x88
 80144b8:	4642      	mov	r2, r8
 80144ba:	464b      	mov	r3, r9
 80144bc:	1891      	adds	r1, r2, r2
 80144be:	61b9      	str	r1, [r7, #24]
 80144c0:	415b      	adcs	r3, r3
 80144c2:	61fb      	str	r3, [r7, #28]
 80144c4:	e9d7 2306 	ldrd	r2, r3, [r7, #24]
 80144c8:	4641      	mov	r1, r8
 80144ca:	1851      	adds	r1, r2, r1
 80144cc:	6139      	str	r1, [r7, #16]
 80144ce:	4649      	mov	r1, r9
 80144d0:	414b      	adcs	r3, r1
 80144d2:	617b      	str	r3, [r7, #20]
 80144d4:	f04f 0200 	mov.w	r2, #0
 80144d8:	f04f 0300 	mov.w	r3, #0
 80144dc:	e9d7 ab04 	ldrd	sl, fp, [r7, #16]
 80144e0:	4659      	mov	r1, fp
 80144e2:	00cb      	lsls	r3, r1, #3
 80144e4:	4651      	mov	r1, sl
 80144e6:	ea43 7351 	orr.w	r3, r3, r1, lsr #29
 80144ea:	4651      	mov	r1, sl
 80144ec:	00ca      	lsls	r2, r1, #3
 80144ee:	4610      	mov	r0, r2
 80144f0:	4619      	mov	r1, r3
 80144f2:	4603      	mov	r3, r0
 80144f4:	4642      	mov	r2, r8
 80144f6:	189b      	adds	r3, r3, r2
 80144f8:	f8c7 3080 	str.w	r3, [r7, #128]	@ 0x80
 80144fc:	464b      	mov	r3, r9
 80144fe:	460a      	mov	r2, r1
 8014500:	eb42 0303 	adc.w	r3, r2, r3
 8014504:	f8c7 3084 	str.w	r3, [r7, #132]	@ 0x84
 8014508:	f8d7 30f4 	ldr.w	r3, [r7, #244]	@ 0xf4
 801450c:	685b      	ldr	r3, [r3, #4]
 801450e:	2200      	movs	r2, #0
 8014510:	67bb      	str	r3, [r7, #120]	@ 0x78
 8014512:	67fa      	str	r2, [r7, #124]	@ 0x7c
 8014514:	f04f 0200 	mov.w	r2, #0
 8014518:	f04f 0300 	mov.w	r3, #0
 801451c:	e9d7 891e 	ldrd	r8, r9, [r7, #120]	@ 0x78
 8014520:	4649      	mov	r1, r9
 8014522:	008b      	lsls	r3, r1, #2
 8014524:	4641      	mov	r1, r8
 8014526:	ea43 7391 	orr.w	r3, r3, r1, lsr #30
 801452a:	4641      	mov	r1, r8
 801452c:	008a      	lsls	r2, r1, #2
 801452e:	e9d7 0120 	ldrd	r0, r1, [r7, #128]	@ 0x80
 8014532:	f7f8 faa7 	bl	800ca84 <__aeabi_uldivmod>
 8014536:	4602      	mov	r2, r0
 8014538:	460b      	mov	r3, r1
 801453a:	4611      	mov	r1, r2
 801453c:	4b38      	ldr	r3, [pc, #224]	@ (8014620 <UART_SetConfig+0x4e4>)
 801453e:	fba3 2301 	umull	r2, r3, r3, r1
 8014542:	095b      	lsrs	r3, r3, #5
 8014544:	2264      	movs	r2, #100	@ 0x64
 8014546:	fb02 f303 	mul.w	r3, r2, r3
 801454a:	1acb      	subs	r3, r1, r3
 801454c:	011b      	lsls	r3, r3, #4
 801454e:	3332      	adds	r3, #50	@ 0x32
 8014550:	4a33      	ldr	r2, [pc, #204]	@ (8014620 <UART_SetConfig+0x4e4>)
 8014552:	fba2 2303 	umull	r2, r3, r2, r3
 8014556:	095b      	lsrs	r3, r3, #5
 8014558:	f003 03f0 	and.w	r3, r3, #240	@ 0xf0
 801455c:	441c      	add	r4, r3
 801455e:	f8d7 30fc 	ldr.w	r3, [r7, #252]	@ 0xfc
 8014562:	2200      	movs	r2, #0
 8014564:	673b      	str	r3, [r7, #112]	@ 0x70
 8014566:	677a      	str	r2, [r7, #116]	@ 0x74
 8014568:	e9d7 891c 	ldrd	r8, r9, [r7, #112]	@ 0x70
 801456c:	4642      	mov	r2, r8
 801456e:	464b      	mov	r3, r9
 8014570:	1891      	adds	r1, r2, r2
 8014572:	60b9      	str	r1, [r7, #8]
 8014574:	415b      	adcs	r3, r3
 8014576:	60fb      	str	r3, [r7, #12]
 8014578:	e9d7 2302 	ldrd	r2, r3, [r7, #8]
 801457c:	4641      	mov	r1, r8
 801457e:	1851      	adds	r1, r2, r1
 8014580:	6039      	str	r1, [r7, #0]
 8014582:	4649      	mov	r1, r9
 8014584:	414b      	adcs	r3, r1
 8014586:	607b      	str	r3, [r7, #4]
 8014588:	f04f 0200 	mov.w	r2, #0
 801458c:	f04f 0300 	mov.w	r3, #0
 8014590:	e9d7 ab00 	ldrd	sl, fp, [r7]
 8014594:	4659      	mov	r1, fp
 8014596:	00cb      	lsls	r3, r1, #3
 8014598:	4651      	mov	r1, sl
 801459a:	ea43 7351 	orr.w	r3, r3, r1, lsr #29
 801459e:	4651      	mov	r1, sl
 80145a0:	00ca      	lsls	r2, r1, #3
 80145a2:	4610      	mov	r0, r2
 80145a4:	4619      	mov	r1, r3
 80145a6:	4603      	mov	r3, r0
 80145a8:	4642      	mov	r2, r8
 80145aa:	189b      	adds	r3, r3, r2
 80145ac:	66bb      	str	r3, [r7, #104]	@ 0x68
 80145ae:	464b      	mov	r3, r9
 80145b0:	460a      	mov	r2, r1
 80145b2:	eb42 0303 	adc.w	r3, r2, r3
 80145b6:	66fb      	str	r3, [r7, #108]	@ 0x6c
 80145b8:	f8d7 30f4 	ldr.w	r3, [r7, #244]	@ 0xf4
 80145bc:	685b      	ldr	r3, [r3, #4]
 80145be:	2200      	movs	r2, #0
 80145c0:	663b      	str	r3, [r7, #96]	@ 0x60
 80145c2:	667a      	str	r2, [r7, #100]	@ 0x64
 80145c4:	f04f 0200 	mov.w	r2, #0
 80145c8:	f04f 0300 	mov.w	r3, #0
 80145cc:	e9d7 8918 	ldrd	r8, r9, [r7, #96]	@ 0x60
 80145d0:	4649      	mov	r1, r9
 80145d2:	008b      	lsls	r3, r1, #2
 80145d4:	4641      	mov	r1, r8
 80145d6:	ea43 7391 	orr.w	r3, r3, r1, lsr #30
 80145da:	4641      	mov	r1, r8
 80145dc:	008a      	lsls	r2, r1, #2
 80145de:	e9d7 011a 	ldrd	r0, r1, [r7, #104]	@ 0x68
 80145e2:	f7f8 fa4f 	bl	800ca84 <__aeabi_uldivmod>
 80145e6:	4602      	mov	r2, r0
 80145e8:	460b      	mov	r3, r1
 80145ea:	4b0d      	ldr	r3, [pc, #52]	@ (8014620 <UART_SetConfig+0x4e4>)
 80145ec:	fba3 1302 	umull	r1, r3, r3, r2
 80145f0:	095b      	lsrs	r3, r3, #5
 80145f2:	2164      	movs	r1, #100	@ 0x64
 80145f4:	fb01 f303 	mul.w	r3, r1, r3
 80145f8:	1ad3      	subs	r3, r2, r3
 80145fa:	011b      	lsls	r3, r3, #4
 80145fc:	3332      	adds	r3, #50	@ 0x32
 80145fe:	4a08      	ldr	r2, [pc, #32]	@ (8014620 <UART_SetConfig+0x4e4>)
 8014600:	fba2 2303 	umull	r2, r3, r2, r3
 8014604:	095b      	lsrs	r3, r3, #5
 8014606:	f003 020f 	and.w	r2, r3, #15
 801460a:	f8d7 30f4 	ldr.w	r3, [r7, #244]	@ 0xf4
 801460e:	681b      	ldr	r3, [r3, #0]
 8014610:	4422      	add	r2, r4
 8014612:	609a      	str	r2, [r3, #8]
}
 8014614:	bf00      	nop
 8014616:	f507 7780 	add.w	r7, r7, #256	@ 0x100
 801461a:	46bd      	mov	sp, r7
 801461c:	e8bd 8fb0 	ldmia.w	sp!, {r4, r5, r7, r8, r9, sl, fp, pc}
 8014620:	51eb851f 	.word	0x51eb851f

08014624 <Probe_Init>:
static inline void Filter_Reset(Filter_t *f);
static inline uint16_t Filter_Step(Filter_t *f, uint16_t x);

/* Public functions ----------------------------------------------------------*/
void Probe_Init(void)
{
 8014624:	b580      	push	{r7, lr}
 8014626:	af00      	add	r7, sp, #0
    Probe_InitHAL();
 8014628:	f000 f814 	bl	8014654 <Probe_InitHAL>
    Filter_Reset(&filter_main);
 801462c:	4803      	ldr	r0, [pc, #12]	@ (801463c <Probe_Init+0x18>)
 801462e:	f000 f89c 	bl	801476a <Filter_Reset>
    Filter_Reset(&filter_extra);
 8014632:	4803      	ldr	r0, [pc, #12]	@ (8014640 <Probe_Init+0x1c>)
 8014634:	f000 f899 	bl	801476a <Filter_Reset>
}
 8014638:	bf00      	nop
 801463a:	bd80      	pop	{r7, pc}
 801463c:	2001e03c 	.word	0x2001e03c
 8014640:	2001e054 	.word	0x2001e054

08014644 <Probe_Handle>:

void Probe_Handle(void)
{
 8014644:	b480      	push	{r7}
 8014646:	af00      	add	r7, sp, #0

}
 8014648:	bf00      	nop
 801464a:	46bd      	mov	sp, r7
 801464c:	f85d 7b04 	ldr.w	r7, [sp], #4
 8014650:	4770      	bx	lr
	...

08014654 <Probe_InitHAL>:

/* Callback functions --------------------------------------------------------*/

/* Private functions ---------------------------------------------------------*/
void Probe_InitHAL(void)
{
 8014654:	b580      	push	{r7, lr}
 8014656:	af00      	add	r7, sp, #0
    if (HAL_TIM_Base_Start_IT(&htim2) != HAL_OK)
 8014658:	4802      	ldr	r0, [pc, #8]	@ (8014664 <Probe_InitHAL+0x10>)
 801465a:	f7fe f97b 	bl	8012954 <HAL_TIM_Base_Start_IT>
    {
        // error handler
    }
}
 801465e:	bf00      	nop
 8014660:	bd80      	pop	{r7, pc}
 8014662:	bf00      	nop
 8014664:	20000a6c 	.word	0x20000a6c

08014668 <AngleBufferFIFO_Reset>:

static inline void AngleBufferFIFO_Reset(AngleBufferFIFO_t *ab)
{
 8014668:	b480      	push	{r7}
 801466a:	b083      	sub	sp, #12
 801466c:	af00      	add	r7, sp, #0
 801466e:	6078      	str	r0, [r7, #4]
    ab->count = 0;
 8014670:	687b      	ldr	r3, [r7, #4]
 8014672:	2200      	movs	r2, #0
 8014674:	f883 2028 	strb.w	r2, [r3, #40]	@ 0x28
}
 8014678:	bf00      	nop
 801467a:	370c      	adds	r7, #12
 801467c:	46bd      	mov	sp, r7
 801467e:	f85d 7b04 	ldr.w	r7, [sp], #4
 8014682:	4770      	bx	lr

08014684 <AngleBufferFIFO_Add>:

/* Pidn nov hodnoty */
static inline void AngleBufferFIFO_Add(AngleBufferFIFO_t *ab, int16_t angle)
{
 8014684:	b580      	push	{r7, lr}
 8014686:	b084      	sub	sp, #16
 8014688:	af00      	add	r7, sp, #0
 801468a:	6078      	str	r0, [r7, #4]
 801468c:	460b      	mov	r3, r1
 801468e:	807b      	strh	r3, [r7, #2]
    // pokud se hel dostane na hranici, resetujeme
    if (angle > 178 || angle < -178)
 8014690:	f9b7 3002 	ldrsh.w	r3, [r7, #2]
 8014694:	2bb2      	cmp	r3, #178	@ 0xb2
 8014696:	dc04      	bgt.n	80146a2 <AngleBufferFIFO_Add+0x1e>
 8014698:	f9b7 3002 	ldrsh.w	r3, [r7, #2]
 801469c:	f113 0fb2 	cmn.w	r3, #178	@ 0xb2
 80146a0:	da0a      	bge.n	80146b8 <AngleBufferFIFO_Add+0x34>
    {
        AngleBufferFIFO_Reset(ab);
 80146a2:	6878      	ldr	r0, [r7, #4]
 80146a4:	f7ff ffe0 	bl	8014668 <AngleBufferFIFO_Reset>
        ab->buf[0] = angle;
 80146a8:	687b      	ldr	r3, [r7, #4]
 80146aa:	887a      	ldrh	r2, [r7, #2]
 80146ac:	801a      	strh	r2, [r3, #0]
        ab->count = 1;
 80146ae:	687b      	ldr	r3, [r7, #4]
 80146b0:	2201      	movs	r2, #1
 80146b2:	f883 2028 	strb.w	r2, [r3, #40]	@ 0x28
        return;
 80146b6:	e027      	b.n	8014708 <AngleBufferFIFO_Add+0x84>
    }

    if (ab->count < ANGLE_BUFFER_LEN)
 80146b8:	687b      	ldr	r3, [r7, #4]
 80146ba:	f893 3028 	ldrb.w	r3, [r3, #40]	@ 0x28
 80146be:	2b13      	cmp	r3, #19
 80146c0:	d80d      	bhi.n	80146de <AngleBufferFIFO_Add+0x5a>
    {
        ab->buf[ab->count++] = angle;
 80146c2:	687b      	ldr	r3, [r7, #4]
 80146c4:	f893 3028 	ldrb.w	r3, [r3, #40]	@ 0x28
 80146c8:	1c5a      	adds	r2, r3, #1
 80146ca:	b2d1      	uxtb	r1, r2
 80146cc:	687a      	ldr	r2, [r7, #4]
 80146ce:	f882 1028 	strb.w	r1, [r2, #40]	@ 0x28
 80146d2:	4619      	mov	r1, r3
 80146d4:	687b      	ldr	r3, [r7, #4]
 80146d6:	887a      	ldrh	r2, [r7, #2]
 80146d8:	f823 2011 	strh.w	r2, [r3, r1, lsl #1]
 80146dc:	e014      	b.n	8014708 <AngleBufferFIFO_Add+0x84>
    }
    else
    {
        for (uint8_t i = 0; i < ANGLE_BUFFER_LEN - 1; i++)
 80146de:	2300      	movs	r3, #0
 80146e0:	73fb      	strb	r3, [r7, #15]
 80146e2:	e00b      	b.n	80146fc <AngleBufferFIFO_Add+0x78>
            ab->buf[i] = ab->buf[i + 1];
 80146e4:	7bfb      	ldrb	r3, [r7, #15]
 80146e6:	1c59      	adds	r1, r3, #1
 80146e8:	7bfa      	ldrb	r2, [r7, #15]
 80146ea:	687b      	ldr	r3, [r7, #4]
 80146ec:	f933 1011 	ldrsh.w	r1, [r3, r1, lsl #1]
 80146f0:	687b      	ldr	r3, [r7, #4]
 80146f2:	f823 1012 	strh.w	r1, [r3, r2, lsl #1]
        for (uint8_t i = 0; i < ANGLE_BUFFER_LEN - 1; i++)
 80146f6:	7bfb      	ldrb	r3, [r7, #15]
 80146f8:	3301      	adds	r3, #1
 80146fa:	73fb      	strb	r3, [r7, #15]
 80146fc:	7bfb      	ldrb	r3, [r7, #15]
 80146fe:	2b12      	cmp	r3, #18
 8014700:	d9f0      	bls.n	80146e4 <AngleBufferFIFO_Add+0x60>

        ab->buf[ANGLE_BUFFER_LEN - 1] = angle;
 8014702:	687b      	ldr	r3, [r7, #4]
 8014704:	887a      	ldrh	r2, [r7, #2]
 8014706:	84da      	strh	r2, [r3, #38]	@ 0x26
    }
}
 8014708:	3710      	adds	r7, #16
 801470a:	46bd      	mov	sp, r7
 801470c:	bd80      	pop	{r7, pc}

0801470e <Detect_RotationDirection>:

/* Detekce smru  porovnn prvn a posledn hodnoty */
static rotation_dir_t Detect_RotationDirection(AngleBufferFIFO_t *ab)
{
 801470e:	b480      	push	{r7}
 8014710:	b085      	sub	sp, #20
 8014712:	af00      	add	r7, sp, #0
 8014714:	6078      	str	r0, [r7, #4]
    if (ab->count < ANGLE_BUFFER_LEN)
 8014716:	687b      	ldr	r3, [r7, #4]
 8014718:	f893 3028 	ldrb.w	r3, [r3, #40]	@ 0x28
 801471c:	2b13      	cmp	r3, #19
 801471e:	d801      	bhi.n	8014724 <Detect_RotationDirection+0x16>
        return DIR_NONE;
 8014720:	2300      	movs	r3, #0
 8014722:	e01c      	b.n	801475e <Detect_RotationDirection+0x50>

    int16_t first = ab->buf[0];
 8014724:	687b      	ldr	r3, [r7, #4]
 8014726:	881b      	ldrh	r3, [r3, #0]
 8014728:	81fb      	strh	r3, [r7, #14]
    int16_t last = ab->buf[ab->count - 1];
 801472a:	687b      	ldr	r3, [r7, #4]
 801472c:	f893 3028 	ldrb.w	r3, [r3, #40]	@ 0x28
 8014730:	1e5a      	subs	r2, r3, #1
 8014732:	687b      	ldr	r3, [r7, #4]
 8014734:	f833 3012 	ldrh.w	r3, [r3, r2, lsl #1]
 8014738:	81bb      	strh	r3, [r7, #12]

    int16_t diff = last - first;
 801473a:	89ba      	ldrh	r2, [r7, #12]
 801473c:	89fb      	ldrh	r3, [r7, #14]
 801473e:	1ad3      	subs	r3, r2, r3
 8014740:	b29b      	uxth	r3, r3
 8014742:	817b      	strh	r3, [r7, #10]

    if (diff > 0)
 8014744:	f9b7 300a 	ldrsh.w	r3, [r7, #10]
 8014748:	2b00      	cmp	r3, #0
 801474a:	dd01      	ble.n	8014750 <Detect_RotationDirection+0x42>
        return DIR_CW;   // rostouc
 801474c:	2301      	movs	r3, #1
 801474e:	e006      	b.n	801475e <Detect_RotationDirection+0x50>
    if (diff < 0)
 8014750:	f9b7 300a 	ldrsh.w	r3, [r7, #10]
 8014754:	2b00      	cmp	r3, #0
 8014756:	da01      	bge.n	801475c <Detect_RotationDirection+0x4e>
        return DIR_CCW;  // klesajc
 8014758:	2302      	movs	r3, #2
 801475a:	e000      	b.n	801475e <Detect_RotationDirection+0x50>
    return DIR_NONE;
 801475c:	2300      	movs	r3, #0
}
 801475e:	4618      	mov	r0, r3
 8014760:	3714      	adds	r7, #20
 8014762:	46bd      	mov	sp, r7
 8014764:	f85d 7b04 	ldr.w	r7, [sp], #4
 8014768:	4770      	bx	lr

0801476a <Filter_Reset>:

/* Obecn funkce pro filtr */
static inline void Filter_Reset(Filter_t *f)
{
 801476a:	b480      	push	{r7}
 801476c:	b083      	sub	sp, #12
 801476e:	af00      	add	r7, sp, #0
 8014770:	6078      	str	r0, [r7, #4]
    f->exp_avg = 0.0f;
 8014772:	687b      	ldr	r3, [r7, #4]
 8014774:	f04f 0200 	mov.w	r2, #0
 8014778:	601a      	str	r2, [r3, #0]
    f->movavg_index = 0;
 801477a:	687b      	ldr	r3, [r7, #4]
 801477c:	2200      	movs	r2, #0
 801477e:	741a      	strb	r2, [r3, #16]
    f->movavg_count = 0;
 8014780:	687b      	ldr	r3, [r7, #4]
 8014782:	2200      	movs	r2, #0
 8014784:	745a      	strb	r2, [r3, #17]
    f->initialized = 0;
 8014786:	687b      	ldr	r3, [r7, #4]
 8014788:	2200      	movs	r2, #0
 801478a:	749a      	strb	r2, [r3, #18]
    f->last_value = 0.0f;
 801478c:	687b      	ldr	r3, [r7, #4]
 801478e:	f04f 0200 	mov.w	r2, #0
 8014792:	615a      	str	r2, [r3, #20]
}
 8014794:	bf00      	nop
 8014796:	370c      	adds	r7, #12
 8014798:	46bd      	mov	sp, r7
 801479a:	f85d 7b04 	ldr.w	r7, [sp], #4
 801479e:	4770      	bx	lr

080147a0 <Filter_Step>:

static inline uint16_t Filter_Step(Filter_t *f, uint16_t x)
{
 80147a0:	b480      	push	{r7}
 80147a2:	b087      	sub	sp, #28
 80147a4:	af00      	add	r7, sp, #0
 80147a6:	6078      	str	r0, [r7, #4]
 80147a8:	460b      	mov	r3, r1
 80147aa:	807b      	strh	r3, [r7, #2]
    if (!f->initialized)
 80147ac:	687b      	ldr	r3, [r7, #4]
 80147ae:	7c9b      	ldrb	r3, [r3, #18]
 80147b0:	2b00      	cmp	r3, #0
 80147b2:	d121      	bne.n	80147f8 <Filter_Step+0x58>
    {
        f->exp_avg = (float) x;
 80147b4:	887b      	ldrh	r3, [r7, #2]
 80147b6:	ee07 3a90 	vmov	s15, r3
 80147ba:	eef8 7a67 	vcvt.f32.u32	s15, s15
 80147be:	687b      	ldr	r3, [r7, #4]
 80147c0:	edc3 7a00 	vstr	s15, [r3]
        f->last_value = f->exp_avg;
 80147c4:	687b      	ldr	r3, [r7, #4]
 80147c6:	681a      	ldr	r2, [r3, #0]
 80147c8:	687b      	ldr	r3, [r7, #4]
 80147ca:	615a      	str	r2, [r3, #20]
        f->initialized = 1;
 80147cc:	687b      	ldr	r3, [r7, #4]
 80147ce:	2201      	movs	r2, #1
 80147d0:	749a      	strb	r2, [r3, #18]
        f->movavg_buf[0] = f->exp_avg;
 80147d2:	687b      	ldr	r3, [r7, #4]
 80147d4:	681a      	ldr	r2, [r3, #0]
 80147d6:	687b      	ldr	r3, [r7, #4]
 80147d8:	605a      	str	r2, [r3, #4]
        f->movavg_index = 1;
 80147da:	687b      	ldr	r3, [r7, #4]
 80147dc:	2201      	movs	r2, #1
 80147de:	741a      	strb	r2, [r3, #16]
        f->movavg_count = 1;
 80147e0:	687b      	ldr	r3, [r7, #4]
 80147e2:	2201      	movs	r2, #1
 80147e4:	745a      	strb	r2, [r3, #17]
        return (uint16_t) f->exp_avg;
 80147e6:	687b      	ldr	r3, [r7, #4]
 80147e8:	edd3 7a00 	vldr	s15, [r3]
 80147ec:	eefc 7ae7 	vcvt.u32.f32	s15, s15
 80147f0:	ee17 3a90 	vmov	r3, s15
 80147f4:	b29b      	uxth	r3, r3
 80147f6:	e081      	b.n	80148fc <Filter_Step+0x15c>
    }
    else
    {
        f->exp_avg = (0.9f * f->exp_avg) + (0.1f * (float) x);
 80147f8:	687b      	ldr	r3, [r7, #4]
 80147fa:	edd3 7a00 	vldr	s15, [r3]
 80147fe:	ed9f 7a42 	vldr	s14, [pc, #264]	@ 8014908 <Filter_Step+0x168>
 8014802:	ee27 7a87 	vmul.f32	s14, s15, s14
 8014806:	887b      	ldrh	r3, [r7, #2]
 8014808:	ee07 3a90 	vmov	s15, r3
 801480c:	eef8 7a67 	vcvt.f32.u32	s15, s15
 8014810:	eddf 6a3e 	vldr	s13, [pc, #248]	@ 801490c <Filter_Step+0x16c>
 8014814:	ee67 7aa6 	vmul.f32	s15, s15, s13
 8014818:	ee77 7a27 	vadd.f32	s15, s14, s15
 801481c:	687b      	ldr	r3, [r7, #4]
 801481e:	edc3 7a00 	vstr	s15, [r3]
    }

    float diff = fabsf(f->exp_avg - f->last_value);
 8014822:	687b      	ldr	r3, [r7, #4]
 8014824:	ed93 7a00 	vldr	s14, [r3]
 8014828:	687b      	ldr	r3, [r7, #4]
 801482a:	edd3 7a05 	vldr	s15, [r3, #20]
 801482e:	ee77 7a67 	vsub.f32	s15, s14, s15
 8014832:	eef0 7ae7 	vabs.f32	s15, s15
 8014836:	edc7 7a03 	vstr	s15, [r7, #12]

    if (diff <= 25.0f)
 801483a:	edd7 7a03 	vldr	s15, [r7, #12]
 801483e:	eeb3 7a09 	vmov.f32	s14, #57	@ 0x41c80000  25.0
 8014842:	eef4 7ac7 	vcmpe.f32	s15, s14
 8014846:	eef1 fa10 	vmrs	APSR_nzcv, fpscr
 801484a:	d84b      	bhi.n	80148e4 <Filter_Step+0x144>
    {
        f->movavg_buf[f->movavg_index] = f->exp_avg;
 801484c:	687b      	ldr	r3, [r7, #4]
 801484e:	7c1b      	ldrb	r3, [r3, #16]
 8014850:	4618      	mov	r0, r3
 8014852:	687b      	ldr	r3, [r7, #4]
 8014854:	681a      	ldr	r2, [r3, #0]
 8014856:	6879      	ldr	r1, [r7, #4]
 8014858:	0083      	lsls	r3, r0, #2
 801485a:	440b      	add	r3, r1
 801485c:	3304      	adds	r3, #4
 801485e:	601a      	str	r2, [r3, #0]
        f->movavg_index = (f->movavg_index + 1) % MOVAVG_LEN;
 8014860:	687b      	ldr	r3, [r7, #4]
 8014862:	7c1b      	ldrb	r3, [r3, #16]
 8014864:	1c5a      	adds	r2, r3, #1
 8014866:	4b2a      	ldr	r3, [pc, #168]	@ (8014910 <Filter_Step+0x170>)
 8014868:	fb83 3102 	smull	r3, r1, r3, r2
 801486c:	17d3      	asrs	r3, r2, #31
 801486e:	1ac9      	subs	r1, r1, r3
 8014870:	460b      	mov	r3, r1
 8014872:	005b      	lsls	r3, r3, #1
 8014874:	440b      	add	r3, r1
 8014876:	1ad1      	subs	r1, r2, r3
 8014878:	b2ca      	uxtb	r2, r1
 801487a:	687b      	ldr	r3, [r7, #4]
 801487c:	741a      	strb	r2, [r3, #16]
        if (f->movavg_count < MOVAVG_LEN)
 801487e:	687b      	ldr	r3, [r7, #4]
 8014880:	7c5b      	ldrb	r3, [r3, #17]
 8014882:	2b02      	cmp	r3, #2
 8014884:	d805      	bhi.n	8014892 <Filter_Step+0xf2>
            f->movavg_count++;
 8014886:	687b      	ldr	r3, [r7, #4]
 8014888:	7c5b      	ldrb	r3, [r3, #17]
 801488a:	3301      	adds	r3, #1
 801488c:	b2da      	uxtb	r2, r3
 801488e:	687b      	ldr	r3, [r7, #4]
 8014890:	745a      	strb	r2, [r3, #17]

        float sum = 0.0f;
 8014892:	f04f 0300 	mov.w	r3, #0
 8014896:	617b      	str	r3, [r7, #20]
        for (uint8_t i = 0; i < f->movavg_count; i++)
 8014898:	2300      	movs	r3, #0
 801489a:	74fb      	strb	r3, [r7, #19]
 801489c:	e00f      	b.n	80148be <Filter_Step+0x11e>
            sum += f->movavg_buf[i];
 801489e:	7cfb      	ldrb	r3, [r7, #19]
 80148a0:	687a      	ldr	r2, [r7, #4]
 80148a2:	009b      	lsls	r3, r3, #2
 80148a4:	4413      	add	r3, r2
 80148a6:	3304      	adds	r3, #4
 80148a8:	edd3 7a00 	vldr	s15, [r3]
 80148ac:	ed97 7a05 	vldr	s14, [r7, #20]
 80148b0:	ee77 7a27 	vadd.f32	s15, s14, s15
 80148b4:	edc7 7a05 	vstr	s15, [r7, #20]
        for (uint8_t i = 0; i < f->movavg_count; i++)
 80148b8:	7cfb      	ldrb	r3, [r7, #19]
 80148ba:	3301      	adds	r3, #1
 80148bc:	74fb      	strb	r3, [r7, #19]
 80148be:	687b      	ldr	r3, [r7, #4]
 80148c0:	7c5b      	ldrb	r3, [r3, #17]
 80148c2:	7cfa      	ldrb	r2, [r7, #19]
 80148c4:	429a      	cmp	r2, r3
 80148c6:	d3ea      	bcc.n	801489e <Filter_Step+0xfe>

        f->last_value = sum / f->movavg_count;
 80148c8:	687b      	ldr	r3, [r7, #4]
 80148ca:	7c5b      	ldrb	r3, [r3, #17]
 80148cc:	ee07 3a90 	vmov	s15, r3
 80148d0:	eeb8 7ae7 	vcvt.f32.s32	s14, s15
 80148d4:	edd7 6a05 	vldr	s13, [r7, #20]
 80148d8:	eec6 7a87 	vdiv.f32	s15, s13, s14
 80148dc:	687b      	ldr	r3, [r7, #4]
 80148de:	edc3 7a05 	vstr	s15, [r3, #20]
 80148e2:	e003      	b.n	80148ec <Filter_Step+0x14c>
    }
    else
    {
        f->last_value = f->exp_avg;
 80148e4:	687b      	ldr	r3, [r7, #4]
 80148e6:	681a      	ldr	r2, [r3, #0]
 80148e8:	687b      	ldr	r3, [r7, #4]
 80148ea:	615a      	str	r2, [r3, #20]
    }

    return (uint16_t) f->last_value;
 80148ec:	687b      	ldr	r3, [r7, #4]
 80148ee:	edd3 7a05 	vldr	s15, [r3, #20]
 80148f2:	eefc 7ae7 	vcvt.u32.f32	s15, s15
 80148f6:	ee17 3a90 	vmov	r3, s15
 80148fa:	b29b      	uxth	r3, r3
}
 80148fc:	4618      	mov	r0, r3
 80148fe:	371c      	adds	r7, #28
 8014900:	46bd      	mov	sp, r7
 8014902:	f85d 7b04 	ldr.w	r7, [sp], #4
 8014906:	4770      	bx	lr
 8014908:	3f666666 	.word	0x3f666666
 801490c:	3dcccccd 	.word	0x3dcccccd
 8014910:	55555556 	.word	0x55555556

08014914 <StartAdcMeasurement>:

/* ADC measurement start -----------------------------------------------------*/
void StartAdcMeasurement(void)
{
 8014914:	b580      	push	{r7, lr}
 8014916:	af00      	add	r7, sp, #0
    if (adc_ready)
 8014918:	4b0a      	ldr	r3, [pc, #40]	@ (8014944 <StartAdcMeasurement+0x30>)
 801491a:	781b      	ldrb	r3, [r3, #0]
 801491c:	b2db      	uxtb	r3, r3
 801491e:	2b00      	cmp	r3, #0
 8014920:	d008      	beq.n	8014934 <StartAdcMeasurement+0x20>
    {
        adc_ready = 0;
 8014922:	4b08      	ldr	r3, [pc, #32]	@ (8014944 <StartAdcMeasurement+0x30>)
 8014924:	2200      	movs	r2, #0
 8014926:	701a      	strb	r2, [r3, #0]
        if (HAL_ADC_Start_DMA(&hadc1, (uint32_t*) adc_values, ADC_CHANNEL_COUNT) != HAL_OK)
 8014928:	2204      	movs	r2, #4
 801492a:	4907      	ldr	r1, [pc, #28]	@ (8014948 <StartAdcMeasurement+0x34>)
 801492c:	4807      	ldr	r0, [pc, #28]	@ (801494c <StartAdcMeasurement+0x38>)
 801492e:	f7fb f9ad 	bl	800fc8c <HAL_ADC_Start_DMA>
    }
    else
    {
        adc_ready_counter++;
    }
}
 8014932:	e005      	b.n	8014940 <StartAdcMeasurement+0x2c>
        adc_ready_counter++;
 8014934:	4b06      	ldr	r3, [pc, #24]	@ (8014950 <StartAdcMeasurement+0x3c>)
 8014936:	881b      	ldrh	r3, [r3, #0]
 8014938:	3301      	adds	r3, #1
 801493a:	b29a      	uxth	r2, r3
 801493c:	4b04      	ldr	r3, [pc, #16]	@ (8014950 <StartAdcMeasurement+0x3c>)
 801493e:	801a      	strh	r2, [r3, #0]
}
 8014940:	bf00      	nop
 8014942:	bd80      	pop	{r7, pc}
 8014944:	200000c9 	.word	0x200000c9
 8014948:	2001e098 	.word	0x2001e098
 801494c:	20000904 	.word	0x20000904
 8014950:	2001e0a0 	.word	0x2001e0a0

08014954 <Detect_Step>:

static inline uint8_t Detect_Step(uint16_t main_val, uint16_t extra_val,
                                  int16_t angle)
{
 8014954:	b480      	push	{r7}
 8014956:	b085      	sub	sp, #20
 8014958:	af00      	add	r7, sp, #0
 801495a:	4603      	mov	r3, r0
 801495c:	80fb      	strh	r3, [r7, #6]
 801495e:	460b      	mov	r3, r1
 8014960:	80bb      	strh	r3, [r7, #4]
 8014962:	4613      	mov	r3, r2
 8014964:	807b      	strh	r3, [r7, #2]
    const int16_t hysteresis = 30;
 8014966:	231e      	movs	r3, #30
 8014968:	81fb      	strh	r3, [r7, #14]

    /* podmnka: oba kanly kolem stedu */
    if (abs((int16_t) main_val - MIDDLE_VALUE) > hysteresis && abs(
 801496a:	f9b7 3006 	ldrsh.w	r3, [r7, #6]
 801496e:	f2a3 73fd 	subw	r3, r3, #2045	@ 0x7fd
 8014972:	ea83 72e3 	eor.w	r2, r3, r3, asr #31
 8014976:	eba2 72e3 	sub.w	r2, r2, r3, asr #31
 801497a:	f9b7 300e 	ldrsh.w	r3, [r7, #14]
 801497e:	429a      	cmp	r2, r3
 8014980:	dd10      	ble.n	80149a4 <Detect_Step+0x50>
            (int16_t) extra_val - MIDDLE_VALUE)
 8014982:	f9b7 3004 	ldrsh.w	r3, [r7, #4]
 8014986:	f2a3 73fd 	subw	r3, r3, #2045	@ 0x7fd
    if (abs((int16_t) main_val - MIDDLE_VALUE) > hysteresis && abs(
 801498a:	ea83 72e3 	eor.w	r2, r3, r3, asr #31
 801498e:	eba2 72e3 	sub.w	r2, r2, r3, asr #31
                                                               > hysteresis)
 8014992:	f9b7 300e 	ldrsh.w	r3, [r7, #14]
    if (abs((int16_t) main_val - MIDDLE_VALUE) > hysteresis && abs(
 8014996:	429a      	cmp	r2, r3
 8014998:	dd04      	ble.n	80149a4 <Detect_Step+0x50>
    {

        step_state = STEP_ACTIVE;
 801499a:	4b07      	ldr	r3, [pc, #28]	@ (80149b8 <Detect_Step+0x64>)
 801499c:	2201      	movs	r2, #1
 801499e:	701a      	strb	r2, [r3, #0]
        return 1;
 80149a0:	2301      	movs	r3, #1
 80149a2:	e003      	b.n	80149ac <Detect_Step+0x58>

    }
    else
    {

        step_state = STEP_IDLE;
 80149a4:	4b04      	ldr	r3, [pc, #16]	@ (80149b8 <Detect_Step+0x64>)
 80149a6:	2200      	movs	r2, #0
 80149a8:	701a      	strb	r2, [r3, #0]
    }

    return 0;
 80149aa:	2300      	movs	r3, #0
}
 80149ac:	4618      	mov	r0, r3
 80149ae:	3714      	adds	r7, #20
 80149b0:	46bd      	mov	sp, r7
 80149b2:	f85d 7b04 	ldr.w	r7, [sp], #4
 80149b6:	4770      	bx	lr
 80149b8:	2001e096 	.word	0x2001e096

080149bc <StepCounter_Update>:
static void StepCounter_Update(rotation_dir_t dir, int16_t angle)
{
 80149bc:	b480      	push	{r7}
 80149be:	b085      	sub	sp, #20
 80149c0:	af00      	add	r7, sp, #0
 80149c2:	4603      	mov	r3, r0
 80149c4:	460a      	mov	r2, r1
 80149c6:	71fb      	strb	r3, [r7, #7]
 80149c8:	4613      	mov	r3, r2
 80149ca:	80bb      	strh	r3, [r7, #4]
    for (uint8_t i = 0; i < STEP_ANGLES_COUNT; i++)
 80149cc:	2300      	movs	r3, #0
 80149ce:	73fb      	strb	r3, [r7, #15]
 80149d0:	e03e      	b.n	8014a50 <StepCounter_Update+0x94>
    {
        if (abs(angle - step_angles[i]) <= STEP_TOLERANCE)
 80149d2:	f9b7 3004 	ldrsh.w	r3, [r7, #4]
 80149d6:	7bfa      	ldrb	r2, [r7, #15]
 80149d8:	4922      	ldr	r1, [pc, #136]	@ (8014a64 <StepCounter_Update+0xa8>)
 80149da:	f931 2012 	ldrsh.w	r2, [r1, r2, lsl #1]
 80149de:	1a9b      	subs	r3, r3, r2
 80149e0:	f113 0f04 	cmn.w	r3, #4
 80149e4:	db31      	blt.n	8014a4a <StepCounter_Update+0x8e>
 80149e6:	f9b7 3004 	ldrsh.w	r3, [r7, #4]
 80149ea:	7bfa      	ldrb	r2, [r7, #15]
 80149ec:	491d      	ldr	r1, [pc, #116]	@ (8014a64 <StepCounter_Update+0xa8>)
 80149ee:	f931 2012 	ldrsh.w	r2, [r1, r2, lsl #1]
 80149f2:	1a9b      	subs	r3, r3, r2
 80149f4:	2b04      	cmp	r3, #4
 80149f6:	dc28      	bgt.n	8014a4a <StepCounter_Update+0x8e>
        {
            // u jsme krok na tomhle hlu potali  pesko
            if (abs(last_step_angle) == abs(step_angles[i]))
 80149f8:	4b1b      	ldr	r3, [pc, #108]	@ (8014a68 <StepCounter_Update+0xac>)
 80149fa:	f9b3 3000 	ldrsh.w	r3, [r3]
 80149fe:	2b00      	cmp	r3, #0
 8014a00:	bfb8      	it	lt
 8014a02:	425b      	neglt	r3, r3
 8014a04:	b29a      	uxth	r2, r3
 8014a06:	7bfb      	ldrb	r3, [r7, #15]
 8014a08:	4916      	ldr	r1, [pc, #88]	@ (8014a64 <StepCounter_Update+0xa8>)
 8014a0a:	f931 3013 	ldrsh.w	r3, [r1, r3, lsl #1]
 8014a0e:	2b00      	cmp	r3, #0
 8014a10:	bfb8      	it	lt
 8014a12:	425b      	neglt	r3, r3
 8014a14:	b29b      	uxth	r3, r3
 8014a16:	429a      	cmp	r2, r3
 8014a18:	d01e      	beq.n	8014a58 <StepCounter_Update+0x9c>
                return;

            // nov krok  piti/odeti
            if (dir == DIR_CW)
 8014a1a:	79fb      	ldrb	r3, [r7, #7]
 8014a1c:	2b01      	cmp	r3, #1
 8014a1e:	d105      	bne.n	8014a2c <StepCounter_Update+0x70>
                step_count++;
 8014a20:	4b12      	ldr	r3, [pc, #72]	@ (8014a6c <StepCounter_Update+0xb0>)
 8014a22:	681b      	ldr	r3, [r3, #0]
 8014a24:	3301      	adds	r3, #1
 8014a26:	4a11      	ldr	r2, [pc, #68]	@ (8014a6c <StepCounter_Update+0xb0>)
 8014a28:	6013      	str	r3, [r2, #0]
 8014a2a:	e007      	b.n	8014a3c <StepCounter_Update+0x80>
            else if (dir == DIR_CCW)
 8014a2c:	79fb      	ldrb	r3, [r7, #7]
 8014a2e:	2b02      	cmp	r3, #2
 8014a30:	d104      	bne.n	8014a3c <StepCounter_Update+0x80>
                step_count--;
 8014a32:	4b0e      	ldr	r3, [pc, #56]	@ (8014a6c <StepCounter_Update+0xb0>)
 8014a34:	681b      	ldr	r3, [r3, #0]
 8014a36:	3b01      	subs	r3, #1
 8014a38:	4a0c      	ldr	r2, [pc, #48]	@ (8014a6c <StepCounter_Update+0xb0>)
 8014a3a:	6013      	str	r3, [r2, #0]

            last_step_angle = step_angles[i];  // zapamatuj si hel
 8014a3c:	7bfb      	ldrb	r3, [r7, #15]
 8014a3e:	4a09      	ldr	r2, [pc, #36]	@ (8014a64 <StepCounter_Update+0xa8>)
 8014a40:	f932 2013 	ldrsh.w	r2, [r2, r3, lsl #1]
 8014a44:	4b08      	ldr	r3, [pc, #32]	@ (8014a68 <StepCounter_Update+0xac>)
 8014a46:	801a      	strh	r2, [r3, #0]
            return;
 8014a48:	e007      	b.n	8014a5a <StepCounter_Update+0x9e>
    for (uint8_t i = 0; i < STEP_ANGLES_COUNT; i++)
 8014a4a:	7bfb      	ldrb	r3, [r7, #15]
 8014a4c:	3301      	adds	r3, #1
 8014a4e:	73fb      	strb	r3, [r7, #15]
 8014a50:	7bfb      	ldrb	r3, [r7, #15]
 8014a52:	2b04      	cmp	r3, #4
 8014a54:	d9bd      	bls.n	80149d2 <StepCounter_Update+0x16>
 8014a56:	e000      	b.n	8014a5a <StepCounter_Update+0x9e>
                return;
 8014a58:	bf00      	nop
        }
    }

}
 8014a5a:	3714      	adds	r7, #20
 8014a5c:	46bd      	mov	sp, r7
 8014a5e:	f85d 7b04 	ldr.w	r7, [sp], #4
 8014a62:	4770      	bx	lr
 8014a64:	080154e0 	.word	0x080154e0
 8014a68:	200000ca 	.word	0x200000ca
 8014a6c:	2001e0a4 	.word	0x2001e0a4

08014a70 <Capture_HandleSample>:

/* Capture handler -----------------------------------------------------------*/
static inline void Capture_HandleSample(uint16_t adc_sample[])
{
 8014a70:	b580      	push	{r7, lr}
 8014a72:	b086      	sub	sp, #24
 8014a74:	af00      	add	r7, sp, #0
 8014a76:	6078      	str	r0, [r7, #4]
    uint16_t raw_main = adc_sample[MONITOR_CHANNEL];
 8014a78:	687b      	ldr	r3, [r7, #4]
 8014a7a:	885b      	ldrh	r3, [r3, #2]
 8014a7c:	827b      	strh	r3, [r7, #18]
    uint16_t raw_extra = adc_sample[EXTRA_CHANNEL];
 8014a7e:	687b      	ldr	r3, [r7, #4]
 8014a80:	881b      	ldrh	r3, [r3, #0]
 8014a82:	823b      	strh	r3, [r7, #16]

    uint16_t filt_main = Filter_Step(&filter_main, raw_main);
 8014a84:	8a7b      	ldrh	r3, [r7, #18]
 8014a86:	4619      	mov	r1, r3
 8014a88:	48b5      	ldr	r0, [pc, #724]	@ (8014d60 <Capture_HandleSample+0x2f0>)
 8014a8a:	f7ff fe89 	bl	80147a0 <Filter_Step>
 8014a8e:	4603      	mov	r3, r0
 8014a90:	82fb      	strh	r3, [r7, #22]
    uint16_t filt_extra = Filter_Step(&filter_extra, raw_extra);
 8014a92:	8a3b      	ldrh	r3, [r7, #16]
 8014a94:	4619      	mov	r1, r3
 8014a96:	48b3      	ldr	r0, [pc, #716]	@ (8014d64 <Capture_HandleSample+0x2f4>)
 8014a98:	f7ff fe82 	bl	80147a0 <Filter_Step>
 8014a9c:	4603      	mov	r3, r0
 8014a9e:	82bb      	strh	r3, [r7, #20]

    float angle_rad = atan2f((float) raw_main - MIDDLE_VALUE,
 8014aa0:	8a7b      	ldrh	r3, [r7, #18]
 8014aa2:	ee07 3a90 	vmov	s15, r3
 8014aa6:	eef8 7a67 	vcvt.f32.u32	s15, s15
 8014aaa:	ed9f 7aaf 	vldr	s14, [pc, #700]	@ 8014d68 <Capture_HandleSample+0x2f8>
 8014aae:	ee37 7ac7 	vsub.f32	s14, s15, s14
                             (float) raw_extra - MIDDLE_VALUE);
 8014ab2:	8a3b      	ldrh	r3, [r7, #16]
 8014ab4:	ee07 3a90 	vmov	s15, r3
 8014ab8:	eef8 7a67 	vcvt.f32.u32	s15, s15
    float angle_rad = atan2f((float) raw_main - MIDDLE_VALUE,
 8014abc:	eddf 6aaa 	vldr	s13, [pc, #680]	@ 8014d68 <Capture_HandleSample+0x2f8>
 8014ac0:	ee77 7ae6 	vsub.f32	s15, s15, s13
 8014ac4:	eef0 0a67 	vmov.f32	s1, s15
 8014ac8:	eeb0 0a47 	vmov.f32	s0, s14
 8014acc:	f000 fa74 	bl	8014fb8 <atan2f>
 8014ad0:	ed87 0a03 	vstr	s0, [r7, #12]
    angle_deg = (int16_t) (angle_rad * (180.0f / M_PI));
 8014ad4:	68f8      	ldr	r0, [r7, #12]
 8014ad6:	f7f7 ff55 	bl	800c984 <__aeabi_f2d>
 8014ada:	a39f      	add	r3, pc, #636	@ (adr r3, 8014d58 <Capture_HandleSample+0x2e8>)
 8014adc:	e9d3 2300 	ldrd	r2, r3, [r3]
 8014ae0:	f7f7 fcc2 	bl	800c468 <__aeabi_dmul>
 8014ae4:	4602      	mov	r2, r0
 8014ae6:	460b      	mov	r3, r1
 8014ae8:	4610      	mov	r0, r2
 8014aea:	4619      	mov	r1, r3
 8014aec:	f7f7 ffa2 	bl	800ca34 <__aeabi_d2iz>
 8014af0:	4603      	mov	r3, r0
 8014af2:	b21a      	sxth	r2, r3
 8014af4:	4b9d      	ldr	r3, [pc, #628]	@ (8014d6c <Capture_HandleSample+0x2fc>)
 8014af6:	801a      	strh	r2, [r3, #0]

    switch (capture_state)
 8014af8:	4b9d      	ldr	r3, [pc, #628]	@ (8014d70 <Capture_HandleSample+0x300>)
 8014afa:	781b      	ldrb	r3, [r3, #0]
 8014afc:	b2db      	uxtb	r3, r3
 8014afe:	2b00      	cmp	r3, #0
 8014b00:	d002      	beq.n	8014b08 <Capture_HandleSample+0x98>
 8014b02:	2b01      	cmp	r3, #1
 8014b04:	d076      	beq.n	8014bf4 <Capture_HandleSample+0x184>
            }
            break;

        case CAPT_DONE:
        default:
            break;
 8014b06:	e0f8      	b.n	8014cfa <Capture_HandleSample+0x28a>
            if (abs(raw_main - TRIGGER_THRESHOLD) > 50)
 8014b08:	8a7b      	ldrh	r3, [r7, #18]
 8014b0a:	f6a3 0302 	subw	r3, r3, #2050	@ 0x802
 8014b0e:	2b00      	cmp	r3, #0
 8014b10:	bfb8      	it	lt
 8014b12:	425b      	neglt	r3, r3
 8014b14:	2b32      	cmp	r3, #50	@ 0x32
 8014b16:	f340 80ed 	ble.w	8014cf4 <Capture_HandleSample+0x284>
                capture_state = CAPT_CAPTURING;
 8014b1a:	4b95      	ldr	r3, [pc, #596]	@ (8014d70 <Capture_HandleSample+0x300>)
 8014b1c:	2201      	movs	r2, #1
 8014b1e:	701a      	strb	r2, [r3, #0]
                capture_count = 0;
 8014b20:	4b94      	ldr	r3, [pc, #592]	@ (8014d74 <Capture_HandleSample+0x304>)
 8014b22:	2200      	movs	r2, #0
 8014b24:	601a      	str	r2, [r3, #0]
                Filter_Reset(&filter_main);
 8014b26:	488e      	ldr	r0, [pc, #568]	@ (8014d60 <Capture_HandleSample+0x2f0>)
 8014b28:	f7ff fe1f 	bl	801476a <Filter_Reset>
                Filter_Reset(&filter_extra);
 8014b2c:	488d      	ldr	r0, [pc, #564]	@ (8014d64 <Capture_HandleSample+0x2f4>)
 8014b2e:	f7ff fe1c 	bl	801476a <Filter_Reset>
                filt_main = Filter_Step(&filter_main, raw_main);
 8014b32:	8a7b      	ldrh	r3, [r7, #18]
 8014b34:	4619      	mov	r1, r3
 8014b36:	488a      	ldr	r0, [pc, #552]	@ (8014d60 <Capture_HandleSample+0x2f0>)
 8014b38:	f7ff fe32 	bl	80147a0 <Filter_Step>
 8014b3c:	4603      	mov	r3, r0
 8014b3e:	82fb      	strh	r3, [r7, #22]
                filt_extra = Filter_Step(&filter_extra, raw_extra);
 8014b40:	8a3b      	ldrh	r3, [r7, #16]
 8014b42:	4619      	mov	r1, r3
 8014b44:	4887      	ldr	r0, [pc, #540]	@ (8014d64 <Capture_HandleSample+0x2f4>)
 8014b46:	f7ff fe2b 	bl	80147a0 <Filter_Step>
 8014b4a:	4603      	mov	r3, r0
 8014b4c:	82bb      	strh	r3, [r7, #20]
                angle_rad = atan2f((float) raw_main - MIDDLE_VALUE,
 8014b4e:	8a7b      	ldrh	r3, [r7, #18]
 8014b50:	ee07 3a90 	vmov	s15, r3
 8014b54:	eef8 7a67 	vcvt.f32.u32	s15, s15
 8014b58:	ed9f 7a83 	vldr	s14, [pc, #524]	@ 8014d68 <Capture_HandleSample+0x2f8>
 8014b5c:	ee37 7ac7 	vsub.f32	s14, s15, s14
                                   (float) raw_extra - MIDDLE_VALUE);
 8014b60:	8a3b      	ldrh	r3, [r7, #16]
 8014b62:	ee07 3a90 	vmov	s15, r3
 8014b66:	eef8 7a67 	vcvt.f32.u32	s15, s15
                angle_rad = atan2f((float) raw_main - MIDDLE_VALUE,
 8014b6a:	eddf 6a7f 	vldr	s13, [pc, #508]	@ 8014d68 <Capture_HandleSample+0x2f8>
 8014b6e:	ee77 7ae6 	vsub.f32	s15, s15, s13
 8014b72:	eef0 0a67 	vmov.f32	s1, s15
 8014b76:	eeb0 0a47 	vmov.f32	s0, s14
 8014b7a:	f000 fa1d 	bl	8014fb8 <atan2f>
 8014b7e:	ed87 0a03 	vstr	s0, [r7, #12]
                angle_deg = (int16_t) (angle_rad * (180.0f / M_PI));
 8014b82:	68f8      	ldr	r0, [r7, #12]
 8014b84:	f7f7 fefe 	bl	800c984 <__aeabi_f2d>
 8014b88:	a373      	add	r3, pc, #460	@ (adr r3, 8014d58 <Capture_HandleSample+0x2e8>)
 8014b8a:	e9d3 2300 	ldrd	r2, r3, [r3]
 8014b8e:	f7f7 fc6b 	bl	800c468 <__aeabi_dmul>
 8014b92:	4602      	mov	r2, r0
 8014b94:	460b      	mov	r3, r1
 8014b96:	4610      	mov	r0, r2
 8014b98:	4619      	mov	r1, r3
 8014b9a:	f7f7 ff4b 	bl	800ca34 <__aeabi_d2iz>
 8014b9e:	4603      	mov	r3, r0
 8014ba0:	b21a      	sxth	r2, r3
 8014ba2:	4b72      	ldr	r3, [pc, #456]	@ (8014d6c <Capture_HandleSample+0x2fc>)
 8014ba4:	801a      	strh	r2, [r3, #0]
                capture_buffer[capture_count] = filt_main;
 8014ba6:	4b73      	ldr	r3, [pc, #460]	@ (8014d74 <Capture_HandleSample+0x304>)
 8014ba8:	681b      	ldr	r3, [r3, #0]
 8014baa:	4973      	ldr	r1, [pc, #460]	@ (8014d78 <Capture_HandleSample+0x308>)
 8014bac:	8afa      	ldrh	r2, [r7, #22]
 8014bae:	f821 2013 	strh.w	r2, [r1, r3, lsl #1]
                capture_buffer_ch2[capture_count] = filt_extra;
 8014bb2:	4b70      	ldr	r3, [pc, #448]	@ (8014d74 <Capture_HandleSample+0x304>)
 8014bb4:	681b      	ldr	r3, [r3, #0]
 8014bb6:	4971      	ldr	r1, [pc, #452]	@ (8014d7c <Capture_HandleSample+0x30c>)
 8014bb8:	8aba      	ldrh	r2, [r7, #20]
 8014bba:	f821 2013 	strh.w	r2, [r1, r3, lsl #1]
                capture_buffer_angle[capture_count] = angle_deg;
 8014bbe:	4b6b      	ldr	r3, [pc, #428]	@ (8014d6c <Capture_HandleSample+0x2fc>)
 8014bc0:	f9b3 2000 	ldrsh.w	r2, [r3]
 8014bc4:	4b6b      	ldr	r3, [pc, #428]	@ (8014d74 <Capture_HandleSample+0x304>)
 8014bc6:	681b      	ldr	r3, [r3, #0]
 8014bc8:	ee07 2a90 	vmov	s15, r2
 8014bcc:	eef8 7ae7 	vcvt.f32.s32	s15, s15
 8014bd0:	4a6b      	ldr	r2, [pc, #428]	@ (8014d80 <Capture_HandleSample+0x310>)
 8014bd2:	009b      	lsls	r3, r3, #2
 8014bd4:	4413      	add	r3, r2
 8014bd6:	edc3 7a00 	vstr	s15, [r3]
                capture_buffer_steps[capture_count] = step_count;
 8014bda:	4b66      	ldr	r3, [pc, #408]	@ (8014d74 <Capture_HandleSample+0x304>)
 8014bdc:	681b      	ldr	r3, [r3, #0]
 8014bde:	4a69      	ldr	r2, [pc, #420]	@ (8014d84 <Capture_HandleSample+0x314>)
 8014be0:	6812      	ldr	r2, [r2, #0]
 8014be2:	4969      	ldr	r1, [pc, #420]	@ (8014d88 <Capture_HandleSample+0x318>)
 8014be4:	f841 2023 	str.w	r2, [r1, r3, lsl #2]
                capture_count++;
 8014be8:	4b62      	ldr	r3, [pc, #392]	@ (8014d74 <Capture_HandleSample+0x304>)
 8014bea:	681b      	ldr	r3, [r3, #0]
 8014bec:	3301      	adds	r3, #1
 8014bee:	4a61      	ldr	r2, [pc, #388]	@ (8014d74 <Capture_HandleSample+0x304>)
 8014bf0:	6013      	str	r3, [r2, #0]
            break;
 8014bf2:	e07f      	b.n	8014cf4 <Capture_HandleSample+0x284>
            if (capture_count < CAPTURE_SAMPLES)
 8014bf4:	4b5f      	ldr	r3, [pc, #380]	@ (8014d74 <Capture_HandleSample+0x304>)
 8014bf6:	681b      	ldr	r3, [r3, #0]
 8014bf8:	f242 720f 	movw	r2, #9999	@ 0x270f
 8014bfc:	4293      	cmp	r3, r2
 8014bfe:	d87b      	bhi.n	8014cf8 <Capture_HandleSample+0x288>
                filt_main = Filter_Step(&filter_main, raw_main);
 8014c00:	8a7b      	ldrh	r3, [r7, #18]
 8014c02:	4619      	mov	r1, r3
 8014c04:	4856      	ldr	r0, [pc, #344]	@ (8014d60 <Capture_HandleSample+0x2f0>)
 8014c06:	f7ff fdcb 	bl	80147a0 <Filter_Step>
 8014c0a:	4603      	mov	r3, r0
 8014c0c:	82fb      	strh	r3, [r7, #22]
                filt_extra = Filter_Step(&filter_extra, raw_extra);
 8014c0e:	8a3b      	ldrh	r3, [r7, #16]
 8014c10:	4619      	mov	r1, r3
 8014c12:	4854      	ldr	r0, [pc, #336]	@ (8014d64 <Capture_HandleSample+0x2f4>)
 8014c14:	f7ff fdc4 	bl	80147a0 <Filter_Step>
 8014c18:	4603      	mov	r3, r0
 8014c1a:	82bb      	strh	r3, [r7, #20]
                angle_rad = atan2f((float) filt_main - MIDDLE_VALUE,
 8014c1c:	8afb      	ldrh	r3, [r7, #22]
 8014c1e:	ee07 3a90 	vmov	s15, r3
 8014c22:	eef8 7a67 	vcvt.f32.u32	s15, s15
 8014c26:	ed9f 7a50 	vldr	s14, [pc, #320]	@ 8014d68 <Capture_HandleSample+0x2f8>
 8014c2a:	ee37 7ac7 	vsub.f32	s14, s15, s14
                                   (float) filt_extra - MIDDLE_VALUE);
 8014c2e:	8abb      	ldrh	r3, [r7, #20]
 8014c30:	ee07 3a90 	vmov	s15, r3
 8014c34:	eef8 7a67 	vcvt.f32.u32	s15, s15
                angle_rad = atan2f((float) filt_main - MIDDLE_VALUE,
 8014c38:	eddf 6a4b 	vldr	s13, [pc, #300]	@ 8014d68 <Capture_HandleSample+0x2f8>
 8014c3c:	ee77 7ae6 	vsub.f32	s15, s15, s13
 8014c40:	eef0 0a67 	vmov.f32	s1, s15
 8014c44:	eeb0 0a47 	vmov.f32	s0, s14
 8014c48:	f000 f9b6 	bl	8014fb8 <atan2f>
 8014c4c:	ed87 0a03 	vstr	s0, [r7, #12]
                angle_deg = (int16_t) (angle_rad * (180.0f / M_PI));
 8014c50:	68f8      	ldr	r0, [r7, #12]
 8014c52:	f7f7 fe97 	bl	800c984 <__aeabi_f2d>
 8014c56:	a340      	add	r3, pc, #256	@ (adr r3, 8014d58 <Capture_HandleSample+0x2e8>)
 8014c58:	e9d3 2300 	ldrd	r2, r3, [r3]
 8014c5c:	f7f7 fc04 	bl	800c468 <__aeabi_dmul>
 8014c60:	4602      	mov	r2, r0
 8014c62:	460b      	mov	r3, r1
 8014c64:	4610      	mov	r0, r2
 8014c66:	4619      	mov	r1, r3
 8014c68:	f7f7 fee4 	bl	800ca34 <__aeabi_d2iz>
 8014c6c:	4603      	mov	r3, r0
 8014c6e:	b21a      	sxth	r2, r3
 8014c70:	4b3e      	ldr	r3, [pc, #248]	@ (8014d6c <Capture_HandleSample+0x2fc>)
 8014c72:	801a      	strh	r2, [r3, #0]
                sample_divider++;
 8014c74:	4b45      	ldr	r3, [pc, #276]	@ (8014d8c <Capture_HandleSample+0x31c>)
 8014c76:	781b      	ldrb	r3, [r3, #0]
 8014c78:	3301      	adds	r3, #1
 8014c7a:	b2da      	uxtb	r2, r3
 8014c7c:	4b43      	ldr	r3, [pc, #268]	@ (8014d8c <Capture_HandleSample+0x31c>)
 8014c7e:	701a      	strb	r2, [r3, #0]
                if (sample_divider >= 15)
 8014c80:	4b42      	ldr	r3, [pc, #264]	@ (8014d8c <Capture_HandleSample+0x31c>)
 8014c82:	781b      	ldrb	r3, [r3, #0]
 8014c84:	2b0e      	cmp	r3, #14
 8014c86:	d937      	bls.n	8014cf8 <Capture_HandleSample+0x288>
                    sample_divider = 0;
 8014c88:	4b40      	ldr	r3, [pc, #256]	@ (8014d8c <Capture_HandleSample+0x31c>)
 8014c8a:	2200      	movs	r2, #0
 8014c8c:	701a      	strb	r2, [r3, #0]
                    capture_buffer[capture_count] = filt_main;
 8014c8e:	4b39      	ldr	r3, [pc, #228]	@ (8014d74 <Capture_HandleSample+0x304>)
 8014c90:	681b      	ldr	r3, [r3, #0]
 8014c92:	4939      	ldr	r1, [pc, #228]	@ (8014d78 <Capture_HandleSample+0x308>)
 8014c94:	8afa      	ldrh	r2, [r7, #22]
 8014c96:	f821 2013 	strh.w	r2, [r1, r3, lsl #1]
                    capture_buffer_ch2[capture_count] = filt_extra;
 8014c9a:	4b36      	ldr	r3, [pc, #216]	@ (8014d74 <Capture_HandleSample+0x304>)
 8014c9c:	681b      	ldr	r3, [r3, #0]
 8014c9e:	4937      	ldr	r1, [pc, #220]	@ (8014d7c <Capture_HandleSample+0x30c>)
 8014ca0:	8aba      	ldrh	r2, [r7, #20]
 8014ca2:	f821 2013 	strh.w	r2, [r1, r3, lsl #1]
                    capture_buffer_angle[capture_count] = angle_deg;
 8014ca6:	4b31      	ldr	r3, [pc, #196]	@ (8014d6c <Capture_HandleSample+0x2fc>)
 8014ca8:	f9b3 2000 	ldrsh.w	r2, [r3]
 8014cac:	4b31      	ldr	r3, [pc, #196]	@ (8014d74 <Capture_HandleSample+0x304>)
 8014cae:	681b      	ldr	r3, [r3, #0]
 8014cb0:	ee07 2a90 	vmov	s15, r2
 8014cb4:	eef8 7ae7 	vcvt.f32.s32	s15, s15
 8014cb8:	4a31      	ldr	r2, [pc, #196]	@ (8014d80 <Capture_HandleSample+0x310>)
 8014cba:	009b      	lsls	r3, r3, #2
 8014cbc:	4413      	add	r3, r2
 8014cbe:	edc3 7a00 	vstr	s15, [r3]
                    capture_buffer_steps[capture_count] = step_count;
 8014cc2:	4b2c      	ldr	r3, [pc, #176]	@ (8014d74 <Capture_HandleSample+0x304>)
 8014cc4:	681b      	ldr	r3, [r3, #0]
 8014cc6:	4a2f      	ldr	r2, [pc, #188]	@ (8014d84 <Capture_HandleSample+0x314>)
 8014cc8:	6812      	ldr	r2, [r2, #0]
 8014cca:	492f      	ldr	r1, [pc, #188]	@ (8014d88 <Capture_HandleSample+0x318>)
 8014ccc:	f841 2023 	str.w	r2, [r1, r3, lsl #2]
                    capture_count++;
 8014cd0:	4b28      	ldr	r3, [pc, #160]	@ (8014d74 <Capture_HandleSample+0x304>)
 8014cd2:	681b      	ldr	r3, [r3, #0]
 8014cd4:	3301      	adds	r3, #1
 8014cd6:	4a27      	ldr	r2, [pc, #156]	@ (8014d74 <Capture_HandleSample+0x304>)
 8014cd8:	6013      	str	r3, [r2, #0]
                    if (capture_count >= CAPTURE_SAMPLES)
 8014cda:	4b26      	ldr	r3, [pc, #152]	@ (8014d74 <Capture_HandleSample+0x304>)
 8014cdc:	681b      	ldr	r3, [r3, #0]
 8014cde:	f242 720f 	movw	r2, #9999	@ 0x270f
 8014ce2:	4293      	cmp	r3, r2
 8014ce4:	d908      	bls.n	8014cf8 <Capture_HandleSample+0x288>
                        capture_state = CAPT_DONE;
 8014ce6:	4b22      	ldr	r3, [pc, #136]	@ (8014d70 <Capture_HandleSample+0x300>)
 8014ce8:	2202      	movs	r2, #2
 8014cea:	701a      	strb	r2, [r3, #0]
                        capture_ready = 1;
 8014cec:	4b28      	ldr	r3, [pc, #160]	@ (8014d90 <Capture_HandleSample+0x320>)
 8014cee:	2201      	movs	r2, #1
 8014cf0:	701a      	strb	r2, [r3, #0]
            break;
 8014cf2:	e001      	b.n	8014cf8 <Capture_HandleSample+0x288>
            break;
 8014cf4:	bf00      	nop
 8014cf6:	e000      	b.n	8014cfa <Capture_HandleSample+0x28a>
            break;
 8014cf8:	bf00      	nop
    }
    if (Detect_Step(filt_main, filt_extra, angle_deg))
 8014cfa:	4b1c      	ldr	r3, [pc, #112]	@ (8014d6c <Capture_HandleSample+0x2fc>)
 8014cfc:	f9b3 2000 	ldrsh.w	r2, [r3]
 8014d00:	8ab9      	ldrh	r1, [r7, #20]
 8014d02:	8afb      	ldrh	r3, [r7, #22]
 8014d04:	4618      	mov	r0, r3
 8014d06:	f7ff fe25 	bl	8014954 <Detect_Step>
 8014d0a:	4603      	mov	r3, r0
 8014d0c:	2b00      	cmp	r3, #0
 8014d0e:	d01e      	beq.n	8014d4e <Capture_HandleSample+0x2de>
    {
        AngleBufferFIFO_Add(&angle_buffer, angle_deg);
 8014d10:	4b16      	ldr	r3, [pc, #88]	@ (8014d6c <Capture_HandleSample+0x2fc>)
 8014d12:	f9b3 3000 	ldrsh.w	r3, [r3]
 8014d16:	4619      	mov	r1, r3
 8014d18:	481e      	ldr	r0, [pc, #120]	@ (8014d94 <Capture_HandleSample+0x324>)
 8014d1a:	f7ff fcb3 	bl	8014684 <AngleBufferFIFO_Add>

        dir = Detect_RotationDirection(&angle_buffer);
 8014d1e:	481d      	ldr	r0, [pc, #116]	@ (8014d94 <Capture_HandleSample+0x324>)
 8014d20:	f7ff fcf5 	bl	801470e <Detect_RotationDirection>
 8014d24:	4603      	mov	r3, r0
 8014d26:	461a      	mov	r2, r3
 8014d28:	4b1b      	ldr	r3, [pc, #108]	@ (8014d98 <Capture_HandleSample+0x328>)
 8014d2a:	701a      	strb	r2, [r3, #0]

        if (dir == DIR_CW || dir == DIR_CCW)
 8014d2c:	4b1a      	ldr	r3, [pc, #104]	@ (8014d98 <Capture_HandleSample+0x328>)
 8014d2e:	781b      	ldrb	r3, [r3, #0]
 8014d30:	2b01      	cmp	r3, #1
 8014d32:	d003      	beq.n	8014d3c <Capture_HandleSample+0x2cc>
 8014d34:	4b18      	ldr	r3, [pc, #96]	@ (8014d98 <Capture_HandleSample+0x328>)
 8014d36:	781b      	ldrb	r3, [r3, #0]
 8014d38:	2b02      	cmp	r3, #2
 8014d3a:	d108      	bne.n	8014d4e <Capture_HandleSample+0x2de>
        {
            StepCounter_Update(dir, angle_deg);
 8014d3c:	4b16      	ldr	r3, [pc, #88]	@ (8014d98 <Capture_HandleSample+0x328>)
 8014d3e:	781b      	ldrb	r3, [r3, #0]
 8014d40:	4a0a      	ldr	r2, [pc, #40]	@ (8014d6c <Capture_HandleSample+0x2fc>)
 8014d42:	f9b2 2000 	ldrsh.w	r2, [r2]
 8014d46:	4611      	mov	r1, r2
 8014d48:	4618      	mov	r0, r3
 8014d4a:	f7ff fe37 	bl	80149bc <StepCounter_Update>
        }
    }
}
 8014d4e:	bf00      	nop
 8014d50:	3718      	adds	r7, #24
 8014d52:	46bd      	mov	sp, r7
 8014d54:	bd80      	pop	{r7, pc}
 8014d56:	bf00      	nop
 8014d58:	1a63c1f8 	.word	0x1a63c1f8
 8014d5c:	404ca5dc 	.word	0x404ca5dc
 8014d60:	2001e03c 	.word	0x2001e03c
 8014d64:	2001e054 	.word	0x2001e054
 8014d68:	44ffa000 	.word	0x44ffa000
 8014d6c:	2001e03a 	.word	0x2001e03a
 8014d70:	20000b70 	.word	0x20000b70
 8014d74:	20000b74 	.word	0x20000b74
 8014d78:	20000b78 	.word	0x20000b78
 8014d7c:	20005998 	.word	0x20005998
 8014d80:	2000a7b8 	.word	0x2000a7b8
 8014d84:	2001e0a4 	.word	0x2001e0a4
 8014d88:	200143f8 	.word	0x200143f8
 8014d8c:	2001e097 	.word	0x2001e097
 8014d90:	2001e038 	.word	0x2001e038
 8014d94:	2001e06c 	.word	0x2001e06c
 8014d98:	2001e0a8 	.word	0x2001e0a8

08014d9c <HAL_ADC_ConvCpltCallback>:
{

}

void HAL_ADC_ConvCpltCallback(ADC_HandleTypeDef *hadc)
{
 8014d9c:	b580      	push	{r7, lr}
 8014d9e:	b082      	sub	sp, #8
 8014da0:	af00      	add	r7, sp, #0
 8014da2:	6078      	str	r0, [r7, #4]
    if (hadc->Instance == ADC1)
 8014da4:	687b      	ldr	r3, [r7, #4]
 8014da6:	681b      	ldr	r3, [r3, #0]
 8014da8:	4a06      	ldr	r2, [pc, #24]	@ (8014dc4 <HAL_ADC_ConvCpltCallback+0x28>)
 8014daa:	4293      	cmp	r3, r2
 8014dac:	d105      	bne.n	8014dba <HAL_ADC_ConvCpltCallback+0x1e>
    {

        Capture_HandleSample(adc_values);
 8014dae:	4806      	ldr	r0, [pc, #24]	@ (8014dc8 <HAL_ADC_ConvCpltCallback+0x2c>)
 8014db0:	f7ff fe5e 	bl	8014a70 <Capture_HandleSample>
        adc_ready = 1;
 8014db4:	4b05      	ldr	r3, [pc, #20]	@ (8014dcc <HAL_ADC_ConvCpltCallback+0x30>)
 8014db6:	2201      	movs	r2, #1
 8014db8:	701a      	strb	r2, [r3, #0]
    }
}
 8014dba:	bf00      	nop
 8014dbc:	3708      	adds	r7, #8
 8014dbe:	46bd      	mov	sp, r7
 8014dc0:	bd80      	pop	{r7, pc}
 8014dc2:	bf00      	nop
 8014dc4:	40012000 	.word	0x40012000
 8014dc8:	2001e098 	.word	0x2001e098
 8014dcc:	200000c9 	.word	0x200000c9

08014dd0 <HAL_GPIO_EXTI_Callback>:
void HAL_GPIO_EXTI_Callback(uint16_t GPIO_Pin)
{
 8014dd0:	b480      	push	{r7}
 8014dd2:	b083      	sub	sp, #12
 8014dd4:	af00      	add	r7, sp, #0
 8014dd6:	4603      	mov	r3, r0
 8014dd8:	80fb      	strh	r3, [r7, #6]
    if (GPIO_Pin == button_Pin)   // kontrola, jestli to bylo opravdu od tlatka
 8014dda:	88fb      	ldrh	r3, [r7, #6]
 8014ddc:	f5b3 5f00 	cmp.w	r3, #8192	@ 0x2000
 8014de0:	d102      	bne.n	8014de8 <HAL_GPIO_EXTI_Callback+0x18>
    {
        capture_state = CAPT_WAIT_TRIGGER;
 8014de2:	4b04      	ldr	r3, [pc, #16]	@ (8014df4 <HAL_GPIO_EXTI_Callback+0x24>)
 8014de4:	2200      	movs	r2, #0
 8014de6:	701a      	strb	r2, [r3, #0]

    }
}
 8014de8:	bf00      	nop
 8014dea:	370c      	adds	r7, #12
 8014dec:	46bd      	mov	sp, r7
 8014dee:	f85d 7b04 	ldr.w	r7, [sp], #4
 8014df2:	4770      	bx	lr
 8014df4:	20000b70 	.word	0x20000b70

08014df8 <Switch_Init>:
/* Private function prototypes -----------------------------------------------*/
/* Functions -----------------------------------------------------------------*/


void Switch_Init(void)
{
 8014df8:	b580      	push	{r7, lr}
 8014dfa:	b086      	sub	sp, #24
 8014dfc:	af00      	add	r7, sp, #0
  GPIO_InitTypeDef GPIO_InitStruct = {0};
 8014dfe:	463b      	mov	r3, r7
 8014e00:	2200      	movs	r2, #0
 8014e02:	601a      	str	r2, [r3, #0]
 8014e04:	605a      	str	r2, [r3, #4]
 8014e06:	609a      	str	r2, [r3, #8]
 8014e08:	60da      	str	r2, [r3, #12]
 8014e0a:	611a      	str	r2, [r3, #16]

  /* Configure all GPIO pins */
  for (int i = 0 ; i < SWITCH_NUMBER; i++)
 8014e0c:	2300      	movs	r3, #0
 8014e0e:	617b      	str	r3, [r7, #20]
 8014e10:	e014      	b.n	8014e3c <Switch_Init+0x44>
  {
    GPIO_InitStruct.Pin = Switch_Pin[i];
 8014e12:	4a0e      	ldr	r2, [pc, #56]	@ (8014e4c <Switch_Init+0x54>)
 8014e14:	697b      	ldr	r3, [r7, #20]
 8014e16:	f832 3013 	ldrh.w	r3, [r2, r3, lsl #1]
 8014e1a:	603b      	str	r3, [r7, #0]
    GPIO_InitStruct.Mode = GPIO_MODE_INPUT;
 8014e1c:	2300      	movs	r3, #0
 8014e1e:	607b      	str	r3, [r7, #4]
    GPIO_InitStruct.Pull = GPIO_PULLUP;
 8014e20:	2301      	movs	r3, #1
 8014e22:	60bb      	str	r3, [r7, #8]
    HAL_GPIO_Init(Switch_Port[i], &GPIO_InitStruct);
 8014e24:	4a0a      	ldr	r2, [pc, #40]	@ (8014e50 <Switch_Init+0x58>)
 8014e26:	697b      	ldr	r3, [r7, #20]
 8014e28:	f852 3023 	ldr.w	r3, [r2, r3, lsl #2]
 8014e2c:	463a      	mov	r2, r7
 8014e2e:	4611      	mov	r1, r2
 8014e30:	4618      	mov	r0, r3
 8014e32:	f7fc fb75 	bl	8011520 <HAL_GPIO_Init>
  for (int i = 0 ; i < SWITCH_NUMBER; i++)
 8014e36:	697b      	ldr	r3, [r7, #20]
 8014e38:	3301      	adds	r3, #1
 8014e3a:	617b      	str	r3, [r7, #20]
 8014e3c:	697b      	ldr	r3, [r7, #20]
 8014e3e:	2b09      	cmp	r3, #9
 8014e40:	dde7      	ble.n	8014e12 <Switch_Init+0x1a>
  }

  return;
 8014e42:	bf00      	nop
}
 8014e44:	3718      	adds	r7, #24
 8014e46:	46bd      	mov	sp, r7
 8014e48:	bd80      	pop	{r7, pc}
 8014e4a:	bf00      	nop
 8014e4c:	080154ec 	.word	0x080154ec
 8014e50:	200000cc 	.word	0x200000cc

08014e54 <Switch_GetAll>:


uint16_t Switch_GetAll(void)
{
 8014e54:	b580      	push	{r7, lr}
 8014e56:	b082      	sub	sp, #8
 8014e58:	af00      	add	r7, sp, #0
  uint16_t val = 0;
 8014e5a:	2300      	movs	r3, #0
 8014e5c:	80fb      	strh	r3, [r7, #6]

  /* Read input states on all GPIO pins */
  for (int i = 0; i < SWITCH_NUMBER; i++)
 8014e5e:	2300      	movs	r3, #0
 8014e60:	603b      	str	r3, [r7, #0]
 8014e62:	e01b      	b.n	8014e9c <Switch_GetAll+0x48>
  {
    if (HAL_GPIO_ReadPin(Switch_Port[i], Switch_Pin[i]) == 0)
 8014e64:	4a2c      	ldr	r2, [pc, #176]	@ (8014f18 <Switch_GetAll+0xc4>)
 8014e66:	683b      	ldr	r3, [r7, #0]
 8014e68:	f852 2023 	ldr.w	r2, [r2, r3, lsl #2]
 8014e6c:	492b      	ldr	r1, [pc, #172]	@ (8014f1c <Switch_GetAll+0xc8>)
 8014e6e:	683b      	ldr	r3, [r7, #0]
 8014e70:	f831 3013 	ldrh.w	r3, [r1, r3, lsl #1]
 8014e74:	4619      	mov	r1, r3
 8014e76:	4610      	mov	r0, r2
 8014e78:	f7fc fce6 	bl	8011848 <HAL_GPIO_ReadPin>
 8014e7c:	4603      	mov	r3, r0
 8014e7e:	2b00      	cmp	r3, #0
 8014e80:	d109      	bne.n	8014e96 <Switch_GetAll+0x42>
    {
      val |= (1 << i);
 8014e82:	2201      	movs	r2, #1
 8014e84:	683b      	ldr	r3, [r7, #0]
 8014e86:	fa02 f303 	lsl.w	r3, r2, r3
 8014e8a:	b21a      	sxth	r2, r3
 8014e8c:	f9b7 3006 	ldrsh.w	r3, [r7, #6]
 8014e90:	4313      	orrs	r3, r2
 8014e92:	b21b      	sxth	r3, r3
 8014e94:	80fb      	strh	r3, [r7, #6]
  for (int i = 0; i < SWITCH_NUMBER; i++)
 8014e96:	683b      	ldr	r3, [r7, #0]
 8014e98:	3301      	adds	r3, #1
 8014e9a:	603b      	str	r3, [r7, #0]
 8014e9c:	683b      	ldr	r3, [r7, #0]
 8014e9e:	2b09      	cmp	r3, #9
 8014ea0:	dde0      	ble.n	8014e64 <Switch_GetAll+0x10>
    }
  }

  /* Did the value change */
  if (val != sw.value)
 8014ea2:	4b1f      	ldr	r3, [pc, #124]	@ (8014f20 <Switch_GetAll+0xcc>)
 8014ea4:	881b      	ldrh	r3, [r3, #0]
 8014ea6:	88fa      	ldrh	r2, [r7, #6]
 8014ea8:	429a      	cmp	r2, r3
 8014eaa:	d018      	beq.n	8014ede <Switch_GetAll+0x8a>
  {
    /* New value is read */
    if (val != sw.valueToDebounce)
 8014eac:	4b1c      	ldr	r3, [pc, #112]	@ (8014f20 <Switch_GetAll+0xcc>)
 8014eae:	885b      	ldrh	r3, [r3, #2]
 8014eb0:	88fa      	ldrh	r2, [r7, #6]
 8014eb2:	429a      	cmp	r2, r3
 8014eb4:	d005      	beq.n	8014ec2 <Switch_GetAll+0x6e>
    {
      /* New value is not debouncing, start it */
      sw.debounceCount = 0;
 8014eb6:	4b1a      	ldr	r3, [pc, #104]	@ (8014f20 <Switch_GetAll+0xcc>)
 8014eb8:	2200      	movs	r2, #0
 8014eba:	809a      	strh	r2, [r3, #4]
      sw.valueToDebounce = val;
 8014ebc:	4a18      	ldr	r2, [pc, #96]	@ (8014f20 <Switch_GetAll+0xcc>)
 8014ebe:	88fb      	ldrh	r3, [r7, #6]
 8014ec0:	8053      	strh	r3, [r2, #2]
    }

    /* Increment debounce counter */
    sw.debounceCount++;
 8014ec2:	4b17      	ldr	r3, [pc, #92]	@ (8014f20 <Switch_GetAll+0xcc>)
 8014ec4:	889b      	ldrh	r3, [r3, #4]
 8014ec6:	3301      	adds	r3, #1
 8014ec8:	b29a      	uxth	r2, r3
 8014eca:	4b15      	ldr	r3, [pc, #84]	@ (8014f20 <Switch_GetAll+0xcc>)
 8014ecc:	809a      	strh	r2, [r3, #4]

    /* Debouncing ended, we have new value */
    if (sw.debounceCount > SW_DEBOUNCE_COUNT)
 8014ece:	4b14      	ldr	r3, [pc, #80]	@ (8014f20 <Switch_GetAll+0xcc>)
 8014ed0:	889b      	ldrh	r3, [r3, #4]
 8014ed2:	2b0f      	cmp	r3, #15
 8014ed4:	d906      	bls.n	8014ee4 <Switch_GetAll+0x90>
    {
      sw.value = val;
 8014ed6:	4a12      	ldr	r2, [pc, #72]	@ (8014f20 <Switch_GetAll+0xcc>)
 8014ed8:	88fb      	ldrh	r3, [r7, #6]
 8014eda:	8013      	strh	r3, [r2, #0]
 8014edc:	e002      	b.n	8014ee4 <Switch_GetAll+0x90>
    }
  }
  else
  {
    sw.debounceCount = 0;
 8014ede:	4b10      	ldr	r3, [pc, #64]	@ (8014f20 <Switch_GetAll+0xcc>)
 8014ee0:	2200      	movs	r2, #0
 8014ee2:	809a      	strh	r2, [r3, #4]
  }

  /* Is push button pressed? */
  if (sw.value & (1 << 9))
 8014ee4:	4b0e      	ldr	r3, [pc, #56]	@ (8014f20 <Switch_GetAll+0xcc>)
 8014ee6:	881b      	ldrh	r3, [r3, #0]
 8014ee8:	f403 7300 	and.w	r3, r3, #512	@ 0x200
 8014eec:	2b00      	cmp	r3, #0
 8014eee:	d005      	beq.n	8014efc <Switch_GetAll+0xa8>
  {
    sw.btnPressed++;
 8014ef0:	4b0b      	ldr	r3, [pc, #44]	@ (8014f20 <Switch_GetAll+0xcc>)
 8014ef2:	68db      	ldr	r3, [r3, #12]
 8014ef4:	3301      	adds	r3, #1
 8014ef6:	4a0a      	ldr	r2, [pc, #40]	@ (8014f20 <Switch_GetAll+0xcc>)
 8014ef8:	60d3      	str	r3, [r2, #12]
 8014efa:	e006      	b.n	8014f0a <Switch_GetAll+0xb6>
  }
  else
  {
    sw.btnReleased = sw.btnPressed;
 8014efc:	4b08      	ldr	r3, [pc, #32]	@ (8014f20 <Switch_GetAll+0xcc>)
 8014efe:	68db      	ldr	r3, [r3, #12]
 8014f00:	4a07      	ldr	r2, [pc, #28]	@ (8014f20 <Switch_GetAll+0xcc>)
 8014f02:	6113      	str	r3, [r2, #16]
    sw.btnPressed = 0;
 8014f04:	4b06      	ldr	r3, [pc, #24]	@ (8014f20 <Switch_GetAll+0xcc>)
 8014f06:	2200      	movs	r2, #0
 8014f08:	60da      	str	r2, [r3, #12]
  }

  return sw.value;
 8014f0a:	4b05      	ldr	r3, [pc, #20]	@ (8014f20 <Switch_GetAll+0xcc>)
 8014f0c:	881b      	ldrh	r3, [r3, #0]
}
 8014f0e:	4618      	mov	r0, r3
 8014f10:	3708      	adds	r7, #8
 8014f12:	46bd      	mov	sp, r7
 8014f14:	bd80      	pop	{r7, pc}
 8014f16:	bf00      	nop
 8014f18:	200000cc 	.word	0x200000cc
 8014f1c:	080154ec 	.word	0x080154ec
 8014f20:	2001e0ac 	.word	0x2001e0ac

08014f24 <memcmp>:
 8014f24:	b510      	push	{r4, lr}
 8014f26:	3901      	subs	r1, #1
 8014f28:	4402      	add	r2, r0
 8014f2a:	4290      	cmp	r0, r2
 8014f2c:	d101      	bne.n	8014f32 <memcmp+0xe>
 8014f2e:	2000      	movs	r0, #0
 8014f30:	e005      	b.n	8014f3e <memcmp+0x1a>
 8014f32:	7803      	ldrb	r3, [r0, #0]
 8014f34:	f811 4f01 	ldrb.w	r4, [r1, #1]!
 8014f38:	42a3      	cmp	r3, r4
 8014f3a:	d001      	beq.n	8014f40 <memcmp+0x1c>
 8014f3c:	1b18      	subs	r0, r3, r4
 8014f3e:	bd10      	pop	{r4, pc}
 8014f40:	3001      	adds	r0, #1
 8014f42:	e7f2      	b.n	8014f2a <memcmp+0x6>

08014f44 <memset>:
 8014f44:	4402      	add	r2, r0
 8014f46:	4603      	mov	r3, r0
 8014f48:	4293      	cmp	r3, r2
 8014f4a:	d100      	bne.n	8014f4e <memset+0xa>
 8014f4c:	4770      	bx	lr
 8014f4e:	f803 1b01 	strb.w	r1, [r3], #1
 8014f52:	e7f9      	b.n	8014f48 <memset+0x4>

08014f54 <__libc_init_array>:
 8014f54:	b570      	push	{r4, r5, r6, lr}
 8014f56:	4d0d      	ldr	r5, [pc, #52]	@ (8014f8c <__libc_init_array+0x38>)
 8014f58:	4c0d      	ldr	r4, [pc, #52]	@ (8014f90 <__libc_init_array+0x3c>)
 8014f5a:	1b64      	subs	r4, r4, r5
 8014f5c:	10a4      	asrs	r4, r4, #2
 8014f5e:	2600      	movs	r6, #0
 8014f60:	42a6      	cmp	r6, r4
 8014f62:	d109      	bne.n	8014f78 <__libc_init_array+0x24>
 8014f64:	4d0b      	ldr	r5, [pc, #44]	@ (8014f94 <__libc_init_array+0x40>)
 8014f66:	4c0c      	ldr	r4, [pc, #48]	@ (8014f98 <__libc_init_array+0x44>)
 8014f68:	f000 f9a4 	bl	80152b4 <_init>
 8014f6c:	1b64      	subs	r4, r4, r5
 8014f6e:	10a4      	asrs	r4, r4, #2
 8014f70:	2600      	movs	r6, #0
 8014f72:	42a6      	cmp	r6, r4
 8014f74:	d105      	bne.n	8014f82 <__libc_init_array+0x2e>
 8014f76:	bd70      	pop	{r4, r5, r6, pc}
 8014f78:	f855 3b04 	ldr.w	r3, [r5], #4
 8014f7c:	4798      	blx	r3
 8014f7e:	3601      	adds	r6, #1
 8014f80:	e7ee      	b.n	8014f60 <__libc_init_array+0xc>
 8014f82:	f855 3b04 	ldr.w	r3, [r5], #4
 8014f86:	4798      	blx	r3
 8014f88:	3601      	adds	r6, #1
 8014f8a:	e7f2      	b.n	8014f72 <__libc_init_array+0x1e>
 8014f8c:	08015540 	.word	0x08015540
 8014f90:	08015540 	.word	0x08015540
 8014f94:	08015540 	.word	0x08015540
 8014f98:	08015544 	.word	0x08015544

08014f9c <memcpy>:
 8014f9c:	440a      	add	r2, r1
 8014f9e:	4291      	cmp	r1, r2
 8014fa0:	f100 33ff 	add.w	r3, r0, #4294967295
 8014fa4:	d100      	bne.n	8014fa8 <memcpy+0xc>
 8014fa6:	4770      	bx	lr
 8014fa8:	b510      	push	{r4, lr}
 8014faa:	f811 4b01 	ldrb.w	r4, [r1], #1
 8014fae:	f803 4f01 	strb.w	r4, [r3, #1]!
 8014fb2:	4291      	cmp	r1, r2
 8014fb4:	d1f9      	bne.n	8014faa <memcpy+0xe>
 8014fb6:	bd10      	pop	{r4, pc}

08014fb8 <atan2f>:
 8014fb8:	f000 b800 	b.w	8014fbc <__ieee754_atan2f>

08014fbc <__ieee754_atan2f>:
 8014fbc:	ee10 2a90 	vmov	r2, s1
 8014fc0:	f022 4100 	bic.w	r1, r2, #2147483648	@ 0x80000000
 8014fc4:	f1b1 4fff 	cmp.w	r1, #2139095040	@ 0x7f800000
 8014fc8:	b510      	push	{r4, lr}
 8014fca:	eef0 7a40 	vmov.f32	s15, s0
 8014fce:	d806      	bhi.n	8014fde <__ieee754_atan2f+0x22>
 8014fd0:	ee10 0a10 	vmov	r0, s0
 8014fd4:	f020 4300 	bic.w	r3, r0, #2147483648	@ 0x80000000
 8014fd8:	f1b3 4fff 	cmp.w	r3, #2139095040	@ 0x7f800000
 8014fdc:	d904      	bls.n	8014fe8 <__ieee754_atan2f+0x2c>
 8014fde:	ee77 7aa0 	vadd.f32	s15, s15, s1
 8014fe2:	eeb0 0a67 	vmov.f32	s0, s15
 8014fe6:	bd10      	pop	{r4, pc}
 8014fe8:	f1b2 5f7e 	cmp.w	r2, #1065353216	@ 0x3f800000
 8014fec:	d103      	bne.n	8014ff6 <__ieee754_atan2f+0x3a>
 8014fee:	e8bd 4010 	ldmia.w	sp!, {r4, lr}
 8014ff2:	f000 b883 	b.w	80150fc <atanf>
 8014ff6:	1794      	asrs	r4, r2, #30
 8014ff8:	f004 0402 	and.w	r4, r4, #2
 8014ffc:	ea44 74d0 	orr.w	r4, r4, r0, lsr #31
 8015000:	b943      	cbnz	r3, 8015014 <__ieee754_atan2f+0x58>
 8015002:	2c02      	cmp	r4, #2
 8015004:	d05e      	beq.n	80150c4 <__ieee754_atan2f+0x108>
 8015006:	ed9f 7a34 	vldr	s14, [pc, #208]	@ 80150d8 <__ieee754_atan2f+0x11c>
 801500a:	2c03      	cmp	r4, #3
 801500c:	bf08      	it	eq
 801500e:	eef0 7a47 	vmoveq.f32	s15, s14
 8015012:	e7e6      	b.n	8014fe2 <__ieee754_atan2f+0x26>
 8015014:	b941      	cbnz	r1, 8015028 <__ieee754_atan2f+0x6c>
 8015016:	eddf 7a31 	vldr	s15, [pc, #196]	@ 80150dc <__ieee754_atan2f+0x120>
 801501a:	ed9f 7a31 	vldr	s14, [pc, #196]	@ 80150e0 <__ieee754_atan2f+0x124>
 801501e:	2800      	cmp	r0, #0
 8015020:	bfb8      	it	lt
 8015022:	eef0 7a47 	vmovlt.f32	s15, s14
 8015026:	e7dc      	b.n	8014fe2 <__ieee754_atan2f+0x26>
 8015028:	f1b1 4fff 	cmp.w	r1, #2139095040	@ 0x7f800000
 801502c:	d110      	bne.n	8015050 <__ieee754_atan2f+0x94>
 801502e:	f1b3 4fff 	cmp.w	r3, #2139095040	@ 0x7f800000
 8015032:	f104 34ff 	add.w	r4, r4, #4294967295
 8015036:	d107      	bne.n	8015048 <__ieee754_atan2f+0x8c>
 8015038:	2c02      	cmp	r4, #2
 801503a:	d846      	bhi.n	80150ca <__ieee754_atan2f+0x10e>
 801503c:	4b29      	ldr	r3, [pc, #164]	@ (80150e4 <__ieee754_atan2f+0x128>)
 801503e:	eb03 0384 	add.w	r3, r3, r4, lsl #2
 8015042:	edd3 7a00 	vldr	s15, [r3]
 8015046:	e7cc      	b.n	8014fe2 <__ieee754_atan2f+0x26>
 8015048:	2c02      	cmp	r4, #2
 801504a:	d841      	bhi.n	80150d0 <__ieee754_atan2f+0x114>
 801504c:	4b26      	ldr	r3, [pc, #152]	@ (80150e8 <__ieee754_atan2f+0x12c>)
 801504e:	e7f6      	b.n	801503e <__ieee754_atan2f+0x82>
 8015050:	f1b3 4fff 	cmp.w	r3, #2139095040	@ 0x7f800000
 8015054:	d0df      	beq.n	8015016 <__ieee754_atan2f+0x5a>
 8015056:	1a5b      	subs	r3, r3, r1
 8015058:	f1b3 5ff4 	cmp.w	r3, #511705088	@ 0x1e800000
 801505c:	ea4f 51e3 	mov.w	r1, r3, asr #23
 8015060:	da1a      	bge.n	8015098 <__ieee754_atan2f+0xdc>
 8015062:	2a00      	cmp	r2, #0
 8015064:	da01      	bge.n	801506a <__ieee754_atan2f+0xae>
 8015066:	313c      	adds	r1, #60	@ 0x3c
 8015068:	db19      	blt.n	801509e <__ieee754_atan2f+0xe2>
 801506a:	ee87 0aa0 	vdiv.f32	s0, s15, s1
 801506e:	f000 f919 	bl	80152a4 <fabsf>
 8015072:	f000 f843 	bl	80150fc <atanf>
 8015076:	eef0 7a40 	vmov.f32	s15, s0
 801507a:	2c01      	cmp	r4, #1
 801507c:	d012      	beq.n	80150a4 <__ieee754_atan2f+0xe8>
 801507e:	2c02      	cmp	r4, #2
 8015080:	d017      	beq.n	80150b2 <__ieee754_atan2f+0xf6>
 8015082:	2c00      	cmp	r4, #0
 8015084:	d0ad      	beq.n	8014fe2 <__ieee754_atan2f+0x26>
 8015086:	ed9f 7a19 	vldr	s14, [pc, #100]	@ 80150ec <__ieee754_atan2f+0x130>
 801508a:	ee77 7a87 	vadd.f32	s15, s15, s14
 801508e:	ed9f 7a18 	vldr	s14, [pc, #96]	@ 80150f0 <__ieee754_atan2f+0x134>
 8015092:	ee77 7ac7 	vsub.f32	s15, s15, s14
 8015096:	e7a4      	b.n	8014fe2 <__ieee754_atan2f+0x26>
 8015098:	eddf 7a10 	vldr	s15, [pc, #64]	@ 80150dc <__ieee754_atan2f+0x120>
 801509c:	e7ed      	b.n	801507a <__ieee754_atan2f+0xbe>
 801509e:	eddf 7a15 	vldr	s15, [pc, #84]	@ 80150f4 <__ieee754_atan2f+0x138>
 80150a2:	e7ea      	b.n	801507a <__ieee754_atan2f+0xbe>
 80150a4:	ee17 3a90 	vmov	r3, s15
 80150a8:	f103 4300 	add.w	r3, r3, #2147483648	@ 0x80000000
 80150ac:	ee07 3a90 	vmov	s15, r3
 80150b0:	e797      	b.n	8014fe2 <__ieee754_atan2f+0x26>
 80150b2:	ed9f 7a0e 	vldr	s14, [pc, #56]	@ 80150ec <__ieee754_atan2f+0x130>
 80150b6:	ee77 7a87 	vadd.f32	s15, s15, s14
 80150ba:	ed9f 7a0d 	vldr	s14, [pc, #52]	@ 80150f0 <__ieee754_atan2f+0x134>
 80150be:	ee77 7a67 	vsub.f32	s15, s14, s15
 80150c2:	e78e      	b.n	8014fe2 <__ieee754_atan2f+0x26>
 80150c4:	eddf 7a0a 	vldr	s15, [pc, #40]	@ 80150f0 <__ieee754_atan2f+0x134>
 80150c8:	e78b      	b.n	8014fe2 <__ieee754_atan2f+0x26>
 80150ca:	eddf 7a0b 	vldr	s15, [pc, #44]	@ 80150f8 <__ieee754_atan2f+0x13c>
 80150ce:	e788      	b.n	8014fe2 <__ieee754_atan2f+0x26>
 80150d0:	eddf 7a08 	vldr	s15, [pc, #32]	@ 80150f4 <__ieee754_atan2f+0x138>
 80150d4:	e785      	b.n	8014fe2 <__ieee754_atan2f+0x26>
 80150d6:	bf00      	nop
 80150d8:	c0490fdb 	.word	0xc0490fdb
 80150dc:	3fc90fdb 	.word	0x3fc90fdb
 80150e0:	bfc90fdb 	.word	0xbfc90fdb
 80150e4:	0801550c 	.word	0x0801550c
 80150e8:	08015500 	.word	0x08015500
 80150ec:	33bbbd2e 	.word	0x33bbbd2e
 80150f0:	40490fdb 	.word	0x40490fdb
 80150f4:	00000000 	.word	0x00000000
 80150f8:	3f490fdb 	.word	0x3f490fdb

080150fc <atanf>:
 80150fc:	b538      	push	{r3, r4, r5, lr}
 80150fe:	ee10 5a10 	vmov	r5, s0
 8015102:	f025 4400 	bic.w	r4, r5, #2147483648	@ 0x80000000
 8015106:	f1b4 4fa1 	cmp.w	r4, #1350565888	@ 0x50800000
 801510a:	eef0 7a40 	vmov.f32	s15, s0
 801510e:	d310      	bcc.n	8015132 <atanf+0x36>
 8015110:	f1b4 4fff 	cmp.w	r4, #2139095040	@ 0x7f800000
 8015114:	d904      	bls.n	8015120 <atanf+0x24>
 8015116:	ee70 7a00 	vadd.f32	s15, s0, s0
 801511a:	eeb0 0a67 	vmov.f32	s0, s15
 801511e:	bd38      	pop	{r3, r4, r5, pc}
 8015120:	eddf 7a4d 	vldr	s15, [pc, #308]	@ 8015258 <atanf+0x15c>
 8015124:	ed9f 7a4d 	vldr	s14, [pc, #308]	@ 801525c <atanf+0x160>
 8015128:	2d00      	cmp	r5, #0
 801512a:	bfc8      	it	gt
 801512c:	eef0 7a47 	vmovgt.f32	s15, s14
 8015130:	e7f3      	b.n	801511a <atanf+0x1e>
 8015132:	4b4b      	ldr	r3, [pc, #300]	@ (8015260 <atanf+0x164>)
 8015134:	429c      	cmp	r4, r3
 8015136:	d810      	bhi.n	801515a <atanf+0x5e>
 8015138:	f1b4 5f44 	cmp.w	r4, #822083584	@ 0x31000000
 801513c:	d20a      	bcs.n	8015154 <atanf+0x58>
 801513e:	ed9f 7a49 	vldr	s14, [pc, #292]	@ 8015264 <atanf+0x168>
 8015142:	ee30 7a07 	vadd.f32	s14, s0, s14
 8015146:	eef7 6a00 	vmov.f32	s13, #112	@ 0x3f800000  1.0
 801514a:	eeb4 7ae6 	vcmpe.f32	s14, s13
 801514e:	eef1 fa10 	vmrs	APSR_nzcv, fpscr
 8015152:	dce2      	bgt.n	801511a <atanf+0x1e>
 8015154:	f04f 33ff 	mov.w	r3, #4294967295
 8015158:	e013      	b.n	8015182 <atanf+0x86>
 801515a:	f000 f8a3 	bl	80152a4 <fabsf>
 801515e:	4b42      	ldr	r3, [pc, #264]	@ (8015268 <atanf+0x16c>)
 8015160:	429c      	cmp	r4, r3
 8015162:	d84f      	bhi.n	8015204 <atanf+0x108>
 8015164:	f5a3 03d0 	sub.w	r3, r3, #6815744	@ 0x680000
 8015168:	429c      	cmp	r4, r3
 801516a:	d841      	bhi.n	80151f0 <atanf+0xf4>
 801516c:	eef0 7a00 	vmov.f32	s15, #0	@ 0x40000000  2.0
 8015170:	eebf 7a00 	vmov.f32	s14, #240	@ 0xbf800000 -1.0
 8015174:	eea0 7a27 	vfma.f32	s14, s0, s15
 8015178:	2300      	movs	r3, #0
 801517a:	ee30 0a27 	vadd.f32	s0, s0, s15
 801517e:	eec7 7a00 	vdiv.f32	s15, s14, s0
 8015182:	1c5a      	adds	r2, r3, #1
 8015184:	ee27 6aa7 	vmul.f32	s12, s15, s15
 8015188:	ed9f 7a38 	vldr	s14, [pc, #224]	@ 801526c <atanf+0x170>
 801518c:	eddf 5a38 	vldr	s11, [pc, #224]	@ 8015270 <atanf+0x174>
 8015190:	ed9f 5a38 	vldr	s10, [pc, #224]	@ 8015274 <atanf+0x178>
 8015194:	ee66 6a06 	vmul.f32	s13, s12, s12
 8015198:	eee6 5a87 	vfma.f32	s11, s13, s14
 801519c:	ed9f 7a36 	vldr	s14, [pc, #216]	@ 8015278 <atanf+0x17c>
 80151a0:	eea5 7aa6 	vfma.f32	s14, s11, s13
 80151a4:	eddf 5a35 	vldr	s11, [pc, #212]	@ 801527c <atanf+0x180>
 80151a8:	eee7 5a26 	vfma.f32	s11, s14, s13
 80151ac:	ed9f 7a34 	vldr	s14, [pc, #208]	@ 8015280 <atanf+0x184>
 80151b0:	eea5 7aa6 	vfma.f32	s14, s11, s13
 80151b4:	eddf 5a33 	vldr	s11, [pc, #204]	@ 8015284 <atanf+0x188>
 80151b8:	eee7 5a26 	vfma.f32	s11, s14, s13
 80151bc:	ed9f 7a32 	vldr	s14, [pc, #200]	@ 8015288 <atanf+0x18c>
 80151c0:	eea6 5a87 	vfma.f32	s10, s13, s14
 80151c4:	ed9f 7a31 	vldr	s14, [pc, #196]	@ 801528c <atanf+0x190>
 80151c8:	eea5 7a26 	vfma.f32	s14, s10, s13
 80151cc:	ed9f 5a30 	vldr	s10, [pc, #192]	@ 8015290 <atanf+0x194>
 80151d0:	eea7 5a26 	vfma.f32	s10, s14, s13
 80151d4:	ed9f 7a2f 	vldr	s14, [pc, #188]	@ 8015294 <atanf+0x198>
 80151d8:	eea5 7a26 	vfma.f32	s14, s10, s13
 80151dc:	ee27 7a26 	vmul.f32	s14, s14, s13
 80151e0:	eea5 7a86 	vfma.f32	s14, s11, s12
 80151e4:	ee27 7a87 	vmul.f32	s14, s15, s14
 80151e8:	d121      	bne.n	801522e <atanf+0x132>
 80151ea:	ee77 7ac7 	vsub.f32	s15, s15, s14
 80151ee:	e794      	b.n	801511a <atanf+0x1e>
 80151f0:	eef7 7a00 	vmov.f32	s15, #112	@ 0x3f800000  1.0
 80151f4:	ee30 7a67 	vsub.f32	s14, s0, s15
 80151f8:	ee30 0a27 	vadd.f32	s0, s0, s15
 80151fc:	2301      	movs	r3, #1
 80151fe:	eec7 7a00 	vdiv.f32	s15, s14, s0
 8015202:	e7be      	b.n	8015182 <atanf+0x86>
 8015204:	4b24      	ldr	r3, [pc, #144]	@ (8015298 <atanf+0x19c>)
 8015206:	429c      	cmp	r4, r3
 8015208:	d80b      	bhi.n	8015222 <atanf+0x126>
 801520a:	eef7 7a08 	vmov.f32	s15, #120	@ 0x3fc00000  1.5
 801520e:	eeb7 7a00 	vmov.f32	s14, #112	@ 0x3f800000  1.0
 8015212:	eea0 7a27 	vfma.f32	s14, s0, s15
 8015216:	2302      	movs	r3, #2
 8015218:	ee70 6a67 	vsub.f32	s13, s0, s15
 801521c:	eec6 7a87 	vdiv.f32	s15, s13, s14
 8015220:	e7af      	b.n	8015182 <atanf+0x86>
 8015222:	eebf 7a00 	vmov.f32	s14, #240	@ 0xbf800000 -1.0
 8015226:	eec7 7a00 	vdiv.f32	s15, s14, s0
 801522a:	2303      	movs	r3, #3
 801522c:	e7a9      	b.n	8015182 <atanf+0x86>
 801522e:	4a1b      	ldr	r2, [pc, #108]	@ (801529c <atanf+0x1a0>)
 8015230:	491b      	ldr	r1, [pc, #108]	@ (80152a0 <atanf+0x1a4>)
 8015232:	eb02 0283 	add.w	r2, r2, r3, lsl #2
 8015236:	eb01 0383 	add.w	r3, r1, r3, lsl #2
 801523a:	edd3 6a00 	vldr	s13, [r3]
 801523e:	ee37 7a66 	vsub.f32	s14, s14, s13
 8015242:	2d00      	cmp	r5, #0
 8015244:	ee37 7a67 	vsub.f32	s14, s14, s15
 8015248:	edd2 7a00 	vldr	s15, [r2]
 801524c:	ee77 7ac7 	vsub.f32	s15, s15, s14
 8015250:	bfb8      	it	lt
 8015252:	eef1 7a67 	vneglt.f32	s15, s15
 8015256:	e760      	b.n	801511a <atanf+0x1e>
 8015258:	bfc90fdb 	.word	0xbfc90fdb
 801525c:	3fc90fdb 	.word	0x3fc90fdb
 8015260:	3edfffff 	.word	0x3edfffff
 8015264:	7149f2ca 	.word	0x7149f2ca
 8015268:	3f97ffff 	.word	0x3f97ffff
 801526c:	3c8569d7 	.word	0x3c8569d7
 8015270:	3d4bda59 	.word	0x3d4bda59
 8015274:	bd6ef16b 	.word	0xbd6ef16b
 8015278:	3d886b35 	.word	0x3d886b35
 801527c:	3dba2e6e 	.word	0x3dba2e6e
 8015280:	3e124925 	.word	0x3e124925
 8015284:	3eaaaaab 	.word	0x3eaaaaab
 8015288:	bd15a221 	.word	0xbd15a221
 801528c:	bd9d8795 	.word	0xbd9d8795
 8015290:	bde38e38 	.word	0xbde38e38
 8015294:	be4ccccd 	.word	0xbe4ccccd
 8015298:	401bffff 	.word	0x401bffff
 801529c:	08015528 	.word	0x08015528
 80152a0:	08015518 	.word	0x08015518

080152a4 <fabsf>:
 80152a4:	ee10 3a10 	vmov	r3, s0
 80152a8:	f023 4300 	bic.w	r3, r3, #2147483648	@ 0x80000000
 80152ac:	ee00 3a10 	vmov	s0, r3
 80152b0:	4770      	bx	lr
	...

080152b4 <_init>:
 80152b4:	b5f8      	push	{r3, r4, r5, r6, r7, lr}
 80152b6:	bf00      	nop
 80152b8:	bcf8      	pop	{r3, r4, r5, r6, r7}
 80152ba:	bc08      	pop	{r3}
 80152bc:	469e      	mov	lr, r3
 80152be:	4770      	bx	lr

080152c0 <_fini>:
 80152c0:	b5f8      	push	{r3, r4, r5, r6, r7, lr}
 80152c2:	bf00      	nop
 80152c4:	bcf8      	pop	{r3, r4, r5, r6, r7}
 80152c6:	bc08      	pop	{r3}
 80152c8:	469e      	mov	lr, r3
 80152ca:	4770      	bx	lr
